target datalayout = "e-m:e-p270:32:32-p271:32:32-p272:64:64-i64:64-i128:128-f80:128-n8:16:32:64-S128"
target triple = "x86_64-pc-linux-gnu"

%"class.std::ios_base::Init" = type { i8 }
%"class.std::basic_ostream" = type { ptr, %"class.std::basic_ios" }
%"class.std::basic_ios" = type { %"class.std::ios_base", ptr, i8, i8, ptr, ptr, ptr, ptr }
%"class.std::ios_base" = type { ptr, i64, i64, i32, i32, i32, ptr, %"struct.std::ios_base::_Words", [8 x %"struct.std::ios_base::_Words"], i32, ptr, %"class.std::locale" }
%"struct.std::ios_base::_Words" = type { ptr, i64 }
%"class.std::locale" = type { ptr }
%"struct.std::piecewise_construct_t" = type { i8 }
%"struct.std::array.59" = type { [6 x i32] }
%"struct.acd::ac_decomposition_params" = type <{ i32, i32, i8, i8, i8, i8 }>
%"struct.acd::ac_decomposition_stats" = type { i32, i32, i32 }
%"class.acd::ac_decomposition_impl" = type <{ i32, i32, %"struct.kitty::static_truth_table", %"class.std::vector", %"class.std::vector", %"class.std::vector", %"class.std::vector.0", %"class.std::vector.0", %"class.std::vector.5", %"class.std::vector.10", i32, %"struct.acd::ac_decomposition_params", ptr, %"struct.std::array.15", [4 x i8] }>
%"struct.kitty::static_truth_table" = type { %"struct.std::array" }
%"struct.std::array" = type { [32 x i64] }
%"class.std::vector" = type { %"struct.std::_Vector_base" }
%"struct.std::_Vector_base" = type { %"struct.std::_Vector_base<kitty::static_truth_table<11>, std::allocator<kitty::static_truth_table<11>>>::_Vector_impl" }
%"struct.std::_Vector_base<kitty::static_truth_table<11>, std::allocator<kitty::static_truth_table<11>>>::_Vector_impl" = type { %"struct.std::_Vector_base<kitty::static_truth_table<11>, std::allocator<kitty::static_truth_table<11>>>::_Vector_impl_data" }
%"struct.std::_Vector_base<kitty::static_truth_table<11>, std::allocator<kitty::static_truth_table<11>>>::_Vector_impl_data" = type { ptr, ptr, ptr }
%"class.std::vector.0" = type { %"struct.std::_Vector_base.1" }
%"struct.std::_Vector_base.1" = type { %"struct.std::_Vector_base<unsigned long, std::allocator<unsigned long>>::_Vector_impl" }
%"struct.std::_Vector_base<unsigned long, std::allocator<unsigned long>>::_Vector_impl" = type { %"struct.std::_Vector_base<unsigned long, std::allocator<unsigned long>>::_Vector_impl_data" }
%"struct.std::_Vector_base<unsigned long, std::allocator<unsigned long>>::_Vector_impl_data" = type { ptr, ptr, ptr }
%"class.std::vector.5" = type { %"struct.std::_Vector_base.6" }
%"struct.std::_Vector_base.6" = type { %"struct.std::_Vector_base<acd::ac_decomposition_result, std::allocator<acd::ac_decomposition_result>>::_Vector_impl" }
%"struct.std::_Vector_base<acd::ac_decomposition_result, std::allocator<acd::ac_decomposition_result>>::_Vector_impl" = type { %"struct.std::_Vector_base<acd::ac_decomposition_result, std::allocator<acd::ac_decomposition_result>>::_Vector_impl_data" }
%"struct.std::_Vector_base<acd::ac_decomposition_result, std::allocator<acd::ac_decomposition_result>>::_Vector_impl_data" = type { ptr, ptr, ptr }
%"class.std::vector.10" = type { %"struct.std::_Vector_base.11" }
%"struct.std::_Vector_base.11" = type { %"struct.std::_Vector_base<std::array<unsigned int, 2>, std::allocator<std::array<unsigned int, 2>>>::_Vector_impl" }
%"struct.std::_Vector_base<std::array<unsigned int, 2>, std::allocator<std::array<unsigned int, 2>>>::_Vector_impl" = type { %"struct.std::_Vector_base<std::array<unsigned int, 2>, std::allocator<std::array<unsigned int, 2>>>::_Vector_impl_data" }
%"struct.std::_Vector_base<std::array<unsigned int, 2>, std::allocator<std::array<unsigned int, 2>>>::_Vector_impl_data" = type { ptr, ptr, ptr }
%"struct.std::array.15" = type { [11 x i32] }
%"struct.acd::acdXX_params" = type <{ i32, i32, i32, i8, [3 x i8] }>
%"class.acd::acdXX_impl" = type { i32, i32, i32, i32, %"struct.kitty::static_truth_table", %"struct.kitty::static_truth_table", [2 x i64], [6 x i32], i32, %"struct.acd::acdXX_params", %"struct.std::array.15" }
%"class.acd::acd66_impl" = type <{ i32, i32, i32, i32, %"struct.kitty::static_truth_table", %"struct.kitty::static_truth_table", [2 x i64], [6 x i32], i32, i8, i8, [2 x i8], %"struct.std::array.15", [4 x i8] }>
%"class.std::function" = type { %"class.std::_Function_base", ptr }
%"class.std::_Function_base" = type { %"union.std::_Any_data", ptr }
%"union.std::_Any_data" = type { %"union.std::_Nocopy_types" }
%"union.std::_Nocopy_types" = type { { i64, i64 } }
%class.anon.16 = type { ptr }
%class.anon.17 = type { ptr }
%class.anon.18 = type { ptr }
%class.anon.19 = type { ptr }
%class.anon.20 = type { ptr }
%"class.std::tuple" = type { %"struct.std::_Tuple_impl" }
%"struct.std::_Tuple_impl" = type { %"struct.std::_Tuple_impl.21", %"struct.std::_Head_base.24" }
%"struct.std::_Tuple_impl.21" = type { %"struct.std::_Tuple_impl.22", %"struct.std::_Head_base.23" }
%"struct.std::_Tuple_impl.22" = type { %"struct.std::_Head_base" }
%"struct.std::_Head_base" = type { i32 }
%"struct.std::_Head_base.23" = type { %"struct.std::array.15" }
%"struct.std::_Head_base.24" = type { %"struct.kitty::static_truth_table" }
%class.anon = type { i32, ptr }
%"struct.std::array.25" = type { [64 x i32] }
%"struct.__gnu_cxx::__ops::_Iter_less_iter" = type { i8 }
%"struct.__gnu_cxx::__ops::_Iter_less_val" = type { i8 }
%"struct.__gnu_cxx::__ops::_Val_less_iter" = type { i8 }
%"struct.acd::ac_decomposition_result" = type { %"struct.kitty::dynamic_truth_table", %"class.std::vector.26" }
%"struct.kitty::dynamic_truth_table" = type <{ %"class.std::vector.0", i32, [4 x i8] }>
%"class.std::vector.26" = type { %"struct.std::_Vector_base.27" }
%"struct.std::_Vector_base.27" = type { %"struct.std::_Vector_base<unsigned int, std::allocator<unsigned int>>::_Vector_impl" }
%"struct.std::_Vector_base<unsigned int, std::allocator<unsigned int>>::_Vector_impl" = type { %"struct.std::_Vector_base<unsigned int, std::allocator<unsigned int>>::_Vector_impl_data" }
%"struct.std::_Vector_base<unsigned int, std::allocator<unsigned int>>::_Vector_impl_data" = type { ptr, ptr, ptr }
%"class.std::allocator" = type { i8 }
%"class.std::unordered_map" = type { %"class.std::_Hashtable" }
%"class.std::_Hashtable" = type { ptr, i64, %"struct.std::__detail::_Hash_node_base", i64, %"struct.std::__detail::_Prime_rehash_policy", ptr }
%"struct.std::__detail::_Hash_node_base" = type { ptr }
%"struct.std::__detail::_Prime_rehash_policy" = type { float, i64 }
%"struct.std::__detail::_Node_iterator" = type { %"struct.std::__detail::_Node_iterator_base" }
%"struct.std::__detail::_Node_iterator_base" = type { ptr }
%"class.__gnu_cxx::__normal_iterator" = type { ptr }
%"struct.std::pair" = type <{ i64, i32, [4 x i8] }>
%"class.std::allocator.12" = type { i8 }
%"class.std::vector.54" = type { %"struct.std::_Vector_base.55" }
%"struct.std::_Vector_base.55" = type { %"struct.std::_Vector_base<acd::ac_decomposition_impl::encoding_column, std::allocator<acd::ac_decomposition_impl::encoding_column>>::_Vector_impl" }
%"struct.std::_Vector_base<acd::ac_decomposition_impl::encoding_column, std::allocator<acd::ac_decomposition_impl::encoding_column>>::_Vector_impl" = type { %"struct.std::_Vector_base<acd::ac_decomposition_impl::encoding_column, std::allocator<acd::ac_decomposition_impl::encoding_column>>::_Vector_impl_data" }
%"struct.std::_Vector_base<acd::ac_decomposition_impl::encoding_column, std::allocator<acd::ac_decomposition_impl::encoding_column>>::_Vector_impl_data" = type { ptr, ptr, ptr }
%"struct.acd::ac_decomposition_impl::encoding_column" = type { [2 x i64], i32, i32, float }
%class.anon.46 = type { ptr, i64 }
%"struct.std::__detail::_Select1st" = type { i8 }
%"struct.std::__detail::_Hash_node_value_base" = type { %"struct.__gnu_cxx::__aligned_buffer" }
%"struct.__gnu_cxx::__aligned_buffer" = type { %"union.std::aligned_storage<16, 8>::type" }
%"union.std::aligned_storage<16, 8>::type" = type { [16 x i8] }
%"struct.std::__detail::_Mod_range_hashing" = type { i8 }
%"struct.std::_Hashtable<unsigned long, std::pair<const unsigned long, unsigned int>, std::allocator<std::pair<const unsigned long, unsigned int>>, std::__detail::_Select1st, std::equal_to<unsigned long>, std::hash<unsigned long>, std::__detail::_Mod_range_hashing, std::__detail::_Default_ranged_hash, std::__detail::_Prime_rehash_policy, std::__detail::_Hashtable_traits<false, false, true>>::_Scoped_node" = type { ptr, ptr }
%"class.std::tuple.36" = type { %"struct.std::_Tuple_impl.37" }
%"struct.std::_Tuple_impl.37" = type { %"struct.std::_Head_base.38" }
%"struct.std::_Head_base.38" = type { ptr }
%"class.std::tuple.39" = type { i8 }
%"struct.std::pair.41" = type { i8, i64 }
%"class.std::allocator.43" = type { i8 }
%"class.std::reverse_iterator" = type { ptr }
%"class.std::__cxx11::basic_string" = type { %"struct.std::__cxx11::basic_string<char>::_Alloc_hider", i64, %union.anon }
%"struct.std::__cxx11::basic_string<char>::_Alloc_hider" = type { ptr }
%union.anon = type { i64, [8 x i8] }
%"class.std::allocator.47" = type { i8 }
%"class.std::reverse_iterator.50" = type { %"class.__gnu_cxx::__normal_iterator.52" }
%"class.__gnu_cxx::__normal_iterator.52" = type { ptr }
%"struct.std::array.53" = type { [2 x i32] }
%"class.__gnu_cxx::__normal_iterator.60" = type { ptr }
%"struct.__gnu_cxx::__ops::_Iter_comp_iter" = type { i8 }
%"struct.__gnu_cxx::__ops::_Iter_comp_val" = type { i8 }
%"struct.__gnu_cxx::__ops::_Val_comp_iter" = type { i8 }
%"class.__gnu_cxx::__normal_iterator.62" = type { ptr }
%"struct.__gnu_cxx::__ops::_Iter_comp_iter.65" = type { i8 }
%"struct.__gnu_cxx::__ops::_Iter_comp_val.66" = type { i8 }
%"struct.__gnu_cxx::__ops::_Val_comp_iter.67" = type { i8 }
%"class.__gnu_cxx::__normal_iterator.70" = type { ptr }
%"class.__gnu_cxx::__normal_iterator.72" = type { ptr }
%class.anon.68 = type { i32, ptr }
%"class.__gnu_cxx::__normal_iterator.69" = type { ptr }
%"class.std::vector.73" = type { %"struct.std::_Vector_base.74" }
%"struct.std::_Vector_base.74" = type { %"struct.std::_Vector_base<kitty::dynamic_truth_table, std::allocator<kitty::dynamic_truth_table>>::_Vector_impl" }
%"struct.std::_Vector_base<kitty::dynamic_truth_table, std::allocator<kitty::dynamic_truth_table>>::_Vector_impl" = type { %"struct.std::_Vector_base<kitty::dynamic_truth_table, std::allocator<kitty::dynamic_truth_table>>::_Vector_impl_data" }
%"struct.std::_Vector_base<kitty::dynamic_truth_table, std::allocator<kitty::dynamic_truth_table>>::_Vector_impl_data" = type { ptr, ptr, ptr }
%"class.__gnu_cxx::__normal_iterator.78" = type { ptr }
%"class.std::allocator.2" = type { i8 }
%"class.std::allocator.28" = type { i8 }
%"class.__gnu_cxx::__normal_iterator.71" = type { ptr }
%"class.__gnu_cxx::__normal_iterator.79" = type { ptr }
%class.anon.80 = type { i8 }
%"struct.std::bit_and" = type { i8 }
%"struct.std::bit_or" = type { i8 }
%class.anon.83 = type { i32, ptr }
%"struct.kitty::static_truth_table.84" = type { i64 }
%class.anon.85 = type { ptr, i64 }
%class.anon.86 = type { ptr, i64 }
%"class.std::reverse_iterator.87" = type { %"class.__gnu_cxx::__normal_iterator.71" }
%class.anon.88 = type { i32, ptr }

$_ZN3acd23ac_decomposition_paramsC2Ev = comdat any

$_ZN3acd22ac_decomposition_statsC2Ev = comdat any

$_ZN3acd21ac_decomposition_implC2EjRKNS_23ac_decomposition_paramsEPNS_22ac_decomposition_statsE = comdat any

$_ZN3acd21ac_decomposition_impl3runEPmj = comdat any

$_ZN3acd21ac_decomposition_impl11get_profileEv = comdat any

$_ZN3acd21ac_decomposition_implD2Ev = comdat any

$_ZN3acd21ac_decomposition_impl21compute_decompositionEv = comdat any

$_ZN3acd21ac_decomposition_impl17get_decompositionEPh = comdat any

$_ZN3acd12acdXX_paramsC2Ev = comdat any

$_ZN3acd10acdXX_implC2EjRKNS_12acdXX_paramsE = comdat any

$_ZN3acd10acdXX_impl3runEPmj = comdat any

$_ZN3acd10acdXX_impl21compute_decompositionEv = comdat any

$_ZN3acd10acdXX_impl11get_profileEv = comdat any

$_ZN3acd10acdXX_impl17get_decompositionEPh = comdat any

$_Z14acd66_evaluatePmj = comdat any

$_ZN3acd10acdXX_impl3runEPm = comdat any

$_ZN5kitty18static_truth_tableILj11ELb0EEC2Ev = comdat any

$_ZNSt6vectorIN5kitty18static_truth_tableILj11ELb0EEESaIS2_EEC2Ev = comdat any

$_ZNSt6vectorImSaImEEC2Ev = comdat any

$_ZNSt6vectorIN3acd23ac_decomposition_resultESaIS1_EEC2Ev = comdat any

$_ZNSt6vectorISt5arrayIjLm2EESaIS1_EEC2Ev = comdat any

$_ZSt4iotaIPjiEvT_S1_T0_ = comdat any

$_ZNSt5arrayIjLm11EE5beginEv = comdat any

$_ZNSt5arrayIjLm11EE3endEv = comdat any

$_ZNSt5arrayImLm32EE4fillERKm = comdat any

$_ZSt6fill_nIPmmmET_S1_T0_RKT1_ = comdat any

$_ZNSt5arrayImLm32EE5beginEv = comdat any

$_ZNKSt5arrayImLm32EE4sizeEv = comdat any

$_ZSt10__fill_n_aIPmmmET_S1_T0_RKT1_St26random_access_iterator_tag = comdat any

$_ZSt17__size_to_integerm = comdat any

$_ZSt19__iterator_categoryIPmENSt15iterator_traitsIT_E17iterator_categoryERKS2_ = comdat any

$_ZSt8__fill_aIPmmEvT_S1_RKT0_ = comdat any

$_ZSt9__fill_a1IPmmEN9__gnu_cxx11__enable_ifIXsr11__is_scalarIT0_EE7__valueEvE6__typeET_S6_RKS3_ = comdat any

$_ZNSt5arrayImLm32EE4dataEv = comdat any

$_ZNSt14__array_traitsImLm32EE6_S_ptrERA32_Km = comdat any

$_ZNSt12_Vector_baseIN5kitty18static_truth_tableILj11ELb0EEESaIS2_EEC2Ev = comdat any

$_ZNSt12_Vector_baseIN5kitty18static_truth_tableILj11ELb0EEESaIS2_EE12_Vector_implC2Ev = comdat any

$_ZNSt15__new_allocatorIN5kitty18static_truth_tableILj11ELb0EEEEC2Ev = comdat any

$_ZNSt12_Vector_baseImSaImEEC2Ev = comdat any

$_ZNSt12_Vector_baseImSaImEE12_Vector_implC2Ev = comdat any

$_ZNSt15__new_allocatorImEC2Ev = comdat any

$_ZNSt12_Vector_baseIN3acd23ac_decomposition_resultESaIS1_EEC2Ev = comdat any

$_ZNSt12_Vector_baseIN3acd23ac_decomposition_resultESaIS1_EE12_Vector_implC2Ev = comdat any

$_ZNSaIN3acd23ac_decomposition_resultEEC2Ev = comdat any

$_ZNSt12_Vector_baseIN3acd23ac_decomposition_resultESaIS1_EE17_Vector_impl_dataC2Ev = comdat any

$_ZNSt15__new_allocatorIN3acd23ac_decomposition_resultEEC2Ev = comdat any

$_ZNSt12_Vector_baseISt5arrayIjLm2EESaIS1_EEC2Ev = comdat any

$_ZNSt12_Vector_baseISt5arrayIjLm2EESaIS1_EE12_Vector_implC2Ev = comdat any

$_ZNSt15__new_allocatorISt5arrayIjLm2EEEC2Ev = comdat any

$_ZNSt5arrayIjLm11EE4dataEv = comdat any

$_ZNSt14__array_traitsIjLm11EE6_S_ptrERA11_Kj = comdat any

$_ZN3acd21ac_decomposition_impl16init_truth_tableEPm = comdat any

$_ZN3acd21ac_decomposition_impl34reposition_late_arriving_variablesEjj = comdat any

$_ZN3acd21ac_decomposition_impl18find_decompositionERjj = comdat any

$_ZNSt5arrayImLm32EEixEm = comdat any

$_ZNSt14__array_traitsImLm32EE6_S_refERA32_Kmm = comdat any

$_ZNSt5arrayIjLm11EEixEm = comdat any

$_ZSt4swapIjENSt9enable_ifIXsr6__and_ISt6__not_ISt15__is_tuple_likeIT_EESt21is_move_constructibleIS3_ESt18is_move_assignableIS3_EEE5valueEvE4typeERS3_SC_ = comdat any

$_ZN3acd21ac_decomposition_impl18swap_inplace_localERN5kitty18static_truth_tableILj11ELb0EEEhh = comdat any

$_ZNSt14__array_traitsIjLm11EE6_S_refERA11_Kjm = comdat any

$_ZSt4swapIhENSt9enable_ifIXsr6__and_ISt6__not_ISt15__is_tuple_likeIT_EESt21is_move_constructibleIS3_ESt18is_move_assignableIS3_EEE5valueEvE4typeERS3_SC_ = comdat any

$_ZSt9transformIPmS0_ZN3acd21ac_decomposition_impl18swap_inplace_localERN5kitty18static_truth_tableILj11ELb0EEEhhEUlmE_ET0_T_S9_S8_T1_ = comdat any

$_ZSt5beginISt5arrayImLm32EEEDTcldtfp_5beginEERT_ = comdat any

$_ZSt4swapImENSt9enable_ifIXsr6__and_ISt6__not_ISt15__is_tuple_likeIT_EESt21is_move_constructibleIS3_ESt18is_move_assignableIS3_EEE5valueEvE4typeERS3_SC_ = comdat any

$_ZZN3acd21ac_decomposition_impl18swap_inplace_localERN5kitty18static_truth_tableILj11ELb0EEEhhENKUlmE_clEm = comdat any

$_ZSt3maxIjERKT_S2_S2_ = comdat any

$_ZNSt8functionIFjRKN5kitty18static_truth_tableILj11ELb0EEEEEC2IZN3acd21ac_decomposition_impl18find_decompositionERjjEUlS4_E_vEEOT_ = comdat any

$_ZNSt8functionIFjRKN5kitty18static_truth_tableILj11ELb0EEEEEC2IZN3acd21ac_decomposition_impl18find_decompositionERjjEUlS4_E0_vEEOT_ = comdat any

$_ZNSt8functionIFjRKN5kitty18static_truth_tableILj11ELb0EEEEEC2IZN3acd21ac_decomposition_impl18find_decompositionERjjEUlS4_E1_vEEOT_ = comdat any

$_ZNSt8functionIFjRKN5kitty18static_truth_tableILj11ELb0EEEEEC2IZN3acd21ac_decomposition_impl18find_decompositionERjjEUlS4_E2_vEEOT_ = comdat any

$_ZNSt8functionIFjRKN5kitty18static_truth_tableILj11ELb0EEEEEC2IZN3acd21ac_decomposition_impl18find_decompositionERjjEUlS4_E3_vEEOT_ = comdat any

$_ZN3acd21ac_decomposition_impl27enumerate_iset_combinationsIRSt8functionIFjRKN5kitty18static_truth_tableILj11ELb0EEEEEEESt5tupleIJS5_St5arrayIjLm11EEjEEjjOT_ = comdat any

$_ZSt3getILm2EJN5kitty18static_truth_tableILj11ELb0EEESt5arrayIjLm11EEjEERNSt13tuple_elementIXT_ESt5tupleIJDpT0_EEE4typeERS9_ = comdat any

$_ZSt3getILm0EJN5kitty18static_truth_tableILj11ELb0EEESt5arrayIjLm11EEjEERNSt13tuple_elementIXT_ESt5tupleIJDpT0_EEE4typeERS9_ = comdat any

$_ZSt3getILm1EJN5kitty18static_truth_tableILj11ELb0EEESt5arrayIjLm11EEjEERNSt13tuple_elementIXT_ESt5tupleIJDpT0_EEE4typeERS9_ = comdat any

$_ZNSt14_Function_baseD2Ev = comdat any

$_ZNSt14_Function_baseC2Ev = comdat any

$_ZNSt14_Function_base13_Base_managerIZN3acd21ac_decomposition_impl18find_decompositionERjjEUlRKN5kitty18static_truth_tableILj11ELb0EEEE_E21_M_not_empty_functionIS9_EEbRKT_ = comdat any

$_ZNSt14_Function_base13_Base_managerIZN3acd21ac_decomposition_impl18find_decompositionERjjEUlRKN5kitty18static_truth_tableILj11ELb0EEEE_E15_M_init_functorIS9_EEvRSt9_Any_dataOT_ = comdat any

$_ZNSt17_Function_handlerIFjRKN5kitty18static_truth_tableILj11ELb0EEEEZN3acd21ac_decomposition_impl18find_decompositionERjjEUlS4_E_E9_M_invokeERKSt9_Any_dataS4_ = comdat any

$_ZNSt17_Function_handlerIFjRKN5kitty18static_truth_tableILj11ELb0EEEEZN3acd21ac_decomposition_impl18find_decompositionERjjEUlS4_E_E10_M_managerERSt9_Any_dataRKSB_St18_Manager_operation = comdat any

$_ZNSt14_Function_base13_Base_managerIZN3acd21ac_decomposition_impl18find_decompositionERjjEUlRKN5kitty18static_truth_tableILj11ELb0EEEE_E9_M_createIS9_EEvRSt9_Any_dataOT_St17integral_constantIbLb1EE = comdat any

$_ZNSt9_Any_data9_M_accessEv = comdat any

$_ZSt10__invoke_rIjRZN3acd21ac_decomposition_impl18find_decompositionERjjEUlRKN5kitty18static_truth_tableILj11ELb0EEEE_JS7_EENSt9enable_ifIX16is_invocable_r_vIT_T0_DpT1_EESB_E4typeEOSC_DpOSD_ = comdat any

$_ZNSt14_Function_base13_Base_managerIZN3acd21ac_decomposition_impl18find_decompositionERjjEUlRKN5kitty18static_truth_tableILj11ELb0EEEE_E14_M_get_pointerERKSt9_Any_data = comdat any

$_ZSt13__invoke_implIjRZN3acd21ac_decomposition_impl18find_decompositionERjjEUlRKN5kitty18static_truth_tableILj11ELb0EEEE_JS7_EET_St14__invoke_otherOT0_DpOT1_ = comdat any

$_ZZN3acd21ac_decomposition_impl18find_decompositionERjjENKUlRKN5kitty18static_truth_tableILj11ELb0EEEE_clES6_ = comdat any

$_ZN3acd21ac_decomposition_impl19column_multiplicityILj1EEEjRKN5kitty18static_truth_tableILj11ELb0EEE = comdat any

$_ZNKSt5arrayImLm32EEixEm = comdat any

$_ZNKSt9_Any_data9_M_accessIZN3acd21ac_decomposition_impl18find_decompositionERjjEUlRKN5kitty18static_truth_tableILj11ELb0EEEE_EERKT_v = comdat any

$_ZNKSt9_Any_data9_M_accessEv = comdat any

$_ZNSt9_Any_data9_M_accessIPKSt9type_infoEERT_v = comdat any

$_ZNSt9_Any_data9_M_accessIPZN3acd21ac_decomposition_impl18find_decompositionERjjEUlRKN5kitty18static_truth_tableILj11ELb0EEEE_EERT_v = comdat any

$_ZNSt14_Function_base13_Base_managerIZN3acd21ac_decomposition_impl18find_decompositionERjjEUlRKN5kitty18static_truth_tableILj11ELb0EEEE_E10_M_managerERSt9_Any_dataRKSB_St18_Manager_operation = comdat any

$_ZNSt14_Function_base13_Base_managerIZN3acd21ac_decomposition_impl18find_decompositionERjjEUlRKN5kitty18static_truth_tableILj11ELb0EEEE_E15_M_init_functorIRKS9_EEvRSt9_Any_dataOT_ = comdat any

$_ZNSt14_Function_base13_Base_managerIZN3acd21ac_decomposition_impl18find_decompositionERjjEUlRKN5kitty18static_truth_tableILj11ELb0EEEE_E10_M_destroyERSt9_Any_dataSt17integral_constantIbLb1EE = comdat any

$_ZNSt14_Function_base13_Base_managerIZN3acd21ac_decomposition_impl18find_decompositionERjjEUlRKN5kitty18static_truth_tableILj11ELb0EEEE_E9_M_createIRKS9_EEvRSt9_Any_dataOT_St17integral_constantIbLb1EE = comdat any

$_ZNSt9_Any_data9_M_accessIZN3acd21ac_decomposition_impl18find_decompositionERjjEUlRKN5kitty18static_truth_tableILj11ELb0EEEE_EERT_v = comdat any

$_ZNSt14_Function_base13_Base_managerIZN3acd21ac_decomposition_impl18find_decompositionERjjEUlRKN5kitty18static_truth_tableILj11ELb0EEEE0_E21_M_not_empty_functionIS9_EEbRKT_ = comdat any

$_ZNSt14_Function_base13_Base_managerIZN3acd21ac_decomposition_impl18find_decompositionERjjEUlRKN5kitty18static_truth_tableILj11ELb0EEEE0_E15_M_init_functorIS9_EEvRSt9_Any_dataOT_ = comdat any

$_ZNSt17_Function_handlerIFjRKN5kitty18static_truth_tableILj11ELb0EEEEZN3acd21ac_decomposition_impl18find_decompositionERjjEUlS4_E0_E9_M_invokeERKSt9_Any_dataS4_ = comdat any

$_ZNSt17_Function_handlerIFjRKN5kitty18static_truth_tableILj11ELb0EEEEZN3acd21ac_decomposition_impl18find_decompositionERjjEUlS4_E0_E10_M_managerERSt9_Any_dataRKSB_St18_Manager_operation = comdat any

$_ZNSt14_Function_base13_Base_managerIZN3acd21ac_decomposition_impl18find_decompositionERjjEUlRKN5kitty18static_truth_tableILj11ELb0EEEE0_E9_M_createIS9_EEvRSt9_Any_dataOT_St17integral_constantIbLb1EE = comdat any

$_ZSt10__invoke_rIjRZN3acd21ac_decomposition_impl18find_decompositionERjjEUlRKN5kitty18static_truth_tableILj11ELb0EEEE0_JS7_EENSt9enable_ifIX16is_invocable_r_vIT_T0_DpT1_EESB_E4typeEOSC_DpOSD_ = comdat any

$_ZNSt14_Function_base13_Base_managerIZN3acd21ac_decomposition_impl18find_decompositionERjjEUlRKN5kitty18static_truth_tableILj11ELb0EEEE0_E14_M_get_pointerERKSt9_Any_data = comdat any

$_ZSt13__invoke_implIjRZN3acd21ac_decomposition_impl18find_decompositionERjjEUlRKN5kitty18static_truth_tableILj11ELb0EEEE0_JS7_EET_St14__invoke_otherOT0_DpOT1_ = comdat any

$_ZZN3acd21ac_decomposition_impl18find_decompositionERjjENKUlRKN5kitty18static_truth_tableILj11ELb0EEEE0_clES6_ = comdat any

$_ZN3acd21ac_decomposition_impl19column_multiplicityILj2EEEjRKN5kitty18static_truth_tableILj11ELb0EEE = comdat any

$_ZNKSt9_Any_data9_M_accessIZN3acd21ac_decomposition_impl18find_decompositionERjjEUlRKN5kitty18static_truth_tableILj11ELb0EEEE0_EERKT_v = comdat any

$_ZNSt9_Any_data9_M_accessIPZN3acd21ac_decomposition_impl18find_decompositionERjjEUlRKN5kitty18static_truth_tableILj11ELb0EEEE0_EERT_v = comdat any

$_ZNSt14_Function_base13_Base_managerIZN3acd21ac_decomposition_impl18find_decompositionERjjEUlRKN5kitty18static_truth_tableILj11ELb0EEEE0_E10_M_managerERSt9_Any_dataRKSB_St18_Manager_operation = comdat any

$_ZNSt14_Function_base13_Base_managerIZN3acd21ac_decomposition_impl18find_decompositionERjjEUlRKN5kitty18static_truth_tableILj11ELb0EEEE0_E15_M_init_functorIRKS9_EEvRSt9_Any_dataOT_ = comdat any

$_ZNSt14_Function_base13_Base_managerIZN3acd21ac_decomposition_impl18find_decompositionERjjEUlRKN5kitty18static_truth_tableILj11ELb0EEEE0_E10_M_destroyERSt9_Any_dataSt17integral_constantIbLb1EE = comdat any

$_ZNSt14_Function_base13_Base_managerIZN3acd21ac_decomposition_impl18find_decompositionERjjEUlRKN5kitty18static_truth_tableILj11ELb0EEEE0_E9_M_createIRKS9_EEvRSt9_Any_dataOT_St17integral_constantIbLb1EE = comdat any

$_ZNSt9_Any_data9_M_accessIZN3acd21ac_decomposition_impl18find_decompositionERjjEUlRKN5kitty18static_truth_tableILj11ELb0EEEE0_EERT_v = comdat any

$_ZNSt14_Function_base13_Base_managerIZN3acd21ac_decomposition_impl18find_decompositionERjjEUlRKN5kitty18static_truth_tableILj11ELb0EEEE1_E21_M_not_empty_functionIS9_EEbRKT_ = comdat any

$_ZNSt14_Function_base13_Base_managerIZN3acd21ac_decomposition_impl18find_decompositionERjjEUlRKN5kitty18static_truth_tableILj11ELb0EEEE1_E15_M_init_functorIS9_EEvRSt9_Any_dataOT_ = comdat any

$_ZNSt17_Function_handlerIFjRKN5kitty18static_truth_tableILj11ELb0EEEEZN3acd21ac_decomposition_impl18find_decompositionERjjEUlS4_E1_E9_M_invokeERKSt9_Any_dataS4_ = comdat any

$_ZNSt17_Function_handlerIFjRKN5kitty18static_truth_tableILj11ELb0EEEEZN3acd21ac_decomposition_impl18find_decompositionERjjEUlS4_E1_E10_M_managerERSt9_Any_dataRKSB_St18_Manager_operation = comdat any

$_ZNSt14_Function_base13_Base_managerIZN3acd21ac_decomposition_impl18find_decompositionERjjEUlRKN5kitty18static_truth_tableILj11ELb0EEEE1_E9_M_createIS9_EEvRSt9_Any_dataOT_St17integral_constantIbLb1EE = comdat any

$_ZSt10__invoke_rIjRZN3acd21ac_decomposition_impl18find_decompositionERjjEUlRKN5kitty18static_truth_tableILj11ELb0EEEE1_JS7_EENSt9enable_ifIX16is_invocable_r_vIT_T0_DpT1_EESB_E4typeEOSC_DpOSD_ = comdat any

$_ZNSt14_Function_base13_Base_managerIZN3acd21ac_decomposition_impl18find_decompositionERjjEUlRKN5kitty18static_truth_tableILj11ELb0EEEE1_E14_M_get_pointerERKSt9_Any_data = comdat any

$_ZSt13__invoke_implIjRZN3acd21ac_decomposition_impl18find_decompositionERjjEUlRKN5kitty18static_truth_tableILj11ELb0EEEE1_JS7_EET_St14__invoke_otherOT0_DpOT1_ = comdat any

$_ZZN3acd21ac_decomposition_impl18find_decompositionERjjENKUlRKN5kitty18static_truth_tableILj11ELb0EEEE1_clES6_ = comdat any

$_ZN3acd21ac_decomposition_impl19column_multiplicityILj3EEEjRKN5kitty18static_truth_tableILj11ELb0EEE = comdat any

$_ZNKSt9_Any_data9_M_accessIZN3acd21ac_decomposition_impl18find_decompositionERjjEUlRKN5kitty18static_truth_tableILj11ELb0EEEE1_EERKT_v = comdat any

$_ZNSt9_Any_data9_M_accessIPZN3acd21ac_decomposition_impl18find_decompositionERjjEUlRKN5kitty18static_truth_tableILj11ELb0EEEE1_EERT_v = comdat any

$_ZNSt14_Function_base13_Base_managerIZN3acd21ac_decomposition_impl18find_decompositionERjjEUlRKN5kitty18static_truth_tableILj11ELb0EEEE1_E10_M_managerERSt9_Any_dataRKSB_St18_Manager_operation = comdat any

$_ZNSt14_Function_base13_Base_managerIZN3acd21ac_decomposition_impl18find_decompositionERjjEUlRKN5kitty18static_truth_tableILj11ELb0EEEE1_E15_M_init_functorIRKS9_EEvRSt9_Any_dataOT_ = comdat any

$_ZNSt14_Function_base13_Base_managerIZN3acd21ac_decomposition_impl18find_decompositionERjjEUlRKN5kitty18static_truth_tableILj11ELb0EEEE1_E10_M_destroyERSt9_Any_dataSt17integral_constantIbLb1EE = comdat any

$_ZNSt14_Function_base13_Base_managerIZN3acd21ac_decomposition_impl18find_decompositionERjjEUlRKN5kitty18static_truth_tableILj11ELb0EEEE1_E9_M_createIRKS9_EEvRSt9_Any_dataOT_St17integral_constantIbLb1EE = comdat any

$_ZNSt9_Any_data9_M_accessIZN3acd21ac_decomposition_impl18find_decompositionERjjEUlRKN5kitty18static_truth_tableILj11ELb0EEEE1_EERT_v = comdat any

$_ZNSt14_Function_base13_Base_managerIZN3acd21ac_decomposition_impl18find_decompositionERjjEUlRKN5kitty18static_truth_tableILj11ELb0EEEE2_E21_M_not_empty_functionIS9_EEbRKT_ = comdat any

$_ZNSt14_Function_base13_Base_managerIZN3acd21ac_decomposition_impl18find_decompositionERjjEUlRKN5kitty18static_truth_tableILj11ELb0EEEE2_E15_M_init_functorIS9_EEvRSt9_Any_dataOT_ = comdat any

$_ZNSt17_Function_handlerIFjRKN5kitty18static_truth_tableILj11ELb0EEEEZN3acd21ac_decomposition_impl18find_decompositionERjjEUlS4_E2_E9_M_invokeERKSt9_Any_dataS4_ = comdat any

$_ZNSt17_Function_handlerIFjRKN5kitty18static_truth_tableILj11ELb0EEEEZN3acd21ac_decomposition_impl18find_decompositionERjjEUlS4_E2_E10_M_managerERSt9_Any_dataRKSB_St18_Manager_operation = comdat any

$_ZNSt14_Function_base13_Base_managerIZN3acd21ac_decomposition_impl18find_decompositionERjjEUlRKN5kitty18static_truth_tableILj11ELb0EEEE2_E9_M_createIS9_EEvRSt9_Any_dataOT_St17integral_constantIbLb1EE = comdat any

$_ZSt10__invoke_rIjRZN3acd21ac_decomposition_impl18find_decompositionERjjEUlRKN5kitty18static_truth_tableILj11ELb0EEEE2_JS7_EENSt9enable_ifIX16is_invocable_r_vIT_T0_DpT1_EESB_E4typeEOSC_DpOSD_ = comdat any

$_ZNSt14_Function_base13_Base_managerIZN3acd21ac_decomposition_impl18find_decompositionERjjEUlRKN5kitty18static_truth_tableILj11ELb0EEEE2_E14_M_get_pointerERKSt9_Any_data = comdat any

$_ZSt13__invoke_implIjRZN3acd21ac_decomposition_impl18find_decompositionERjjEUlRKN5kitty18static_truth_tableILj11ELb0EEEE2_JS7_EET_St14__invoke_otherOT0_DpOT1_ = comdat any

$_ZZN3acd21ac_decomposition_impl18find_decompositionERjjENKUlRKN5kitty18static_truth_tableILj11ELb0EEEE2_clES6_ = comdat any

$_ZN3acd21ac_decomposition_impl20column_multiplicity5ILj4EEEjRKN5kitty18static_truth_tableILj11ELb0EEE = comdat any

$_ZNSt5arrayIjLm64EEixEm = comdat any

$_ZSt4sortIPjEvT_S1_ = comdat any

$_ZNSt5arrayIjLm64EE5beginEv = comdat any

$_ZNSt14__array_traitsIjLm64EE6_S_refERA64_Kjm = comdat any

$_ZSt6__sortIPjN9__gnu_cxx5__ops15_Iter_less_iterEEvT_S4_T0_ = comdat any

$_ZN9__gnu_cxx5__ops16__iter_less_iterEv = comdat any

$_ZSt16__introsort_loopIPjlN9__gnu_cxx5__ops15_Iter_less_iterEEvT_S4_T0_T1_ = comdat any

$_ZSt4__lgl = comdat any

$_ZSt22__final_insertion_sortIPjN9__gnu_cxx5__ops15_Iter_less_iterEEvT_S4_T0_ = comdat any

$_ZSt14__partial_sortIPjN9__gnu_cxx5__ops15_Iter_less_iterEEvT_S4_S4_T0_ = comdat any

$_ZSt27__unguarded_partition_pivotIPjN9__gnu_cxx5__ops15_Iter_less_iterEET_S4_S4_T0_ = comdat any

$_ZSt13__heap_selectIPjN9__gnu_cxx5__ops15_Iter_less_iterEEvT_S4_S4_T0_ = comdat any

$_ZSt11__sort_heapIPjN9__gnu_cxx5__ops15_Iter_less_iterEEvT_S4_RT0_ = comdat any

$_ZSt11__make_heapIPjN9__gnu_cxx5__ops15_Iter_less_iterEEvT_S4_RT0_ = comdat any

$_ZNK9__gnu_cxx5__ops15_Iter_less_iterclIPjS3_EEbT_T0_ = comdat any

$_ZSt10__pop_heapIPjN9__gnu_cxx5__ops15_Iter_less_iterEEvT_S4_S4_RT0_ = comdat any

$_ZSt13__adjust_heapIPjljN9__gnu_cxx5__ops15_Iter_less_iterEEvT_T0_S5_T1_T2_ = comdat any

$_ZN9__gnu_cxx5__ops14_Iter_less_valC2ENS0_15_Iter_less_iterE = comdat any

$_ZSt11__push_heapIPjljN9__gnu_cxx5__ops14_Iter_less_valEEvT_T0_S5_T1_RT2_ = comdat any

$_ZNK9__gnu_cxx5__ops14_Iter_less_valclIPjjEEbT_RT0_ = comdat any

$_ZSt22__move_median_to_firstIPjN9__gnu_cxx5__ops15_Iter_less_iterEEvT_S4_S4_S4_T0_ = comdat any

$_ZSt21__unguarded_partitionIPjN9__gnu_cxx5__ops15_Iter_less_iterEET_S4_S4_S4_T0_ = comdat any

$_ZSt9iter_swapIPjS0_EvT_T0_ = comdat any

$_ZSt16__insertion_sortIPjN9__gnu_cxx5__ops15_Iter_less_iterEEvT_S4_T0_ = comdat any

$_ZSt26__unguarded_insertion_sortIPjN9__gnu_cxx5__ops15_Iter_less_iterEEvT_S4_T0_ = comdat any

$_ZSt13move_backwardIPjS0_ET0_T_S2_S1_ = comdat any

$_ZSt25__unguarded_linear_insertIPjN9__gnu_cxx5__ops14_Val_less_iterEEvT_T0_ = comdat any

$_ZN9__gnu_cxx5__ops15__val_comp_iterENS0_15_Iter_less_iterE = comdat any

$_ZSt22__copy_move_backward_aILb1EPjS0_ET1_T0_S2_S1_ = comdat any

$_ZSt12__miter_baseIPjET_S1_ = comdat any

$_ZSt12__niter_wrapIPjET_RKS1_S1_ = comdat any

$_ZSt23__copy_move_backward_a1ILb1EPjS0_ET1_T0_S2_S1_ = comdat any

$_ZSt12__niter_baseIPjET_S1_ = comdat any

$_ZSt23__copy_move_backward_a2ILb1EPjS0_ET1_T0_S2_S1_ = comdat any

$_ZNSt20__copy_move_backwardILb1ELb1ESt26random_access_iterator_tagE13__copy_move_bIjEEPT_PKS3_S6_S4_ = comdat any

$_ZNK9__gnu_cxx5__ops14_Val_less_iterclIjPjEEbRT_T0_ = comdat any

$_ZNSt5arrayIjLm64EE4dataEv = comdat any

$_ZNSt14__array_traitsIjLm64EE6_S_ptrERA64_Kj = comdat any

$_ZNKSt9_Any_data9_M_accessIZN3acd21ac_decomposition_impl18find_decompositionERjjEUlRKN5kitty18static_truth_tableILj11ELb0EEEE2_EERKT_v = comdat any

$_ZNSt9_Any_data9_M_accessIPZN3acd21ac_decomposition_impl18find_decompositionERjjEUlRKN5kitty18static_truth_tableILj11ELb0EEEE2_EERT_v = comdat any

$_ZNSt14_Function_base13_Base_managerIZN3acd21ac_decomposition_impl18find_decompositionERjjEUlRKN5kitty18static_truth_tableILj11ELb0EEEE2_E10_M_managerERSt9_Any_dataRKSB_St18_Manager_operation = comdat any

$_ZNSt14_Function_base13_Base_managerIZN3acd21ac_decomposition_impl18find_decompositionERjjEUlRKN5kitty18static_truth_tableILj11ELb0EEEE2_E15_M_init_functorIRKS9_EEvRSt9_Any_dataOT_ = comdat any

$_ZNSt14_Function_base13_Base_managerIZN3acd21ac_decomposition_impl18find_decompositionERjjEUlRKN5kitty18static_truth_tableILj11ELb0EEEE2_E10_M_destroyERSt9_Any_dataSt17integral_constantIbLb1EE = comdat any

$_ZNSt14_Function_base13_Base_managerIZN3acd21ac_decomposition_impl18find_decompositionERjjEUlRKN5kitty18static_truth_tableILj11ELb0EEEE2_E9_M_createIRKS9_EEvRSt9_Any_dataOT_St17integral_constantIbLb1EE = comdat any

$_ZNSt9_Any_data9_M_accessIZN3acd21ac_decomposition_impl18find_decompositionERjjEUlRKN5kitty18static_truth_tableILj11ELb0EEEE2_EERT_v = comdat any

$_ZNSt14_Function_base13_Base_managerIZN3acd21ac_decomposition_impl18find_decompositionERjjEUlRKN5kitty18static_truth_tableILj11ELb0EEEE3_E21_M_not_empty_functionIS9_EEbRKT_ = comdat any

$_ZNSt14_Function_base13_Base_managerIZN3acd21ac_decomposition_impl18find_decompositionERjjEUlRKN5kitty18static_truth_tableILj11ELb0EEEE3_E15_M_init_functorIS9_EEvRSt9_Any_dataOT_ = comdat any

$_ZNSt17_Function_handlerIFjRKN5kitty18static_truth_tableILj11ELb0EEEEZN3acd21ac_decomposition_impl18find_decompositionERjjEUlS4_E3_E9_M_invokeERKSt9_Any_dataS4_ = comdat any

$_ZNSt17_Function_handlerIFjRKN5kitty18static_truth_tableILj11ELb0EEEEZN3acd21ac_decomposition_impl18find_decompositionERjjEUlS4_E3_E10_M_managerERSt9_Any_dataRKSB_St18_Manager_operation = comdat any

$_ZNSt14_Function_base13_Base_managerIZN3acd21ac_decomposition_impl18find_decompositionERjjEUlRKN5kitty18static_truth_tableILj11ELb0EEEE3_E9_M_createIS9_EEvRSt9_Any_dataOT_St17integral_constantIbLb1EE = comdat any

$_ZSt10__invoke_rIjRZN3acd21ac_decomposition_impl18find_decompositionERjjEUlRKN5kitty18static_truth_tableILj11ELb0EEEE3_JS7_EENSt9enable_ifIX16is_invocable_r_vIT_T0_DpT1_EESB_E4typeEOSC_DpOSD_ = comdat any

$_ZNSt14_Function_base13_Base_managerIZN3acd21ac_decomposition_impl18find_decompositionERjjEUlRKN5kitty18static_truth_tableILj11ELb0EEEE3_E14_M_get_pointerERKSt9_Any_data = comdat any

$_ZSt13__invoke_implIjRZN3acd21ac_decomposition_impl18find_decompositionERjjEUlRKN5kitty18static_truth_tableILj11ELb0EEEE3_JS7_EET_St14__invoke_otherOT0_DpOT1_ = comdat any

$_ZZN3acd21ac_decomposition_impl18find_decompositionERjjENKUlRKN5kitty18static_truth_tableILj11ELb0EEEE3_clES6_ = comdat any

$_ZN3acd21ac_decomposition_impl20column_multiplicity5ILj5EEEjRKN5kitty18static_truth_tableILj11ELb0EEE = comdat any

$_ZNKSt9_Any_data9_M_accessIZN3acd21ac_decomposition_impl18find_decompositionERjjEUlRKN5kitty18static_truth_tableILj11ELb0EEEE3_EERKT_v = comdat any

$_ZNSt9_Any_data9_M_accessIPZN3acd21ac_decomposition_impl18find_decompositionERjjEUlRKN5kitty18static_truth_tableILj11ELb0EEEE3_EERT_v = comdat any

$_ZNSt14_Function_base13_Base_managerIZN3acd21ac_decomposition_impl18find_decompositionERjjEUlRKN5kitty18static_truth_tableILj11ELb0EEEE3_E10_M_managerERSt9_Any_dataRKSB_St18_Manager_operation = comdat any

$_ZNSt14_Function_base13_Base_managerIZN3acd21ac_decomposition_impl18find_decompositionERjjEUlRKN5kitty18static_truth_tableILj11ELb0EEEE3_E15_M_init_functorIRKS9_EEvRSt9_Any_dataOT_ = comdat any

$_ZNSt14_Function_base13_Base_managerIZN3acd21ac_decomposition_impl18find_decompositionERjjEUlRKN5kitty18static_truth_tableILj11ELb0EEEE3_E10_M_destroyERSt9_Any_dataSt17integral_constantIbLb1EE = comdat any

$_ZNSt14_Function_base13_Base_managerIZN3acd21ac_decomposition_impl18find_decompositionERjjEUlRKN5kitty18static_truth_tableILj11ELb0EEEE3_E9_M_createIRKS9_EEvRSt9_Any_dataOT_St17integral_constantIbLb1EE = comdat any

$_ZNSt9_Any_data9_M_accessIZN3acd21ac_decomposition_impl18find_decompositionERjjEUlRKN5kitty18static_truth_tableILj11ELb0EEEE3_EERT_v = comdat any

$_ZNKSt8functionIFjRKN5kitty18static_truth_tableILj11ELb0EEEEEclES4_ = comdat any

$_ZSt10make_tupleIJRN5kitty18static_truth_tableILj11ELb0EEERSt5arrayIjLm11EERjEESt5tupleIJDpNSt25__strip_reference_wrapperINSt5decayIT_E4typeEE6__typeEEEDpOSB_ = comdat any

$_ZN3acd21ac_decomposition_impl28enumerate_iset_combinations2Ejj = comdat any

$_ZN3acd21ac_decomposition_impl24combinations_offset_nextEjjPjS1_RN5kitty18static_truth_tableILj11ELb0EEE = comdat any

$_ZSt10make_tupleIJRN5kitty18static_truth_tableILj11ELb0EEERSt5arrayIjLm11EEjEESt5tupleIJDpNSt25__strip_reference_wrapperINSt5decayIT_E4typeEE6__typeEEEDpOSA_ = comdat any

$_ZNKSt14_Function_base8_M_emptyEv = comdat any

$_ZNSt5tupleIJN5kitty18static_truth_tableILj11ELb0EEESt5arrayIjLm11EEjEEC2IJRS2_RS4_RjELb1ETnNSt9enable_ifIXclsr4_TCCIXT0_EEE29__is_implicitly_constructibleIDpT_EEEbE4typeELb1EEEDpOSB_ = comdat any

$_ZNSt11_Tuple_implILm0EJN5kitty18static_truth_tableILj11ELb0EEESt5arrayIjLm11EEjEEC2IRS2_JRS4_RjEvEEOT_DpOT0_ = comdat any

$_ZNSt11_Tuple_implILm1EJSt5arrayIjLm11EEjEEC2IRS1_JRjEvEEOT_DpOT0_ = comdat any

$_ZNSt10_Head_baseILm0EN5kitty18static_truth_tableILj11ELb0EEELb0EEC2IRS2_EEOT_ = comdat any

$_ZNSt11_Tuple_implILm2EJjEEC2IRjEEOT_ = comdat any

$_ZNSt10_Head_baseILm1ESt5arrayIjLm11EELb0EEC2IRS1_EEOT_ = comdat any

$_ZNSt10_Head_baseILm2EjLb0EEC2IRjEEOT_ = comdat any

$_ZN3acd21ac_decomposition_impl20column_multiplicity2ERKN5kitty18static_truth_tableILj11ELb0EEEj = comdat any

$_ZNSt5tupleIJN5kitty18static_truth_tableILj11ELb0EEESt5arrayIjLm11EEjEEC2IJRS2_RS4_jELb1ETnNSt9enable_ifIXclsr4_TCCIXT0_EEE29__is_implicitly_constructibleIDpT_EEEbE4typeELb1EEEDpOSA_ = comdat any

$_ZNSt11_Tuple_implILm0EJN5kitty18static_truth_tableILj11ELb0EEESt5arrayIjLm11EEjEEC2IRS2_JRS4_jEvEEOT_DpOT0_ = comdat any

$_ZNSt11_Tuple_implILm1EJSt5arrayIjLm11EEjEEC2IRS1_JjEvEEOT_DpOT0_ = comdat any

$_ZNSt11_Tuple_implILm2EJjEEC2IjEEOT_ = comdat any

$_ZNSt10_Head_baseILm2EjLb0EEC2IjEEOT_ = comdat any

$_ZSt12__get_helperILm2EjJEERT0_RSt11_Tuple_implIXT_EJS0_DpT1_EE = comdat any

$_ZNSt11_Tuple_implILm2EJjEE7_M_headERS0_ = comdat any

$_ZNSt10_Head_baseILm2EjLb0EE7_M_headERS0_ = comdat any

$_ZSt12__get_helperILm0EN5kitty18static_truth_tableILj11ELb0EEEJSt5arrayIjLm11EEjEERT0_RSt11_Tuple_implIXT_EJS5_DpT1_EE = comdat any

$_ZNSt11_Tuple_implILm0EJN5kitty18static_truth_tableILj11ELb0EEESt5arrayIjLm11EEjEE7_M_headERS5_ = comdat any

$_ZNSt10_Head_baseILm0EN5kitty18static_truth_tableILj11ELb0EEELb0EE7_M_headERS3_ = comdat any

$_ZSt12__get_helperILm1ESt5arrayIjLm11EEJjEERT0_RSt11_Tuple_implIXT_EJS2_DpT1_EE = comdat any

$_ZNSt11_Tuple_implILm1EJSt5arrayIjLm11EEjEE7_M_headERS2_ = comdat any

$_ZNSt10_Head_baseILm1ESt5arrayIjLm11EELb0EE7_M_headERS2_ = comdat any

$_ZNSt6vectorISt5arrayIjLm2EESaIS1_EED2Ev = comdat any

$_ZNSt6vectorIN3acd23ac_decomposition_resultESaIS1_EED2Ev = comdat any

$_ZNSt6vectorImSaImEED2Ev = comdat any

$_ZNSt6vectorIN5kitty18static_truth_tableILj11ELb0EEESaIS2_EED2Ev = comdat any

$_ZSt8_DestroyIPSt5arrayIjLm2EES1_EvT_S3_RSaIT0_E = comdat any

$_ZNSt12_Vector_baseISt5arrayIjLm2EESaIS1_EE19_M_get_Tp_allocatorEv = comdat any

$_ZNSt12_Vector_baseISt5arrayIjLm2EESaIS1_EED2Ev = comdat any

$_ZSt8_DestroyIPSt5arrayIjLm2EEEvT_S3_ = comdat any

$_ZNSt12_Destroy_auxILb1EE9__destroyIPSt5arrayIjLm2EEEEvT_S5_ = comdat any

$_ZNSt12_Vector_baseISt5arrayIjLm2EESaIS1_EE13_M_deallocateEPS1_m = comdat any

$_ZNSt16allocator_traitsISaISt5arrayIjLm2EEEE10deallocateERS2_PS1_m = comdat any

$_ZNSt15__new_allocatorISt5arrayIjLm2EEE10deallocateEPS1_m = comdat any

$_ZSt8_DestroyIPN3acd23ac_decomposition_resultES1_EvT_S3_RSaIT0_E = comdat any

$_ZNSt12_Vector_baseIN3acd23ac_decomposition_resultESaIS1_EE19_M_get_Tp_allocatorEv = comdat any

$_ZNSt12_Vector_baseIN3acd23ac_decomposition_resultESaIS1_EED2Ev = comdat any

$_ZSt8_DestroyIPN3acd23ac_decomposition_resultEEvT_S3_ = comdat any

$_ZNSt12_Destroy_auxILb0EE9__destroyIPN3acd23ac_decomposition_resultEEEvT_S5_ = comdat any

$_ZSt8_DestroyIN3acd23ac_decomposition_resultEEvPT_ = comdat any

$_ZN3acd23ac_decomposition_resultD2Ev = comdat any

$_ZNSt6vectorIjSaIjEED2Ev = comdat any

$_ZN5kitty19dynamic_truth_tableD2Ev = comdat any

$_ZSt8_DestroyIPjjEvT_S1_RSaIT0_E = comdat any

$_ZNSt12_Vector_baseIjSaIjEE19_M_get_Tp_allocatorEv = comdat any

$_ZNSt12_Vector_baseIjSaIjEED2Ev = comdat any

$_ZSt8_DestroyIPjEvT_S1_ = comdat any

$_ZNSt12_Destroy_auxILb1EE9__destroyIPjEEvT_S3_ = comdat any

$_ZNSt12_Vector_baseIjSaIjEE13_M_deallocateEPjm = comdat any

$_ZNSt16allocator_traitsISaIjEE10deallocateERS0_Pjm = comdat any

$_ZNSt15__new_allocatorIjE10deallocateEPjm = comdat any

$_ZNSt12_Vector_baseIN3acd23ac_decomposition_resultESaIS1_EE13_M_deallocateEPS1_m = comdat any

$_ZNSt15__new_allocatorIN3acd23ac_decomposition_resultEED2Ev = comdat any

$_ZNSt16allocator_traitsISaIN3acd23ac_decomposition_resultEEE10deallocateERS2_PS1_m = comdat any

$_ZNSt15__new_allocatorIN3acd23ac_decomposition_resultEE10deallocateEPS1_m = comdat any

$_ZSt8_DestroyIPmmEvT_S1_RSaIT0_E = comdat any

$_ZNSt12_Vector_baseImSaImEE19_M_get_Tp_allocatorEv = comdat any

$_ZNSt12_Vector_baseImSaImEED2Ev = comdat any

$_ZSt8_DestroyIPmEvT_S1_ = comdat any

$_ZNSt12_Destroy_auxILb1EE9__destroyIPmEEvT_S3_ = comdat any

$_ZNSt12_Vector_baseImSaImEE13_M_deallocateEPmm = comdat any

$_ZNSt16allocator_traitsISaImEE10deallocateERS0_Pmm = comdat any

$_ZNSt15__new_allocatorImE10deallocateEPmm = comdat any

$_ZSt8_DestroyIPN5kitty18static_truth_tableILj11ELb0EEES2_EvT_S4_RSaIT0_E = comdat any

$_ZNSt12_Vector_baseIN5kitty18static_truth_tableILj11ELb0EEESaIS2_EE19_M_get_Tp_allocatorEv = comdat any

$_ZNSt12_Vector_baseIN5kitty18static_truth_tableILj11ELb0EEESaIS2_EED2Ev = comdat any

$_ZSt8_DestroyIPN5kitty18static_truth_tableILj11ELb0EEEEvT_S4_ = comdat any

$_ZNSt12_Destroy_auxILb1EE9__destroyIPN5kitty18static_truth_tableILj11ELb0EEEEEvT_S6_ = comdat any

$_ZNSt12_Vector_baseIN5kitty18static_truth_tableILj11ELb0EEESaIS2_EE13_M_deallocateEPS2_m = comdat any

$_ZNSt16allocator_traitsISaIN5kitty18static_truth_tableILj11ELb0EEEEE10deallocateERS3_PS2_m = comdat any

$_ZNSt15__new_allocatorIN5kitty18static_truth_tableILj11ELb0EEEE10deallocateEPS2_m = comdat any

$_ZN3acd21ac_decomposition_impl13compute_isetsEb = comdat any

$_ZN3acd21ac_decomposition_impl39generate_support_minimization_encodingsEv = comdat any

$_ZN3acd21ac_decomposition_impl23solve_min_support_exactERKSt6vectorIN5kitty18static_truth_tableILj11ELb0EEESaIS4_EE = comdat any

$_ZN3acd21ac_decomposition_impl27solve_min_support_heuristicERKSt6vectorIN5kitty18static_truth_tableILj11ELb0EEESaIS4_EE = comdat any

$_ZNSaIN5kitty18static_truth_tableILj11ELb0EEEEC2Ev = comdat any

$_ZNSt6vectorIN5kitty18static_truth_tableILj11ELb0EEESaIS2_EEC2EmRKS3_ = comdat any

$_ZNSt15__new_allocatorIN5kitty18static_truth_tableILj11ELb0EEEED2Ev = comdat any

$_ZNSt13unordered_mapImjSt4hashImESt8equal_toImESaISt4pairIKmjEEEC2Ev = comdat any

$_ZSt5beginIN5kitty18static_truth_tableILj11ELb0EEEEDTcldtfp_5beginEERT_ = comdat any

$_ZNSt13unordered_mapImjSt4hashImESt8equal_toImESaISt4pairIKmjEEE4findERS5_ = comdat any

$_ZNSt8__detailneERKNS_19_Node_iterator_baseISt4pairIKmjELb0EEES6_ = comdat any

$_ZNSt13unordered_mapImjSt4hashImESt8equal_toImESaISt4pairIKmjEEE3endEv = comdat any

$_ZNSt6vectorIN5kitty18static_truth_tableILj11ELb0EEESaIS2_EEixEm = comdat any

$_ZNKSt8__detail14_Node_iteratorISt4pairIKmjELb0ELb0EEptEv = comdat any

$_ZNKSt13unordered_mapImjSt4hashImESt8equal_toImESaISt4pairIKmjEEE4sizeEv = comdat any

$_ZNSt13unordered_mapImjSt4hashImESt8equal_toImESaISt4pairIKmjEEEixERS5_ = comdat any

$_ZNSt6vectorIN5kitty18static_truth_tableILj11ELb0EEESaIS2_EE5beginEv = comdat any

$_ZNSt6vectorIN5kitty18static_truth_tableILj11ELb0EEESaIS2_EE3endEv = comdat any

$_ZN9__gnu_cxxneIPN5kitty18static_truth_tableILj11ELb0EEESt6vectorIS3_SaIS3_EEEEbRKNS_17__normal_iteratorIT_T0_EESD_ = comdat any

$_ZNK9__gnu_cxx17__normal_iteratorIPN5kitty18static_truth_tableILj11ELb0EEESt6vectorIS3_SaIS3_EEEdeEv = comdat any

$_ZN3acd21ac_decomposition_impl15local_extend_toERN5kitty18static_truth_tableILj11ELb0EEEj = comdat any

$_ZN9__gnu_cxx17__normal_iteratorIPN5kitty18static_truth_tableILj11ELb0EEESt6vectorIS3_SaIS3_EEEppEv = comdat any

$_ZNSt13unordered_mapImjSt4hashImESt8equal_toImESaISt4pairIKmjEEE5beginEv = comdat any

$_ZNKSt8__detail14_Node_iteratorISt4pairIKmjELb0ELb0EEdeEv = comdat any

$_ZNSt8__detail14_Node_iteratorISt4pairIKmjELb0ELb0EEppEv = comdat any

$_ZN5kitty9print_hexINS_18static_truth_tableILj11ELb0EEEEEvRKT_RSo = comdat any

$_ZNSt6vectorIN5kitty18static_truth_tableILj11ELb0EEESaIS2_EEaSEOS4_ = comdat any

$_ZNSt13unordered_mapImjSt4hashImESt8equal_toImESaISt4pairIKmjEEED2Ev = comdat any

$_ZNSt6vectorIN5kitty18static_truth_tableILj11ELb0EEESaIS2_EE17_S_check_init_lenEmRKS3_ = comdat any

$_ZNSt12_Vector_baseIN5kitty18static_truth_tableILj11ELb0EEESaIS2_EEC2EmRKS3_ = comdat any

$_ZNSt6vectorIN5kitty18static_truth_tableILj11ELb0EEESaIS2_EE21_M_default_initializeEm = comdat any

$_ZNSt6vectorIN5kitty18static_truth_tableILj11ELb0EEESaIS2_EE11_S_max_sizeERKS3_ = comdat any

$_ZNSaIN5kitty18static_truth_tableILj11ELb0EEEEC2ERKS2_ = comdat any

$_ZNSt16allocator_traitsISaIN5kitty18static_truth_tableILj11ELb0EEEEE8max_sizeERKS3_ = comdat any

$_ZSt3minImERKT_S2_S2_ = comdat any

$_ZNKSt15__new_allocatorIN5kitty18static_truth_tableILj11ELb0EEEE8max_sizeEv = comdat any

$_ZNKSt15__new_allocatorIN5kitty18static_truth_tableILj11ELb0EEEE11_M_max_sizeEv = comdat any

$_ZNSt15__new_allocatorIN5kitty18static_truth_tableILj11ELb0EEEEC2ERKS3_ = comdat any

$_ZNSt12_Vector_baseIN5kitty18static_truth_tableILj11ELb0EEESaIS2_EE12_Vector_implC2ERKS3_ = comdat any

$_ZNSt12_Vector_baseIN5kitty18static_truth_tableILj11ELb0EEESaIS2_EE17_M_create_storageEm = comdat any

$_ZNSt12_Vector_baseIN5kitty18static_truth_tableILj11ELb0EEESaIS2_EE11_M_allocateEm = comdat any

$_ZNSt16allocator_traitsISaIN5kitty18static_truth_tableILj11ELb0EEEEE8allocateERS3_m = comdat any

$_ZNSt15__new_allocatorIN5kitty18static_truth_tableILj11ELb0EEEE8allocateEmPKv = comdat any

$_ZSt27__uninitialized_default_n_aIPN5kitty18static_truth_tableILj11ELb0EEEmS2_ET_S4_T0_RSaIT1_E = comdat any

$_ZSt25__uninitialized_default_nIPN5kitty18static_truth_tableILj11ELb0EEEmET_S4_T0_ = comdat any

$_ZNSt27__uninitialized_default_n_1ILb0EE18__uninit_default_nIPN5kitty18static_truth_tableILj11ELb0EEEmEET_S6_T0_ = comdat any

$_ZSt10_ConstructIN5kitty18static_truth_tableILj11ELb0EEEJEEvPT_DpOT0_ = comdat any

$_ZNSt10_HashtableImSt4pairIKmjESaIS2_ENSt8__detail10_Select1stESt8equal_toImESt4hashImENS4_18_Mod_range_hashingENS4_20_Default_ranged_hashENS4_20_Prime_rehash_policyENS4_17_Hashtable_traitsILb0ELb0ELb1EEEEC2Ev = comdat any

$_ZNSt8__detail15_Hashtable_baseImSt4pairIKmjENS_10_Select1stESt8equal_toImESt4hashImENS_18_Mod_range_hashingENS_20_Default_ranged_hashENS_17_Hashtable_traitsILb0ELb0ELb1EEEEC2Ev = comdat any

$_ZNSt8__detail16_Hashtable_allocISaINS_10_Hash_nodeISt4pairIKmjELb0EEEEEC2Ev = comdat any

$_ZNSt8__detail15_Hash_node_baseC2Ev = comdat any

$_ZNSt8__detail20_Prime_rehash_policyC2Ef = comdat any

$_ZNSt8__detail15_Hash_code_baseImSt4pairIKmjENS_10_Select1stESt4hashImENS_18_Mod_range_hashingENS_20_Default_ranged_hashELb0EEC2Ev = comdat any

$_ZNSt8__detail21_Hashtable_ebo_helperILi0ESt8equal_toImELb1EEC2Ev = comdat any

$_ZNSt8__detail21_Hashtable_ebo_helperILi1ESt4hashImELb1EEC2Ev = comdat any

$_ZNSt8__detail21_Hashtable_ebo_helperILi0ESaINS_10_Hash_nodeISt4pairIKmjELb0EEEELb1EEC2Ev = comdat any

$_ZNSaINSt8__detail10_Hash_nodeISt4pairIKmjELb0EEEEC2Ev = comdat any

$_ZNSt15__new_allocatorINSt8__detail10_Hash_nodeISt4pairIKmjELb0EEEEC2Ev = comdat any

$_ZN5kitty18static_truth_tableILj11ELb0EE5beginEv = comdat any

$_ZNSt10_HashtableImSt4pairIKmjESaIS2_ENSt8__detail10_Select1stESt8equal_toImESt4hashImENS4_18_Mod_range_hashingENS4_20_Default_ranged_hashENS4_20_Prime_rehash_policyENS4_17_Hashtable_traitsILb0ELb0ELb1EEEE4findERS1_ = comdat any

$_ZNKSt10_HashtableImSt4pairIKmjESaIS2_ENSt8__detail10_Select1stESt8equal_toImESt4hashImENS4_18_Mod_range_hashingENS4_20_Default_ranged_hashENS4_20_Prime_rehash_policyENS4_17_Hashtable_traitsILb0ELb0ELb1EEEE4sizeEv = comdat any

$_ZNSt10_HashtableImSt4pairIKmjESaIS2_ENSt8__detail10_Select1stESt8equal_toImESt4hashImENS4_18_Mod_range_hashingENS4_20_Default_ranged_hashENS4_20_Prime_rehash_policyENS4_17_Hashtable_traitsILb0ELb0ELb1EEEE22__small_size_thresholdEv = comdat any

$_ZNSt10_HashtableImSt4pairIKmjESaIS2_ENSt8__detail10_Select1stESt8equal_toImESt4hashImENS4_18_Mod_range_hashingENS4_20_Default_ranged_hashENS4_20_Prime_rehash_policyENS4_17_Hashtable_traitsILb0ELb0ELb1EEEE5beginEv = comdat any

$_ZNSt10_HashtableImSt4pairIKmjESaIS2_ENSt8__detail10_Select1stESt8equal_toImESt4hashImENS4_18_Mod_range_hashingENS4_20_Default_ranged_hashENS4_20_Prime_rehash_policyENS4_17_Hashtable_traitsILb0ELb0ELb1EEEE3endEv = comdat any

$_ZNKSt8__detail15_Hashtable_baseImSt4pairIKmjENS_10_Select1stESt8equal_toImESt4hashImENS_18_Mod_range_hashingENS_20_Default_ranged_hashENS_17_Hashtable_traitsILb0ELb0ELb1EEEE13_M_key_equalsERS2_RKNS_16_Hash_node_valueIS3_Lb0EEE = comdat any

$_ZNKSt8__detail15_Hash_code_baseImSt4pairIKmjENS_10_Select1stESt4hashImENS_18_Mod_range_hashingENS_20_Default_ranged_hashELb0EE12_M_hash_codeERS2_ = comdat any

$_ZNKSt10_HashtableImSt4pairIKmjESaIS2_ENSt8__detail10_Select1stESt8equal_toImESt4hashImENS4_18_Mod_range_hashingENS4_20_Default_ranged_hashENS4_20_Prime_rehash_policyENS4_17_Hashtable_traitsILb0ELb0ELb1EEEE15_M_bucket_indexEm = comdat any

$_ZNKSt10_HashtableImSt4pairIKmjESaIS2_ENSt8__detail10_Select1stESt8equal_toImESt4hashImENS4_18_Mod_range_hashingENS4_20_Default_ranged_hashENS4_20_Prime_rehash_policyENS4_17_Hashtable_traitsILb0ELb0ELb1EEEE12_M_find_nodeEmRS1_m = comdat any

$_ZNSt8__detail14_Node_iteratorISt4pairIKmjELb0ELb0EEC2EPNS_10_Hash_nodeIS3_Lb0EEE = comdat any

$_ZNSt8__detail22_Hashtable_hash_traitsISt4hashImEE22__small_size_thresholdEv = comdat any

$_ZNKSt10_HashtableImSt4pairIKmjESaIS2_ENSt8__detail10_Select1stESt8equal_toImESt4hashImENS4_18_Mod_range_hashingENS4_20_Default_ranged_hashENS4_20_Prime_rehash_policyENS4_17_Hashtable_traitsILb0ELb0ELb1EEEE8_M_beginEv = comdat any

$_ZNKSt8__detail15_Hashtable_baseImSt4pairIKmjENS_10_Select1stESt8equal_toImESt4hashImENS_18_Mod_range_hashingENS_20_Default_ranged_hashENS_17_Hashtable_traitsILb0ELb0ELb1EEEE5_M_eqEv = comdat any

$_ZNKSt8equal_toImEclERKmS2_ = comdat any

$_ZNKSt8__detail10_Select1stclIRKSt4pairIKmjEEEONS0_10__1st_typeIT_E4typeEOS8_ = comdat any

$_ZNKSt8__detail21_Hash_node_value_baseISt4pairIKmjEE4_M_vEv = comdat any

$_ZNKSt8__detail21_Hashtable_ebo_helperILi0ESt8equal_toImELb1EE7_M_cgetEv = comdat any

$_ZNKSt8__detail21_Hash_node_value_baseISt4pairIKmjEE9_M_valptrEv = comdat any

$_ZNK9__gnu_cxx16__aligned_bufferISt4pairIKmjEE6_M_ptrEv = comdat any

$_ZNK9__gnu_cxx16__aligned_bufferISt4pairIKmjEE7_M_addrEv = comdat any

$_ZNKSt8__detail15_Hash_code_baseImSt4pairIKmjENS_10_Select1stESt4hashImENS_18_Mod_range_hashingENS_20_Default_ranged_hashELb0EE7_M_hashEv = comdat any

$_ZNKSt4hashImEclEm = comdat any

$_ZNKSt8__detail21_Hashtable_ebo_helperILi1ESt4hashImELb1EE7_M_cgetEv = comdat any

$_ZNKSt8__detail15_Hash_code_baseImSt4pairIKmjENS_10_Select1stESt4hashImENS_18_Mod_range_hashingENS_20_Default_ranged_hashELb0EE15_M_bucket_indexEmm = comdat any

$_ZNKSt8__detail18_Mod_range_hashingclEmm = comdat any

$_ZNKSt10_HashtableImSt4pairIKmjESaIS2_ENSt8__detail10_Select1stESt8equal_toImESt4hashImENS4_18_Mod_range_hashingENS4_20_Default_ranged_hashENS4_20_Prime_rehash_policyENS4_17_Hashtable_traitsILb0ELb0ELb1EEEE19_M_find_before_nodeEmRS1_m = comdat any

$_ZNKSt8__detail15_Hashtable_baseImSt4pairIKmjENS_10_Select1stESt8equal_toImESt4hashImENS_18_Mod_range_hashingENS_20_Default_ranged_hashENS_17_Hashtable_traitsILb0ELb0ELb1EEEE9_M_equalsERS2_mRKNS_16_Hash_node_valueIS3_Lb0EEE = comdat any

$_ZNKSt10_HashtableImSt4pairIKmjESaIS2_ENSt8__detail10_Select1stESt8equal_toImESt4hashImENS4_18_Mod_range_hashingENS4_20_Default_ranged_hashENS4_20_Prime_rehash_policyENS4_17_Hashtable_traitsILb0ELb0ELb1EEEE15_M_bucket_indexERKNS4_16_Hash_node_valueIS2_Lb0EEE = comdat any

$_ZNKSt8__detail10_Hash_nodeISt4pairIKmjELb0EE7_M_nextEv = comdat any

$_ZNSt8__detail15_Hashtable_baseImSt4pairIKmjENS_10_Select1stESt8equal_toImESt4hashImENS_18_Mod_range_hashingENS_20_Default_ranged_hashENS_17_Hashtable_traitsILb0ELb0ELb1EEEE9_S_equalsEmRKNS_21_Hash_node_code_cacheILb0EEE = comdat any

$_ZNKSt8__detail15_Hash_code_baseImSt4pairIKmjENS_10_Select1stESt4hashImENS_18_Mod_range_hashingENS_20_Default_ranged_hashELb0EE15_M_bucket_indexERKNS_16_Hash_node_valueIS3_Lb0EEEm = comdat any

$_ZNSt8__detail19_Node_iterator_baseISt4pairIKmjELb0EEC2EPNS_10_Hash_nodeIS3_Lb0EEE = comdat any

$_ZNSt8__detail21_Hash_node_value_baseISt4pairIKmjEE9_M_valptrEv = comdat any

$_ZN9__gnu_cxx16__aligned_bufferISt4pairIKmjEE6_M_ptrEv = comdat any

$_ZN9__gnu_cxx16__aligned_bufferISt4pairIKmjEE7_M_addrEv = comdat any

$_ZNSt8__detail9_Map_baseImSt4pairIKmjESaIS3_ENS_10_Select1stESt8equal_toImESt4hashImENS_18_Mod_range_hashingENS_20_Default_ranged_hashENS_20_Prime_rehash_policyENS_17_Hashtable_traitsILb0ELb0ELb1EEELb1EEixERS2_ = comdat any

$_ZNSt8__detail21_Hash_node_value_baseISt4pairIKmjEE4_M_vEv = comdat any

$_ZNSt5tupleIJRKmEEC2ILb1ETnNSt9enable_ifIXclsr4_TCCIXT_EEE29__is_implicitly_constructibleIS1_EEEbE4typeELb1EEES1_ = comdat any

$_ZNSt10_HashtableImSt4pairIKmjESaIS2_ENSt8__detail10_Select1stESt8equal_toImESt4hashImENS4_18_Mod_range_hashingENS4_20_Default_ranged_hashENS4_20_Prime_rehash_policyENS4_17_Hashtable_traitsILb0ELb0ELb1EEEE12_Scoped_nodeC2IJRKSt21piecewise_construct_tSt5tupleIJRS1_EESL_IJEEEEEPNS4_16_Hashtable_allocISaINS4_10_Hash_nodeIS2_Lb0EEEEEEDpOT_ = comdat any

$_ZNSt10_HashtableImSt4pairIKmjESaIS2_ENSt8__detail10_Select1stESt8equal_toImESt4hashImENS4_18_Mod_range_hashingENS4_20_Default_ranged_hashENS4_20_Prime_rehash_policyENS4_17_Hashtable_traitsILb0ELb0ELb1EEEE21_M_insert_unique_nodeEmmPNS4_10_Hash_nodeIS2_Lb0EEEm = comdat any

$_ZNSt10_HashtableImSt4pairIKmjESaIS2_ENSt8__detail10_Select1stESt8equal_toImESt4hashImENS4_18_Mod_range_hashingENS4_20_Default_ranged_hashENS4_20_Prime_rehash_policyENS4_17_Hashtable_traitsILb0ELb0ELb1EEEE12_Scoped_nodeD2Ev = comdat any

$_ZNSt11_Tuple_implILm0EJRKmEEC2ES1_ = comdat any

$_ZNSt10_Head_baseILm0ERKmLb0EEC2ES1_ = comdat any

$_ZNSt8__detail16_Hashtable_allocISaINS_10_Hash_nodeISt4pairIKmjELb0EEEEE16_M_allocate_nodeIJRKSt21piecewise_construct_tSt5tupleIJRS3_EESC_IJEEEEEPS5_DpOT_ = comdat any

$_ZNSt16allocator_traitsISaINSt8__detail10_Hash_nodeISt4pairIKmjELb0EEEEE8allocateERS6_m = comdat any

$_ZNSt8__detail16_Hashtable_allocISaINS_10_Hash_nodeISt4pairIKmjELb0EEEEE17_M_node_allocatorEv = comdat any

$_ZSt12__to_addressINSt8__detail10_Hash_nodeISt4pairIKmjELb0EEEEPT_S7_ = comdat any

$_ZNSt8__detail10_Hash_nodeISt4pairIKmjELb0EEC2Ev = comdat any

$_ZNSt16allocator_traitsISaINSt8__detail10_Hash_nodeISt4pairIKmjELb0EEEEE9constructIS4_JRKSt21piecewise_construct_tSt5tupleIJRS3_EESC_IJEEEEEvRS6_PT_DpOT0_ = comdat any

$_ZNSt15__new_allocatorINSt8__detail10_Hash_nodeISt4pairIKmjELb0EEEE8allocateEmPKv = comdat any

$_ZNKSt15__new_allocatorINSt8__detail10_Hash_nodeISt4pairIKmjELb0EEEE11_M_max_sizeEv = comdat any

$_ZNSt8__detail21_Hashtable_ebo_helperILi0ESaINS_10_Hash_nodeISt4pairIKmjELb0EEEELb1EE6_M_getEv = comdat any

$_ZNSt15__new_allocatorINSt8__detail10_Hash_nodeISt4pairIKmjELb0EEEE9constructIS4_JRKSt21piecewise_construct_tSt5tupleIJRS3_EESB_IJEEEEEvPT_DpOT0_ = comdat any

$_ZNSt5tupleIJRKmEEC2EOS2_ = comdat any

$_ZNSt4pairIKmjEC2IJRS0_EJEEESt21piecewise_construct_tSt5tupleIJDpT_EES5_IJDpT0_EE = comdat any

$_ZNSt11_Tuple_implILm0EJRKmEEC2EOS2_ = comdat any

$_ZNSt4pairIKmjEC2IJRS0_EJLm0EEJETpTnmJEEERSt5tupleIJDpT_EERS4_IJDpT1_EESt12_Index_tupleIJXspT0_EEESD_IJXspT2_EEE = comdat any

$_ZSt3getILm0EJRKmEERNSt13tuple_elementIXT_ESt5tupleIJDpT0_EEE4typeERS6_ = comdat any

$_ZSt12__get_helperILm0ERKmJEERT0_RSt11_Tuple_implIXT_EJS2_DpT1_EE = comdat any

$_ZNSt11_Tuple_implILm0EJRKmEE7_M_headERS2_ = comdat any

$_ZNSt10_Head_baseILm0ERKmLb0EE7_M_headERS2_ = comdat any

$_ZNKSt8__detail20_Prime_rehash_policy8_M_stateEv = comdat any

$_ZNSt10_HashtableImSt4pairIKmjESaIS2_ENSt8__detail10_Select1stESt8equal_toImESt4hashImENS4_18_Mod_range_hashingENS4_20_Default_ranged_hashENS4_20_Prime_rehash_policyENS4_17_Hashtable_traitsILb0ELb0ELb1EEEE9_M_rehashEmRS1_ = comdat any

$_ZNKSt8__detail15_Hash_code_baseImSt4pairIKmjENS_10_Select1stESt4hashImENS_18_Mod_range_hashingENS_20_Default_ranged_hashELb0EE13_M_store_codeERNS_21_Hash_node_code_cacheILb0EEEm = comdat any

$_ZNSt10_HashtableImSt4pairIKmjESaIS2_ENSt8__detail10_Select1stESt8equal_toImESt4hashImENS4_18_Mod_range_hashingENS4_20_Default_ranged_hashENS4_20_Prime_rehash_policyENS4_17_Hashtable_traitsILb0ELb0ELb1EEEE22_M_insert_bucket_beginEmPNS4_10_Hash_nodeIS2_Lb0EEE = comdat any

$_ZNSt10_HashtableImSt4pairIKmjESaIS2_ENSt8__detail10_Select1stESt8equal_toImESt4hashImENS4_18_Mod_range_hashingENS4_20_Default_ranged_hashENS4_20_Prime_rehash_policyENS4_17_Hashtable_traitsILb0ELb0ELb1EEEE13_M_rehash_auxEmSt17integral_constantIbLb1EE = comdat any

$_ZNSt10_HashtableImSt4pairIKmjESaIS2_ENSt8__detail10_Select1stESt8equal_toImESt4hashImENS4_18_Mod_range_hashingENS4_20_Default_ranged_hashENS4_20_Prime_rehash_policyENS4_17_Hashtable_traitsILb0ELb0ELb1EEEE19_M_allocate_bucketsEm = comdat any

$_ZNSt10_HashtableImSt4pairIKmjESaIS2_ENSt8__detail10_Select1stESt8equal_toImESt4hashImENS4_18_Mod_range_hashingENS4_20_Default_ranged_hashENS4_20_Prime_rehash_policyENS4_17_Hashtable_traitsILb0ELb0ELb1EEEE21_M_deallocate_bucketsEv = comdat any

$_ZNSt8__detail16_Hashtable_allocISaINS_10_Hash_nodeISt4pairIKmjELb0EEEEE19_M_allocate_bucketsEm = comdat any

$_ZNSaIPNSt8__detail15_Hash_node_baseEEC2INS_10_Hash_nodeISt4pairIKmjELb0EEEEERKSaIT_E = comdat any

$_ZNSt16allocator_traitsISaIPNSt8__detail15_Hash_node_baseEEE8allocateERS3_m = comdat any

$_ZSt12__to_addressIPNSt8__detail15_Hash_node_baseEEPT_S4_ = comdat any

$_ZNSt15__new_allocatorIPNSt8__detail15_Hash_node_baseEED2Ev = comdat any

$_ZNSt15__new_allocatorIPNSt8__detail15_Hash_node_baseEEC2Ev = comdat any

$_ZNSt15__new_allocatorIPNSt8__detail15_Hash_node_baseEE8allocateEmPKv = comdat any

$_ZNKSt15__new_allocatorIPNSt8__detail15_Hash_node_baseEE11_M_max_sizeEv = comdat any

$_ZNSt10_HashtableImSt4pairIKmjESaIS2_ENSt8__detail10_Select1stESt8equal_toImESt4hashImENS4_18_Mod_range_hashingENS4_20_Default_ranged_hashENS4_20_Prime_rehash_policyENS4_17_Hashtable_traitsILb0ELb0ELb1EEEE21_M_deallocate_bucketsEPPNS4_15_Hash_node_baseEm = comdat any

$_ZNKSt10_HashtableImSt4pairIKmjESaIS2_ENSt8__detail10_Select1stESt8equal_toImESt4hashImENS4_18_Mod_range_hashingENS4_20_Default_ranged_hashENS4_20_Prime_rehash_policyENS4_17_Hashtable_traitsILb0ELb0ELb1EEEE21_M_uses_single_bucketEPPNS4_15_Hash_node_baseE = comdat any

$_ZNSt8__detail16_Hashtable_allocISaINS_10_Hash_nodeISt4pairIKmjELb0EEEEE21_M_deallocate_bucketsEPPNS_15_Hash_node_baseEm = comdat any

$_ZNSt19__ptr_traits_ptr_toIPPNSt8__detail15_Hash_node_baseES2_Lb0EE10pointer_toERS2_ = comdat any

$_ZNSt16allocator_traitsISaIPNSt8__detail15_Hash_node_baseEEE10deallocateERS3_PS2_m = comdat any

$_ZNSt15__new_allocatorIPNSt8__detail15_Hash_node_baseEE10deallocateEPS2_m = comdat any

$_ZNSt8__detail16_Hashtable_allocISaINS_10_Hash_nodeISt4pairIKmjELb0EEEEE18_M_deallocate_nodeEPS5_ = comdat any

$_ZNSt16allocator_traitsISaINSt8__detail10_Hash_nodeISt4pairIKmjELb0EEEEE7destroyIS4_EEvRS6_PT_ = comdat any

$_ZNSt8__detail16_Hashtable_allocISaINS_10_Hash_nodeISt4pairIKmjELb0EEEEE22_M_deallocate_node_ptrEPS5_ = comdat any

$_ZNSt15__new_allocatorINSt8__detail10_Hash_nodeISt4pairIKmjELb0EEEE7destroyIS4_EEvPT_ = comdat any

$_ZNSt19__ptr_traits_ptr_toIPNSt8__detail10_Hash_nodeISt4pairIKmjELb0EEES5_Lb0EE10pointer_toERS5_ = comdat any

$_ZNSt16allocator_traitsISaINSt8__detail10_Hash_nodeISt4pairIKmjELb0EEEEE10deallocateERS6_PS5_m = comdat any

$_ZNSt15__new_allocatorINSt8__detail10_Hash_nodeISt4pairIKmjELb0EEEE10deallocateEPS5_m = comdat any

$_ZN9__gnu_cxx17__normal_iteratorIPN5kitty18static_truth_tableILj11ELb0EEESt6vectorIS3_SaIS3_EEEC2ERKS4_ = comdat any

$_ZNK9__gnu_cxx17__normal_iteratorIPN5kitty18static_truth_tableILj11ELb0EEESt6vectorIS3_SaIS3_EEE4baseEv = comdat any

$_ZSt4fillIPmmEvT_S1_RKT0_ = comdat any

$_ZN5kitty18static_truth_tableILj11ELb0EE3endEv = comdat any

$_ZSt4copyIPKmPmET0_T_S4_S3_ = comdat any

$_ZNK5kitty18static_truth_tableILj11ELb0EE6cbeginEv = comdat any

$_ZNSt5arrayImLm32EE3endEv = comdat any

$_ZSt13__copy_move_aILb0EPKmPmET1_T0_S4_S3_ = comdat any

$_ZSt12__miter_baseIPKmET_S2_ = comdat any

$_ZSt12__niter_wrapIPmET_RKS1_S1_ = comdat any

$_ZSt14__copy_move_a1ILb0EPKmPmET1_T0_S4_S3_ = comdat any

$_ZSt12__niter_baseIPKmET_S2_ = comdat any

$_ZSt12__niter_baseIPmET_S1_ = comdat any

$_ZSt14__copy_move_a2ILb0EPKmPmET1_T0_S4_S3_ = comdat any

$_ZNSt11__copy_moveILb0ELb1ESt26random_access_iterator_tagE8__copy_mImEEPT_PKS3_S6_S4_ = comdat any

$_ZNKSt5arrayImLm32EE6cbeginEv = comdat any

$_ZNKSt5arrayImLm32EE4dataEv = comdat any

$_ZNSt8__detail19_Node_iterator_baseISt4pairIKmjELb0EE7_M_incrEv = comdat any

$_ZNSt11char_traitsIcE6lengthEPKc = comdat any

$_ZStorSt12_Ios_IostateS_ = comdat any

$_ZNK5kitty18static_truth_tableILj11ELb0EE8num_varsEv = comdat any

$_ZNK5kitty18static_truth_tableILj11ELb0EE8num_bitsEv = comdat any

$_ZN5kitty23for_each_block_reversedINS_18static_truth_tableILj11ELb0EEEZNS_9print_hexIS2_EEvRKT_RSoEUlmE_EEvS6_OT0_ = comdat any

$_ZSt8for_eachISt16reverse_iteratorIPKmEZN5kitty9print_hexINS4_18static_truth_tableILj11ELb0EEEEEvRKT_RSoEUlmE_ET0_S8_S8_SD_ = comdat any

$_ZNK5kitty18static_truth_tableILj11ELb0EE7crbeginEv = comdat any

$_ZNK5kitty18static_truth_tableILj11ELb0EE5crendEv = comdat any

$_ZStneIPKmEbRKSt16reverse_iteratorIT_ES6_ = comdat any

$_ZZN5kitty9print_hexINS_18static_truth_tableILj11ELb0EEEEEvRKT_RSoENKUlmE_clEm = comdat any

$_ZNKSt16reverse_iteratorIPKmEdeEv = comdat any

$_ZNSt16reverse_iteratorIPKmEppEv = comdat any

$_ZSteqIPKmEbRKSt16reverse_iteratorIT_ES6_ = comdat any

$_ZNKSt16reverse_iteratorIPKmE4baseEv = comdat any

$_ZNSt7__cxx1112basic_stringIcSt11char_traitsIcESaIcEEC2IS3_EEmcRKS3_ = comdat any

$_ZStneIN9__gnu_cxx17__normal_iteratorIPcNSt7__cxx1112basic_stringIcSt11char_traitsIcESaIcEEEEEEbRKSt16reverse_iteratorIT_ESE_ = comdat any

$_ZNKSt16reverse_iteratorIN9__gnu_cxx17__normal_iteratorIPcNSt7__cxx1112basic_stringIcSt11char_traitsIcESaIcEEEEEEdeEv = comdat any

$_ZNSt16reverse_iteratorIN9__gnu_cxx17__normal_iteratorIPcNSt7__cxx1112basic_stringIcSt11char_traitsIcESaIcEEEEEEppEv = comdat any

$_ZNSt15__new_allocatorIcEC2Ev = comdat any

$_ZNSt19__ptr_traits_ptr_toIPccLb0EE10pointer_toERc = comdat any

$_ZNSt15__new_allocatorIcEC2ERKS0_ = comdat any

$_ZNSt16reverse_iteratorIN9__gnu_cxx17__normal_iteratorIPcNSt7__cxx1112basic_stringIcSt11char_traitsIcESaIcEEEEEEC2ES9_ = comdat any

$_ZN9__gnu_cxx17__normal_iteratorIPcNSt7__cxx1112basic_stringIcSt11char_traitsIcESaIcEEEEC2ERKS1_ = comdat any

$_ZSteqIN9__gnu_cxx17__normal_iteratorIPcNSt7__cxx1112basic_stringIcSt11char_traitsIcESaIcEEEEEEbRKSt16reverse_iteratorIT_ESE_ = comdat any

$_ZN9__gnu_cxxeqIPcNSt7__cxx1112basic_stringIcSt11char_traitsIcESaIcEEEEEbRKNS_17__normal_iteratorIT_T0_EESD_ = comdat any

$_ZNKSt16reverse_iteratorIN9__gnu_cxx17__normal_iteratorIPcNSt7__cxx1112basic_stringIcSt11char_traitsIcESaIcEEEEEE4baseEv = comdat any

$_ZNK9__gnu_cxx17__normal_iteratorIPcNSt7__cxx1112basic_stringIcSt11char_traitsIcESaIcEEEE4baseEv = comdat any

$_ZN9__gnu_cxx17__normal_iteratorIPcNSt7__cxx1112basic_stringIcSt11char_traitsIcESaIcEEEEmmEv = comdat any

$_ZNK9__gnu_cxx17__normal_iteratorIPcNSt7__cxx1112basic_stringIcSt11char_traitsIcESaIcEEEEdeEv = comdat any

$_ZNSt15__new_allocatorIcED2Ev = comdat any

$_ZNSt19__ptr_traits_ptr_toIPKcS0_Lb0EE10pointer_toERS0_ = comdat any

$_ZNSt16allocator_traitsISaIcEE10deallocateERS0_Pcm = comdat any

$_ZNSt15__new_allocatorIcE10deallocateEPcm = comdat any

$_ZNKSt5arrayImLm32EE7crbeginEv = comdat any

$_ZNKSt5arrayImLm32EE3endEv = comdat any

$_ZNSt16reverse_iteratorIPKmEC2ES1_ = comdat any

$_ZNKSt5arrayImLm32EE5crendEv = comdat any

$_ZNKSt5arrayImLm32EE5beginEv = comdat any

$_ZNSt6vectorIN5kitty18static_truth_tableILj11ELb0EEESaIS2_EE14_M_move_assignEOS4_St17integral_constantIbLb1EE = comdat any

$_ZNKSt12_Vector_baseIN5kitty18static_truth_tableILj11ELb0EEESaIS2_EE13get_allocatorEv = comdat any

$_ZNSt6vectorIN5kitty18static_truth_tableILj11ELb0EEESaIS2_EEC2ERKS3_ = comdat any

$_ZNSt12_Vector_baseIN5kitty18static_truth_tableILj11ELb0EEESaIS2_EE17_Vector_impl_data12_M_swap_dataERS5_ = comdat any

$_ZSt15__alloc_on_moveISaIN5kitty18static_truth_tableILj11ELb0EEEEEvRT_S5_ = comdat any

$_ZNKSt12_Vector_baseIN5kitty18static_truth_tableILj11ELb0EEESaIS2_EE19_M_get_Tp_allocatorEv = comdat any

$_ZNSt12_Vector_baseIN5kitty18static_truth_tableILj11ELb0EEESaIS2_EEC2ERKS3_ = comdat any

$_ZNSt12_Vector_baseIN5kitty18static_truth_tableILj11ELb0EEESaIS2_EE17_Vector_impl_dataC2Ev = comdat any

$_ZNSt12_Vector_baseIN5kitty18static_truth_tableILj11ELb0EEESaIS2_EE17_Vector_impl_data12_M_copy_dataERKS5_ = comdat any

$_ZNSt10_HashtableImSt4pairIKmjESaIS2_ENSt8__detail10_Select1stESt8equal_toImESt4hashImENS4_18_Mod_range_hashingENS4_20_Default_ranged_hashENS4_20_Prime_rehash_policyENS4_17_Hashtable_traitsILb0ELb0ELb1EEEED2Ev = comdat any

$_ZNSt10_HashtableImSt4pairIKmjESaIS2_ENSt8__detail10_Select1stESt8equal_toImESt4hashImENS4_18_Mod_range_hashingENS4_20_Default_ranged_hashENS4_20_Prime_rehash_policyENS4_17_Hashtable_traitsILb0ELb0ELb1EEEE5clearEv = comdat any

$_ZNSt15__new_allocatorINSt8__detail10_Hash_nodeISt4pairIKmjELb0EEEED2Ev = comdat any

$_ZNSt8__detail16_Hashtable_allocISaINS_10_Hash_nodeISt4pairIKmjELb0EEEEE19_M_deallocate_nodesEPS5_ = comdat any

$_ZNSaISt5arrayIjLm2EEEC2Ev = comdat any

$_ZNSt6vectorISt5arrayIjLm2EESaIS1_EEC2EmRKS2_ = comdat any

$_ZNSt6vectorISt5arrayIjLm2EESaIS1_EEaSEOS3_ = comdat any

$_ZNSt15__new_allocatorISt5arrayIjLm2EEED2Ev = comdat any

$_ZN3acd21ac_decomposition_impl43generate_support_minimization_encodings_recILb0ELb1EEEvjjjRjib = comdat any

$_ZN3acd21ac_decomposition_impl43generate_support_minimization_encodings_recILb0ELb0EEEvjjjRjib = comdat any

$_ZN3acd21ac_decomposition_impl43generate_support_minimization_encodings_recILb1ELb0EEEvjjjRjib = comdat any

$_ZNSt6vectorISt5arrayIjLm2EESaIS1_EE17_S_check_init_lenEmRKS2_ = comdat any

$_ZNSt12_Vector_baseISt5arrayIjLm2EESaIS1_EEC2EmRKS2_ = comdat any

$_ZNSt6vectorISt5arrayIjLm2EESaIS1_EE21_M_default_initializeEm = comdat any

$_ZNSt6vectorISt5arrayIjLm2EESaIS1_EE11_S_max_sizeERKS2_ = comdat any

$_ZNSaISt5arrayIjLm2EEEC2ERKS1_ = comdat any

$_ZNSt16allocator_traitsISaISt5arrayIjLm2EEEE8max_sizeERKS2_ = comdat any

$_ZNKSt15__new_allocatorISt5arrayIjLm2EEE8max_sizeEv = comdat any

$_ZNKSt15__new_allocatorISt5arrayIjLm2EEE11_M_max_sizeEv = comdat any

$_ZNSt15__new_allocatorISt5arrayIjLm2EEEC2ERKS2_ = comdat any

$_ZNSt12_Vector_baseISt5arrayIjLm2EESaIS1_EE12_Vector_implC2ERKS2_ = comdat any

$_ZNSt12_Vector_baseISt5arrayIjLm2EESaIS1_EE17_M_create_storageEm = comdat any

$_ZNSt12_Vector_baseISt5arrayIjLm2EESaIS1_EE11_M_allocateEm = comdat any

$_ZNSt16allocator_traitsISaISt5arrayIjLm2EEEE8allocateERS2_m = comdat any

$_ZNSt15__new_allocatorISt5arrayIjLm2EEE8allocateEmPKv = comdat any

$_ZSt27__uninitialized_default_n_aIPSt5arrayIjLm2EEmS1_ET_S3_T0_RSaIT1_E = comdat any

$_ZSt25__uninitialized_default_nIPSt5arrayIjLm2EEmET_S3_T0_ = comdat any

$_ZNSt27__uninitialized_default_n_1ILb1EE18__uninit_default_nIPSt5arrayIjLm2EEmEET_S5_T0_ = comdat any

$_ZSt10_ConstructISt5arrayIjLm2EEJEEvPT_DpOT0_ = comdat any

$_ZSt6fill_nIPSt5arrayIjLm2EEmS1_ET_S3_T0_RKT1_ = comdat any

$_ZSt10__fill_n_aIPSt5arrayIjLm2EEmS1_ET_S3_T0_RKT1_St26random_access_iterator_tag = comdat any

$_ZSt19__iterator_categoryIPSt5arrayIjLm2EEENSt15iterator_traitsIT_E17iterator_categoryERKS4_ = comdat any

$_ZSt8__fill_aIPSt5arrayIjLm2EES1_EvT_S3_RKT0_ = comdat any

$_ZSt9__fill_a1IPSt5arrayIjLm2EES1_EN9__gnu_cxx11__enable_ifIXntsr11__is_scalarIT0_EE7__valueEvE6__typeET_S8_RKS5_ = comdat any

$_ZNSt6vectorISt5arrayIjLm2EESaIS1_EE14_M_move_assignEOS3_St17integral_constantIbLb1EE = comdat any

$_ZNKSt12_Vector_baseISt5arrayIjLm2EESaIS1_EE13get_allocatorEv = comdat any

$_ZNSt6vectorISt5arrayIjLm2EESaIS1_EEC2ERKS2_ = comdat any

$_ZNSt12_Vector_baseISt5arrayIjLm2EESaIS1_EE17_Vector_impl_data12_M_swap_dataERS4_ = comdat any

$_ZSt15__alloc_on_moveISaISt5arrayIjLm2EEEEvRT_S4_ = comdat any

$_ZNKSt12_Vector_baseISt5arrayIjLm2EESaIS1_EE19_M_get_Tp_allocatorEv = comdat any

$_ZNSt12_Vector_baseISt5arrayIjLm2EESaIS1_EEC2ERKS2_ = comdat any

$_ZNSt12_Vector_baseISt5arrayIjLm2EESaIS1_EE17_Vector_impl_dataC2Ev = comdat any

$_ZNSt12_Vector_baseISt5arrayIjLm2EESaIS1_EE17_Vector_impl_data12_M_copy_dataERKS4_ = comdat any

$_ZNSt6vectorISt5arrayIjLm2EESaIS1_EEixEm = comdat any

$_ZNSt5arrayIjLm2EEixEm = comdat any

$_ZNSt14__array_traitsIjLm2EE6_S_refERA2_Kjm = comdat any

$_ZNSt6vectorIN3acd21ac_decomposition_impl15encoding_columnESaIS2_EEC2Ev = comdat any

$_ZNSt6vectorIN3acd21ac_decomposition_impl15encoding_columnESaIS2_EE7reserveEm = comdat any

$_ZNKSt6vectorISt5arrayIjLm2EESaIS1_EE4sizeEv = comdat any

$_ZNSt6vectorIN5kitty18static_truth_tableILj11ELb0EEESaIS2_EE5clearEv = comdat any

$_ZN3acd21ac_decomposition_impl22create_covering_matrixILb0EEEbRKSt6vectorIN5kitty18static_truth_tableILj11ELb0EEESaIS5_EERS2_INS0_15encoding_columnESaISA_EEb = comdat any

$_ZN3acd21ac_decomposition_impl20covering_solve_exactERSt6vectorINS0_15encoding_columnESaIS2_EE = comdat any

$_ZNSt5arrayIjLm6EEixEm = comdat any

$_ZNSt6vectorImSaImEE5clearEv = comdat any

$_ZNSt6vectorIN3acd21ac_decomposition_impl15encoding_columnESaIS2_EEixEm = comdat any

$_ZN5kittyoRILj11EEEvRNS_18static_truth_tableIXT_ELb0EEERKS2_ = comdat any

$_ZNKSt6vectorIN5kitty18static_truth_tableILj11ELb0EEESaIS2_EEixEm = comdat any

$_ZNSt6vectorIN5kitty18static_truth_tableILj11ELb0EEESaIS2_EE9push_backERKS2_ = comdat any

$_ZNSt6vectorImSaImEE9push_backEOm = comdat any

$_ZNSt6vectorIN3acd21ac_decomposition_impl15encoding_columnESaIS2_EED2Ev = comdat any

$_ZNSt12_Vector_baseIN3acd21ac_decomposition_impl15encoding_columnESaIS2_EEC2Ev = comdat any

$_ZNSt12_Vector_baseIN3acd21ac_decomposition_impl15encoding_columnESaIS2_EE12_Vector_implC2Ev = comdat any

$_ZNSaIN3acd21ac_decomposition_impl15encoding_columnEEC2Ev = comdat any

$_ZNSt12_Vector_baseIN3acd21ac_decomposition_impl15encoding_columnESaIS2_EE17_Vector_impl_dataC2Ev = comdat any

$_ZNSt15__new_allocatorIN3acd21ac_decomposition_impl15encoding_columnEEC2Ev = comdat any

$_ZNKSt6vectorIN3acd21ac_decomposition_impl15encoding_columnESaIS2_EE8max_sizeEv = comdat any

$_ZNKSt6vectorIN3acd21ac_decomposition_impl15encoding_columnESaIS2_EE8capacityEv = comdat any

$_ZNKSt6vectorIN3acd21ac_decomposition_impl15encoding_columnESaIS2_EE4sizeEv = comdat any

$_ZNSt12_Vector_baseIN3acd21ac_decomposition_impl15encoding_columnESaIS2_EE11_M_allocateEm = comdat any

$_ZNSt6vectorIN3acd21ac_decomposition_impl15encoding_columnESaIS2_EE11_S_relocateEPS2_S5_S5_RS3_ = comdat any

$_ZNSt12_Vector_baseIN3acd21ac_decomposition_impl15encoding_columnESaIS2_EE19_M_get_Tp_allocatorEv = comdat any

$_ZNSt12_Vector_baseIN3acd21ac_decomposition_impl15encoding_columnESaIS2_EE13_M_deallocateEPS2_m = comdat any

$_ZNSt6vectorIN3acd21ac_decomposition_impl15encoding_columnESaIS2_EE11_S_max_sizeERKS3_ = comdat any

$_ZNKSt12_Vector_baseIN3acd21ac_decomposition_impl15encoding_columnESaIS2_EE19_M_get_Tp_allocatorEv = comdat any

$_ZNSt16allocator_traitsISaIN3acd21ac_decomposition_impl15encoding_columnEEE8max_sizeERKS3_ = comdat any

$_ZNKSt15__new_allocatorIN3acd21ac_decomposition_impl15encoding_columnEE8max_sizeEv = comdat any

$_ZNKSt15__new_allocatorIN3acd21ac_decomposition_impl15encoding_columnEE11_M_max_sizeEv = comdat any

$_ZNSt16allocator_traitsISaIN3acd21ac_decomposition_impl15encoding_columnEEE8allocateERS3_m = comdat any

$_ZNSt15__new_allocatorIN3acd21ac_decomposition_impl15encoding_columnEE8allocateEmPKv = comdat any

$_ZSt12__relocate_aIPN3acd21ac_decomposition_impl15encoding_columnES3_SaIS2_EET0_T_S6_S5_RT1_ = comdat any

$_ZSt14__relocate_a_1IN3acd21ac_decomposition_impl15encoding_columnES2_ENSt9enable_ifIXsr3std24__is_bitwise_relocatableIT_EE5valueEPS4_E4typeES5_S5_S5_RSaIT0_E = comdat any

$_ZSt12__niter_baseIPN3acd21ac_decomposition_impl15encoding_columnEET_S4_ = comdat any

$_ZNSt16allocator_traitsISaIN3acd21ac_decomposition_impl15encoding_columnEEE10deallocateERS3_PS2_m = comdat any

$_ZNSt15__new_allocatorIN3acd21ac_decomposition_impl15encoding_columnEE10deallocateEPS2_m = comdat any

$_ZNSt6vectorIN5kitty18static_truth_tableILj11ELb0EEESaIS2_EE15_M_erase_at_endEPS2_ = comdat any

$_ZN3acd21ac_decomposition_impl15has_var_supportERKN5kitty18static_truth_tableILj11ELb0EEES5_jh = comdat any

$_ZNSt6vectorIN3acd21ac_decomposition_impl15encoding_columnESaIS2_EE12emplace_backIJS2_EEERS2_DpOT_ = comdat any

$_ZSt4sortIN9__gnu_cxx17__normal_iteratorIPN3acd21ac_decomposition_impl15encoding_columnESt6vectorIS4_SaIS4_EEEEZNS3_22create_covering_matrixILb0EEEbRKS6_IN5kitty18static_truth_tableILj11ELb0EEESaISD_EERS8_bEUlRKS4_SK_E0_EvT_SM_T0_ = comdat any

$_ZNSt6vectorIN3acd21ac_decomposition_impl15encoding_columnESaIS2_EE5beginEv = comdat any

$_ZNSt6vectorIN3acd21ac_decomposition_impl15encoding_columnESaIS2_EE3endEv = comdat any

$_ZSt5beginISt5arrayImLm32EEEDTcldtfp_5beginEERKT_ = comdat any

$_ZNSt16allocator_traitsISaIN3acd21ac_decomposition_impl15encoding_columnEEE9constructIS2_JS2_EEEvRS3_PT_DpOT0_ = comdat any

$_ZNSt6vectorIN3acd21ac_decomposition_impl15encoding_columnESaIS2_EE17_M_realloc_insertIJS2_EEEvN9__gnu_cxx17__normal_iteratorIPS2_S4_EEDpOT_ = comdat any

$_ZNSt6vectorIN3acd21ac_decomposition_impl15encoding_columnESaIS2_EE4backEv = comdat any

$_ZNSt15__new_allocatorIN3acd21ac_decomposition_impl15encoding_columnEE9constructIS2_JS2_EEEvPT_DpOT0_ = comdat any

$_ZNKSt6vectorIN3acd21ac_decomposition_impl15encoding_columnESaIS2_EE12_M_check_lenEmPKc = comdat any

$_ZN9__gnu_cxxmiIPN3acd21ac_decomposition_impl15encoding_columnESt6vectorIS3_SaIS3_EEEENS_17__normal_iteratorIT_T0_E15difference_typeERKSB_SE_ = comdat any

$_ZNK9__gnu_cxx17__normal_iteratorIPN3acd21ac_decomposition_impl15encoding_columnESt6vectorIS3_SaIS3_EEE4baseEv = comdat any

$_ZSt3maxImERKT_S2_S2_ = comdat any

$_ZNK9__gnu_cxx17__normal_iteratorIPN3acd21ac_decomposition_impl15encoding_columnESt6vectorIS3_SaIS3_EEEmiEl = comdat any

$_ZNK9__gnu_cxx17__normal_iteratorIPN3acd21ac_decomposition_impl15encoding_columnESt6vectorIS3_SaIS3_EEEdeEv = comdat any

$_ZN9__gnu_cxx17__normal_iteratorIPN3acd21ac_decomposition_impl15encoding_columnESt6vectorIS3_SaIS3_EEEC2ERKS4_ = comdat any

$_ZSt6__sortIN9__gnu_cxx17__normal_iteratorIPN3acd21ac_decomposition_impl15encoding_columnESt6vectorIS4_SaIS4_EEEENS0_5__ops15_Iter_comp_iterIZNS3_22create_covering_matrixILb0EEEbRKS6_IN5kitty18static_truth_tableILj11ELb0EEESaISF_EERS8_bEUlRKS4_SM_E0_EEEvT_SP_T0_ = comdat any

$_ZN9__gnu_cxx5__ops16__iter_comp_iterIZN3acd21ac_decomposition_impl22create_covering_matrixILb0EEEbRKSt6vectorIN5kitty18static_truth_tableILj11ELb0EEESaIS8_EERS5_INS3_15encoding_columnESaISD_EEbEUlRKSD_SI_E0_EENS0_15_Iter_comp_iterIT_EESL_ = comdat any

$_ZN9__gnu_cxxneIPN3acd21ac_decomposition_impl15encoding_columnESt6vectorIS3_SaIS3_EEEEbRKNS_17__normal_iteratorIT_T0_EESD_ = comdat any

$_ZSt16__introsort_loopIN9__gnu_cxx17__normal_iteratorIPN3acd21ac_decomposition_impl15encoding_columnESt6vectorIS4_SaIS4_EEEElNS0_5__ops15_Iter_comp_iterIZNS3_22create_covering_matrixILb0EEEbRKS6_IN5kitty18static_truth_tableILj11ELb0EEESaISF_EERS8_bEUlRKS4_SM_E0_EEEvT_SP_T0_T1_ = comdat any

$_ZSt22__final_insertion_sortIN9__gnu_cxx17__normal_iteratorIPN3acd21ac_decomposition_impl15encoding_columnESt6vectorIS4_SaIS4_EEEENS0_5__ops15_Iter_comp_iterIZNS3_22create_covering_matrixILb0EEEbRKS6_IN5kitty18static_truth_tableILj11ELb0EEESaISF_EERS8_bEUlRKS4_SM_E0_EEEvT_SP_T0_ = comdat any

$_ZSt14__partial_sortIN9__gnu_cxx17__normal_iteratorIPN3acd21ac_decomposition_impl15encoding_columnESt6vectorIS4_SaIS4_EEEENS0_5__ops15_Iter_comp_iterIZNS3_22create_covering_matrixILb0EEEbRKS6_IN5kitty18static_truth_tableILj11ELb0EEESaISF_EERS8_bEUlRKS4_SM_E0_EEEvT_SP_SP_T0_ = comdat any

$_ZSt27__unguarded_partition_pivotIN9__gnu_cxx17__normal_iteratorIPN3acd21ac_decomposition_impl15encoding_columnESt6vectorIS4_SaIS4_EEEENS0_5__ops15_Iter_comp_iterIZNS3_22create_covering_matrixILb0EEEbRKS6_IN5kitty18static_truth_tableILj11ELb0EEESaISF_EERS8_bEUlRKS4_SM_E0_EEET_SP_SP_T0_ = comdat any

$_ZSt13__heap_selectIN9__gnu_cxx17__normal_iteratorIPN3acd21ac_decomposition_impl15encoding_columnESt6vectorIS4_SaIS4_EEEENS0_5__ops15_Iter_comp_iterIZNS3_22create_covering_matrixILb0EEEbRKS6_IN5kitty18static_truth_tableILj11ELb0EEESaISF_EERS8_bEUlRKS4_SM_E0_EEEvT_SP_SP_T0_ = comdat any

$_ZSt11__sort_heapIN9__gnu_cxx17__normal_iteratorIPN3acd21ac_decomposition_impl15encoding_columnESt6vectorIS4_SaIS4_EEEENS0_5__ops15_Iter_comp_iterIZNS3_22create_covering_matrixILb0EEEbRKS6_IN5kitty18static_truth_tableILj11ELb0EEESaISF_EERS8_bEUlRKS4_SM_E0_EEEvT_SP_RT0_ = comdat any

$_ZSt11__make_heapIN9__gnu_cxx17__normal_iteratorIPN3acd21ac_decomposition_impl15encoding_columnESt6vectorIS4_SaIS4_EEEENS0_5__ops15_Iter_comp_iterIZNS3_22create_covering_matrixILb0EEEbRKS6_IN5kitty18static_truth_tableILj11ELb0EEESaISF_EERS8_bEUlRKS4_SM_E0_EEEvT_SP_RT0_ = comdat any

$_ZN9__gnu_cxxltIPN3acd21ac_decomposition_impl15encoding_columnESt6vectorIS3_SaIS3_EEEEbRKNS_17__normal_iteratorIT_T0_EESD_ = comdat any

$_ZN9__gnu_cxx5__ops15_Iter_comp_iterIZN3acd21ac_decomposition_impl22create_covering_matrixILb0EEEbRKSt6vectorIN5kitty18static_truth_tableILj11ELb0EEESaIS8_EERS5_INS3_15encoding_columnESaISD_EEbEUlRKSD_SI_E0_EclINS_17__normal_iteratorIPSD_SF_EESO_EEbT_T0_ = comdat any

$_ZSt10__pop_heapIN9__gnu_cxx17__normal_iteratorIPN3acd21ac_decomposition_impl15encoding_columnESt6vectorIS4_SaIS4_EEEENS0_5__ops15_Iter_comp_iterIZNS3_22create_covering_matrixILb0EEEbRKS6_IN5kitty18static_truth_tableILj11ELb0EEESaISF_EERS8_bEUlRKS4_SM_E0_EEEvT_SP_SP_RT0_ = comdat any

$_ZN9__gnu_cxx17__normal_iteratorIPN3acd21ac_decomposition_impl15encoding_columnESt6vectorIS3_SaIS3_EEEppEv = comdat any

$_ZNK9__gnu_cxx17__normal_iteratorIPN3acd21ac_decomposition_impl15encoding_columnESt6vectorIS3_SaIS3_EEEplEl = comdat any

$_ZSt13__adjust_heapIN9__gnu_cxx17__normal_iteratorIPN3acd21ac_decomposition_impl15encoding_columnESt6vectorIS4_SaIS4_EEEElS4_NS0_5__ops15_Iter_comp_iterIZNS3_22create_covering_matrixILb0EEEbRKS6_IN5kitty18static_truth_tableILj11ELb0EEESaISF_EERS8_bEUlRKS4_SM_E0_EEEvT_T0_SQ_T1_T2_ = comdat any

$_ZN9__gnu_cxx5__ops14_Iter_comp_valIZN3acd21ac_decomposition_impl22create_covering_matrixILb0EEEbRKSt6vectorIN5kitty18static_truth_tableILj11ELb0EEESaIS8_EERS5_INS3_15encoding_columnESaISD_EEbEUlRKSD_SI_E0_EC2EONS0_15_Iter_comp_iterISJ_EE = comdat any

$_ZSt11__push_heapIN9__gnu_cxx17__normal_iteratorIPN3acd21ac_decomposition_impl15encoding_columnESt6vectorIS4_SaIS4_EEEElS4_NS0_5__ops14_Iter_comp_valIZNS3_22create_covering_matrixILb0EEEbRKS6_IN5kitty18static_truth_tableILj11ELb0EEESaISF_EERS8_bEUlRKS4_SM_E0_EEEvT_T0_SQ_T1_RT2_ = comdat any

$_ZN9__gnu_cxx5__ops14_Iter_comp_valIZN3acd21ac_decomposition_impl22create_covering_matrixILb0EEEbRKSt6vectorIN5kitty18static_truth_tableILj11ELb0EEESaIS8_EERS5_INS3_15encoding_columnESaISD_EEbEUlRKSD_SI_E0_EclINS_17__normal_iteratorIPSD_SF_EESD_EEbT_RT0_ = comdat any

$_ZZN3acd21ac_decomposition_impl22create_covering_matrixILb0EEEbRKSt6vectorIN5kitty18static_truth_tableILj11ELb0EEESaIS5_EERS2_INS0_15encoding_columnESaISA_EEbENKUlRKSA_SF_E0_clESF_SF_ = comdat any

$_ZN9__gnu_cxx17__normal_iteratorIPN3acd21ac_decomposition_impl15encoding_columnESt6vectorIS3_SaIS3_EEEmmEv = comdat any

$_ZSt22__move_median_to_firstIN9__gnu_cxx17__normal_iteratorIPN3acd21ac_decomposition_impl15encoding_columnESt6vectorIS4_SaIS4_EEEENS0_5__ops15_Iter_comp_iterIZNS3_22create_covering_matrixILb0EEEbRKS6_IN5kitty18static_truth_tableILj11ELb0EEESaISF_EERS8_bEUlRKS4_SM_E0_EEEvT_SP_SP_SP_T0_ = comdat any

$_ZSt21__unguarded_partitionIN9__gnu_cxx17__normal_iteratorIPN3acd21ac_decomposition_impl15encoding_columnESt6vectorIS4_SaIS4_EEEENS0_5__ops15_Iter_comp_iterIZNS3_22create_covering_matrixILb0EEEbRKS6_IN5kitty18static_truth_tableILj11ELb0EEESaISF_EERS8_bEUlRKS4_SM_E0_EEET_SP_SP_SP_T0_ = comdat any

$_ZSt9iter_swapIN9__gnu_cxx17__normal_iteratorIPN3acd21ac_decomposition_impl15encoding_columnESt6vectorIS4_SaIS4_EEEES9_EvT_T0_ = comdat any

$_ZSt4swapIN3acd21ac_decomposition_impl15encoding_columnEENSt9enable_ifIXsr6__and_ISt6__not_ISt15__is_tuple_likeIT_EESt21is_move_constructibleIS6_ESt18is_move_assignableIS6_EEE5valueEvE4typeERS6_SF_ = comdat any

$_ZSt16__insertion_sortIN9__gnu_cxx17__normal_iteratorIPN3acd21ac_decomposition_impl15encoding_columnESt6vectorIS4_SaIS4_EEEENS0_5__ops15_Iter_comp_iterIZNS3_22create_covering_matrixILb0EEEbRKS6_IN5kitty18static_truth_tableILj11ELb0EEESaISF_EERS8_bEUlRKS4_SM_E0_EEEvT_SP_T0_ = comdat any

$_ZSt26__unguarded_insertion_sortIN9__gnu_cxx17__normal_iteratorIPN3acd21ac_decomposition_impl15encoding_columnESt6vectorIS4_SaIS4_EEEENS0_5__ops15_Iter_comp_iterIZNS3_22create_covering_matrixILb0EEEbRKS6_IN5kitty18static_truth_tableILj11ELb0EEESaISF_EERS8_bEUlRKS4_SM_E0_EEEvT_SP_T0_ = comdat any

$_ZN9__gnu_cxxeqIPN3acd21ac_decomposition_impl15encoding_columnESt6vectorIS3_SaIS3_EEEEbRKNS_17__normal_iteratorIT_T0_EESD_ = comdat any

$_ZSt13move_backwardIN9__gnu_cxx17__normal_iteratorIPN3acd21ac_decomposition_impl15encoding_columnESt6vectorIS4_SaIS4_EEEES9_ET0_T_SB_SA_ = comdat any

$_ZSt25__unguarded_linear_insertIN9__gnu_cxx17__normal_iteratorIPN3acd21ac_decomposition_impl15encoding_columnESt6vectorIS4_SaIS4_EEEENS0_5__ops14_Val_comp_iterIZNS3_22create_covering_matrixILb0EEEbRKS6_IN5kitty18static_truth_tableILj11ELb0EEESaISF_EERS8_bEUlRKS4_SM_E0_EEEvT_T0_ = comdat any

$_ZN9__gnu_cxx5__ops15__val_comp_iterIZN3acd21ac_decomposition_impl22create_covering_matrixILb0EEEbRKSt6vectorIN5kitty18static_truth_tableILj11ELb0EEESaIS8_EERS5_INS3_15encoding_columnESaISD_EEbEUlRKSD_SI_E0_EENS0_14_Val_comp_iterIT_EENS0_15_Iter_comp_iterISL_EE = comdat any

$_ZSt22__copy_move_backward_aILb1EN9__gnu_cxx17__normal_iteratorIPN3acd21ac_decomposition_impl15encoding_columnESt6vectorIS4_SaIS4_EEEES9_ET1_T0_SB_SA_ = comdat any

$_ZSt12__miter_baseIN9__gnu_cxx17__normal_iteratorIPN3acd21ac_decomposition_impl15encoding_columnESt6vectorIS4_SaIS4_EEEEET_SA_ = comdat any

$_ZSt12__niter_wrapIN9__gnu_cxx17__normal_iteratorIPN3acd21ac_decomposition_impl15encoding_columnESt6vectorIS4_SaIS4_EEEES5_ET_SA_T0_ = comdat any

$_ZSt23__copy_move_backward_a1ILb1EPN3acd21ac_decomposition_impl15encoding_columnES3_ET1_T0_S5_S4_ = comdat any

$_ZSt12__niter_baseIPN3acd21ac_decomposition_impl15encoding_columnESt6vectorIS2_SaIS2_EEET_N9__gnu_cxx17__normal_iteratorIS7_T0_EE = comdat any

$_ZSt23__copy_move_backward_a2ILb1EPN3acd21ac_decomposition_impl15encoding_columnES3_ET1_T0_S5_S4_ = comdat any

$_ZNSt20__copy_move_backwardILb1ELb1ESt26random_access_iterator_tagE13__copy_move_bIN3acd21ac_decomposition_impl15encoding_columnEEEPT_PKS6_S9_S7_ = comdat any

$_ZN9__gnu_cxx5__ops14_Val_comp_iterIZN3acd21ac_decomposition_impl22create_covering_matrixILb0EEEbRKSt6vectorIN5kitty18static_truth_tableILj11ELb0EEESaIS8_EERS5_INS3_15encoding_columnESaISD_EEbEUlRKSD_SI_E0_EclISD_NS_17__normal_iteratorIPSD_SF_EEEEbRT_T0_ = comdat any

$_ZN9__gnu_cxx5__ops14_Val_comp_iterIZN3acd21ac_decomposition_impl22create_covering_matrixILb0EEEbRKSt6vectorIN5kitty18static_truth_tableILj11ELb0EEESaIS8_EERS5_INS3_15encoding_columnESaISD_EEbEUlRKSD_SI_E0_EC2EONS0_15_Iter_comp_iterISJ_EE = comdat any

$_ZN9__gnu_cxx5__ops15_Iter_comp_iterIZN3acd21ac_decomposition_impl22create_covering_matrixILb0EEEbRKSt6vectorIN5kitty18static_truth_tableILj11ELb0EEESaIS8_EERS5_INS3_15encoding_columnESaISD_EEbEUlRKSD_SI_E0_EC2ESJ_ = comdat any

$_ZNSt14__array_traitsIjLm6EE6_S_refERA6_Kjm = comdat any

$_ZNSt6vectorImSaImEE15_M_erase_at_endEPm = comdat any

$_ZNK5kitty18static_truth_tableILj11ELb0EE10num_blocksEv = comdat any

$_ZNSt16allocator_traitsISaIN5kitty18static_truth_tableILj11ELb0EEEEE9constructIS2_JRKS2_EEEvRS3_PT_DpOT0_ = comdat any

$_ZNSt6vectorIN5kitty18static_truth_tableILj11ELb0EEESaIS2_EE17_M_realloc_insertIJRKS2_EEEvN9__gnu_cxx17__normal_iteratorIPS2_S4_EEDpOT_ = comdat any

$_ZNSt15__new_allocatorIN5kitty18static_truth_tableILj11ELb0EEEE9constructIS2_JRKS2_EEEvPT_DpOT0_ = comdat any

$_ZNKSt6vectorIN5kitty18static_truth_tableILj11ELb0EEESaIS2_EE12_M_check_lenEmPKc = comdat any

$_ZN9__gnu_cxxmiIPN5kitty18static_truth_tableILj11ELb0EEESt6vectorIS3_SaIS3_EEEENS_17__normal_iteratorIT_T0_E15difference_typeERKSB_SE_ = comdat any

$_ZNSt6vectorIN5kitty18static_truth_tableILj11ELb0EEESaIS2_EE11_S_relocateEPS2_S5_S5_RS3_ = comdat any

$_ZNKSt6vectorIN5kitty18static_truth_tableILj11ELb0EEESaIS2_EE8max_sizeEv = comdat any

$_ZNKSt6vectorIN5kitty18static_truth_tableILj11ELb0EEESaIS2_EE4sizeEv = comdat any

$_ZSt12__relocate_aIPN5kitty18static_truth_tableILj11ELb0EEES3_SaIS2_EET0_T_S6_S5_RT1_ = comdat any

$_ZSt14__relocate_a_1IPN5kitty18static_truth_tableILj11ELb0EEES3_SaIS2_EET0_T_S6_S5_RT1_ = comdat any

$_ZSt12__niter_baseIPN5kitty18static_truth_tableILj11ELb0EEEET_S4_ = comdat any

$_ZSt19__relocate_object_aIN5kitty18static_truth_tableILj11ELb0EEES2_SaIS2_EEvPT_PT0_RT1_ = comdat any

$_ZNSt16allocator_traitsISaIN5kitty18static_truth_tableILj11ELb0EEEEE9constructIS2_JS2_EEEvRS3_PT_DpOT0_ = comdat any

$_ZNSt16allocator_traitsISaIN5kitty18static_truth_tableILj11ELb0EEEEE7destroyIS2_EEvRS3_PT_ = comdat any

$_ZNSt15__new_allocatorIN5kitty18static_truth_tableILj11ELb0EEEE9constructIS2_JS2_EEEvPT_DpOT0_ = comdat any

$_ZNSt15__new_allocatorIN5kitty18static_truth_tableILj11ELb0EEEE7destroyIS2_EEvPT_ = comdat any

$_ZNSt6vectorImSaImEE12emplace_backIJmEEERmDpOT_ = comdat any

$_ZNSt16allocator_traitsISaImEE9constructImJmEEEvRS0_PT_DpOT0_ = comdat any

$_ZNSt6vectorImSaImEE17_M_realloc_insertIJmEEEvN9__gnu_cxx17__normal_iteratorIPmS1_EEDpOT_ = comdat any

$_ZNSt6vectorImSaImEE3endEv = comdat any

$_ZNSt6vectorImSaImEE4backEv = comdat any

$_ZNSt15__new_allocatorImE9constructImJmEEEvPT_DpOT0_ = comdat any

$_ZNKSt6vectorImSaImEE12_M_check_lenEmPKc = comdat any

$_ZN9__gnu_cxxmiIPmSt6vectorImSaImEEEENS_17__normal_iteratorIT_T0_E15difference_typeERKS8_SB_ = comdat any

$_ZNSt6vectorImSaImEE5beginEv = comdat any

$_ZNSt12_Vector_baseImSaImEE11_M_allocateEm = comdat any

$_ZNSt6vectorImSaImEE11_S_relocateEPmS2_S2_RS0_ = comdat any

$_ZNK9__gnu_cxx17__normal_iteratorIPmSt6vectorImSaImEEE4baseEv = comdat any

$_ZNKSt6vectorImSaImEE8max_sizeEv = comdat any

$_ZNKSt6vectorImSaImEE4sizeEv = comdat any

$_ZNSt6vectorImSaImEE11_S_max_sizeERKS0_ = comdat any

$_ZNKSt12_Vector_baseImSaImEE19_M_get_Tp_allocatorEv = comdat any

$_ZNSt16allocator_traitsISaImEE8max_sizeERKS0_ = comdat any

$_ZNKSt15__new_allocatorImE8max_sizeEv = comdat any

$_ZNKSt15__new_allocatorImE11_M_max_sizeEv = comdat any

$_ZN9__gnu_cxx17__normal_iteratorIPmSt6vectorImSaImEEEC2ERKS1_ = comdat any

$_ZNSt16allocator_traitsISaImEE8allocateERS0_m = comdat any

$_ZNSt15__new_allocatorImE8allocateEmPKv = comdat any

$_ZSt12__relocate_aIPmS0_SaImEET0_T_S3_S2_RT1_ = comdat any

$_ZSt14__relocate_a_1ImmENSt9enable_ifIXsr3std24__is_bitwise_relocatableIT_EE5valueEPS1_E4typeES2_S2_S2_RSaIT0_E = comdat any

$_ZNK9__gnu_cxx17__normal_iteratorIPmSt6vectorImSaImEEEmiEl = comdat any

$_ZNK9__gnu_cxx17__normal_iteratorIPmSt6vectorImSaImEEEdeEv = comdat any

$_ZSt8_DestroyIPN3acd21ac_decomposition_impl15encoding_columnES2_EvT_S4_RSaIT0_E = comdat any

$_ZNSt12_Vector_baseIN3acd21ac_decomposition_impl15encoding_columnESaIS2_EED2Ev = comdat any

$_ZSt8_DestroyIPN3acd21ac_decomposition_impl15encoding_columnEEvT_S4_ = comdat any

$_ZNSt12_Destroy_auxILb1EE9__destroyIPN3acd21ac_decomposition_impl15encoding_columnEEEvT_S6_ = comdat any

$_ZNSt15__new_allocatorIN3acd21ac_decomposition_impl15encoding_columnEED2Ev = comdat any

$_ZN3acd21ac_decomposition_impl22create_covering_matrixILb1EEEbRKSt6vectorIN5kitty18static_truth_tableILj11ELb0EEESaIS5_EERS2_INS0_15encoding_columnESaISA_EEb = comdat any

$_ZN3acd21ac_decomposition_impl24covering_solve_heuristicERSt6vectorINS0_15encoding_columnESaIS2_EE = comdat any

$_ZN3acd21ac_decomposition_impl16covering_improveERKSt6vectorINS0_15encoding_columnESaIS2_EERSt5arrayIjLm6EE = comdat any

$_ZSt4sortIN9__gnu_cxx17__normal_iteratorIPN3acd21ac_decomposition_impl15encoding_columnESt6vectorIS4_SaIS4_EEEEZNS3_22create_covering_matrixILb1EEEbRKS6_IN5kitty18static_truth_tableILj11ELb0EEESaISD_EERS8_bEUlRKS4_SK_E_EvT_SM_T0_ = comdat any

$_ZSt6__sortIN9__gnu_cxx17__normal_iteratorIPN3acd21ac_decomposition_impl15encoding_columnESt6vectorIS4_SaIS4_EEEENS0_5__ops15_Iter_comp_iterIZNS3_22create_covering_matrixILb1EEEbRKS6_IN5kitty18static_truth_tableILj11ELb0EEESaISF_EERS8_bEUlRKS4_SM_E_EEEvT_SP_T0_ = comdat any

$_ZN9__gnu_cxx5__ops16__iter_comp_iterIZN3acd21ac_decomposition_impl22create_covering_matrixILb1EEEbRKSt6vectorIN5kitty18static_truth_tableILj11ELb0EEESaIS8_EERS5_INS3_15encoding_columnESaISD_EEbEUlRKSD_SI_E_EENS0_15_Iter_comp_iterIT_EESL_ = comdat any

$_ZSt16__introsort_loopIN9__gnu_cxx17__normal_iteratorIPN3acd21ac_decomposition_impl15encoding_columnESt6vectorIS4_SaIS4_EEEElNS0_5__ops15_Iter_comp_iterIZNS3_22create_covering_matrixILb1EEEbRKS6_IN5kitty18static_truth_tableILj11ELb0EEESaISF_EERS8_bEUlRKS4_SM_E_EEEvT_SP_T0_T1_ = comdat any

$_ZSt22__final_insertion_sortIN9__gnu_cxx17__normal_iteratorIPN3acd21ac_decomposition_impl15encoding_columnESt6vectorIS4_SaIS4_EEEENS0_5__ops15_Iter_comp_iterIZNS3_22create_covering_matrixILb1EEEbRKS6_IN5kitty18static_truth_tableILj11ELb0EEESaISF_EERS8_bEUlRKS4_SM_E_EEEvT_SP_T0_ = comdat any

$_ZSt14__partial_sortIN9__gnu_cxx17__normal_iteratorIPN3acd21ac_decomposition_impl15encoding_columnESt6vectorIS4_SaIS4_EEEENS0_5__ops15_Iter_comp_iterIZNS3_22create_covering_matrixILb1EEEbRKS6_IN5kitty18static_truth_tableILj11ELb0EEESaISF_EERS8_bEUlRKS4_SM_E_EEEvT_SP_SP_T0_ = comdat any

$_ZSt27__unguarded_partition_pivotIN9__gnu_cxx17__normal_iteratorIPN3acd21ac_decomposition_impl15encoding_columnESt6vectorIS4_SaIS4_EEEENS0_5__ops15_Iter_comp_iterIZNS3_22create_covering_matrixILb1EEEbRKS6_IN5kitty18static_truth_tableILj11ELb0EEESaISF_EERS8_bEUlRKS4_SM_E_EEET_SP_SP_T0_ = comdat any

$_ZSt13__heap_selectIN9__gnu_cxx17__normal_iteratorIPN3acd21ac_decomposition_impl15encoding_columnESt6vectorIS4_SaIS4_EEEENS0_5__ops15_Iter_comp_iterIZNS3_22create_covering_matrixILb1EEEbRKS6_IN5kitty18static_truth_tableILj11ELb0EEESaISF_EERS8_bEUlRKS4_SM_E_EEEvT_SP_SP_T0_ = comdat any

$_ZSt11__sort_heapIN9__gnu_cxx17__normal_iteratorIPN3acd21ac_decomposition_impl15encoding_columnESt6vectorIS4_SaIS4_EEEENS0_5__ops15_Iter_comp_iterIZNS3_22create_covering_matrixILb1EEEbRKS6_IN5kitty18static_truth_tableILj11ELb0EEESaISF_EERS8_bEUlRKS4_SM_E_EEEvT_SP_RT0_ = comdat any

$_ZSt11__make_heapIN9__gnu_cxx17__normal_iteratorIPN3acd21ac_decomposition_impl15encoding_columnESt6vectorIS4_SaIS4_EEEENS0_5__ops15_Iter_comp_iterIZNS3_22create_covering_matrixILb1EEEbRKS6_IN5kitty18static_truth_tableILj11ELb0EEESaISF_EERS8_bEUlRKS4_SM_E_EEEvT_SP_RT0_ = comdat any

$_ZN9__gnu_cxx5__ops15_Iter_comp_iterIZN3acd21ac_decomposition_impl22create_covering_matrixILb1EEEbRKSt6vectorIN5kitty18static_truth_tableILj11ELb0EEESaIS8_EERS5_INS3_15encoding_columnESaISD_EEbEUlRKSD_SI_E_EclINS_17__normal_iteratorIPSD_SF_EESO_EEbT_T0_ = comdat any

$_ZSt10__pop_heapIN9__gnu_cxx17__normal_iteratorIPN3acd21ac_decomposition_impl15encoding_columnESt6vectorIS4_SaIS4_EEEENS0_5__ops15_Iter_comp_iterIZNS3_22create_covering_matrixILb1EEEbRKS6_IN5kitty18static_truth_tableILj11ELb0EEESaISF_EERS8_bEUlRKS4_SM_E_EEEvT_SP_SP_RT0_ = comdat any

$_ZSt13__adjust_heapIN9__gnu_cxx17__normal_iteratorIPN3acd21ac_decomposition_impl15encoding_columnESt6vectorIS4_SaIS4_EEEElS4_NS0_5__ops15_Iter_comp_iterIZNS3_22create_covering_matrixILb1EEEbRKS6_IN5kitty18static_truth_tableILj11ELb0EEESaISF_EERS8_bEUlRKS4_SM_E_EEEvT_T0_SQ_T1_T2_ = comdat any

$_ZN9__gnu_cxx5__ops14_Iter_comp_valIZN3acd21ac_decomposition_impl22create_covering_matrixILb1EEEbRKSt6vectorIN5kitty18static_truth_tableILj11ELb0EEESaIS8_EERS5_INS3_15encoding_columnESaISD_EEbEUlRKSD_SI_E_EC2EONS0_15_Iter_comp_iterISJ_EE = comdat any

$_ZSt11__push_heapIN9__gnu_cxx17__normal_iteratorIPN3acd21ac_decomposition_impl15encoding_columnESt6vectorIS4_SaIS4_EEEElS4_NS0_5__ops14_Iter_comp_valIZNS3_22create_covering_matrixILb1EEEbRKS6_IN5kitty18static_truth_tableILj11ELb0EEESaISF_EERS8_bEUlRKS4_SM_E_EEEvT_T0_SQ_T1_RT2_ = comdat any

$_ZN9__gnu_cxx5__ops14_Iter_comp_valIZN3acd21ac_decomposition_impl22create_covering_matrixILb1EEEbRKSt6vectorIN5kitty18static_truth_tableILj11ELb0EEESaIS8_EERS5_INS3_15encoding_columnESaISD_EEbEUlRKSD_SI_E_EclINS_17__normal_iteratorIPSD_SF_EESD_EEbT_RT0_ = comdat any

$_ZZN3acd21ac_decomposition_impl22create_covering_matrixILb1EEEbRKSt6vectorIN5kitty18static_truth_tableILj11ELb0EEESaIS5_EERS2_INS0_15encoding_columnESaISA_EEbENKUlRKSA_SF_E_clESF_SF_ = comdat any

$_ZSt22__move_median_to_firstIN9__gnu_cxx17__normal_iteratorIPN3acd21ac_decomposition_impl15encoding_columnESt6vectorIS4_SaIS4_EEEENS0_5__ops15_Iter_comp_iterIZNS3_22create_covering_matrixILb1EEEbRKS6_IN5kitty18static_truth_tableILj11ELb0EEESaISF_EERS8_bEUlRKS4_SM_E_EEEvT_SP_SP_SP_T0_ = comdat any

$_ZSt21__unguarded_partitionIN9__gnu_cxx17__normal_iteratorIPN3acd21ac_decomposition_impl15encoding_columnESt6vectorIS4_SaIS4_EEEENS0_5__ops15_Iter_comp_iterIZNS3_22create_covering_matrixILb1EEEbRKS6_IN5kitty18static_truth_tableILj11ELb0EEESaISF_EERS8_bEUlRKS4_SM_E_EEET_SP_SP_SP_T0_ = comdat any

$_ZSt16__insertion_sortIN9__gnu_cxx17__normal_iteratorIPN3acd21ac_decomposition_impl15encoding_columnESt6vectorIS4_SaIS4_EEEENS0_5__ops15_Iter_comp_iterIZNS3_22create_covering_matrixILb1EEEbRKS6_IN5kitty18static_truth_tableILj11ELb0EEESaISF_EERS8_bEUlRKS4_SM_E_EEEvT_SP_T0_ = comdat any

$_ZSt26__unguarded_insertion_sortIN9__gnu_cxx17__normal_iteratorIPN3acd21ac_decomposition_impl15encoding_columnESt6vectorIS4_SaIS4_EEEENS0_5__ops15_Iter_comp_iterIZNS3_22create_covering_matrixILb1EEEbRKS6_IN5kitty18static_truth_tableILj11ELb0EEESaISF_EERS8_bEUlRKS4_SM_E_EEEvT_SP_T0_ = comdat any

$_ZSt25__unguarded_linear_insertIN9__gnu_cxx17__normal_iteratorIPN3acd21ac_decomposition_impl15encoding_columnESt6vectorIS4_SaIS4_EEEENS0_5__ops14_Val_comp_iterIZNS3_22create_covering_matrixILb1EEEbRKS6_IN5kitty18static_truth_tableILj11ELb0EEESaISF_EERS8_bEUlRKS4_SM_E_EEEvT_T0_ = comdat any

$_ZN9__gnu_cxx5__ops15__val_comp_iterIZN3acd21ac_decomposition_impl22create_covering_matrixILb1EEEbRKSt6vectorIN5kitty18static_truth_tableILj11ELb0EEESaIS8_EERS5_INS3_15encoding_columnESaISD_EEbEUlRKSD_SI_E_EENS0_14_Val_comp_iterIT_EENS0_15_Iter_comp_iterISL_EE = comdat any

$_ZN9__gnu_cxx5__ops14_Val_comp_iterIZN3acd21ac_decomposition_impl22create_covering_matrixILb1EEEbRKSt6vectorIN5kitty18static_truth_tableILj11ELb0EEESaIS8_EERS5_INS3_15encoding_columnESaISD_EEbEUlRKSD_SI_E_EclISD_NS_17__normal_iteratorIPSD_SF_EEEEbRT_T0_ = comdat any

$_ZN9__gnu_cxx5__ops14_Val_comp_iterIZN3acd21ac_decomposition_impl22create_covering_matrixILb1EEEbRKSt6vectorIN5kitty18static_truth_tableILj11ELb0EEESaIS8_EERS5_INS3_15encoding_columnESaISD_EEbEUlRKSD_SI_E_EC2EONS0_15_Iter_comp_iterISJ_EE = comdat any

$_ZN9__gnu_cxx5__ops15_Iter_comp_iterIZN3acd21ac_decomposition_impl22create_covering_matrixILb1EEEbRKSt6vectorIN5kitty18static_truth_tableILj11ELb0EEESaIS8_EERS5_INS3_15encoding_columnESaISD_EEbEUlRKSD_SI_E_EC2ESJ_ = comdat any

$_ZNSt14numeric_limitsIfE3maxEv = comdat any

$_ZNKSt6vectorIN3acd21ac_decomposition_impl15encoding_columnESaIS2_EEixEm = comdat any

$_ZN3acd21ac_decomposition_impl22generate_decompositionEv = comdat any

$_ZN3acd21ac_decomposition_impl21get_decomposition_abcEPh = comdat any

$_ZNSt6vectorIN3acd23ac_decomposition_resultESaIS1_EE5clearEv = comdat any

$_ZN3acd23ac_decomposition_resultC2Ev = comdat any

$_ZN5kitty7has_varINS_18static_truth_tableILj11ELb0EEEEEbRKT_S5_h = comdat any

$_ZN3acd21ac_decomposition_impl24adjust_truth_table_on_dcERN5kitty18static_truth_tableILj11ELb0EEES4_jj = comdat any

$_ZN5kitty12swap_inplaceINS_18static_truth_tableILj11ELb0EEEEEvRT_hh = comdat any

$_ZNSt6vectorIjSaIjEE9push_backERKj = comdat any

$_ZN5kitty9shrink_toINS_18static_truth_tableILj11ELb0EEEEENS_19dynamic_truth_tableERKT_j = comdat any

$_ZNKSt6vectorIjSaIjEE4sizeEv = comdat any

$_ZN5kitty19dynamic_truth_tableaSEOS0_ = comdat any

$_ZNSt6vectorIN3acd23ac_decomposition_resultESaIS1_EE9push_backERKS1_ = comdat any

$_ZN3acd21ac_decomposition_impl29compute_top_lut_decompositionEv = comdat any

$_ZNKSt6vectorIN3acd23ac_decomposition_resultESaIS1_EE4sizeEv = comdat any

$_ZNSt6vectorIN3acd23ac_decomposition_resultESaIS1_EE4backEv = comdat any

$_ZNSt6vectorIN3acd23ac_decomposition_resultESaIS1_EE15_M_erase_at_endEPS1_ = comdat any

$_ZN5kitty19dynamic_truth_tableC2Ev = comdat any

$_ZNSt6vectorIjSaIjEEC2Ev = comdat any

$_ZNSt12_Vector_baseIjSaIjEEC2Ev = comdat any

$_ZNSt12_Vector_baseIjSaIjEE12_Vector_implC2Ev = comdat any

$_ZNSaIjEC2Ev = comdat any

$_ZNSt15__new_allocatorIjEC2Ev = comdat any

$_ZSt3endISt5arrayImLm32EEEDTcldtfp_3endEERKT_ = comdat any

$_ZSt9transformIPmS0_ZN5kitty12swap_inplaceINS1_18static_truth_tableILj11ELb0EEEEEvRT_hhEUlmE_ET0_S5_S5_S8_T1_ = comdat any

$_ZSt3endISt5arrayImLm32EEEDTcldtfp_3endEERT_ = comdat any

$_ZZN5kitty12swap_inplaceINS_18static_truth_tableILj11ELb0EEEEEvRT_hhENKUlmE_clEm = comdat any

$_ZNSt16allocator_traitsISaIjEE9constructIjJRKjEEEvRS0_PT_DpOT0_ = comdat any

$_ZNSt6vectorIjSaIjEE17_M_realloc_insertIJRKjEEEvN9__gnu_cxx17__normal_iteratorIPjS1_EEDpOT_ = comdat any

$_ZNSt6vectorIjSaIjEE3endEv = comdat any

$_ZNSt15__new_allocatorIjE9constructIjJRKjEEEvPT_DpOT0_ = comdat any

$_ZNKSt6vectorIjSaIjEE12_M_check_lenEmPKc = comdat any

$_ZN9__gnu_cxxmiIPjSt6vectorIjSaIjEEEENS_17__normal_iteratorIT_T0_E15difference_typeERKS8_SB_ = comdat any

$_ZNSt6vectorIjSaIjEE5beginEv = comdat any

$_ZNSt12_Vector_baseIjSaIjEE11_M_allocateEm = comdat any

$_ZNSt6vectorIjSaIjEE11_S_relocateEPjS2_S2_RS0_ = comdat any

$_ZNK9__gnu_cxx17__normal_iteratorIPjSt6vectorIjSaIjEEE4baseEv = comdat any

$_ZNKSt6vectorIjSaIjEE8max_sizeEv = comdat any

$_ZNSt6vectorIjSaIjEE11_S_max_sizeERKS0_ = comdat any

$_ZNKSt12_Vector_baseIjSaIjEE19_M_get_Tp_allocatorEv = comdat any

$_ZNSt16allocator_traitsISaIjEE8max_sizeERKS0_ = comdat any

$_ZNKSt15__new_allocatorIjE8max_sizeEv = comdat any

$_ZNKSt15__new_allocatorIjE11_M_max_sizeEv = comdat any

$_ZN9__gnu_cxx17__normal_iteratorIPjSt6vectorIjSaIjEEEC2ERKS1_ = comdat any

$_ZNSt16allocator_traitsISaIjEE8allocateERS0_m = comdat any

$_ZNSt15__new_allocatorIjE8allocateEmPKv = comdat any

$_ZSt12__relocate_aIPjS0_SaIjEET0_T_S3_S2_RT1_ = comdat any

$_ZSt14__relocate_a_1IjjENSt9enable_ifIXsr3std24__is_bitwise_relocatableIT_EE5valueEPS1_E4typeES2_S2_S2_RSaIT0_E = comdat any

$_ZN5kitty6createINS_19dynamic_truth_tableEEET_j = comdat any

$_ZN5kitty17shrink_to_inplaceINS_19dynamic_truth_tableENS_18static_truth_tableILj11ELb0EEEEEvRT_RKT0_ = comdat any

$_ZN5kitty19dynamic_truth_tableC2Ej = comdat any

$_ZNSaImEC2Ev = comdat any

$_ZNSt6vectorImSaImEEC2EmRKS0_ = comdat any

$_ZNSt15__new_allocatorImED2Ev = comdat any

$_ZNSt6vectorImSaImEE17_S_check_init_lenEmRKS0_ = comdat any

$_ZNSt12_Vector_baseImSaImEEC2EmRKS0_ = comdat any

$_ZNSt6vectorImSaImEE21_M_default_initializeEm = comdat any

$_ZNSaImEC2ERKS_ = comdat any

$_ZNSt15__new_allocatorImEC2ERKS0_ = comdat any

$_ZNSt12_Vector_baseImSaImEE12_Vector_implC2ERKS0_ = comdat any

$_ZNSt12_Vector_baseImSaImEE17_M_create_storageEm = comdat any

$_ZSt27__uninitialized_default_n_aIPmmmET_S1_T0_RSaIT1_E = comdat any

$_ZSt25__uninitialized_default_nIPmmET_S1_T0_ = comdat any

$_ZNSt27__uninitialized_default_n_1ILb1EE18__uninit_default_nIPmmEET_S3_T0_ = comdat any

$_ZSt10_ConstructImJEEvPT_DpOT0_ = comdat any

$_ZSt4copyIPKmN9__gnu_cxx17__normal_iteratorIPmSt6vectorImSaImEEEEET0_T_SA_S9_ = comdat any

$_ZNK5kitty18static_truth_tableILj11ELb0EE5beginEv = comdat any

$_ZNK5kitty19dynamic_truth_table10num_blocksEv = comdat any

$_ZN5kitty19dynamic_truth_table5beginEv = comdat any

$_ZNK5kitty19dynamic_truth_table8num_varsEv = comdat any

$_ZN5kitty19dynamic_truth_table9mask_bitsEv = comdat any

$_ZSt13__copy_move_aILb0EPKmN9__gnu_cxx17__normal_iteratorIPmSt6vectorImSaImEEEEET1_T0_SA_S9_ = comdat any

$_ZSt12__niter_wrapIN9__gnu_cxx17__normal_iteratorIPmSt6vectorImSaImEEEES2_ET_S7_T0_ = comdat any

$_ZSt12__niter_baseIPmSt6vectorImSaImEEET_N9__gnu_cxx17__normal_iteratorIS4_T0_EE = comdat any

$_ZNK9__gnu_cxx17__normal_iteratorIPmSt6vectorImSaImEEEplEl = comdat any

$_ZNSt6vectorImSaImEEixEm = comdat any

$_ZNSt6vectorImSaImEEaSEOS1_ = comdat any

$_ZNSt6vectorImSaImEE14_M_move_assignEOS1_St17integral_constantIbLb1EE = comdat any

$_ZNKSt12_Vector_baseImSaImEE13get_allocatorEv = comdat any

$_ZNSt6vectorImSaImEEC2ERKS0_ = comdat any

$_ZNSt12_Vector_baseImSaImEE17_Vector_impl_data12_M_swap_dataERS2_ = comdat any

$_ZSt15__alloc_on_moveISaImEEvRT_S2_ = comdat any

$_ZNSt12_Vector_baseImSaImEEC2ERKS0_ = comdat any

$_ZNSt12_Vector_baseImSaImEE17_Vector_impl_dataC2Ev = comdat any

$_ZNSt12_Vector_baseImSaImEE17_Vector_impl_data12_M_copy_dataERKS2_ = comdat any

$_ZNSt16allocator_traitsISaIN3acd23ac_decomposition_resultEEE9constructIS1_JRKS1_EEEvRS2_PT_DpOT0_ = comdat any

$_ZNSt6vectorIN3acd23ac_decomposition_resultESaIS1_EE17_M_realloc_insertIJRKS1_EEEvN9__gnu_cxx17__normal_iteratorIPS1_S3_EEDpOT_ = comdat any

$_ZNSt6vectorIN3acd23ac_decomposition_resultESaIS1_EE3endEv = comdat any

$_ZNSt15__new_allocatorIN3acd23ac_decomposition_resultEE9constructIS1_JRKS1_EEEvPT_DpOT0_ = comdat any

$_ZN3acd23ac_decomposition_resultC2ERKS0_ = comdat any

$_ZN5kitty19dynamic_truth_tableC2ERKS0_ = comdat any

$_ZNSt6vectorIjSaIjEEC2ERKS1_ = comdat any

$_ZNSt6vectorImSaImEEC2ERKS1_ = comdat any

$_ZN9__gnu_cxx14__alloc_traitsISaImEmE17_S_select_on_copyERKS1_ = comdat any

$_ZSt22__uninitialized_copy_aIN9__gnu_cxx17__normal_iteratorIPKmSt6vectorImSaImEEEEPmmET0_T_SA_S9_RSaIT1_E = comdat any

$_ZNKSt6vectorImSaImEE5beginEv = comdat any

$_ZNKSt6vectorImSaImEE3endEv = comdat any

$_ZNSt16allocator_traitsISaImEE37select_on_container_copy_constructionERKS0_ = comdat any

$_ZSt18uninitialized_copyIN9__gnu_cxx17__normal_iteratorIPKmSt6vectorImSaImEEEEPmET0_T_SA_S9_ = comdat any

$_ZNSt20__uninitialized_copyILb1EE13__uninit_copyIN9__gnu_cxx17__normal_iteratorIPKmSt6vectorImSaImEEEEPmEET0_T_SC_SB_ = comdat any

$_ZSt4copyIN9__gnu_cxx17__normal_iteratorIPKmSt6vectorImSaImEEEEPmET0_T_SA_S9_ = comdat any

$_ZSt13__copy_move_aILb0EN9__gnu_cxx17__normal_iteratorIPKmSt6vectorImSaImEEEEPmET1_T0_SA_S9_ = comdat any

$_ZSt12__miter_baseIN9__gnu_cxx17__normal_iteratorIPKmSt6vectorImSaImEEEEET_S8_ = comdat any

$_ZSt12__niter_baseIPKmSt6vectorImSaImEEET_N9__gnu_cxx17__normal_iteratorIS5_T0_EE = comdat any

$_ZNK9__gnu_cxx17__normal_iteratorIPKmSt6vectorImSaImEEE4baseEv = comdat any

$_ZN9__gnu_cxx17__normal_iteratorIPKmSt6vectorImSaImEEEC2ERKS2_ = comdat any

$_ZN9__gnu_cxx14__alloc_traitsISaIjEjE17_S_select_on_copyERKS1_ = comdat any

$_ZNSt12_Vector_baseIjSaIjEEC2EmRKS0_ = comdat any

$_ZNSt15__new_allocatorIjED2Ev = comdat any

$_ZSt22__uninitialized_copy_aIN9__gnu_cxx17__normal_iteratorIPKjSt6vectorIjSaIjEEEEPjjET0_T_SA_S9_RSaIT1_E = comdat any

$_ZNKSt6vectorIjSaIjEE5beginEv = comdat any

$_ZNKSt6vectorIjSaIjEE3endEv = comdat any

$_ZNSt16allocator_traitsISaIjEE37select_on_container_copy_constructionERKS0_ = comdat any

$_ZNSaIjEC2ERKS_ = comdat any

$_ZNSt15__new_allocatorIjEC2ERKS0_ = comdat any

$_ZNSt12_Vector_baseIjSaIjEE12_Vector_implC2ERKS0_ = comdat any

$_ZNSt12_Vector_baseIjSaIjEE17_M_create_storageEm = comdat any

$_ZSt18uninitialized_copyIN9__gnu_cxx17__normal_iteratorIPKjSt6vectorIjSaIjEEEEPjET0_T_SA_S9_ = comdat any

$_ZNSt20__uninitialized_copyILb1EE13__uninit_copyIN9__gnu_cxx17__normal_iteratorIPKjSt6vectorIjSaIjEEEEPjEET0_T_SC_SB_ = comdat any

$_ZSt4copyIN9__gnu_cxx17__normal_iteratorIPKjSt6vectorIjSaIjEEEEPjET0_T_SA_S9_ = comdat any

$_ZSt13__copy_move_aILb0EN9__gnu_cxx17__normal_iteratorIPKjSt6vectorIjSaIjEEEEPjET1_T0_SA_S9_ = comdat any

$_ZSt12__miter_baseIN9__gnu_cxx17__normal_iteratorIPKjSt6vectorIjSaIjEEEEET_S8_ = comdat any

$_ZSt14__copy_move_a1ILb0EPKjPjET1_T0_S4_S3_ = comdat any

$_ZSt12__niter_baseIPKjSt6vectorIjSaIjEEET_N9__gnu_cxx17__normal_iteratorIS5_T0_EE = comdat any

$_ZSt14__copy_move_a2ILb0EPKjPjET1_T0_S4_S3_ = comdat any

$_ZNSt11__copy_moveILb0ELb1ESt26random_access_iterator_tagE8__copy_mIjEEPT_PKS3_S6_S4_ = comdat any

$_ZNK9__gnu_cxx17__normal_iteratorIPKjSt6vectorIjSaIjEEE4baseEv = comdat any

$_ZN9__gnu_cxx17__normal_iteratorIPKjSt6vectorIjSaIjEEEC2ERKS2_ = comdat any

$_ZNKSt6vectorIN3acd23ac_decomposition_resultESaIS1_EE12_M_check_lenEmPKc = comdat any

$_ZN9__gnu_cxxmiIPN3acd23ac_decomposition_resultESt6vectorIS2_SaIS2_EEEENS_17__normal_iteratorIT_T0_E15difference_typeERKSA_SD_ = comdat any

$_ZNSt6vectorIN3acd23ac_decomposition_resultESaIS1_EE5beginEv = comdat any

$_ZNSt12_Vector_baseIN3acd23ac_decomposition_resultESaIS1_EE11_M_allocateEm = comdat any

$_ZNSt6vectorIN3acd23ac_decomposition_resultESaIS1_EE11_S_relocateEPS1_S4_S4_RS2_ = comdat any

$_ZNK9__gnu_cxx17__normal_iteratorIPN3acd23ac_decomposition_resultESt6vectorIS2_SaIS2_EEE4baseEv = comdat any

$_ZNKSt6vectorIN3acd23ac_decomposition_resultESaIS1_EE8max_sizeEv = comdat any

$_ZNSt6vectorIN3acd23ac_decomposition_resultESaIS1_EE11_S_max_sizeERKS2_ = comdat any

$_ZNKSt12_Vector_baseIN3acd23ac_decomposition_resultESaIS1_EE19_M_get_Tp_allocatorEv = comdat any

$_ZNSt16allocator_traitsISaIN3acd23ac_decomposition_resultEEE8max_sizeERKS2_ = comdat any

$_ZNKSt15__new_allocatorIN3acd23ac_decomposition_resultEE8max_sizeEv = comdat any

$_ZNKSt15__new_allocatorIN3acd23ac_decomposition_resultEE11_M_max_sizeEv = comdat any

$_ZN9__gnu_cxx17__normal_iteratorIPN3acd23ac_decomposition_resultESt6vectorIS2_SaIS2_EEEC2ERKS3_ = comdat any

$_ZNSt16allocator_traitsISaIN3acd23ac_decomposition_resultEEE8allocateERS2_m = comdat any

$_ZNSt15__new_allocatorIN3acd23ac_decomposition_resultEE8allocateEmPKv = comdat any

$_ZSt12__relocate_aIPN3acd23ac_decomposition_resultES2_SaIS1_EET0_T_S5_S4_RT1_ = comdat any

$_ZSt14__relocate_a_1IPN3acd23ac_decomposition_resultES2_SaIS1_EET0_T_S5_S4_RT1_ = comdat any

$_ZSt12__niter_baseIPN3acd23ac_decomposition_resultEET_S3_ = comdat any

$_ZSt19__relocate_object_aIN3acd23ac_decomposition_resultES1_SaIS1_EEvPT_PT0_RT1_ = comdat any

$_ZNSt16allocator_traitsISaIN3acd23ac_decomposition_resultEEE9constructIS1_JS1_EEEvRS2_PT_DpOT0_ = comdat any

$_ZNSt16allocator_traitsISaIN3acd23ac_decomposition_resultEEE7destroyIS1_EEvRS2_PT_ = comdat any

$_ZNSt15__new_allocatorIN3acd23ac_decomposition_resultEE9constructIS1_JS1_EEEvPT_DpOT0_ = comdat any

$_ZN3acd23ac_decomposition_resultC2EOS0_ = comdat any

$_ZN5kitty19dynamic_truth_tableC2EOS0_ = comdat any

$_ZNSt6vectorIjSaIjEEC2EOS1_ = comdat any

$_ZNSt6vectorImSaImEEC2EOS1_ = comdat any

$_ZNSt12_Vector_baseImSaImEEC2EOS1_ = comdat any

$_ZNSt12_Vector_baseImSaImEE12_Vector_implC2EOS2_ = comdat any

$_ZNSt12_Vector_baseImSaImEE17_Vector_impl_dataC2EOS2_ = comdat any

$_ZNSt12_Vector_baseIjSaIjEEC2EOS1_ = comdat any

$_ZNSt12_Vector_baseIjSaIjEE12_Vector_implC2EOS2_ = comdat any

$_ZNSt12_Vector_baseIjSaIjEE17_Vector_impl_dataC2EOS2_ = comdat any

$_ZNSt15__new_allocatorIN3acd23ac_decomposition_resultEE7destroyIS1_EEvPT_ = comdat any

$_ZNSt6vectorIN3acd23ac_decomposition_resultESaIS1_EE12emplace_backIJEEERS1_DpOT_ = comdat any

$_ZNSt6vectorIN5kitty19dynamic_truth_tableESaIS1_EEC2Ev = comdat any

$_ZNSt6vectorIN5kitty19dynamic_truth_tableESaIS1_EE12emplace_backIJRjEEERS1_DpOT_ = comdat any

$_ZN5kitty14create_nth_varINS_19dynamic_truth_tableEEEvRT_hb = comdat any

$_ZNSt6vectorIN5kitty19dynamic_truth_tableESaIS1_EEixEm = comdat any

$_ZNK9__gnu_cxx17__normal_iteratorIPN3acd23ac_decomposition_resultESt6vectorIS2_SaIS2_EEEptEv = comdat any

$_ZNSt6vectorIjSaIjEE5frontEv = comdat any

$_ZN5kittycoERKNS_19dynamic_truth_tableE = comdat any

$_ZNSt6vectorIN3acd23ac_decomposition_resultESaIS1_EE5eraseEN9__gnu_cxx17__normal_iteratorIPKS1_S3_EE = comdat any

$_ZN9__gnu_cxx17__normal_iteratorIPKN3acd23ac_decomposition_resultESt6vectorIS2_SaIS2_EEEC2IPS2_vEERKNS0_IT_S7_EE = comdat any

$_ZNSt6vectorIjSaIjEE9push_backEOj = comdat any

$_ZN9__gnu_cxx17__normal_iteratorIPN3acd23ac_decomposition_resultESt6vectorIS2_SaIS2_EEEppEv = comdat any

$_ZNKSt6vectorIN5kitty19dynamic_truth_tableESaIS1_EE4sizeEv = comdat any

$_ZN5kittyaNERNS_19dynamic_truth_tableERKS0_ = comdat any

$_ZN5kittyoRERNS_19dynamic_truth_tableERKS0_ = comdat any

$_ZN5kitty19dynamic_truth_tableaSERKS0_ = comdat any

$_ZNSt6vectorIN5kitty19dynamic_truth_tableESaIS1_EED2Ev = comdat any

$_ZNSt16allocator_traitsISaIN3acd23ac_decomposition_resultEEE9constructIS1_JEEEvRS2_PT_DpOT0_ = comdat any

$_ZNSt6vectorIN3acd23ac_decomposition_resultESaIS1_EE17_M_realloc_insertIJEEEvN9__gnu_cxx17__normal_iteratorIPS1_S3_EEDpOT_ = comdat any

$_ZNSt15__new_allocatorIN3acd23ac_decomposition_resultEE9constructIS1_JEEEvPT_DpOT0_ = comdat any

$_ZNSt12_Vector_baseIN5kitty19dynamic_truth_tableESaIS1_EEC2Ev = comdat any

$_ZNSt12_Vector_baseIN5kitty19dynamic_truth_tableESaIS1_EE12_Vector_implC2Ev = comdat any

$_ZNSaIN5kitty19dynamic_truth_tableEEC2Ev = comdat any

$_ZNSt12_Vector_baseIN5kitty19dynamic_truth_tableESaIS1_EE17_Vector_impl_dataC2Ev = comdat any

$_ZNSt15__new_allocatorIN5kitty19dynamic_truth_tableEEC2Ev = comdat any

$_ZNSt16allocator_traitsISaIN5kitty19dynamic_truth_tableEEE9constructIS1_JRjEEEvRS2_PT_DpOT0_ = comdat any

$_ZNSt6vectorIN5kitty19dynamic_truth_tableESaIS1_EE17_M_realloc_insertIJRjEEEvN9__gnu_cxx17__normal_iteratorIPS1_S3_EEDpOT_ = comdat any

$_ZNSt6vectorIN5kitty19dynamic_truth_tableESaIS1_EE3endEv = comdat any

$_ZNSt6vectorIN5kitty19dynamic_truth_tableESaIS1_EE4backEv = comdat any

$_ZNSt15__new_allocatorIN5kitty19dynamic_truth_tableEE9constructIS1_JRjEEEvPT_DpOT0_ = comdat any

$_ZNKSt6vectorIN5kitty19dynamic_truth_tableESaIS1_EE12_M_check_lenEmPKc = comdat any

$_ZN9__gnu_cxxmiIPN5kitty19dynamic_truth_tableESt6vectorIS2_SaIS2_EEEENS_17__normal_iteratorIT_T0_E15difference_typeERKSA_SD_ = comdat any

$_ZNSt6vectorIN5kitty19dynamic_truth_tableESaIS1_EE5beginEv = comdat any

$_ZNSt12_Vector_baseIN5kitty19dynamic_truth_tableESaIS1_EE11_M_allocateEm = comdat any

$_ZNSt6vectorIN5kitty19dynamic_truth_tableESaIS1_EE11_S_relocateEPS1_S4_S4_RS2_ = comdat any

$_ZNK9__gnu_cxx17__normal_iteratorIPN5kitty19dynamic_truth_tableESt6vectorIS2_SaIS2_EEE4baseEv = comdat any

$_ZNSt12_Vector_baseIN5kitty19dynamic_truth_tableESaIS1_EE19_M_get_Tp_allocatorEv = comdat any

$_ZNSt12_Vector_baseIN5kitty19dynamic_truth_tableESaIS1_EE13_M_deallocateEPS1_m = comdat any

$_ZNKSt6vectorIN5kitty19dynamic_truth_tableESaIS1_EE8max_sizeEv = comdat any

$_ZNSt6vectorIN5kitty19dynamic_truth_tableESaIS1_EE11_S_max_sizeERKS2_ = comdat any

$_ZNKSt12_Vector_baseIN5kitty19dynamic_truth_tableESaIS1_EE19_M_get_Tp_allocatorEv = comdat any

$_ZNSt16allocator_traitsISaIN5kitty19dynamic_truth_tableEEE8max_sizeERKS2_ = comdat any

$_ZNKSt15__new_allocatorIN5kitty19dynamic_truth_tableEE8max_sizeEv = comdat any

$_ZNKSt15__new_allocatorIN5kitty19dynamic_truth_tableEE11_M_max_sizeEv = comdat any

$_ZN9__gnu_cxx17__normal_iteratorIPN5kitty19dynamic_truth_tableESt6vectorIS2_SaIS2_EEEC2ERKS3_ = comdat any

$_ZNSt16allocator_traitsISaIN5kitty19dynamic_truth_tableEEE8allocateERS2_m = comdat any

$_ZNSt15__new_allocatorIN5kitty19dynamic_truth_tableEE8allocateEmPKv = comdat any

$_ZSt12__relocate_aIPN5kitty19dynamic_truth_tableES2_SaIS1_EET0_T_S5_S4_RT1_ = comdat any

$_ZSt14__relocate_a_1IPN5kitty19dynamic_truth_tableES2_SaIS1_EET0_T_S5_S4_RT1_ = comdat any

$_ZSt12__niter_baseIPN5kitty19dynamic_truth_tableEET_S3_ = comdat any

$_ZSt19__relocate_object_aIN5kitty19dynamic_truth_tableES1_SaIS1_EEvPT_PT0_RT1_ = comdat any

$_ZNSt16allocator_traitsISaIN5kitty19dynamic_truth_tableEEE9constructIS1_JS1_EEEvRS2_PT_DpOT0_ = comdat any

$_ZNSt16allocator_traitsISaIN5kitty19dynamic_truth_tableEEE7destroyIS1_EEvRS2_PT_ = comdat any

$_ZNSt15__new_allocatorIN5kitty19dynamic_truth_tableEE9constructIS1_JS1_EEEvPT_DpOT0_ = comdat any

$_ZNSt15__new_allocatorIN5kitty19dynamic_truth_tableEE7destroyIS1_EEvPT_ = comdat any

$_ZNSt16allocator_traitsISaIN5kitty19dynamic_truth_tableEEE10deallocateERS2_PS1_m = comdat any

$_ZNSt15__new_allocatorIN5kitty19dynamic_truth_tableEE10deallocateEPS1_m = comdat any

$_ZNK9__gnu_cxx17__normal_iteratorIPN5kitty19dynamic_truth_tableESt6vectorIS2_SaIS2_EEEmiEl = comdat any

$_ZNK9__gnu_cxx17__normal_iteratorIPN5kitty19dynamic_truth_tableESt6vectorIS2_SaIS2_EEEdeEv = comdat any

$_ZSt4fillIN9__gnu_cxx17__normal_iteratorIPmSt6vectorImSaImEEEEmEvT_S7_RKT0_ = comdat any

$_ZSt5beginISt6vectorImSaImEEEDTcldtfp_5beginEERT_ = comdat any

$_ZSt3endISt6vectorImSaImEEEDTcldtfp_3endEERT_ = comdat any

$_ZSt8__fill_aIN9__gnu_cxx17__normal_iteratorIPmSt6vectorImSaImEEEEmEvT_S7_RKT0_ = comdat any

$_ZSt9__fill_a1IPmSt6vectorImSaImEEmEvN9__gnu_cxx17__normal_iteratorIT_T0_EES8_RKT1_ = comdat any

$_ZNK9__gnu_cxx17__normal_iteratorIPjSt6vectorIjSaIjEEEdeEv = comdat any

$_ZN5kitty9unary_notINS_19dynamic_truth_tableEEET_RKS2_ = comdat any

$_ZN5kitty15unary_operationINS_19dynamic_truth_tableEZNS_9unary_notIS1_EET_RKS3_EUlmE_EES3_S5_OT0_ = comdat any

$_ZNK5kitty19dynamic_truth_table9constructEv = comdat any

$_ZSt9transformIN9__gnu_cxx17__normal_iteratorIPKmSt6vectorImSaImEEEENS1_IPmS6_EEZN5kitty9unary_notINSA_19dynamic_truth_tableEEET_RKSD_EUlmE_ET0_SD_SD_SH_T1_ = comdat any

$_ZNK5kitty19dynamic_truth_table6cbeginEv = comdat any

$_ZNK5kitty19dynamic_truth_table4cendEv = comdat any

$_ZN9__gnu_cxxneIPKmSt6vectorImSaImEEEEbRKNS_17__normal_iteratorIT_T0_EESB_ = comdat any

$_ZZN5kitty9unary_notINS_19dynamic_truth_tableEEET_RKS2_ENKUlmE_clEm = comdat any

$_ZNK9__gnu_cxx17__normal_iteratorIPKmSt6vectorImSaImEEEdeEv = comdat any

$_ZN9__gnu_cxx17__normal_iteratorIPKmSt6vectorImSaImEEEppEv = comdat any

$_ZN9__gnu_cxx17__normal_iteratorIPmSt6vectorImSaImEEEppEv = comdat any

$_ZNKSt6vectorImSaImEE6cbeginEv = comdat any

$_ZNKSt6vectorImSaImEE4cendEv = comdat any

$_ZNSt6vectorIN3acd23ac_decomposition_resultESaIS1_EE8_M_eraseEN9__gnu_cxx17__normal_iteratorIPS1_S3_EE = comdat any

$_ZNK9__gnu_cxx17__normal_iteratorIPN3acd23ac_decomposition_resultESt6vectorIS2_SaIS2_EEEplEl = comdat any

$_ZN9__gnu_cxxmiIPKN3acd23ac_decomposition_resultESt6vectorIS2_SaIS2_EEEENS_17__normal_iteratorIT_T0_E15difference_typeERKSB_SE_ = comdat any

$_ZNKSt6vectorIN3acd23ac_decomposition_resultESaIS1_EE6cbeginEv = comdat any

$_ZN9__gnu_cxxneIPN3acd23ac_decomposition_resultESt6vectorIS2_SaIS2_EEEEbRKNS_17__normal_iteratorIT_T0_EESC_ = comdat any

$_ZSt4moveIN9__gnu_cxx17__normal_iteratorIPN3acd23ac_decomposition_resultESt6vectorIS3_SaIS3_EEEES8_ET0_T_SA_S9_ = comdat any

$_ZSt13__copy_move_aILb1EN9__gnu_cxx17__normal_iteratorIPN3acd23ac_decomposition_resultESt6vectorIS3_SaIS3_EEEES8_ET1_T0_SA_S9_ = comdat any

$_ZSt12__miter_baseIN9__gnu_cxx17__normal_iteratorIPN3acd23ac_decomposition_resultESt6vectorIS3_SaIS3_EEEEET_S9_ = comdat any

$_ZSt12__niter_wrapIN9__gnu_cxx17__normal_iteratorIPN3acd23ac_decomposition_resultESt6vectorIS3_SaIS3_EEEES4_ET_S9_T0_ = comdat any

$_ZSt14__copy_move_a1ILb1EPN3acd23ac_decomposition_resultES2_ET1_T0_S4_S3_ = comdat any

$_ZSt12__niter_baseIPN3acd23ac_decomposition_resultESt6vectorIS1_SaIS1_EEET_N9__gnu_cxx17__normal_iteratorIS6_T0_EE = comdat any

$_ZSt14__copy_move_a2ILb1EPN3acd23ac_decomposition_resultES2_ET1_T0_S4_S3_ = comdat any

$_ZNSt11__copy_moveILb1ELb0ESt26random_access_iterator_tagE8__copy_mIPN3acd23ac_decomposition_resultES5_EET0_T_S7_S6_ = comdat any

$_ZN3acd23ac_decomposition_resultaSEOS0_ = comdat any

$_ZNSt6vectorIjSaIjEEaSEOS1_ = comdat any

$_ZNSt6vectorIjSaIjEE14_M_move_assignEOS1_St17integral_constantIbLb1EE = comdat any

$_ZNKSt12_Vector_baseIjSaIjEE13get_allocatorEv = comdat any

$_ZNSt6vectorIjSaIjEEC2ERKS0_ = comdat any

$_ZNSt12_Vector_baseIjSaIjEE17_Vector_impl_data12_M_swap_dataERS2_ = comdat any

$_ZSt15__alloc_on_moveISaIjEEvRT_S2_ = comdat any

$_ZNSt12_Vector_baseIjSaIjEEC2ERKS0_ = comdat any

$_ZNSt12_Vector_baseIjSaIjEE17_Vector_impl_dataC2Ev = comdat any

$_ZNSt12_Vector_baseIjSaIjEE17_Vector_impl_data12_M_copy_dataERKS2_ = comdat any

$_ZNK9__gnu_cxx17__normal_iteratorIPKN3acd23ac_decomposition_resultESt6vectorIS2_SaIS2_EEE4baseEv = comdat any

$_ZN9__gnu_cxx17__normal_iteratorIPKN3acd23ac_decomposition_resultESt6vectorIS2_SaIS2_EEEC2ERKS4_ = comdat any

$_ZNSt6vectorIjSaIjEE12emplace_backIJjEEERjDpOT_ = comdat any

$_ZNSt16allocator_traitsISaIjEE9constructIjJjEEEvRS0_PT_DpOT0_ = comdat any

$_ZNSt6vectorIjSaIjEE17_M_realloc_insertIJjEEEvN9__gnu_cxx17__normal_iteratorIPjS1_EEDpOT_ = comdat any

$_ZNSt6vectorIjSaIjEE4backEv = comdat any

$_ZNSt15__new_allocatorIjE9constructIjJjEEEvPT_DpOT0_ = comdat any

$_ZNK9__gnu_cxx17__normal_iteratorIPjSt6vectorIjSaIjEEEmiEl = comdat any

$_ZN5kitty10binary_andINS_19dynamic_truth_tableEEET_RKS2_S4_ = comdat any

$_ZN5kitty16binary_operationINS_19dynamic_truth_tableESt7bit_andImEEET_RKS4_S6_OT0_ = comdat any

$_ZSt9transformIN9__gnu_cxx17__normal_iteratorIPKmSt6vectorImSaImEEEES7_NS1_IPmS6_EESt7bit_andImEET1_T_SD_T0_SC_T2_ = comdat any

$_ZNKSt7bit_andImEclERKmS2_ = comdat any

$_ZN5kitty9binary_orINS_19dynamic_truth_tableEEET_RKS2_S4_ = comdat any

$_ZN5kitty16binary_operationINS_19dynamic_truth_tableESt6bit_orImEEET_RKS4_S6_OT0_ = comdat any

$_ZSt9transformIN9__gnu_cxx17__normal_iteratorIPKmSt6vectorImSaImEEEES7_NS1_IPmS6_EESt6bit_orImEET1_T_SD_T0_SC_T2_ = comdat any

$_ZNKSt6bit_orImEclERKmS2_ = comdat any

$_ZNSt6vectorImSaImEEaSERKS1_ = comdat any

$_ZNKSt6vectorImSaImEE8capacityEv = comdat any

$_ZNSt6vectorImSaImEE20_M_allocate_and_copyIN9__gnu_cxx17__normal_iteratorIPKmS1_EEEEPmmT_S9_ = comdat any

$_ZSt8_DestroyIN9__gnu_cxx17__normal_iteratorIPmSt6vectorImSaImEEEEmEvT_S7_RSaIT0_E = comdat any

$_ZSt4copyIN9__gnu_cxx17__normal_iteratorIPKmSt6vectorImSaImEEEENS1_IPmS6_EEET0_T_SB_SA_ = comdat any

$_ZSt4copyIPmS0_ET0_T_S2_S1_ = comdat any

$_ZSt22__uninitialized_copy_aIPmS0_mET0_T_S2_S1_RSaIT1_E = comdat any

$_ZSt8_DestroyIN9__gnu_cxx17__normal_iteratorIPmSt6vectorImSaImEEEEEvT_S7_ = comdat any

$_ZNSt12_Destroy_auxILb1EE9__destroyIN9__gnu_cxx17__normal_iteratorIPmSt6vectorImSaImEEEEEEvT_S9_ = comdat any

$_ZSt13__copy_move_aILb0EN9__gnu_cxx17__normal_iteratorIPKmSt6vectorImSaImEEEENS1_IPmS6_EEET1_T0_SB_SA_ = comdat any

$_ZSt13__copy_move_aILb0EPmS0_ET1_T0_S2_S1_ = comdat any

$_ZSt12__miter_baseIPmET_S1_ = comdat any

$_ZSt14__copy_move_a1ILb0EPmS0_ET1_T0_S2_S1_ = comdat any

$_ZSt14__copy_move_a2ILb0EPmS0_ET1_T0_S2_S1_ = comdat any

$_ZSt18uninitialized_copyIPmS0_ET0_T_S2_S1_ = comdat any

$_ZNSt20__uninitialized_copyILb1EE13__uninit_copyIPmS2_EET0_T_S4_S3_ = comdat any

$_ZSt8_DestroyIPN5kitty19dynamic_truth_tableES1_EvT_S3_RSaIT0_E = comdat any

$_ZNSt12_Vector_baseIN5kitty19dynamic_truth_tableESaIS1_EED2Ev = comdat any

$_ZSt8_DestroyIPN5kitty19dynamic_truth_tableEEvT_S3_ = comdat any

$_ZNSt12_Destroy_auxILb0EE9__destroyIPN5kitty19dynamic_truth_tableEEEvT_S5_ = comdat any

$_ZSt8_DestroyIN5kitty19dynamic_truth_tableEEvPT_ = comdat any

$_ZNSt15__new_allocatorIN5kitty19dynamic_truth_tableEED2Ev = comdat any

$_ZNK9__gnu_cxx17__normal_iteratorIPN3acd23ac_decomposition_resultESt6vectorIS2_SaIS2_EEEmiEl = comdat any

$_ZNK9__gnu_cxx17__normal_iteratorIPN3acd23ac_decomposition_resultESt6vectorIS2_SaIS2_EEEdeEv = comdat any

$_ZN9__gnu_cxxneIPKjSt6vectorIjSaIjEEEEbRKNS_17__normal_iteratorIT_T0_EESB_ = comdat any

$_ZNK9__gnu_cxx17__normal_iteratorIPKjSt6vectorIjSaIjEEEdeEv = comdat any

$_ZN9__gnu_cxx17__normal_iteratorIPKjSt6vectorIjSaIjEEEppEv = comdat any

$_ZSt3minIjERKT_S2_S2_ = comdat any

$_ZNKSt6vectorImSaImEEixEm = comdat any

$_ZN3acd10acdXX_impl16init_truth_tableEPm = comdat any

$_ZN3acd10acdXX_impl34reposition_late_arriving_variablesEjj = comdat any

$_ZN3acd10acdXX_impl25find_decomposition_offsetEj = comdat any

$_ZN3acd10acdXX_impl15local_extend_toIN5kitty18static_truth_tableILj11ELb0EEEEEvRT_j = comdat any

$_ZN3acd10acdXX_impl18swap_inplace_localERN5kitty18static_truth_tableILj11ELb0EEEhh = comdat any

$_ZSt9transformIPmS0_ZN3acd10acdXX_impl18swap_inplace_localERN5kitty18static_truth_tableILj11ELb0EEEhhEUlmE_ET0_T_S9_S8_T1_ = comdat any

$_ZZN3acd10acdXX_impl18swap_inplace_localERN5kitty18static_truth_tableILj11ELb0EEEhhENKUlmE_clEm = comdat any

$_ZN3acd10acdXX_impl37find_decomposition_bs_offset_multi_ssEjj = comdat any

$_ZN3acd10acdXX_impl28find_decomposition_bs_offsetEjj = comdat any

$_ZSt3minIiERKT_S2_S2_ = comdat any

$_ZN3acd10acdXX_impl20column_multiplicity2ERKN5kitty18static_truth_tableILj11ELb0EEEjj = comdat any

$_ZN3acd10acdXX_impl22check_shared_set_multiERKN5kitty18static_truth_tableILj11ELb0EEEjPj = comdat any

$_ZN3acd10acdXX_impl17combinations_nextEjjPjS1_RN5kitty18static_truth_tableILj11ELb0EEE = comdat any

$_ZN3acd10acdXX_impl25check_shared_var_combinedERKN5kitty18static_truth_tableILj11ELb0EEEjPjj = comdat any

$_ZN3acd10acdXX_impl24combinations_next_simpleEjPjS1_j = comdat any

$_ZN3acd10acdXX_impl19column_multiplicityERKN5kitty18static_truth_tableILj11ELb0EEEj = comdat any

$_ZN3acd10acdXX_impl16check_shared_setERKN5kitty18static_truth_tableILj11ELb0EEE = comdat any

$_ZN3acd10acdXX_impl16check_shared_varERKN5kitty18static_truth_tableILj11ELb0EEEjj = comdat any

$_ZN3acd10acdXX_impl26compute_decomposition_implEb = comdat any

$_ZN3acd10acdXX_impl11verify_implEv = comdat any

$_ZN5kitty18static_truth_tableILj6ELb1EEC2Ev = comdat any

$_ZN3acd10acdXX_impl8has_var6ERKN5kitty18static_truth_tableILj6ELb1EEES5_h = comdat any

$_ZN3acd10acdXX_impl24adjust_truth_table_on_dcERN5kitty18static_truth_tableILj6ELb1EEES4_j = comdat any

$_ZN5kitty12swap_inplaceILj6EEEvRNS_18static_truth_tableIXT_ELb1EEEhh = comdat any

$_ZN5kitty9print_hexINS_18static_truth_tableILj6ELb1EEEEEvRKT_RSo = comdat any

$_ZNK5kitty18static_truth_tableILj6ELb1EE8num_varsEv = comdat any

$_ZNK5kitty18static_truth_tableILj6ELb1EE8num_bitsEv = comdat any

$_ZN5kitty23for_each_block_reversedINS_18static_truth_tableILj6ELb1EEEZNS_9print_hexIS2_EEvRKT_RSoEUlmE_EEvS6_OT0_ = comdat any

$_ZSt8for_eachIPKmZN5kitty9print_hexINS2_18static_truth_tableILj6ELb1EEEEEvRKT_RSoEUlmE_ET0_S6_S6_SB_ = comdat any

$_ZNK5kitty18static_truth_tableILj6ELb1EE7crbeginEv = comdat any

$_ZNK5kitty18static_truth_tableILj6ELb1EE5crendEv = comdat any

$_ZZN5kitty9print_hexINS_18static_truth_tableILj6ELb1EEEEEvRKT_RSoENKUlmE_clEm = comdat any

$_ZN5kitty14create_nth_varINS_18static_truth_tableILj11ELb0EEEEEvRT_hb = comdat any

$_ZN3acd10acdXX_impl7get_bitERKN5kitty18static_truth_tableILj11ELb0EEEm = comdat any

$_ZN3acd10acdXX_impl7set_bitERN5kitty18static_truth_tableILj11ELb0EEEm = comdat any

$_ZN3acd10acdXX_impl9report_ttERKN5kitty18static_truth_tableILj11ELb0EEE = comdat any

$_ZN5kitty18static_truth_tableILj11ELb0EE9mask_bitsEv = comdat any

$_ZSt5beginIN5kitty19dynamic_truth_tableEEDTcldtfp_5beginEERT_ = comdat any

$_ZN5kitty9print_hexINS_19dynamic_truth_tableEEEvRKT_RSo = comdat any

$_ZNK5kitty19dynamic_truth_table8num_bitsEv = comdat any

$_ZN5kitty23for_each_block_reversedINS_19dynamic_truth_tableEZNS_9print_hexIS1_EEvRKT_RSoEUlmE_EEvS5_OT0_ = comdat any

$_ZSt8for_eachISt16reverse_iteratorIN9__gnu_cxx17__normal_iteratorIPKmSt6vectorImSaImEEEEEZN5kitty9print_hexINSA_19dynamic_truth_tableEEEvRKT_RSoEUlmE_ET0_SD_SD_SI_ = comdat any

$_ZNK5kitty19dynamic_truth_table7crbeginEv = comdat any

$_ZNK5kitty19dynamic_truth_table5crendEv = comdat any

$_ZStneIN9__gnu_cxx17__normal_iteratorIPKmSt6vectorImSaImEEEEEbRKSt16reverse_iteratorIT_ESC_ = comdat any

$_ZZN5kitty9print_hexINS_19dynamic_truth_tableEEEvRKT_RSoENKUlmE_clEm = comdat any

$_ZNKSt16reverse_iteratorIN9__gnu_cxx17__normal_iteratorIPKmSt6vectorImSaImEEEEEdeEv = comdat any

$_ZNSt16reverse_iteratorIN9__gnu_cxx17__normal_iteratorIPKmSt6vectorImSaImEEEEEppEv = comdat any

$_ZSteqIN9__gnu_cxx17__normal_iteratorIPKmSt6vectorImSaImEEEEEbRKSt16reverse_iteratorIT_ESC_ = comdat any

$_ZN9__gnu_cxxeqIPKmSt6vectorImSaImEEEEbRKNS_17__normal_iteratorIT_T0_EESB_ = comdat any

$_ZNKSt16reverse_iteratorIN9__gnu_cxx17__normal_iteratorIPKmSt6vectorImSaImEEEEE4baseEv = comdat any

$_ZN9__gnu_cxx17__normal_iteratorIPKmSt6vectorImSaImEEEmmEv = comdat any

$_ZNKSt6vectorImSaImEE7crbeginEv = comdat any

$_ZNSt16reverse_iteratorIN9__gnu_cxx17__normal_iteratorIPKmSt6vectorImSaImEEEEEC2ES7_ = comdat any

$_ZNKSt6vectorImSaImEE5crendEv = comdat any

$_ZN3acd10acdXX_impl21get_decomposition_abcEPh = comdat any

$_ZN3acd10acd66_implC2Ejbb = comdat any

$_ZN3acd10acd66_impl3runEPm = comdat any

$_ZN3acd10acd66_impl16init_truth_tableEPm = comdat any

$_ZN3acd10acd66_impl18find_decompositionEv = comdat any

$_ZN3acd10acd66_impl15local_extend_toIN5kitty18static_truth_tableILj11ELb0EEEEEvRT_j = comdat any

$_ZN3acd10acd66_impl30find_decomposition_bs_multi_ssEj = comdat any

$_ZN3acd10acd66_impl21find_decomposition_bsEj = comdat any

$_ZN3acd10acd66_impl20column_multiplicity2ERKN5kitty18static_truth_tableILj11ELb0EEEjj = comdat any

$_ZN3acd10acd66_impl22check_shared_set_multiERKN5kitty18static_truth_tableILj11ELb0EEEjPj = comdat any

$_ZN3acd10acd66_impl18swap_inplace_localERN5kitty18static_truth_tableILj11ELb0EEEhh = comdat any

$_ZN3acd10acd66_impl17combinations_nextEjjPjS1_RN5kitty18static_truth_tableILj11ELb0EEE = comdat any

$_ZN3acd10acd66_impl25check_shared_var_combinedERKN5kitty18static_truth_tableILj11ELb0EEEjPjj = comdat any

$_ZN3acd10acd66_impl24combinations_next_simpleEjPjS1_j = comdat any

$_ZSt9transformIPmS0_ZN3acd10acd66_impl18swap_inplace_localERN5kitty18static_truth_tableILj11ELb0EEEhhEUlmE_ET0_T_S9_S8_T1_ = comdat any

$_ZZN3acd10acd66_impl18swap_inplace_localERN5kitty18static_truth_tableILj11ELb0EEEhhENKUlmE_clEm = comdat any

$_ZN3acd10acd66_impl19column_multiplicityERKN5kitty18static_truth_tableILj11ELb0EEEj = comdat any

$_ZN3acd10acd66_impl16check_shared_setERKN5kitty18static_truth_tableILj11ELb0EEE = comdat any

$_ZN3acd10acd66_impl16check_shared_varERKN5kitty18static_truth_tableILj11ELb0EEEjj = comdat any

$_ZN3acd10acdXX_impl18find_decompositionEv = comdat any

$_ZN3acd10acdXX_impl30find_decomposition_bs_multi_ssEj = comdat any

$_ZN3acd10acdXX_impl21find_decomposition_bsEj = comdat any

$_ZTIZN3acd21ac_decomposition_impl18find_decompositionERjjEUlRKN5kitty18static_truth_tableILj11ELb0EEEE_ = comdat any

$_ZTSZN3acd21ac_decomposition_impl18find_decompositionERjjEUlRKN5kitty18static_truth_tableILj11ELb0EEEE_ = comdat any

$_ZTIZN3acd21ac_decomposition_impl18find_decompositionERjjEUlRKN5kitty18static_truth_tableILj11ELb0EEEE0_ = comdat any

$_ZTSZN3acd21ac_decomposition_impl18find_decompositionERjjEUlRKN5kitty18static_truth_tableILj11ELb0EEEE0_ = comdat any

$_ZTIZN3acd21ac_decomposition_impl18find_decompositionERjjEUlRKN5kitty18static_truth_tableILj11ELb0EEEE1_ = comdat any

$_ZTSZN3acd21ac_decomposition_impl18find_decompositionERjjEUlRKN5kitty18static_truth_tableILj11ELb0EEEE1_ = comdat any

$_ZTIZN3acd21ac_decomposition_impl18find_decompositionERjjEUlRKN5kitty18static_truth_tableILj11ELb0EEEE2_ = comdat any

$_ZTSZN3acd21ac_decomposition_impl18find_decompositionERjjEUlRKN5kitty18static_truth_tableILj11ELb0EEEE2_ = comdat any

$_ZTIZN3acd21ac_decomposition_impl18find_decompositionERjjEUlRKN5kitty18static_truth_tableILj11ELb0EEEE3_ = comdat any

$_ZTSZN3acd21ac_decomposition_impl18find_decompositionERjjEUlRKN5kitty18static_truth_tableILj11ELb0EEEE3_ = comdat any

$_ZSt19piecewise_construct = comdat any

@_ZStL8__ioinit = internal global %"class.std::ios_base::Init" zeroinitializer, align 1
@__dso_handle = external hidden global i8
@_ZN5kitty6detailL18ppermutation_masksE = internal constant [5 x [6 x [3 x i64]]] [[6 x [3 x i64]] [[3 x i64] zeroinitializer, [3 x i64] [i64 -7378697629483820647, i64 2459565876494606882, i64 4919131752989213764], [3 x i64] [i64 -6510615555426900571, i64 723401728380766730, i64 5787213827046133840], [3 x i64] [i64 -6172840429334713771, i64 47851476196393130, i64 6124988953138320640], [3 x i64] [i64 -6149008514797120171, i64 187647121205930, i64 6148820867675914240], [3 x i64] [i64 -6148914692668172971, i64 2863311530, i64 6148914689804861440]], [6 x [3 x i64]] [[3 x i64] zeroinitializer, [3 x i64] zeroinitializer, [3 x i64] [i64 -4340410370284600381, i64 868082074056920076, i64 3472328296227680304], [3 x i64] [i64 -3732415143318664141, i64 57421771435671756, i64 3674993371882992384], [3 x i64] [i64 -3689517697150995661, i64 225176545447116, i64 3689292520605548544], [3 x i64] [i64 -3689348817318890701, i64 3435973836, i64 3689348813882916864]], [6 x [3 x i64]] [[3 x i64] zeroinitializer, [3 x i64] zeroinitializer, [3 x i64] zeroinitializer, [3 x i64] [i64 -1148435428713435121, i64 67555025218437360, i64 1080880403494997760], [3 x i64] [i64 -1085350949055099121, i64 264913582878960, i64 1085086035472220160], [3 x i64] [i64 -1085102596360827121, i64 4042322160, i64 1085102592318504960]], [6 x [3 x i64]] [[3 x i64] zeroinitializer, [3 x i64] zeroinitializer, [3 x i64] zeroinitializer, [3 x i64] zeroinitializer, [3 x i64] [i64 -72056494543077121, i64 280375465148160, i64 71776119077928960], [3 x i64] [i64 -71777218556133121, i64 4278255360, i64 71777214277877760]], [6 x [3 x i64]] [[3 x i64] zeroinitializer, [3 x i64] zeroinitializer, [3 x i64] zeroinitializer, [3 x i64] zeroinitializer, [3 x i64] zeroinitializer, [3 x i64] [i64 -281474976645121, i64 4294901760, i64 281470681743360]]], align 16
@_ZN5kitty6detailL11projectionsE = internal constant [6 x i64] [i64 -6148914691236517206, i64 -3689348814741910324, i64 -1085102592571150096, i64 -71777214294589696, i64 -281470681808896, i64 -4294967296], align 16
@__const._ZN3acd21ac_decomposition_impl19column_multiplicityILj1EEEjRKN5kitty18static_truth_tableILj11ELb0EEE.masks_bits = private unnamed_addr constant [4 x i64] [i64 0, i64 3, i64 15, i64 63], align 16
@__const._ZN3acd21ac_decomposition_impl19column_multiplicityILj1EEEjRKN5kitty18static_truth_tableILj11ELb0EEE.masks_idx = private unnamed_addr constant [4 x i64] [i64 0, i64 0, i64 0, i64 3], align 16
@_ZTIZN3acd21ac_decomposition_impl18find_decompositionERjjEUlRKN5kitty18static_truth_tableILj11ELb0EEEE_ = linkonce_odr constant { ptr, ptr } { ptr getelementptr inbounds (ptr, ptr @_ZTVN10__cxxabiv117__class_type_infoE, i64 2), ptr @_ZTSZN3acd21ac_decomposition_impl18find_decompositionERjjEUlRKN5kitty18static_truth_tableILj11ELb0EEEE_ }, comdat, align 8
@_ZTVN10__cxxabiv117__class_type_infoE = external global [0 x ptr]
@_ZTSZN3acd21ac_decomposition_impl18find_decompositionERjjEUlRKN5kitty18static_truth_tableILj11ELb0EEEE_ = linkonce_odr constant [100 x i8] c"ZN3acd21ac_decomposition_impl18find_decompositionERjjEUlRKN5kitty18static_truth_tableILj11ELb0EEEE_\00", comdat, align 1
@__const._ZN3acd21ac_decomposition_impl19column_multiplicityILj2EEEjRKN5kitty18static_truth_tableILj11ELb0EEE.masks_bits = private unnamed_addr constant [4 x i64] [i64 0, i64 3, i64 15, i64 63], align 16
@__const._ZN3acd21ac_decomposition_impl19column_multiplicityILj2EEEjRKN5kitty18static_truth_tableILj11ELb0EEE.masks_idx = private unnamed_addr constant [4 x i64] [i64 0, i64 0, i64 0, i64 3], align 16
@_ZTIZN3acd21ac_decomposition_impl18find_decompositionERjjEUlRKN5kitty18static_truth_tableILj11ELb0EEEE0_ = linkonce_odr constant { ptr, ptr } { ptr getelementptr inbounds (ptr, ptr @_ZTVN10__cxxabiv117__class_type_infoE, i64 2), ptr @_ZTSZN3acd21ac_decomposition_impl18find_decompositionERjjEUlRKN5kitty18static_truth_tableILj11ELb0EEEE0_ }, comdat, align 8
@_ZTSZN3acd21ac_decomposition_impl18find_decompositionERjjEUlRKN5kitty18static_truth_tableILj11ELb0EEEE0_ = linkonce_odr constant [101 x i8] c"ZN3acd21ac_decomposition_impl18find_decompositionERjjEUlRKN5kitty18static_truth_tableILj11ELb0EEEE0_\00", comdat, align 1
@__const._ZN3acd21ac_decomposition_impl19column_multiplicityILj3EEEjRKN5kitty18static_truth_tableILj11ELb0EEE.masks_bits = private unnamed_addr constant [4 x i64] [i64 0, i64 3, i64 15, i64 63], align 16
@__const._ZN3acd21ac_decomposition_impl19column_multiplicityILj3EEEjRKN5kitty18static_truth_tableILj11ELb0EEE.masks_idx = private unnamed_addr constant [4 x i64] [i64 0, i64 0, i64 0, i64 3], align 16
@_ZTIZN3acd21ac_decomposition_impl18find_decompositionERjjEUlRKN5kitty18static_truth_tableILj11ELb0EEEE1_ = linkonce_odr constant { ptr, ptr } { ptr getelementptr inbounds (ptr, ptr @_ZTVN10__cxxabiv117__class_type_infoE, i64 2), ptr @_ZTSZN3acd21ac_decomposition_impl18find_decompositionERjjEUlRKN5kitty18static_truth_tableILj11ELb0EEEE1_ }, comdat, align 8
@_ZTSZN3acd21ac_decomposition_impl18find_decompositionERjjEUlRKN5kitty18static_truth_tableILj11ELb0EEEE1_ = linkonce_odr constant [101 x i8] c"ZN3acd21ac_decomposition_impl18find_decompositionERjjEUlRKN5kitty18static_truth_tableILj11ELb0EEEE1_\00", comdat, align 1
@_ZTIZN3acd21ac_decomposition_impl18find_decompositionERjjEUlRKN5kitty18static_truth_tableILj11ELb0EEEE2_ = linkonce_odr constant { ptr, ptr } { ptr getelementptr inbounds (ptr, ptr @_ZTVN10__cxxabiv117__class_type_infoE, i64 2), ptr @_ZTSZN3acd21ac_decomposition_impl18find_decompositionERjjEUlRKN5kitty18static_truth_tableILj11ELb0EEEE2_ }, comdat, align 8
@_ZTSZN3acd21ac_decomposition_impl18find_decompositionERjjEUlRKN5kitty18static_truth_tableILj11ELb0EEEE2_ = linkonce_odr constant [101 x i8] c"ZN3acd21ac_decomposition_impl18find_decompositionERjjEUlRKN5kitty18static_truth_tableILj11ELb0EEEE2_\00", comdat, align 1
@_ZTIZN3acd21ac_decomposition_impl18find_decompositionERjjEUlRKN5kitty18static_truth_tableILj11ELb0EEEE3_ = linkonce_odr constant { ptr, ptr } { ptr getelementptr inbounds (ptr, ptr @_ZTVN10__cxxabiv117__class_type_infoE, i64 2), ptr @_ZTSZN3acd21ac_decomposition_impl18find_decompositionERjjEUlRKN5kitty18static_truth_tableILj11ELb0EEEE3_ }, comdat, align 8
@_ZTSZN3acd21ac_decomposition_impl18find_decompositionERjjEUlRKN5kitty18static_truth_tableILj11ELb0EEEE3_ = linkonce_odr constant [101 x i8] c"ZN3acd21ac_decomposition_impl18find_decompositionERjjEUlRKN5kitty18static_truth_tableILj11ELb0EEEE3_\00", comdat, align 1
@_ZSt4cout = external global %"class.std::basic_ostream", align 8
@.str = private unnamed_addr constant [7 x i8] c"iSets\0A\00", align 1
@.str.1 = private unnamed_addr constant [10 x i8] c" of func \00", align 1
@.str.2 = private unnamed_addr constant [2 x i8] c"\0A\00", align 1
@.str.3 = private unnamed_addr constant [49 x i8] c"cannot create std::vector larger than max_size()\00", align 1
@_ZSt19piecewise_construct = linkonce_odr constant %"struct.std::piecewise_construct_t" zeroinitializer, comdat, align 1
@__const._ZN3acd21ac_decomposition_impl39generate_support_minimization_encodingsEv.num_combs_exact = private unnamed_addr constant [4 x i32] [i32 1, i32 3, i32 35, i32 6435], align 16
@__const._ZN3acd21ac_decomposition_impl39generate_support_minimization_encodingsEv.class_sizes = private unnamed_addr constant [13 x i32] [i32 3, i32 3, i32 15, i32 25, i32 35, i32 35, i32 255, i32 501, i32 957, i32 1749, i32 3003, i32 4719, i32 6435], align 16
@__const._ZN3acd21ac_decomposition_impl39generate_support_minimization_encodingsEv.class_sizes.4 = private unnamed_addr constant [13 x i32] [i32 6, i32 3, i32 90, i32 130, i32 105, i32 35, i32 9330, i32 23436, i32 48708, i32 78474, i32 91377, i32 70785, i32 32175], align 16
@.str.5 = private unnamed_addr constant [16 x i8] c"vector::reserve\00", align 1
@_ZN5kitty6detailL15projections_negE = internal constant [6 x i64] [i64 6148914691236517205, i64 3689348814741910323, i64 1085102592571150095, i64 71777214294589695, i64 281470681808895, i64 4294967295], align 16
@.str.6 = private unnamed_addr constant [26 x i8] c"vector::_M_realloc_insert\00", align 1
@__const._ZN3acd21ac_decomposition_impl20covering_solve_exactERSt6vectorINS0_15encoding_columnESaIS2_EE.res = private unnamed_addr constant %"struct.std::array.59" { [6 x i32] [i32 -1, i32 0, i32 0, i32 0, i32 0, i32 0] }, align 4
@__const._ZN3acd21ac_decomposition_impl24covering_solve_heuristicERSt6vectorINS0_15encoding_columnESaIS2_EE.res = private unnamed_addr constant %"struct.std::array.59" { [6 x i32] [i32 -1, i32 0, i32 0, i32 0, i32 0, i32 0] }, align 4
@_ZN5kitty6detailL5masksE = internal constant [7 x i64] [i64 1, i64 3, i64 15, i64 255, i64 65535, i64 4294967295, i64 -1], align 16
@.str.7 = private unnamed_addr constant [23 x i8] c"BS function         : \00", align 1
@.str.8 = private unnamed_addr constant [23 x i8] c"Composition function: \00", align 1
@.str.9 = private unnamed_addr constant [31 x i8] c"Found incorrect decomposition\0A\00", align 1
@.str.10 = private unnamed_addr constant [13 x i8] c" instead_of\0A\00", align 1
@llvm.global_ctors = appending global [1 x { i32, ptr, ptr }] [{ i32, ptr, ptr } { i32 65535, ptr @_GLOBAL__sub_I_ac_wrapper.cpp, ptr null }]

; Function Attrs: nounwind uwtable
define internal void @__cxx_global_var_init() #0 section ".text.startup" {
  call void @_ZNSt8ios_base4InitC1Ev(ptr noundef nonnull align 1 dereferenceable(1) @_ZStL8__ioinit)
  %1 = call i32 @__cxa_atexit(ptr @_ZNSt8ios_base4InitD1Ev, ptr @_ZStL8__ioinit, ptr @__dso_handle) #3
  ret void
}

declare void @_ZNSt8ios_base4InitC1Ev(ptr noundef nonnull align 1 dereferenceable(1)) unnamed_addr #1

; Function Attrs: nounwind
declare void @_ZNSt8ios_base4InitD1Ev(ptr noundef nonnull align 1 dereferenceable(1)) unnamed_addr #2

; Function Attrs: nounwind
declare i32 @__cxa_atexit(ptr, ptr, ptr) #3

; Function Attrs: mustprogress nounwind uwtable
define i32 @acd_evaluate(ptr noundef %0, i32 noundef %1, i32 noundef %2, ptr noundef %3, ptr noundef %4, i32 noundef %5) #4 {
  %7 = alloca i32, align 4
  %8 = alloca ptr, align 8
  %9 = alloca i32, align 4
  %10 = alloca i32, align 4
  %11 = alloca ptr, align 8
  %12 = alloca ptr, align 8
  %13 = alloca i32, align 4
  %14 = alloca %"struct.acd::ac_decomposition_params", align 4
  %15 = alloca %"struct.acd::ac_decomposition_stats", align 4
  %16 = alloca %"class.acd::ac_decomposition_impl", align 8
  %17 = alloca i32, align 4
  %18 = alloca i32, align 4
  store ptr %0, ptr %8, align 8, !tbaa !3
  store i32 %1, ptr %9, align 4, !tbaa !8
  store i32 %2, ptr %10, align 4, !tbaa !8
  store ptr %3, ptr %11, align 8, !tbaa !10
  store ptr %4, ptr %12, align 8, !tbaa !10
  store i32 %5, ptr %13, align 4, !tbaa !8
  call void @llvm.lifetime.start.p0(i64 12, ptr %14) #3
  call void @_ZN3acd23ac_decomposition_paramsC2Ev(ptr noundef nonnull align 4 dereferenceable(11) %14) #3
  %19 = load i32, ptr %10, align 4, !tbaa !8
  %20 = getelementptr inbounds nuw %"struct.acd::ac_decomposition_params", ptr %14, i32 0, i32 0
  store i32 %19, ptr %20, align 4, !tbaa !12
  %21 = getelementptr inbounds nuw %"struct.acd::ac_decomposition_params", ptr %14, i32 0, i32 3
  store i8 0, ptr %21, align 1, !tbaa !15
  %22 = load i32, ptr %13, align 4, !tbaa !8
  %23 = icmp ne i32 %22, 0
  %24 = getelementptr inbounds nuw %"struct.acd::ac_decomposition_params", ptr %14, i32 0, i32 4
  %25 = zext i1 %23 to i8
  store i8 %25, ptr %24, align 2, !tbaa !16
  call void @llvm.lifetime.start.p0(i64 12, ptr %15) #3
  call void @_ZN3acd22ac_decomposition_statsC2Ev(ptr noundef nonnull align 4 dereferenceable(12) %15) #3
  call void @llvm.lifetime.start.p0(i64 504, ptr %16) #3
  %26 = load i32, ptr %9, align 4, !tbaa !8
  call void @_ZN3acd21ac_decomposition_implC2EjRKNS_23ac_decomposition_paramsEPNS_22ac_decomposition_statsE(ptr noundef nonnull align 8 dereferenceable(500) %16, i32 noundef %26, ptr noundef nonnull align 4 dereferenceable(11) %14, ptr noundef %15)
  call void @llvm.lifetime.start.p0(i64 4, ptr %17) #3
  %27 = load ptr, ptr %8, align 8, !tbaa !3
  %28 = load ptr, ptr %11, align 8, !tbaa !10
  %29 = load i32, ptr %28, align 4, !tbaa !8
  %30 = call noundef i32 @_ZN3acd21ac_decomposition_impl3runEPmj(ptr noundef nonnull align 8 dereferenceable(500) %16, ptr noundef %27, i32 noundef %29)
  store i32 %30, ptr %17, align 4, !tbaa !8
  %31 = load i32, ptr %17, align 4, !tbaa !8
  %32 = icmp slt i32 %31, 0
  br i1 %32, label %33, label %35

33:                                               ; preds = %6
  %34 = load ptr, ptr %11, align 8, !tbaa !10
  store i32 0, ptr %34, align 4, !tbaa !8
  store i32 -1, ptr %7, align 4
  store i32 1, ptr %18, align 4
  br label %42

35:                                               ; preds = %6
  %36 = call noundef i32 @_ZN3acd21ac_decomposition_impl11get_profileEv(ptr noundef nonnull align 8 dereferenceable(500) %16)
  %37 = load ptr, ptr %11, align 8, !tbaa !10
  store i32 %36, ptr %37, align 4, !tbaa !8
  %38 = getelementptr inbounds nuw %"struct.acd::ac_decomposition_stats", ptr %15, i32 0, i32 0
  %39 = load i32, ptr %38, align 4, !tbaa !17
  %40 = load ptr, ptr %12, align 8, !tbaa !10
  store i32 %39, ptr %40, align 4, !tbaa !8
  %41 = load i32, ptr %17, align 4, !tbaa !8
  store i32 %41, ptr %7, align 4
  store i32 1, ptr %18, align 4
  br label %42

42:                                               ; preds = %35, %33
  call void @llvm.lifetime.end.p0(i64 4, ptr %17) #3
  call void @_ZN3acd21ac_decomposition_implD2Ev(ptr noundef nonnull align 8 dereferenceable(500) %16) #3
  call void @llvm.lifetime.end.p0(i64 504, ptr %16) #3
  call void @llvm.lifetime.end.p0(i64 12, ptr %15) #3
  call void @llvm.lifetime.end.p0(i64 12, ptr %14) #3
  %43 = load i32, ptr %7, align 4
  ret i32 %43
}

; Function Attrs: nocallback nofree nosync nounwind willreturn memory(argmem: readwrite)
declare void @llvm.lifetime.start.p0(i64 immarg, ptr captures(none)) #5

; Function Attrs: inlinehint mustprogress nounwind uwtable
define linkonce_odr void @_ZN3acd23ac_decomposition_paramsC2Ev(ptr noundef nonnull align 4 dereferenceable(11) %0) unnamed_addr #6 comdat align 2 {
  %2 = alloca ptr, align 8
  store ptr %0, ptr %2, align 8, !tbaa !19
  %3 = load ptr, ptr %2, align 8
  %4 = getelementptr inbounds nuw %"struct.acd::ac_decomposition_params", ptr %3, i32 0, i32 0
  store i32 6, ptr %4, align 4, !tbaa !12
  %5 = getelementptr inbounds nuw %"struct.acd::ac_decomposition_params", ptr %3, i32 0, i32 1
  store i32 4, ptr %5, align 4, !tbaa !21
  %6 = getelementptr inbounds nuw %"struct.acd::ac_decomposition_params", ptr %3, i32 0, i32 2
  store i8 1, ptr %6, align 4, !tbaa !22
  %7 = getelementptr inbounds nuw %"struct.acd::ac_decomposition_params", ptr %3, i32 0, i32 3
  store i8 0, ptr %7, align 1, !tbaa !15
  %8 = getelementptr inbounds nuw %"struct.acd::ac_decomposition_params", ptr %3, i32 0, i32 4
  store i8 0, ptr %8, align 2, !tbaa !16
  ret void
}

; Function Attrs: inlinehint mustprogress nounwind uwtable
define linkonce_odr void @_ZN3acd22ac_decomposition_statsC2Ev(ptr noundef nonnull align 4 dereferenceable(12) %0) unnamed_addr #6 comdat align 2 {
  %2 = alloca ptr, align 8
  store ptr %0, ptr %2, align 8, !tbaa !23
  %3 = load ptr, ptr %2, align 8
  %4 = getelementptr inbounds nuw %"struct.acd::ac_decomposition_stats", ptr %3, i32 0, i32 0
  store i32 0, ptr %4, align 4, !tbaa !17
  %5 = getelementptr inbounds nuw %"struct.acd::ac_decomposition_stats", ptr %3, i32 0, i32 1
  store i32 0, ptr %5, align 4, !tbaa !25
  %6 = getelementptr inbounds nuw %"struct.acd::ac_decomposition_stats", ptr %3, i32 0, i32 2
  store i32 0, ptr %6, align 4, !tbaa !26
  ret void
}

; Function Attrs: mustprogress nounwind uwtable
define linkonce_odr void @_ZN3acd21ac_decomposition_implC2EjRKNS_23ac_decomposition_paramsEPNS_22ac_decomposition_statsE(ptr noundef nonnull align 8 dereferenceable(500) %0, i32 noundef %1, ptr noundef nonnull align 4 dereferenceable(11) %2, ptr noundef %3) unnamed_addr #4 comdat align 2 {
  %5 = alloca ptr, align 8
  %6 = alloca i32, align 4
  %7 = alloca ptr, align 8
  %8 = alloca ptr, align 8
  store ptr %0, ptr %5, align 8, !tbaa !27
  store i32 %1, ptr %6, align 4, !tbaa !8
  store ptr %2, ptr %7, align 8, !tbaa !19
  store ptr %3, ptr %8, align 8, !tbaa !23
  %9 = load ptr, ptr %5, align 8
  %10 = getelementptr inbounds nuw %"class.acd::ac_decomposition_impl", ptr %9, i32 0, i32 0
  store i32 -1, ptr %10, align 8, !tbaa !29
  %11 = getelementptr inbounds nuw %"class.acd::ac_decomposition_impl", ptr %9, i32 0, i32 1
  store i32 -1, ptr %11, align 4, !tbaa !53
  %12 = getelementptr inbounds nuw %"class.acd::ac_decomposition_impl", ptr %9, i32 0, i32 2
  call void @_ZN5kitty18static_truth_tableILj11ELb0EEC2Ev(ptr noundef nonnull align 8 dereferenceable(256) %12)
  %13 = getelementptr inbounds nuw %"class.acd::ac_decomposition_impl", ptr %9, i32 0, i32 3
  call void @_ZNSt6vectorIN5kitty18static_truth_tableILj11ELb0EEESaIS2_EEC2Ev(ptr noundef nonnull align 8 dereferenceable(24) %13) #3
  %14 = getelementptr inbounds nuw %"class.acd::ac_decomposition_impl", ptr %9, i32 0, i32 4
  call void @_ZNSt6vectorIN5kitty18static_truth_tableILj11ELb0EEESaIS2_EEC2Ev(ptr noundef nonnull align 8 dereferenceable(24) %14) #3
  %15 = getelementptr inbounds nuw %"class.acd::ac_decomposition_impl", ptr %9, i32 0, i32 5
  call void @_ZNSt6vectorIN5kitty18static_truth_tableILj11ELb0EEESaIS2_EEC2Ev(ptr noundef nonnull align 8 dereferenceable(24) %15) #3
  %16 = getelementptr inbounds nuw %"class.acd::ac_decomposition_impl", ptr %9, i32 0, i32 6
  call void @_ZNSt6vectorImSaImEEC2Ev(ptr noundef nonnull align 8 dereferenceable(24) %16) #3
  %17 = getelementptr inbounds nuw %"class.acd::ac_decomposition_impl", ptr %9, i32 0, i32 7
  call void @_ZNSt6vectorImSaImEEC2Ev(ptr noundef nonnull align 8 dereferenceable(24) %17) #3
  %18 = getelementptr inbounds nuw %"class.acd::ac_decomposition_impl", ptr %9, i32 0, i32 8
  call void @_ZNSt6vectorIN3acd23ac_decomposition_resultESaIS1_EEC2Ev(ptr noundef nonnull align 8 dereferenceable(24) %18) #3
  %19 = getelementptr inbounds nuw %"class.acd::ac_decomposition_impl", ptr %9, i32 0, i32 9
  call void @_ZNSt6vectorISt5arrayIjLm2EESaIS1_EEC2Ev(ptr noundef nonnull align 8 dereferenceable(24) %19) #3
  %20 = getelementptr inbounds nuw %"class.acd::ac_decomposition_impl", ptr %9, i32 0, i32 10
  %21 = load i32, ptr %6, align 4, !tbaa !8
  store i32 %21, ptr %20, align 8, !tbaa !54
  %22 = getelementptr inbounds nuw %"class.acd::ac_decomposition_impl", ptr %9, i32 0, i32 11
  %23 = load ptr, ptr %7, align 8, !tbaa !19
  call void @llvm.memcpy.p0.p0.i64(ptr align 4 %22, ptr align 4 %23, i64 12, i1 false), !tbaa.struct !55
  %24 = getelementptr inbounds nuw %"class.acd::ac_decomposition_impl", ptr %9, i32 0, i32 12
  %25 = load ptr, ptr %8, align 8, !tbaa !23
  store ptr %25, ptr %24, align 8, !tbaa !57
  %26 = getelementptr inbounds nuw %"class.acd::ac_decomposition_impl", ptr %9, i32 0, i32 13
  %27 = call noundef ptr @_ZNSt5arrayIjLm11EE5beginEv(ptr noundef nonnull align 4 dereferenceable(44) %26) #15
  %28 = getelementptr inbounds nuw %"class.acd::ac_decomposition_impl", ptr %9, i32 0, i32 13
  %29 = call noundef ptr @_ZNSt5arrayIjLm11EE3endEv(ptr noundef nonnull align 4 dereferenceable(44) %28) #15
  call void @_ZSt4iotaIPjiEvT_S1_T0_(ptr noundef %27, ptr noundef %29, i32 noundef 0)
  ret void
}

; Function Attrs: mustprogress nounwind uwtable
define linkonce_odr noundef i32 @_ZN3acd21ac_decomposition_impl3runEPmj(ptr noundef nonnull align 8 dereferenceable(500) %0, ptr noundef %1, i32 noundef %2) #4 comdat align 2 {
  %4 = alloca i32, align 4
  %5 = alloca ptr, align 8
  %6 = alloca ptr, align 8
  %7 = alloca i32, align 4
  %8 = alloca i32, align 4
  %9 = alloca i32, align 4
  store ptr %0, ptr %5, align 8, !tbaa !27
  store ptr %1, ptr %6, align 8, !tbaa !3
  store i32 %2, ptr %7, align 4, !tbaa !8
  %10 = load ptr, ptr %5, align 8
  %11 = getelementptr inbounds nuw %"class.acd::ac_decomposition_impl", ptr %10, i32 0, i32 10
  %12 = load i32, ptr %11, align 8, !tbaa !54
  %13 = icmp ugt i32 %12, 11
  br i1 %13, label %14, label %15

14:                                               ; preds = %3
  store i32 -1, ptr %4, align 4
  br label %64

15:                                               ; preds = %3
  call void @llvm.lifetime.start.p0(i64 4, ptr %8) #3
  %16 = load i32, ptr %7, align 4, !tbaa !8
  %17 = call i32 @llvm.ctpop.i32(i32 %16)
  store i32 %17, ptr %8, align 4, !tbaa !8
  %18 = getelementptr inbounds nuw %"class.acd::ac_decomposition_impl", ptr %10, i32 0, i32 10
  %19 = load i32, ptr %18, align 8, !tbaa !54
  %20 = getelementptr inbounds nuw %"class.acd::ac_decomposition_impl", ptr %10, i32 0, i32 11
  %21 = getelementptr inbounds nuw %"struct.acd::ac_decomposition_params", ptr %20, i32 0, i32 1
  %22 = load i32, ptr %21, align 4, !tbaa !58
  %23 = getelementptr inbounds nuw %"class.acd::ac_decomposition_impl", ptr %10, i32 0, i32 11
  %24 = getelementptr inbounds nuw %"struct.acd::ac_decomposition_params", ptr %23, i32 0, i32 0
  %25 = load i32, ptr %24, align 4, !tbaa !59
  %26 = add i32 %22, %25
  %27 = icmp ugt i32 %19, %26
  br i1 %27, label %28, label %37

28:                                               ; preds = %15
  %29 = getelementptr inbounds nuw %"class.acd::ac_decomposition_impl", ptr %10, i32 0, i32 10
  %30 = load i32, ptr %29, align 8, !tbaa !54
  %31 = getelementptr inbounds nuw %"class.acd::ac_decomposition_impl", ptr %10, i32 0, i32 11
  %32 = getelementptr inbounds nuw %"struct.acd::ac_decomposition_params", ptr %31, i32 0, i32 0
  %33 = load i32, ptr %32, align 4, !tbaa !59
  %34 = sub i32 %30, %33
  %35 = getelementptr inbounds nuw %"class.acd::ac_decomposition_impl", ptr %10, i32 0, i32 11
  %36 = getelementptr inbounds nuw %"struct.acd::ac_decomposition_params", ptr %35, i32 0, i32 1
  store i32 %34, ptr %36, align 4, !tbaa !58
  br label %37

37:                                               ; preds = %28, %15
  %38 = load i32, ptr %8, align 4, !tbaa !8
  %39 = getelementptr inbounds nuw %"class.acd::ac_decomposition_impl", ptr %10, i32 0, i32 11
  %40 = getelementptr inbounds nuw %"struct.acd::ac_decomposition_params", ptr %39, i32 0, i32 1
  %41 = load i32, ptr %40, align 4, !tbaa !58
  %42 = icmp ugt i32 %38, %41
  br i1 %42, label %43, label %44

43:                                               ; preds = %37
  store i32 -1, ptr %4, align 4
  store i32 1, ptr %9, align 4
  br label %63

44:                                               ; preds = %37
  %45 = load i32, ptr %8, align 4, !tbaa !8
  %46 = getelementptr inbounds nuw %"class.acd::ac_decomposition_impl", ptr %10, i32 0, i32 11
  %47 = getelementptr inbounds nuw %"struct.acd::ac_decomposition_params", ptr %46, i32 0, i32 0
  %48 = load i32, ptr %47, align 4, !tbaa !59
  %49 = sub i32 %48, 1
  %50 = icmp ugt i32 %45, %49
  br i1 %50, label %51, label %52

51:                                               ; preds = %44
  store i32 -1, ptr %4, align 4
  store i32 1, ptr %9, align 4
  br label %63

52:                                               ; preds = %44
  %53 = load ptr, ptr %6, align 8, !tbaa !3
  call void @_ZN3acd21ac_decomposition_impl16init_truth_tableEPm(ptr noundef nonnull align 8 dereferenceable(500) %10, ptr noundef %53)
  %54 = load i32, ptr %7, align 4, !tbaa !8
  %55 = load i32, ptr %8, align 4, !tbaa !8
  call void @_ZN3acd21ac_decomposition_impl34reposition_late_arriving_variablesEjj(ptr noundef nonnull align 8 dereferenceable(500) %10, i32 noundef %54, i32 noundef %55)
  %56 = load i32, ptr %8, align 4, !tbaa !8
  %57 = call noundef zeroext i1 @_ZN3acd21ac_decomposition_impl18find_decompositionERjj(ptr noundef nonnull align 8 dereferenceable(500) %10, ptr noundef nonnull align 4 dereferenceable(4) %7, i32 noundef %56)
  br i1 %57, label %59, label %58

58:                                               ; preds = %52
  store i32 -1, ptr %4, align 4
  store i32 1, ptr %9, align 4
  br label %63

59:                                               ; preds = %52
  %60 = load i32, ptr %7, align 4, !tbaa !8
  %61 = icmp eq i32 %60, 0
  %62 = select i1 %61, i32 2, i32 1
  store i32 %62, ptr %4, align 4
  store i32 1, ptr %9, align 4
  br label %63

63:                                               ; preds = %59, %58, %51, %43
  call void @llvm.lifetime.end.p0(i64 4, ptr %8) #3
  br label %64

64:                                               ; preds = %63, %14
  %65 = load i32, ptr %4, align 4
  ret i32 %65
}

; Function Attrs: mustprogress nounwind uwtable
define linkonce_odr noundef i32 @_ZN3acd21ac_decomposition_impl11get_profileEv(ptr noundef nonnull align 8 dereferenceable(500) %0) #4 comdat align 2 {
  %2 = alloca i32, align 4
  %3 = alloca ptr, align 8
  %4 = alloca i32, align 4
  %5 = alloca i32, align 4
  %6 = alloca i32, align 4
  store ptr %0, ptr %3, align 8, !tbaa !27
  %7 = load ptr, ptr %3, align 8
  call void @llvm.lifetime.start.p0(i64 4, ptr %4) #3
  store i32 0, ptr %4, align 4, !tbaa !8
  %8 = getelementptr inbounds nuw %"class.acd::ac_decomposition_impl", ptr %7, i32 0, i32 1
  %9 = load i32, ptr %8, align 4, !tbaa !53
  %10 = getelementptr inbounds nuw %"class.acd::ac_decomposition_impl", ptr %7, i32 0, i32 10
  %11 = load i32, ptr %10, align 8, !tbaa !54
  %12 = icmp ugt i32 %9, %11
  br i1 %12, label %13, label %14

13:                                               ; preds = %1
  store i32 -1, ptr %2, align 4
  store i32 1, ptr %5, align 4
  br label %35

14:                                               ; preds = %1
  call void @llvm.lifetime.start.p0(i64 4, ptr %6) #3
  store i32 0, ptr %6, align 4, !tbaa !8
  br label %15

15:                                               ; preds = %30, %14
  %16 = load i32, ptr %6, align 4, !tbaa !8
  %17 = getelementptr inbounds nuw %"class.acd::ac_decomposition_impl", ptr %7, i32 0, i32 1
  %18 = load i32, ptr %17, align 4, !tbaa !53
  %19 = icmp ult i32 %16, %18
  br i1 %19, label %21, label %20

20:                                               ; preds = %15
  store i32 2, ptr %5, align 4
  call void @llvm.lifetime.end.p0(i64 4, ptr %6) #3
  br label %33

21:                                               ; preds = %15
  %22 = getelementptr inbounds nuw %"class.acd::ac_decomposition_impl", ptr %7, i32 0, i32 13
  %23 = load i32, ptr %6, align 4, !tbaa !8
  %24 = zext i32 %23 to i64
  %25 = call noundef nonnull align 4 dereferenceable(4) ptr @_ZNSt5arrayIjLm11EEixEm(ptr noundef nonnull align 4 dereferenceable(44) %22, i64 noundef %24) #3
  %26 = load i32, ptr %25, align 4, !tbaa !8
  %27 = shl i32 1, %26
  %28 = load i32, ptr %4, align 4, !tbaa !8
  %29 = or i32 %28, %27
  store i32 %29, ptr %4, align 4, !tbaa !8
  br label %30

30:                                               ; preds = %21
  %31 = load i32, ptr %6, align 4, !tbaa !8
  %32 = add i32 %31, 1
  store i32 %32, ptr %6, align 4, !tbaa !8
  br label %15, !llvm.loop !60

33:                                               ; preds = %20
  %34 = load i32, ptr %4, align 4, !tbaa !8
  store i32 %34, ptr %2, align 4
  store i32 1, ptr %5, align 4
  br label %35

35:                                               ; preds = %33, %13
  call void @llvm.lifetime.end.p0(i64 4, ptr %4) #3
  %36 = load i32, ptr %2, align 4
  ret i32 %36
}

; Function Attrs: nocallback nofree nosync nounwind willreturn memory(argmem: readwrite)
declare void @llvm.lifetime.end.p0(i64 immarg, ptr captures(none)) #5

; Function Attrs: inlinehint mustprogress nounwind uwtable
define linkonce_odr void @_ZN3acd21ac_decomposition_implD2Ev(ptr noundef nonnull align 8 dereferenceable(500) %0) unnamed_addr #6 comdat align 2 {
  %2 = alloca ptr, align 8
  store ptr %0, ptr %2, align 8, !tbaa !27
  %3 = load ptr, ptr %2, align 8
  %4 = getelementptr inbounds nuw %"class.acd::ac_decomposition_impl", ptr %3, i32 0, i32 9
  call void @_ZNSt6vectorISt5arrayIjLm2EESaIS1_EED2Ev(ptr noundef nonnull align 8 dereferenceable(24) %4) #3
  %5 = getelementptr inbounds nuw %"class.acd::ac_decomposition_impl", ptr %3, i32 0, i32 8
  call void @_ZNSt6vectorIN3acd23ac_decomposition_resultESaIS1_EED2Ev(ptr noundef nonnull align 8 dereferenceable(24) %5) #3
  %6 = getelementptr inbounds nuw %"class.acd::ac_decomposition_impl", ptr %3, i32 0, i32 7
  call void @_ZNSt6vectorImSaImEED2Ev(ptr noundef nonnull align 8 dereferenceable(24) %6) #3
  %7 = getelementptr inbounds nuw %"class.acd::ac_decomposition_impl", ptr %3, i32 0, i32 6
  call void @_ZNSt6vectorImSaImEED2Ev(ptr noundef nonnull align 8 dereferenceable(24) %7) #3
  %8 = getelementptr inbounds nuw %"class.acd::ac_decomposition_impl", ptr %3, i32 0, i32 5
  call void @_ZNSt6vectorIN5kitty18static_truth_tableILj11ELb0EEESaIS2_EED2Ev(ptr noundef nonnull align 8 dereferenceable(24) %8) #3
  %9 = getelementptr inbounds nuw %"class.acd::ac_decomposition_impl", ptr %3, i32 0, i32 4
  call void @_ZNSt6vectorIN5kitty18static_truth_tableILj11ELb0EEESaIS2_EED2Ev(ptr noundef nonnull align 8 dereferenceable(24) %9) #3
  %10 = getelementptr inbounds nuw %"class.acd::ac_decomposition_impl", ptr %3, i32 0, i32 3
  call void @_ZNSt6vectorIN5kitty18static_truth_tableILj11ELb0EEESaIS2_EED2Ev(ptr noundef nonnull align 8 dereferenceable(24) %10) #3
  ret void
}

; Function Attrs: mustprogress nounwind uwtable
define i32 @acd_decompose(ptr noundef %0, i32 noundef %1, i32 noundef %2, ptr noundef %3, ptr noundef %4) #4 {
  %6 = alloca i32, align 4
  %7 = alloca ptr, align 8
  %8 = alloca i32, align 4
  %9 = alloca i32, align 4
  %10 = alloca ptr, align 8
  %11 = alloca ptr, align 8
  %12 = alloca %"struct.acd::ac_decomposition_params", align 4
  %13 = alloca %"struct.acd::ac_decomposition_stats", align 4
  %14 = alloca %"class.acd::ac_decomposition_impl", align 8
  %15 = alloca i32, align 4
  %16 = alloca i32, align 4
  store ptr %0, ptr %7, align 8, !tbaa !3
  store i32 %1, ptr %8, align 4, !tbaa !8
  store i32 %2, ptr %9, align 4, !tbaa !8
  store ptr %3, ptr %10, align 8, !tbaa !10
  store ptr %4, ptr %11, align 8, !tbaa !62
  call void @llvm.lifetime.start.p0(i64 12, ptr %12) #3
  call void @_ZN3acd23ac_decomposition_paramsC2Ev(ptr noundef nonnull align 4 dereferenceable(11) %12) #3
  %17 = load i32, ptr %9, align 4, !tbaa !8
  %18 = getelementptr inbounds nuw %"struct.acd::ac_decomposition_params", ptr %12, i32 0, i32 0
  store i32 %17, ptr %18, align 4, !tbaa !12
  %19 = getelementptr inbounds nuw %"struct.acd::ac_decomposition_params", ptr %12, i32 0, i32 3
  store i8 1, ptr %19, align 1, !tbaa !15
  call void @llvm.lifetime.start.p0(i64 12, ptr %13) #3
  call void @_ZN3acd22ac_decomposition_statsC2Ev(ptr noundef nonnull align 4 dereferenceable(12) %13) #3
  call void @llvm.lifetime.start.p0(i64 504, ptr %14) #3
  %20 = load i32, ptr %8, align 4, !tbaa !8
  call void @_ZN3acd21ac_decomposition_implC2EjRKNS_23ac_decomposition_paramsEPNS_22ac_decomposition_statsE(ptr noundef nonnull align 8 dereferenceable(500) %14, i32 noundef %20, ptr noundef nonnull align 4 dereferenceable(11) %12, ptr noundef %13)
  %21 = load ptr, ptr %7, align 8, !tbaa !3
  %22 = load ptr, ptr %10, align 8, !tbaa !10
  %23 = load i32, ptr %22, align 4, !tbaa !8
  %24 = call noundef i32 @_ZN3acd21ac_decomposition_impl3runEPmj(ptr noundef nonnull align 8 dereferenceable(500) %14, ptr noundef %21, i32 noundef %23)
  call void @llvm.lifetime.start.p0(i64 4, ptr %15) #3
  %25 = call noundef i32 @_ZN3acd21ac_decomposition_impl21compute_decompositionEv(ptr noundef nonnull align 8 dereferenceable(500) %14)
  store i32 %25, ptr %15, align 4, !tbaa !8
  %26 = load i32, ptr %15, align 4, !tbaa !8
  %27 = icmp slt i32 %26, 0
  br i1 %27, label %28, label %30

28:                                               ; preds = %5
  %29 = load ptr, ptr %10, align 8, !tbaa !10
  store i32 0, ptr %29, align 4, !tbaa !8
  store i32 -1, ptr %6, align 4
  store i32 1, ptr %16, align 4
  br label %34

30:                                               ; preds = %5
  %31 = call noundef i32 @_ZN3acd21ac_decomposition_impl11get_profileEv(ptr noundef nonnull align 8 dereferenceable(500) %14)
  %32 = load ptr, ptr %10, align 8, !tbaa !10
  store i32 %31, ptr %32, align 4, !tbaa !8
  %33 = load ptr, ptr %11, align 8, !tbaa !62
  call void @_ZN3acd21ac_decomposition_impl17get_decompositionEPh(ptr noundef nonnull align 8 dereferenceable(500) %14, ptr noundef %33)
  store i32 0, ptr %6, align 4
  store i32 1, ptr %16, align 4
  br label %34

34:                                               ; preds = %30, %28
  call void @llvm.lifetime.end.p0(i64 4, ptr %15) #3
  call void @_ZN3acd21ac_decomposition_implD2Ev(ptr noundef nonnull align 8 dereferenceable(500) %14) #3
  call void @llvm.lifetime.end.p0(i64 504, ptr %14) #3
  call void @llvm.lifetime.end.p0(i64 12, ptr %13) #3
  call void @llvm.lifetime.end.p0(i64 12, ptr %12) #3
  %35 = load i32, ptr %6, align 4
  ret i32 %35
}

; Function Attrs: mustprogress nounwind uwtable
define linkonce_odr noundef i32 @_ZN3acd21ac_decomposition_impl21compute_decompositionEv(ptr noundef nonnull align 8 dereferenceable(500) %0) #4 comdat align 2 {
  %2 = alloca i32, align 4
  %3 = alloca ptr, align 8
  %4 = alloca %"class.std::vector", align 8
  store ptr %0, ptr %3, align 8, !tbaa !27
  %5 = load ptr, ptr %3, align 8
  %6 = getelementptr inbounds nuw %"class.acd::ac_decomposition_impl", ptr %5, i32 0, i32 0
  %7 = load i32, ptr %6, align 8, !tbaa !29
  %8 = icmp eq i32 %7, -1
  br i1 %8, label %9, label %10

9:                                                ; preds = %1
  store i32 -1, ptr %2, align 4
  br label %17

10:                                               ; preds = %1
  call void @llvm.lifetime.start.p0(i64 24, ptr %4) #3
  call void @_ZN3acd21ac_decomposition_impl13compute_isetsEb(ptr dead_on_unwind writable sret(%"class.std::vector") align 8 %4, ptr noundef nonnull align 8 dereferenceable(500) %5, i1 noundef zeroext false)
  call void @_ZN3acd21ac_decomposition_impl39generate_support_minimization_encodingsEv(ptr noundef nonnull align 8 dereferenceable(500) %5)
  %11 = getelementptr inbounds nuw %"class.acd::ac_decomposition_impl", ptr %5, i32 0, i32 0
  %12 = load i32, ptr %11, align 8, !tbaa !29
  %13 = icmp ule i32 %12, 4
  br i1 %13, label %14, label %15

14:                                               ; preds = %10
  call void @_ZN3acd21ac_decomposition_impl23solve_min_support_exactERKSt6vectorIN5kitty18static_truth_tableILj11ELb0EEESaIS4_EE(ptr noundef nonnull align 8 dereferenceable(500) %5, ptr noundef nonnull align 8 dereferenceable(24) %4)
  br label %16

15:                                               ; preds = %10
  call void @_ZN3acd21ac_decomposition_impl27solve_min_support_heuristicERKSt6vectorIN5kitty18static_truth_tableILj11ELb0EEESaIS4_EE(ptr noundef nonnull align 8 dereferenceable(500) %5, ptr noundef nonnull align 8 dereferenceable(24) %4)
  br label %16

16:                                               ; preds = %15, %14
  store i32 0, ptr %2, align 4
  call void @_ZNSt6vectorIN5kitty18static_truth_tableILj11ELb0EEESaIS2_EED2Ev(ptr noundef nonnull align 8 dereferenceable(24) %4) #3
  call void @llvm.lifetime.end.p0(i64 24, ptr %4) #3
  br label %17

17:                                               ; preds = %16, %9
  %18 = load i32, ptr %2, align 4
  ret i32 %18
}

; Function Attrs: mustprogress nounwind uwtable
define linkonce_odr void @_ZN3acd21ac_decomposition_impl17get_decompositionEPh(ptr noundef nonnull align 8 dereferenceable(500) %0, ptr noundef %1) #4 comdat align 2 {
  %3 = alloca ptr, align 8
  %4 = alloca ptr, align 8
  store ptr %0, ptr %3, align 8, !tbaa !27
  store ptr %1, ptr %4, align 8, !tbaa !62
  %5 = load ptr, ptr %3, align 8
  %6 = getelementptr inbounds nuw %"class.acd::ac_decomposition_impl", ptr %5, i32 0, i32 1
  %7 = load i32, ptr %6, align 4, !tbaa !53
  %8 = getelementptr inbounds nuw %"class.acd::ac_decomposition_impl", ptr %5, i32 0, i32 10
  %9 = load i32, ptr %8, align 8, !tbaa !54
  %10 = icmp ugt i32 %7, %9
  br i1 %10, label %11, label %12

11:                                               ; preds = %2
  br label %14

12:                                               ; preds = %2
  call void @_ZN3acd21ac_decomposition_impl22generate_decompositionEv(ptr noundef nonnull align 8 dereferenceable(500) %5)
  %13 = load ptr, ptr %4, align 8, !tbaa !62
  call void @_ZN3acd21ac_decomposition_impl21get_decomposition_abcEPh(ptr noundef nonnull align 8 dereferenceable(500) %5, ptr noundef %13)
  br label %14

14:                                               ; preds = %12, %11
  ret void
}

; Function Attrs: mustprogress nounwind uwtable
define i32 @acd2_evaluate(ptr noundef %0, i32 noundef %1, i32 noundef %2, ptr noundef %3, ptr noundef %4, i32 noundef %5) #4 {
  %7 = alloca i32, align 4
  %8 = alloca ptr, align 8
  %9 = alloca i32, align 4
  %10 = alloca i32, align 4
  %11 = alloca ptr, align 8
  %12 = alloca ptr, align 8
  %13 = alloca i32, align 4
  %14 = alloca %"struct.acd::acdXX_params", align 4
  %15 = alloca %"class.acd::acdXX_impl", align 8
  %16 = alloca i32, align 4
  %17 = alloca i32, align 4
  store ptr %0, ptr %8, align 8, !tbaa !3
  store i32 %1, ptr %9, align 4, !tbaa !8
  store i32 %2, ptr %10, align 4, !tbaa !8
  store ptr %3, ptr %11, align 8, !tbaa !10
  store ptr %4, ptr %12, align 8, !tbaa !10
  store i32 %5, ptr %13, align 4, !tbaa !8
  call void @llvm.lifetime.start.p0(i64 16, ptr %14) #3
  call void @_ZN3acd12acdXX_paramsC2Ev(ptr noundef nonnull align 4 dereferenceable(13) %14) #3
  %18 = load i32, ptr %10, align 4, !tbaa !8
  %19 = getelementptr inbounds nuw %"struct.acd::acdXX_params", ptr %14, i32 0, i32 0
  store i32 %18, ptr %19, align 4, !tbaa !64
  %20 = load i32, ptr %10, align 4, !tbaa !8
  %21 = sub nsw i32 %20, 2
  %22 = getelementptr inbounds nuw %"struct.acd::acdXX_params", ptr %14, i32 0, i32 1
  store i32 %21, ptr %22, align 4, !tbaa !66
  call void @llvm.lifetime.start.p0(i64 632, ptr %15) #3
  %23 = load i32, ptr %9, align 4, !tbaa !8
  call void @_ZN3acd10acdXX_implC2EjRKNS_12acdXX_paramsE(ptr noundef nonnull align 8 dereferenceable(632) %15, i32 noundef %23, ptr noundef nonnull align 4 dereferenceable(13) %14)
  call void @llvm.lifetime.start.p0(i64 4, ptr %16) #3
  %24 = load ptr, ptr %8, align 8, !tbaa !3
  %25 = load ptr, ptr %11, align 8, !tbaa !10
  %26 = load i32, ptr %25, align 4, !tbaa !8
  %27 = call noundef i32 @_ZN3acd10acdXX_impl3runEPmj(ptr noundef nonnull align 8 dereferenceable(632) %15, ptr noundef %24, i32 noundef %26)
  store i32 %27, ptr %16, align 4, !tbaa !8
  %28 = load i32, ptr %16, align 4, !tbaa !8
  %29 = icmp eq i32 %28, 0
  br i1 %29, label %30, label %32

30:                                               ; preds = %6
  %31 = load ptr, ptr %11, align 8, !tbaa !10
  store i32 0, ptr %31, align 4, !tbaa !8
  store i32 -1, ptr %7, align 4
  store i32 1, ptr %17, align 4
  br label %38

32:                                               ; preds = %6
  %33 = call noundef i32 @_ZN3acd10acdXX_impl21compute_decompositionEv(ptr noundef nonnull align 8 dereferenceable(632) %15)
  %34 = call noundef i32 @_ZN3acd10acdXX_impl11get_profileEv(ptr noundef nonnull align 8 dereferenceable(632) %15)
  %35 = load ptr, ptr %11, align 8, !tbaa !10
  store i32 %34, ptr %35, align 4, !tbaa !8
  %36 = load ptr, ptr %12, align 8, !tbaa !10
  store i32 2, ptr %36, align 4, !tbaa !8
  %37 = load i32, ptr %16, align 4, !tbaa !8
  store i32 %37, ptr %7, align 4
  store i32 1, ptr %17, align 4
  br label %38

38:                                               ; preds = %32, %30
  call void @llvm.lifetime.end.p0(i64 4, ptr %16) #3
  call void @llvm.lifetime.end.p0(i64 632, ptr %15) #3
  call void @llvm.lifetime.end.p0(i64 16, ptr %14) #3
  %39 = load i32, ptr %7, align 4
  ret i32 %39
}

; Function Attrs: inlinehint mustprogress nounwind uwtable
define linkonce_odr void @_ZN3acd12acdXX_paramsC2Ev(ptr noundef nonnull align 4 dereferenceable(13) %0) unnamed_addr #6 comdat align 2 {
  %2 = alloca ptr, align 8
  store ptr %0, ptr %2, align 8, !tbaa !67
  %3 = load ptr, ptr %2, align 8
  %4 = getelementptr inbounds nuw %"struct.acd::acdXX_params", ptr %3, i32 0, i32 0
  store i32 6, ptr %4, align 4, !tbaa !64
  %5 = getelementptr inbounds nuw %"struct.acd::acdXX_params", ptr %3, i32 0, i32 1
  store i32 4, ptr %5, align 4, !tbaa !66
  %6 = getelementptr inbounds nuw %"struct.acd::acdXX_params", ptr %3, i32 0, i32 2
  store i32 0, ptr %6, align 4, !tbaa !69
  %7 = getelementptr inbounds nuw %"struct.acd::acdXX_params", ptr %3, i32 0, i32 3
  store i8 0, ptr %7, align 4, !tbaa !70
  ret void
}

; Function Attrs: mustprogress nounwind uwtable
define linkonce_odr void @_ZN3acd10acdXX_implC2EjRKNS_12acdXX_paramsE(ptr noundef nonnull align 8 dereferenceable(632) %0, i32 noundef %1, ptr noundef nonnull align 4 dereferenceable(13) %2) unnamed_addr #4 comdat align 2 {
  %4 = alloca ptr, align 8
  %5 = alloca i32, align 4
  %6 = alloca ptr, align 8
  store ptr %0, ptr %4, align 8, !tbaa !71
  store i32 %1, ptr %5, align 4, !tbaa !8
  store ptr %2, ptr %6, align 8, !tbaa !67
  %7 = load ptr, ptr %4, align 8
  %8 = getelementptr inbounds nuw %"class.acd::acdXX_impl", ptr %7, i32 0, i32 0
  store i32 -1, ptr %8, align 8, !tbaa !73
  %9 = getelementptr inbounds nuw %"class.acd::acdXX_impl", ptr %7, i32 0, i32 1
  store i32 -1, ptr %9, align 4, !tbaa !75
  %10 = getelementptr inbounds nuw %"class.acd::acdXX_impl", ptr %7, i32 0, i32 2
  store i32 -1, ptr %10, align 8, !tbaa !76
  %11 = getelementptr inbounds nuw %"class.acd::acdXX_impl", ptr %7, i32 0, i32 3
  store i32 0, ptr %11, align 4, !tbaa !77
  %12 = getelementptr inbounds nuw %"class.acd::acdXX_impl", ptr %7, i32 0, i32 4
  call void @_ZN5kitty18static_truth_tableILj11ELb0EEC2Ev(ptr noundef nonnull align 8 dereferenceable(256) %12)
  %13 = getelementptr inbounds nuw %"class.acd::acdXX_impl", ptr %7, i32 0, i32 5
  call void @_ZN5kitty18static_truth_tableILj11ELb0EEC2Ev(ptr noundef nonnull align 8 dereferenceable(256) %13)
  %14 = getelementptr inbounds nuw %"class.acd::acdXX_impl", ptr %7, i32 0, i32 8
  %15 = load i32, ptr %5, align 4, !tbaa !8
  store i32 %15, ptr %14, align 8, !tbaa !78
  %16 = getelementptr inbounds nuw %"class.acd::acdXX_impl", ptr %7, i32 0, i32 9
  %17 = load ptr, ptr %6, align 8, !tbaa !67
  call void @llvm.memcpy.p0.p0.i64(ptr align 4 %16, ptr align 4 %17, i64 16, i1 false), !tbaa.struct !79
  %18 = getelementptr inbounds nuw %"class.acd::acdXX_impl", ptr %7, i32 0, i32 10
  %19 = call noundef ptr @_ZNSt5arrayIjLm11EE5beginEv(ptr noundef nonnull align 4 dereferenceable(44) %18) #15
  %20 = getelementptr inbounds nuw %"class.acd::acdXX_impl", ptr %7, i32 0, i32 10
  %21 = call noundef ptr @_ZNSt5arrayIjLm11EE3endEv(ptr noundef nonnull align 4 dereferenceable(44) %20) #15
  call void @_ZSt4iotaIPjiEvT_S1_T0_(ptr noundef %19, ptr noundef %21, i32 noundef 0)
  ret void
}

; Function Attrs: mustprogress nounwind uwtable
define linkonce_odr noundef i32 @_ZN3acd10acdXX_impl3runEPmj(ptr noundef nonnull align 8 dereferenceable(632) %0, ptr noundef %1, i32 noundef %2) #4 comdat align 2 {
  %4 = alloca i32, align 4
  %5 = alloca ptr, align 8
  %6 = alloca ptr, align 8
  %7 = alloca i32, align 4
  %8 = alloca i32, align 4
  %9 = alloca i32, align 4
  %10 = alloca i32, align 4
  store ptr %0, ptr %5, align 8, !tbaa !71
  store ptr %1, ptr %6, align 8, !tbaa !3
  store i32 %2, ptr %7, align 4, !tbaa !8
  %11 = load ptr, ptr %5, align 8
  %12 = getelementptr inbounds nuw %"class.acd::acdXX_impl", ptr %11, i32 0, i32 8
  %13 = load i32, ptr %12, align 8, !tbaa !78
  %14 = icmp ugt i32 %13, 11
  br i1 %14, label %23, label %15

15:                                               ; preds = %3
  %16 = getelementptr inbounds nuw %"class.acd::acdXX_impl", ptr %11, i32 0, i32 8
  %17 = load i32, ptr %16, align 8, !tbaa !78
  %18 = getelementptr inbounds nuw %"class.acd::acdXX_impl", ptr %11, i32 0, i32 9
  %19 = getelementptr inbounds nuw %"struct.acd::acdXX_params", ptr %18, i32 0, i32 0
  %20 = load i32, ptr %19, align 4, !tbaa !80
  %21 = mul i32 2, %20
  %22 = icmp uge i32 %17, %21
  br i1 %22, label %23, label %24

23:                                               ; preds = %15, %3
  store i32 0, ptr %4, align 4
  br label %59

24:                                               ; preds = %15
  call void @llvm.lifetime.start.p0(i64 4, ptr %8) #3
  %25 = load i32, ptr %7, align 4, !tbaa !8
  %26 = call i32 @llvm.ctpop.i32(i32 %25)
  store i32 %26, ptr %8, align 4, !tbaa !8
  %27 = load i32, ptr %8, align 4, !tbaa !8
  %28 = getelementptr inbounds nuw %"class.acd::acdXX_impl", ptr %11, i32 0, i32 9
  %29 = getelementptr inbounds nuw %"struct.acd::acdXX_params", ptr %28, i32 0, i32 0
  %30 = load i32, ptr %29, align 4, !tbaa !80
  %31 = icmp uge i32 %27, %30
  br i1 %31, label %32, label %33

32:                                               ; preds = %24
  store i32 0, ptr %4, align 4
  store i32 1, ptr %9, align 4
  br label %58

33:                                               ; preds = %24
  %34 = getelementptr inbounds nuw %"class.acd::acdXX_impl", ptr %11, i32 0, i32 9
  %35 = getelementptr inbounds nuw %"struct.acd::acdXX_params", ptr %34, i32 0, i32 1
  call void @llvm.lifetime.start.p0(i64 4, ptr %10) #3
  %36 = getelementptr inbounds nuw %"class.acd::acdXX_impl", ptr %11, i32 0, i32 9
  %37 = getelementptr inbounds nuw %"struct.acd::acdXX_params", ptr %36, i32 0, i32 0
  %38 = load i32, ptr %37, align 4, !tbaa !80
  %39 = sub i32 %38, 2
  store i32 %39, ptr %10, align 4, !tbaa !8
  %40 = call noundef nonnull align 4 dereferenceable(4) ptr @_ZSt3minIjERKT_S2_S2_(ptr noundef nonnull align 4 dereferenceable(4) %35, ptr noundef nonnull align 4 dereferenceable(4) %10)
  %41 = load i32, ptr %40, align 4, !tbaa !8
  %42 = getelementptr inbounds nuw %"class.acd::acdXX_impl", ptr %11, i32 0, i32 9
  %43 = getelementptr inbounds nuw %"struct.acd::acdXX_params", ptr %42, i32 0, i32 1
  store i32 %41, ptr %43, align 4, !tbaa !81
  call void @llvm.lifetime.end.p0(i64 4, ptr %10) #3
  %44 = load ptr, ptr %6, align 8, !tbaa !3
  call void @_ZN3acd10acdXX_impl16init_truth_tableEPm(ptr noundef nonnull align 8 dereferenceable(632) %11, ptr noundef %44)
  %45 = getelementptr inbounds nuw %"class.acd::acdXX_impl", ptr %11, i32 0, i32 5
  %46 = getelementptr inbounds nuw %"class.acd::acdXX_impl", ptr %11, i32 0, i32 4
  call void @llvm.memcpy.p0.p0.i64(ptr align 8 %46, ptr align 8 %45, i64 256, i1 false), !tbaa.struct !82
  %47 = load i32, ptr %7, align 4, !tbaa !8
  %48 = load i32, ptr %8, align 4, !tbaa !8
  call void @_ZN3acd10acdXX_impl34reposition_late_arriving_variablesEjj(ptr noundef nonnull align 8 dereferenceable(632) %11, i32 noundef %47, i32 noundef %48)
  %49 = load i32, ptr %8, align 4, !tbaa !8
  %50 = call noundef zeroext i1 @_ZN3acd10acdXX_impl25find_decomposition_offsetEj(ptr noundef nonnull align 8 dereferenceable(632) %11, i32 noundef %49)
  br i1 %50, label %51, label %55

51:                                               ; preds = %33
  %52 = load i32, ptr %7, align 4, !tbaa !8
  %53 = icmp eq i32 %52, 0
  %54 = select i1 %53, i32 2, i32 1
  br label %56

55:                                               ; preds = %33
  br label %56

56:                                               ; preds = %55, %51
  %57 = phi i32 [ %54, %51 ], [ 0, %55 ]
  store i32 %57, ptr %4, align 4
  store i32 1, ptr %9, align 4
  br label %58

58:                                               ; preds = %56, %32
  call void @llvm.lifetime.end.p0(i64 4, ptr %8) #3
  br label %59

59:                                               ; preds = %58, %23
  %60 = load i32, ptr %4, align 4
  ret i32 %60
}

; Function Attrs: mustprogress nounwind uwtable
define linkonce_odr noundef i32 @_ZN3acd10acdXX_impl21compute_decompositionEv(ptr noundef nonnull align 8 dereferenceable(632) %0) #4 comdat align 2 {
  %2 = alloca i32, align 4
  %3 = alloca ptr, align 8
  store ptr %0, ptr %3, align 8, !tbaa !71
  %4 = load ptr, ptr %3, align 8
  %5 = getelementptr inbounds nuw %"class.acd::acdXX_impl", ptr %4, i32 0, i32 0
  %6 = load i32, ptr %5, align 8, !tbaa !73
  %7 = icmp eq i32 %6, -1
  br i1 %7, label %8, label %9

8:                                                ; preds = %1
  store i32 -1, ptr %2, align 4
  br label %18

9:                                                ; preds = %1
  call void @_ZN3acd10acdXX_impl26compute_decomposition_implEb(ptr noundef nonnull align 8 dereferenceable(632) %4, i1 noundef zeroext false)
  %10 = getelementptr inbounds nuw %"class.acd::acdXX_impl", ptr %4, i32 0, i32 9
  %11 = getelementptr inbounds nuw %"struct.acd::acdXX_params", ptr %10, i32 0, i32 3
  %12 = load i8, ptr %11, align 4, !tbaa !84, !range !85, !noundef !86
  %13 = trunc i8 %12 to i1
  br i1 %13, label %14, label %17

14:                                               ; preds = %9
  %15 = call noundef zeroext i1 @_ZN3acd10acdXX_impl11verify_implEv(ptr noundef nonnull align 8 dereferenceable(632) %4)
  br i1 %15, label %17, label %16

16:                                               ; preds = %14
  store i32 1, ptr %2, align 4
  br label %18

17:                                               ; preds = %14, %9
  store i32 0, ptr %2, align 4
  br label %18

18:                                               ; preds = %17, %16, %8
  %19 = load i32, ptr %2, align 4
  ret i32 %19
}

; Function Attrs: mustprogress nounwind uwtable
define linkonce_odr noundef i32 @_ZN3acd10acdXX_impl11get_profileEv(ptr noundef nonnull align 8 dereferenceable(632) %0) #4 comdat align 2 {
  %2 = alloca i32, align 4
  %3 = alloca ptr, align 8
  %4 = alloca i32, align 4
  %5 = alloca i32, align 4
  %6 = alloca i32, align 4
  %7 = alloca i32, align 4
  store ptr %0, ptr %3, align 8, !tbaa !71
  %8 = load ptr, ptr %3, align 8
  call void @llvm.lifetime.start.p0(i64 4, ptr %4) #3
  store i32 0, ptr %4, align 4, !tbaa !8
  %9 = getelementptr inbounds nuw %"class.acd::acdXX_impl", ptr %8, i32 0, i32 0
  %10 = load i32, ptr %9, align 8, !tbaa !73
  %11 = icmp eq i32 %10, -1
  br i1 %11, label %12, label %13

12:                                               ; preds = %1
  store i32 -1, ptr %2, align 4
  store i32 1, ptr %5, align 4
  br label %73

13:                                               ; preds = %1
  %14 = getelementptr inbounds nuw %"class.acd::acdXX_impl", ptr %8, i32 0, i32 2
  %15 = load i32, ptr %14, align 8, !tbaa !76
  %16 = icmp eq i32 %15, -1
  br i1 %16, label %17, label %37

17:                                               ; preds = %13
  call void @llvm.lifetime.start.p0(i64 4, ptr %6) #3
  store i32 0, ptr %6, align 4, !tbaa !8
  br label %18

18:                                               ; preds = %33, %17
  %19 = load i32, ptr %6, align 4, !tbaa !8
  %20 = getelementptr inbounds nuw %"class.acd::acdXX_impl", ptr %8, i32 0, i32 1
  %21 = load i32, ptr %20, align 4, !tbaa !75
  %22 = icmp ult i32 %19, %21
  br i1 %22, label %24, label %23

23:                                               ; preds = %18
  store i32 2, ptr %5, align 4
  call void @llvm.lifetime.end.p0(i64 4, ptr %6) #3
  br label %36

24:                                               ; preds = %18
  %25 = getelementptr inbounds nuw %"class.acd::acdXX_impl", ptr %8, i32 0, i32 10
  %26 = load i32, ptr %6, align 4, !tbaa !8
  %27 = zext i32 %26 to i64
  %28 = call noundef nonnull align 4 dereferenceable(4) ptr @_ZNSt5arrayIjLm11EEixEm(ptr noundef nonnull align 4 dereferenceable(44) %25, i64 noundef %27) #3
  %29 = load i32, ptr %28, align 4, !tbaa !8
  %30 = shl i32 1, %29
  %31 = load i32, ptr %4, align 4, !tbaa !8
  %32 = or i32 %31, %30
  store i32 %32, ptr %4, align 4, !tbaa !8
  br label %33

33:                                               ; preds = %24
  %34 = load i32, ptr %6, align 4, !tbaa !8
  %35 = add i32 %34, 1
  store i32 %35, ptr %6, align 4, !tbaa !8
  br label %18, !llvm.loop !87

36:                                               ; preds = %23
  br label %71

37:                                               ; preds = %13
  call void @llvm.lifetime.start.p0(i64 4, ptr %7) #3
  store i32 0, ptr %7, align 4, !tbaa !8
  br label %38

38:                                               ; preds = %60, %37
  %39 = load i32, ptr %7, align 4, !tbaa !8
  %40 = getelementptr inbounds nuw %"class.acd::acdXX_impl", ptr %8, i32 0, i32 2
  %41 = load i32, ptr %40, align 8, !tbaa !76
  %42 = icmp ult i32 %39, %41
  br i1 %42, label %44, label %43

43:                                               ; preds = %38
  store i32 5, ptr %5, align 4
  call void @llvm.lifetime.end.p0(i64 4, ptr %7) #3
  br label %63

44:                                               ; preds = %38
  %45 = getelementptr inbounds nuw %"class.acd::acdXX_impl", ptr %8, i32 0, i32 10
  %46 = getelementptr inbounds nuw %"class.acd::acdXX_impl", ptr %8, i32 0, i32 7
  %47 = load i32, ptr %7, align 4, !tbaa !8
  %48 = zext i32 %47 to i64
  %49 = getelementptr inbounds nuw [6 x i32], ptr %46, i64 0, i64 %48
  %50 = load i32, ptr %49, align 4, !tbaa !8
  %51 = getelementptr inbounds nuw %"class.acd::acdXX_impl", ptr %8, i32 0, i32 1
  %52 = load i32, ptr %51, align 4, !tbaa !75
  %53 = add i32 %50, %52
  %54 = zext i32 %53 to i64
  %55 = call noundef nonnull align 4 dereferenceable(4) ptr @_ZNSt5arrayIjLm11EEixEm(ptr noundef nonnull align 4 dereferenceable(44) %45, i64 noundef %54) #3
  %56 = load i32, ptr %55, align 4, !tbaa !8
  %57 = shl i32 1, %56
  %58 = load i32, ptr %4, align 4, !tbaa !8
  %59 = or i32 %58, %57
  store i32 %59, ptr %4, align 4, !tbaa !8
  br label %60

60:                                               ; preds = %44
  %61 = load i32, ptr %7, align 4, !tbaa !8
  %62 = add i32 %61, 1
  store i32 %62, ptr %7, align 4, !tbaa !8
  br label %38, !llvm.loop !88

63:                                               ; preds = %43
  %64 = load i32, ptr %4, align 4, !tbaa !8
  %65 = xor i32 %64, -1
  %66 = getelementptr inbounds nuw %"class.acd::acdXX_impl", ptr %8, i32 0, i32 8
  %67 = load i32, ptr %66, align 8, !tbaa !78
  %68 = shl i32 1, %67
  %69 = sub i32 %68, 1
  %70 = and i32 %65, %69
  store i32 %70, ptr %4, align 4, !tbaa !8
  br label %71

71:                                               ; preds = %63, %36
  %72 = load i32, ptr %4, align 4, !tbaa !8
  store i32 %72, ptr %2, align 4
  store i32 1, ptr %5, align 4
  br label %73

73:                                               ; preds = %71, %12
  call void @llvm.lifetime.end.p0(i64 4, ptr %4) #3
  %74 = load i32, ptr %2, align 4
  ret i32 %74
}

; Function Attrs: mustprogress nounwind uwtable
define i32 @acd2_decompose(ptr noundef %0, i32 noundef %1, i32 noundef %2, ptr noundef %3, ptr noundef %4) #4 {
  %6 = alloca i32, align 4
  %7 = alloca ptr, align 8
  %8 = alloca i32, align 4
  %9 = alloca i32, align 4
  %10 = alloca ptr, align 8
  %11 = alloca ptr, align 8
  %12 = alloca %"struct.acd::acdXX_params", align 4
  %13 = alloca %"class.acd::acdXX_impl", align 8
  %14 = alloca i32, align 4
  %15 = alloca i32, align 4
  store ptr %0, ptr %7, align 8, !tbaa !3
  store i32 %1, ptr %8, align 4, !tbaa !8
  store i32 %2, ptr %9, align 4, !tbaa !8
  store ptr %3, ptr %10, align 8, !tbaa !10
  store ptr %4, ptr %11, align 8, !tbaa !62
  call void @llvm.lifetime.start.p0(i64 16, ptr %12) #3
  call void @_ZN3acd12acdXX_paramsC2Ev(ptr noundef nonnull align 4 dereferenceable(13) %12) #3
  %16 = load i32, ptr %9, align 4, !tbaa !8
  %17 = getelementptr inbounds nuw %"struct.acd::acdXX_params", ptr %12, i32 0, i32 0
  store i32 %16, ptr %17, align 4, !tbaa !64
  %18 = load i32, ptr %9, align 4, !tbaa !8
  %19 = sub nsw i32 %18, 2
  %20 = getelementptr inbounds nuw %"struct.acd::acdXX_params", ptr %12, i32 0, i32 1
  store i32 %19, ptr %20, align 4, !tbaa !66
  call void @llvm.lifetime.start.p0(i64 632, ptr %13) #3
  %21 = load i32, ptr %8, align 4, !tbaa !8
  call void @_ZN3acd10acdXX_implC2EjRKNS_12acdXX_paramsE(ptr noundef nonnull align 8 dereferenceable(632) %13, i32 noundef %21, ptr noundef nonnull align 4 dereferenceable(13) %12)
  %22 = load ptr, ptr %7, align 8, !tbaa !3
  %23 = load ptr, ptr %10, align 8, !tbaa !10
  %24 = load i32, ptr %23, align 4, !tbaa !8
  %25 = call noundef i32 @_ZN3acd10acdXX_impl3runEPmj(ptr noundef nonnull align 8 dereferenceable(632) %13, ptr noundef %22, i32 noundef %24)
  call void @llvm.lifetime.start.p0(i64 4, ptr %14) #3
  %26 = call noundef i32 @_ZN3acd10acdXX_impl21compute_decompositionEv(ptr noundef nonnull align 8 dereferenceable(632) %13)
  store i32 %26, ptr %14, align 4, !tbaa !8
  %27 = load i32, ptr %14, align 4, !tbaa !8
  %28 = icmp ne i32 %27, 0
  br i1 %28, label %29, label %31

29:                                               ; preds = %5
  %30 = load ptr, ptr %10, align 8, !tbaa !10
  store i32 0, ptr %30, align 4, !tbaa !8
  store i32 -1, ptr %6, align 4
  store i32 1, ptr %15, align 4
  br label %35

31:                                               ; preds = %5
  %32 = call noundef i32 @_ZN3acd10acdXX_impl11get_profileEv(ptr noundef nonnull align 8 dereferenceable(632) %13)
  %33 = load ptr, ptr %10, align 8, !tbaa !10
  store i32 %32, ptr %33, align 4, !tbaa !8
  %34 = load ptr, ptr %11, align 8, !tbaa !62
  call void @_ZN3acd10acdXX_impl17get_decompositionEPh(ptr noundef nonnull align 8 dereferenceable(632) %13, ptr noundef %34)
  store i32 0, ptr %6, align 4
  store i32 1, ptr %15, align 4
  br label %35

35:                                               ; preds = %31, %29
  call void @llvm.lifetime.end.p0(i64 4, ptr %14) #3
  call void @llvm.lifetime.end.p0(i64 632, ptr %13) #3
  call void @llvm.lifetime.end.p0(i64 16, ptr %12) #3
  %36 = load i32, ptr %6, align 4
  ret i32 %36
}

; Function Attrs: mustprogress nounwind uwtable
define linkonce_odr void @_ZN3acd10acdXX_impl17get_decompositionEPh(ptr noundef nonnull align 8 dereferenceable(632) %0, ptr noundef %1) #4 comdat align 2 {
  %3 = alloca ptr, align 8
  %4 = alloca ptr, align 8
  store ptr %0, ptr %3, align 8, !tbaa !71
  store ptr %1, ptr %4, align 8, !tbaa !62
  %5 = load ptr, ptr %3, align 8
  %6 = getelementptr inbounds nuw %"class.acd::acdXX_impl", ptr %5, i32 0, i32 2
  %7 = load i32, ptr %6, align 8, !tbaa !76
  %8 = icmp eq i32 %7, -1
  br i1 %8, label %9, label %10

9:                                                ; preds = %2
  br label %12

10:                                               ; preds = %2
  %11 = load ptr, ptr %4, align 8, !tbaa !62
  call void @_ZN3acd10acdXX_impl21get_decomposition_abcEPh(ptr noundef nonnull align 8 dereferenceable(632) %5, ptr noundef %11)
  br label %12

12:                                               ; preds = %10, %9
  ret void
}

; Function Attrs: mustprogress nounwind uwtable
define i32 @acdXX_evaluate(ptr noundef %0, i32 noundef %1, i32 noundef %2) #4 {
  %4 = alloca i32, align 4
  %5 = alloca ptr, align 8
  %6 = alloca i32, align 4
  %7 = alloca i32, align 4
  %8 = alloca %"struct.acd::acdXX_params", align 4
  %9 = alloca %"class.acd::acdXX_impl", align 8
  %10 = alloca i32, align 4
  store ptr %0, ptr %5, align 8, !tbaa !3
  store i32 %1, ptr %6, align 4, !tbaa !8
  store i32 %2, ptr %7, align 4, !tbaa !8
  %11 = load i32, ptr %6, align 4, !tbaa !8
  %12 = icmp eq i32 %11, 6
  br i1 %12, label %13, label %17

13:                                               ; preds = %3
  %14 = load ptr, ptr %5, align 8, !tbaa !3
  %15 = load i32, ptr %7, align 4, !tbaa !8
  %16 = call noundef i32 @_Z14acd66_evaluatePmj(ptr noundef %14, i32 noundef %15)
  store i32 %16, ptr %4, align 4
  br label %31

17:                                               ; preds = %3
  call void @llvm.lifetime.start.p0(i64 16, ptr %8) #3
  call void @_ZN3acd12acdXX_paramsC2Ev(ptr noundef nonnull align 4 dereferenceable(13) %8) #3
  %18 = load i32, ptr %6, align 4, !tbaa !8
  %19 = getelementptr inbounds nuw %"struct.acd::acdXX_params", ptr %8, i32 0, i32 0
  store i32 %18, ptr %19, align 4, !tbaa !64
  %20 = load i32, ptr %6, align 4, !tbaa !8
  %21 = sub i32 %20, 2
  %22 = getelementptr inbounds nuw %"struct.acd::acdXX_params", ptr %8, i32 0, i32 1
  store i32 %21, ptr %22, align 4, !tbaa !66
  call void @llvm.lifetime.start.p0(i64 632, ptr %9) #3
  %23 = load i32, ptr %7, align 4, !tbaa !8
  call void @_ZN3acd10acdXX_implC2EjRKNS_12acdXX_paramsE(ptr noundef nonnull align 8 dereferenceable(632) %9, i32 noundef %23, ptr noundef nonnull align 4 dereferenceable(13) %8)
  %24 = load ptr, ptr %5, align 8, !tbaa !3
  %25 = call noundef zeroext i1 @_ZN3acd10acdXX_impl3runEPm(ptr noundef nonnull align 8 dereferenceable(632) %9, ptr noundef %24)
  %26 = zext i1 %25 to i32
  %27 = icmp eq i32 %26, 0
  br i1 %27, label %28, label %29

28:                                               ; preds = %17
  store i32 0, ptr %4, align 4
  store i32 1, ptr %10, align 4
  br label %30

29:                                               ; preds = %17
  store i32 1, ptr %4, align 4
  store i32 1, ptr %10, align 4
  br label %30

30:                                               ; preds = %29, %28
  call void @llvm.lifetime.end.p0(i64 632, ptr %9) #3
  call void @llvm.lifetime.end.p0(i64 16, ptr %8) #3
  br label %31

31:                                               ; preds = %30, %13
  %32 = load i32, ptr %4, align 4
  ret i32 %32
}

; Function Attrs: inlinehint mustprogress nounwind uwtable
define linkonce_odr noundef i32 @_Z14acd66_evaluatePmj(ptr noundef %0, i32 noundef %1) #6 comdat {
  %3 = alloca i32, align 4
  %4 = alloca ptr, align 8
  %5 = alloca i32, align 4
  %6 = alloca %"class.acd::acd66_impl", align 8
  %7 = alloca i32, align 4
  store ptr %0, ptr %4, align 8, !tbaa !3
  store i32 %1, ptr %5, align 4, !tbaa !8
  call void @llvm.lifetime.start.p0(i64 624, ptr %6) #3
  %8 = load i32, ptr %5, align 4, !tbaa !8
  call void @_ZN3acd10acd66_implC2Ejbb(ptr noundef nonnull align 8 dereferenceable(620) %6, i32 noundef %8, i1 noundef zeroext true, i1 noundef zeroext false)
  %9 = load ptr, ptr %4, align 8, !tbaa !3
  %10 = call noundef zeroext i1 @_ZN3acd10acd66_impl3runEPm(ptr noundef nonnull align 8 dereferenceable(620) %6, ptr noundef %9)
  %11 = zext i1 %10 to i32
  %12 = icmp eq i32 %11, 0
  br i1 %12, label %13, label %14

13:                                               ; preds = %2
  store i32 0, ptr %3, align 4
  store i32 1, ptr %7, align 4
  br label %15

14:                                               ; preds = %2
  store i32 1, ptr %3, align 4
  store i32 1, ptr %7, align 4
  br label %15

15:                                               ; preds = %14, %13
  call void @llvm.lifetime.end.p0(i64 624, ptr %6) #3
  %16 = load i32, ptr %3, align 4
  ret i32 %16
}

; Function Attrs: mustprogress nounwind uwtable
define linkonce_odr noundef zeroext i1 @_ZN3acd10acdXX_impl3runEPm(ptr noundef nonnull align 8 dereferenceable(632) %0, ptr noundef %1) #4 comdat align 2 {
  %3 = alloca i1, align 1
  %4 = alloca ptr, align 8
  %5 = alloca ptr, align 8
  %6 = alloca i32, align 4
  store ptr %0, ptr %4, align 8, !tbaa !71
  store ptr %1, ptr %5, align 8, !tbaa !3
  %7 = load ptr, ptr %4, align 8
  %8 = getelementptr inbounds nuw %"class.acd::acdXX_impl", ptr %7, i32 0, i32 8
  %9 = load i32, ptr %8, align 8, !tbaa !78
  %10 = icmp ugt i32 %9, 11
  br i1 %10, label %19, label %11

11:                                               ; preds = %2
  %12 = getelementptr inbounds nuw %"class.acd::acdXX_impl", ptr %7, i32 0, i32 8
  %13 = load i32, ptr %12, align 8, !tbaa !78
  %14 = getelementptr inbounds nuw %"class.acd::acdXX_impl", ptr %7, i32 0, i32 9
  %15 = getelementptr inbounds nuw %"struct.acd::acdXX_params", ptr %14, i32 0, i32 0
  %16 = load i32, ptr %15, align 4, !tbaa !80
  %17 = mul i32 2, %16
  %18 = icmp uge i32 %13, %17
  br i1 %18, label %19, label %20

19:                                               ; preds = %11, %2
  store i1 false, ptr %3, align 1
  br label %33

20:                                               ; preds = %11
  %21 = getelementptr inbounds nuw %"class.acd::acdXX_impl", ptr %7, i32 0, i32 9
  %22 = getelementptr inbounds nuw %"struct.acd::acdXX_params", ptr %21, i32 0, i32 1
  call void @llvm.lifetime.start.p0(i64 4, ptr %6) #3
  %23 = getelementptr inbounds nuw %"class.acd::acdXX_impl", ptr %7, i32 0, i32 9
  %24 = getelementptr inbounds nuw %"struct.acd::acdXX_params", ptr %23, i32 0, i32 0
  %25 = load i32, ptr %24, align 4, !tbaa !80
  %26 = sub i32 %25, 2
  store i32 %26, ptr %6, align 4, !tbaa !8
  %27 = call noundef nonnull align 4 dereferenceable(4) ptr @_ZSt3minIjERKT_S2_S2_(ptr noundef nonnull align 4 dereferenceable(4) %22, ptr noundef nonnull align 4 dereferenceable(4) %6)
  %28 = load i32, ptr %27, align 4, !tbaa !8
  %29 = getelementptr inbounds nuw %"class.acd::acdXX_impl", ptr %7, i32 0, i32 9
  %30 = getelementptr inbounds nuw %"struct.acd::acdXX_params", ptr %29, i32 0, i32 1
  store i32 %28, ptr %30, align 4, !tbaa !81
  call void @llvm.lifetime.end.p0(i64 4, ptr %6) #3
  %31 = load ptr, ptr %5, align 8, !tbaa !3
  call void @_ZN3acd10acdXX_impl16init_truth_tableEPm(ptr noundef nonnull align 8 dereferenceable(632) %7, ptr noundef %31)
  %32 = call noundef zeroext i1 @_ZN3acd10acdXX_impl18find_decompositionEv(ptr noundef nonnull align 8 dereferenceable(632) %7)
  store i1 %32, ptr %3, align 1
  br label %33

33:                                               ; preds = %20, %19
  %34 = load i1, ptr %3, align 1
  ret i1 %34
}

; Function Attrs: mustprogress nounwind uwtable
define i32 @acdXX_decompose(ptr noundef %0, i32 noundef %1, i32 noundef %2, ptr noundef %3) #4 {
  %5 = alloca i32, align 4
  %6 = alloca ptr, align 8
  %7 = alloca i32, align 4
  %8 = alloca i32, align 4
  %9 = alloca ptr, align 8
  %10 = alloca %"struct.acd::acdXX_params", align 4
  %11 = alloca i32, align 4
  %12 = alloca i32, align 4
  %13 = alloca %"class.acd::acdXX_impl", align 8
  store ptr %0, ptr %6, align 8, !tbaa !3
  store i32 %1, ptr %7, align 4, !tbaa !8
  store i32 %2, ptr %8, align 4, !tbaa !8
  store ptr %3, ptr %9, align 8, !tbaa !62
  call void @llvm.lifetime.start.p0(i64 16, ptr %10) #3
  call void @_ZN3acd12acdXX_paramsC2Ev(ptr noundef nonnull align 4 dereferenceable(13) %10) #3
  %14 = load i32, ptr %7, align 4, !tbaa !8
  %15 = getelementptr inbounds nuw %"struct.acd::acdXX_params", ptr %10, i32 0, i32 0
  store i32 %14, ptr %15, align 4, !tbaa !64
  call void @llvm.lifetime.start.p0(i64 4, ptr %11) #3
  store i32 0, ptr %11, align 4, !tbaa !8
  br label %16

16:                                               ; preds = %38, %4
  %17 = load i32, ptr %11, align 4, !tbaa !8
  %18 = load i32, ptr %7, align 4, !tbaa !8
  %19 = sub i32 %18, 2
  %20 = icmp ule i32 %17, %19
  br i1 %20, label %22, label %21

21:                                               ; preds = %16
  store i32 2, ptr %12, align 4
  br label %41

22:                                               ; preds = %16
  %23 = load i32, ptr %11, align 4, !tbaa !8
  %24 = getelementptr inbounds nuw %"struct.acd::acdXX_params", ptr %10, i32 0, i32 1
  store i32 %23, ptr %24, align 4, !tbaa !66
  %25 = load i32, ptr %11, align 4, !tbaa !8
  %26 = getelementptr inbounds nuw %"struct.acd::acdXX_params", ptr %10, i32 0, i32 2
  store i32 %25, ptr %26, align 4, !tbaa !69
  call void @llvm.lifetime.start.p0(i64 632, ptr %13) #3
  %27 = load i32, ptr %8, align 4, !tbaa !8
  call void @_ZN3acd10acdXX_implC2EjRKNS_12acdXX_paramsE(ptr noundef nonnull align 8 dereferenceable(632) %13, i32 noundef %27, ptr noundef nonnull align 4 dereferenceable(13) %10)
  %28 = load ptr, ptr %6, align 8, !tbaa !3
  %29 = call noundef zeroext i1 @_ZN3acd10acdXX_impl3runEPm(ptr noundef nonnull align 8 dereferenceable(632) %13, ptr noundef %28)
  %30 = zext i1 %29 to i32
  %31 = icmp eq i32 %30, 0
  br i1 %31, label %32, label %33

32:                                               ; preds = %22
  store i32 4, ptr %12, align 4
  br label %36

33:                                               ; preds = %22
  %34 = call noundef i32 @_ZN3acd10acdXX_impl21compute_decompositionEv(ptr noundef nonnull align 8 dereferenceable(632) %13)
  %35 = load ptr, ptr %9, align 8, !tbaa !62
  call void @_ZN3acd10acdXX_impl17get_decompositionEPh(ptr noundef nonnull align 8 dereferenceable(632) %13, ptr noundef %35)
  store i32 0, ptr %5, align 4
  store i32 1, ptr %12, align 4
  br label %36

36:                                               ; preds = %33, %32
  call void @llvm.lifetime.end.p0(i64 632, ptr %13) #3
  %37 = load i32, ptr %12, align 4
  switch i32 %37, label %41 [
    i32 4, label %38
  ]

38:                                               ; preds = %36
  %39 = load i32, ptr %11, align 4, !tbaa !8
  %40 = add nsw i32 %39, 1
  store i32 %40, ptr %11, align 4, !tbaa !8
  br label %16, !llvm.loop !89

41:                                               ; preds = %36, %21
  call void @llvm.lifetime.end.p0(i64 4, ptr %11) #3
  %42 = load i32, ptr %12, align 4
  switch i32 %42, label %44 [
    i32 2, label %43
  ]

43:                                               ; preds = %41
  store i32 1, ptr %5, align 4
  store i32 1, ptr %12, align 4
  br label %44

44:                                               ; preds = %43, %41
  call void @llvm.lifetime.end.p0(i64 16, ptr %10) #3
  %45 = load i32, ptr %5, align 4
  ret i32 %45
}

; Function Attrs: mustprogress nounwind uwtable
define linkonce_odr void @_ZN5kitty18static_truth_tableILj11ELb0EEC2Ev(ptr noundef nonnull align 8 dereferenceable(256) %0) unnamed_addr #4 comdat align 2 {
  %2 = alloca ptr, align 8
  %3 = alloca i64, align 8
  store ptr %0, ptr %2, align 8, !tbaa !90
  %4 = load ptr, ptr %2, align 8
  %5 = getelementptr inbounds nuw %"struct.kitty::static_truth_table", ptr %4, i32 0, i32 0
  call void @llvm.lifetime.start.p0(i64 8, ptr %3) #3
  store i64 0, ptr %3, align 8, !tbaa !91
  call void @_ZNSt5arrayImLm32EE4fillERKm(ptr noundef nonnull align 8 dereferenceable(256) %5, ptr noundef nonnull align 8 dereferenceable(8) %3)
  call void @llvm.lifetime.end.p0(i64 8, ptr %3) #3
  ret void
}

; Function Attrs: mustprogress nounwind uwtable
define linkonce_odr void @_ZNSt6vectorIN5kitty18static_truth_tableILj11ELb0EEESaIS2_EEC2Ev(ptr noundef nonnull align 8 dereferenceable(24) %0) unnamed_addr #4 comdat align 2 {
  %2 = alloca ptr, align 8
  store ptr %0, ptr %2, align 8, !tbaa !93
  %3 = load ptr, ptr %2, align 8
  call void @_ZNSt12_Vector_baseIN5kitty18static_truth_tableILj11ELb0EEESaIS2_EEC2Ev(ptr noundef nonnull align 8 dereferenceable(24) %3) #3
  ret void
}

; Function Attrs: mustprogress nounwind uwtable
define linkonce_odr void @_ZNSt6vectorImSaImEEC2Ev(ptr noundef nonnull align 8 dereferenceable(24) %0) unnamed_addr #4 comdat align 2 {
  %2 = alloca ptr, align 8
  store ptr %0, ptr %2, align 8, !tbaa !95
  %3 = load ptr, ptr %2, align 8
  call void @_ZNSt12_Vector_baseImSaImEEC2Ev(ptr noundef nonnull align 8 dereferenceable(24) %3) #3
  ret void
}

; Function Attrs: mustprogress nounwind uwtable
define linkonce_odr void @_ZNSt6vectorIN3acd23ac_decomposition_resultESaIS1_EEC2Ev(ptr noundef nonnull align 8 dereferenceable(24) %0) unnamed_addr #4 comdat align 2 {
  %2 = alloca ptr, align 8
  store ptr %0, ptr %2, align 8, !tbaa !97
  %3 = load ptr, ptr %2, align 8
  call void @_ZNSt12_Vector_baseIN3acd23ac_decomposition_resultESaIS1_EEC2Ev(ptr noundef nonnull align 8 dereferenceable(24) %3) #3
  ret void
}

; Function Attrs: mustprogress nounwind uwtable
define linkonce_odr void @_ZNSt6vectorISt5arrayIjLm2EESaIS1_EEC2Ev(ptr noundef nonnull align 8 dereferenceable(24) %0) unnamed_addr #4 comdat align 2 {
  %2 = alloca ptr, align 8
  store ptr %0, ptr %2, align 8, !tbaa !99
  %3 = load ptr, ptr %2, align 8
  call void @_ZNSt12_Vector_baseISt5arrayIjLm2EESaIS1_EEC2Ev(ptr noundef nonnull align 8 dereferenceable(24) %3) #3
  ret void
}

; Function Attrs: nocallback nofree nounwind willreturn memory(argmem: readwrite)
declare void @llvm.memcpy.p0.p0.i64(ptr noalias writeonly captures(none), ptr noalias readonly captures(none), i64, i1 immarg) #7

; Function Attrs: mustprogress nounwind uwtable
define linkonce_odr void @_ZSt4iotaIPjiEvT_S1_T0_(ptr noundef %0, ptr noundef %1, i32 noundef %2) #4 comdat {
  %4 = alloca ptr, align 8
  %5 = alloca ptr, align 8
  %6 = alloca i32, align 4
  store ptr %0, ptr %4, align 8, !tbaa !10
  store ptr %1, ptr %5, align 8, !tbaa !10
  store i32 %2, ptr %6, align 4, !tbaa !8
  br label %7

7:                                                ; preds = %16, %3
  %8 = load ptr, ptr %4, align 8, !tbaa !10
  %9 = load ptr, ptr %5, align 8, !tbaa !10
  %10 = icmp ne ptr %8, %9
  br i1 %10, label %11, label %19

11:                                               ; preds = %7
  %12 = load i32, ptr %6, align 4, !tbaa !8
  %13 = load ptr, ptr %4, align 8, !tbaa !10
  store i32 %12, ptr %13, align 4, !tbaa !8
  %14 = load i32, ptr %6, align 4, !tbaa !8
  %15 = add nsw i32 %14, 1
  store i32 %15, ptr %6, align 4, !tbaa !8
  br label %16

16:                                               ; preds = %11
  %17 = load ptr, ptr %4, align 8, !tbaa !10
  %18 = getelementptr inbounds nuw i32, ptr %17, i32 1
  store ptr %18, ptr %4, align 8, !tbaa !10
  br label %7, !llvm.loop !101

19:                                               ; preds = %7
  ret void
}

; Function Attrs: mustprogress nounwind willreturn memory(none) uwtable
define linkonce_odr noundef ptr @_ZNSt5arrayIjLm11EE5beginEv(ptr noundef nonnull align 4 dereferenceable(44) %0) #8 comdat align 2 {
  %2 = alloca ptr, align 8
  store ptr %0, ptr %2, align 8, !tbaa !102
  %3 = load ptr, ptr %2, align 8
  %4 = call noundef ptr @_ZNSt5arrayIjLm11EE4dataEv(ptr noundef nonnull align 4 dereferenceable(44) %3) #15
  ret ptr %4
}

; Function Attrs: mustprogress nounwind willreturn memory(none) uwtable
define linkonce_odr noundef ptr @_ZNSt5arrayIjLm11EE3endEv(ptr noundef nonnull align 4 dereferenceable(44) %0) #8 comdat align 2 {
  %2 = alloca ptr, align 8
  store ptr %0, ptr %2, align 8, !tbaa !102
  %3 = load ptr, ptr %2, align 8
  %4 = call noundef ptr @_ZNSt5arrayIjLm11EE4dataEv(ptr noundef nonnull align 4 dereferenceable(44) %3) #15
  %5 = getelementptr inbounds nuw i32, ptr %4, i64 11
  ret ptr %5
}

; Function Attrs: mustprogress nounwind uwtable
define linkonce_odr void @_ZNSt5arrayImLm32EE4fillERKm(ptr noundef nonnull align 8 dereferenceable(256) %0, ptr noundef nonnull align 8 dereferenceable(8) %1) #4 comdat align 2 {
  %3 = alloca ptr, align 8
  %4 = alloca ptr, align 8
  store ptr %0, ptr %3, align 8, !tbaa !104
  store ptr %1, ptr %4, align 8, !tbaa !3
  %5 = load ptr, ptr %3, align 8
  %6 = call noundef ptr @_ZNSt5arrayImLm32EE5beginEv(ptr noundef nonnull align 8 dereferenceable(256) %5) #15
  %7 = call noundef i64 @_ZNKSt5arrayImLm32EE4sizeEv(ptr noundef nonnull align 8 dereferenceable(256) %5) #15
  %8 = load ptr, ptr %4, align 8, !tbaa !3
  %9 = call noundef ptr @_ZSt6fill_nIPmmmET_S1_T0_RKT1_(ptr noundef %6, i64 noundef %7, ptr noundef nonnull align 8 dereferenceable(8) %8)
  ret void
}

; Function Attrs: inlinehint mustprogress nounwind uwtable
define linkonce_odr noundef ptr @_ZSt6fill_nIPmmmET_S1_T0_RKT1_(ptr noundef %0, i64 noundef %1, ptr noundef nonnull align 8 dereferenceable(8) %2) #6 comdat {
  %4 = alloca ptr, align 8
  %5 = alloca i64, align 8
  %6 = alloca ptr, align 8
  store ptr %0, ptr %4, align 8, !tbaa !3
  store i64 %1, ptr %5, align 8, !tbaa !91
  store ptr %2, ptr %6, align 8, !tbaa !3
  %7 = load ptr, ptr %4, align 8, !tbaa !3
  %8 = load i64, ptr %5, align 8, !tbaa !91
  %9 = call noundef i64 @_ZSt17__size_to_integerm(i64 noundef %8)
  %10 = load ptr, ptr %6, align 8, !tbaa !3
  call void @_ZSt19__iterator_categoryIPmENSt15iterator_traitsIT_E17iterator_categoryERKS2_(ptr noundef nonnull align 8 dereferenceable(8) %4)
  %11 = call noundef ptr @_ZSt10__fill_n_aIPmmmET_S1_T0_RKT1_St26random_access_iterator_tag(ptr noundef %7, i64 noundef %9, ptr noundef nonnull align 8 dereferenceable(8) %10)
  ret ptr %11
}

; Function Attrs: mustprogress nounwind willreturn memory(none) uwtable
define linkonce_odr noundef ptr @_ZNSt5arrayImLm32EE5beginEv(ptr noundef nonnull align 8 dereferenceable(256) %0) #8 comdat align 2 {
  %2 = alloca ptr, align 8
  store ptr %0, ptr %2, align 8, !tbaa !104
  %3 = load ptr, ptr %2, align 8
  %4 = call noundef ptr @_ZNSt5arrayImLm32EE4dataEv(ptr noundef nonnull align 8 dereferenceable(256) %3) #15
  ret ptr %4
}

; Function Attrs: mustprogress nounwind willreturn memory(none) uwtable
define linkonce_odr noundef i64 @_ZNKSt5arrayImLm32EE4sizeEv(ptr noundef nonnull align 8 dereferenceable(256) %0) #8 comdat align 2 {
  %2 = alloca ptr, align 8
  store ptr %0, ptr %2, align 8, !tbaa !104
  ret i64 32
}

; Function Attrs: inlinehint mustprogress nounwind uwtable
define linkonce_odr noundef ptr @_ZSt10__fill_n_aIPmmmET_S1_T0_RKT1_St26random_access_iterator_tag(ptr noundef %0, i64 noundef %1, ptr noundef nonnull align 8 dereferenceable(8) %2) #6 comdat {
  %4 = alloca ptr, align 8
  %5 = alloca ptr, align 8
  %6 = alloca i64, align 8
  %7 = alloca ptr, align 8
  store ptr %0, ptr %5, align 8, !tbaa !3
  store i64 %1, ptr %6, align 8, !tbaa !91
  store ptr %2, ptr %7, align 8, !tbaa !3
  %8 = load i64, ptr %6, align 8, !tbaa !91
  %9 = icmp ule i64 %8, 0
  br i1 %9, label %10, label %12

10:                                               ; preds = %3
  %11 = load ptr, ptr %5, align 8, !tbaa !3
  store ptr %11, ptr %4, align 8
  br label %21

12:                                               ; preds = %3
  %13 = load ptr, ptr %5, align 8, !tbaa !3
  %14 = load ptr, ptr %5, align 8, !tbaa !3
  %15 = load i64, ptr %6, align 8, !tbaa !91
  %16 = getelementptr inbounds nuw i64, ptr %14, i64 %15
  %17 = load ptr, ptr %7, align 8, !tbaa !3
  call void @_ZSt8__fill_aIPmmEvT_S1_RKT0_(ptr noundef %13, ptr noundef %16, ptr noundef nonnull align 8 dereferenceable(8) %17)
  %18 = load ptr, ptr %5, align 8, !tbaa !3
  %19 = load i64, ptr %6, align 8, !tbaa !91
  %20 = getelementptr inbounds nuw i64, ptr %18, i64 %19
  store ptr %20, ptr %4, align 8
  br label %21

21:                                               ; preds = %12, %10
  %22 = load ptr, ptr %4, align 8
  ret ptr %22
}

; Function Attrs: inlinehint mustprogress nounwind uwtable
define linkonce_odr noundef i64 @_ZSt17__size_to_integerm(i64 noundef %0) #6 comdat {
  %2 = alloca i64, align 8
  store i64 %0, ptr %2, align 8, !tbaa !91
  %3 = load i64, ptr %2, align 8, !tbaa !91
  ret i64 %3
}

; Function Attrs: inlinehint mustprogress nounwind uwtable
define linkonce_odr void @_ZSt19__iterator_categoryIPmENSt15iterator_traitsIT_E17iterator_categoryERKS2_(ptr noundef nonnull align 8 dereferenceable(8) %0) #6 comdat {
  %2 = alloca ptr, align 8
  store ptr %0, ptr %2, align 8, !tbaa !106
  ret void
}

; Function Attrs: inlinehint mustprogress nounwind uwtable
define linkonce_odr void @_ZSt8__fill_aIPmmEvT_S1_RKT0_(ptr noundef %0, ptr noundef %1, ptr noundef nonnull align 8 dereferenceable(8) %2) #6 comdat {
  %4 = alloca ptr, align 8
  %5 = alloca ptr, align 8
  %6 = alloca ptr, align 8
  store ptr %0, ptr %4, align 8, !tbaa !3
  store ptr %1, ptr %5, align 8, !tbaa !3
  store ptr %2, ptr %6, align 8, !tbaa !3
  %7 = load ptr, ptr %4, align 8, !tbaa !3
  %8 = load ptr, ptr %5, align 8, !tbaa !3
  %9 = load ptr, ptr %6, align 8, !tbaa !3
  call void @_ZSt9__fill_a1IPmmEN9__gnu_cxx11__enable_ifIXsr11__is_scalarIT0_EE7__valueEvE6__typeET_S6_RKS3_(ptr noundef %7, ptr noundef %8, ptr noundef nonnull align 8 dereferenceable(8) %9)
  ret void
}

; Function Attrs: inlinehint mustprogress nounwind uwtable
define linkonce_odr void @_ZSt9__fill_a1IPmmEN9__gnu_cxx11__enable_ifIXsr11__is_scalarIT0_EE7__valueEvE6__typeET_S6_RKS3_(ptr noundef %0, ptr noundef %1, ptr noundef nonnull align 8 dereferenceable(8) %2) #6 comdat {
  %4 = alloca ptr, align 8
  %5 = alloca ptr, align 8
  %6 = alloca ptr, align 8
  %7 = alloca i64, align 8
  store ptr %0, ptr %4, align 8, !tbaa !3
  store ptr %1, ptr %5, align 8, !tbaa !3
  store ptr %2, ptr %6, align 8, !tbaa !3
  call void @llvm.lifetime.start.p0(i64 8, ptr %7) #3
  %8 = load ptr, ptr %6, align 8, !tbaa !3
  %9 = load i64, ptr %8, align 8, !tbaa !91
  store i64 %9, ptr %7, align 8, !tbaa !91
  br label %10

10:                                               ; preds = %17, %3
  %11 = load ptr, ptr %4, align 8, !tbaa !3
  %12 = load ptr, ptr %5, align 8, !tbaa !3
  %13 = icmp ne ptr %11, %12
  br i1 %13, label %14, label %20

14:                                               ; preds = %10
  %15 = load i64, ptr %7, align 8, !tbaa !91
  %16 = load ptr, ptr %4, align 8, !tbaa !3
  store i64 %15, ptr %16, align 8, !tbaa !91
  br label %17

17:                                               ; preds = %14
  %18 = load ptr, ptr %4, align 8, !tbaa !3
  %19 = getelementptr inbounds nuw i64, ptr %18, i32 1
  store ptr %19, ptr %4, align 8, !tbaa !3
  br label %10, !llvm.loop !108

20:                                               ; preds = %10
  call void @llvm.lifetime.end.p0(i64 8, ptr %7) #3
  ret void
}

; Function Attrs: mustprogress nounwind willreturn memory(none) uwtable
define linkonce_odr noundef ptr @_ZNSt5arrayImLm32EE4dataEv(ptr noundef nonnull align 8 dereferenceable(256) %0) #8 comdat align 2 {
  %2 = alloca ptr, align 8
  store ptr %0, ptr %2, align 8, !tbaa !104
  %3 = load ptr, ptr %2, align 8
  %4 = getelementptr inbounds nuw %"struct.std::array", ptr %3, i32 0, i32 0
  %5 = call noundef ptr @_ZNSt14__array_traitsImLm32EE6_S_ptrERA32_Km(ptr noundef nonnull align 8 dereferenceable(256) %4) #3
  ret ptr %5
}

; Function Attrs: mustprogress nounwind uwtable
define linkonce_odr noundef ptr @_ZNSt14__array_traitsImLm32EE6_S_ptrERA32_Km(ptr noundef nonnull align 8 dereferenceable(256) %0) #4 comdat align 2 {
  %2 = alloca ptr, align 8
  store ptr %0, ptr %2, align 8, !tbaa !3
  %3 = load ptr, ptr %2, align 8, !tbaa !3
  %4 = getelementptr inbounds [32 x i64], ptr %3, i64 0, i64 0
  ret ptr %4
}

; Function Attrs: mustprogress nounwind uwtable
define linkonce_odr void @_ZNSt12_Vector_baseIN5kitty18static_truth_tableILj11ELb0EEESaIS2_EEC2Ev(ptr noundef nonnull align 8 dereferenceable(24) %0) unnamed_addr #4 comdat align 2 {
  %2 = alloca ptr, align 8
  store ptr %0, ptr %2, align 8, !tbaa !109
  %3 = load ptr, ptr %2, align 8
  %4 = getelementptr inbounds nuw %"struct.std::_Vector_base", ptr %3, i32 0, i32 0
  call void @_ZNSt12_Vector_baseIN5kitty18static_truth_tableILj11ELb0EEESaIS2_EE12_Vector_implC2Ev(ptr noundef nonnull align 8 dereferenceable(24) %4) #3
  ret void
}

; Function Attrs: mustprogress nounwind uwtable
define linkonce_odr void @_ZNSt12_Vector_baseIN5kitty18static_truth_tableILj11ELb0EEESaIS2_EE12_Vector_implC2Ev(ptr noundef nonnull align 8 dereferenceable(24) %0) unnamed_addr #4 comdat align 2 {
  %2 = alloca ptr, align 8
  store ptr %0, ptr %2, align 8, !tbaa !111
  %3 = load ptr, ptr %2, align 8
  call void @_ZNSaIN5kitty18static_truth_tableILj11ELb0EEEEC2Ev(ptr noundef nonnull align 1 dereferenceable(1) %3) #3
  call void @_ZNSt12_Vector_baseIN5kitty18static_truth_tableILj11ELb0EEESaIS2_EE17_Vector_impl_dataC2Ev(ptr noundef nonnull align 8 dereferenceable(24) %3) #3
  ret void
}

; Function Attrs: mustprogress nounwind uwtable
define linkonce_odr void @_ZNSt15__new_allocatorIN5kitty18static_truth_tableILj11ELb0EEEEC2Ev(ptr noundef nonnull align 1 dereferenceable(1) %0) unnamed_addr #4 comdat align 2 {
  %2 = alloca ptr, align 8
  store ptr %0, ptr %2, align 8, !tbaa !113
  ret void
}

; Function Attrs: mustprogress nounwind uwtable
define linkonce_odr void @_ZNSt12_Vector_baseImSaImEEC2Ev(ptr noundef nonnull align 8 dereferenceable(24) %0) unnamed_addr #4 comdat align 2 {
  %2 = alloca ptr, align 8
  store ptr %0, ptr %2, align 8, !tbaa !115
  %3 = load ptr, ptr %2, align 8
  %4 = getelementptr inbounds nuw %"struct.std::_Vector_base.1", ptr %3, i32 0, i32 0
  call void @_ZNSt12_Vector_baseImSaImEE12_Vector_implC2Ev(ptr noundef nonnull align 8 dereferenceable(24) %4) #3
  ret void
}

; Function Attrs: mustprogress nounwind uwtable
define linkonce_odr void @_ZNSt12_Vector_baseImSaImEE12_Vector_implC2Ev(ptr noundef nonnull align 8 dereferenceable(24) %0) unnamed_addr #4 comdat align 2 {
  %2 = alloca ptr, align 8
  store ptr %0, ptr %2, align 8, !tbaa !117
  %3 = load ptr, ptr %2, align 8
  call void @_ZNSaImEC2Ev(ptr noundef nonnull align 1 dereferenceable(1) %3) #3
  call void @_ZNSt12_Vector_baseImSaImEE17_Vector_impl_dataC2Ev(ptr noundef nonnull align 8 dereferenceable(24) %3) #3
  ret void
}

; Function Attrs: mustprogress nounwind uwtable
define linkonce_odr void @_ZNSt15__new_allocatorImEC2Ev(ptr noundef nonnull align 1 dereferenceable(1) %0) unnamed_addr #4 comdat align 2 {
  %2 = alloca ptr, align 8
  store ptr %0, ptr %2, align 8, !tbaa !119
  ret void
}

; Function Attrs: mustprogress nounwind uwtable
define linkonce_odr void @_ZNSt12_Vector_baseIN3acd23ac_decomposition_resultESaIS1_EEC2Ev(ptr noundef nonnull align 8 dereferenceable(24) %0) unnamed_addr #4 comdat align 2 {
  %2 = alloca ptr, align 8
  store ptr %0, ptr %2, align 8, !tbaa !121
  %3 = load ptr, ptr %2, align 8
  %4 = getelementptr inbounds nuw %"struct.std::_Vector_base.6", ptr %3, i32 0, i32 0
  call void @_ZNSt12_Vector_baseIN3acd23ac_decomposition_resultESaIS1_EE12_Vector_implC2Ev(ptr noundef nonnull align 8 dereferenceable(24) %4) #3
  ret void
}

; Function Attrs: mustprogress nounwind uwtable
define linkonce_odr void @_ZNSt12_Vector_baseIN3acd23ac_decomposition_resultESaIS1_EE12_Vector_implC2Ev(ptr noundef nonnull align 8 dereferenceable(24) %0) unnamed_addr #4 comdat align 2 {
  %2 = alloca ptr, align 8
  store ptr %0, ptr %2, align 8, !tbaa !123
  %3 = load ptr, ptr %2, align 8
  call void @_ZNSaIN3acd23ac_decomposition_resultEEC2Ev(ptr noundef nonnull align 1 dereferenceable(1) %3) #3
  call void @_ZNSt12_Vector_baseIN3acd23ac_decomposition_resultESaIS1_EE17_Vector_impl_dataC2Ev(ptr noundef nonnull align 8 dereferenceable(24) %3) #3
  ret void
}

; Function Attrs: mustprogress nounwind uwtable
define linkonce_odr void @_ZNSaIN3acd23ac_decomposition_resultEEC2Ev(ptr noundef nonnull align 1 dereferenceable(1) %0) unnamed_addr #4 comdat align 2 {
  %2 = alloca ptr, align 8
  store ptr %0, ptr %2, align 8, !tbaa !125
  %3 = load ptr, ptr %2, align 8
  call void @_ZNSt15__new_allocatorIN3acd23ac_decomposition_resultEEC2Ev(ptr noundef nonnull align 1 dereferenceable(1) %3) #3
  ret void
}

; Function Attrs: mustprogress nounwind uwtable
define linkonce_odr void @_ZNSt12_Vector_baseIN3acd23ac_decomposition_resultESaIS1_EE17_Vector_impl_dataC2Ev(ptr noundef nonnull align 8 dereferenceable(24) %0) unnamed_addr #4 comdat align 2 {
  %2 = alloca ptr, align 8
  store ptr %0, ptr %2, align 8, !tbaa !127
  %3 = load ptr, ptr %2, align 8
  %4 = getelementptr inbounds nuw %"struct.std::_Vector_base<acd::ac_decomposition_result, std::allocator<acd::ac_decomposition_result>>::_Vector_impl_data", ptr %3, i32 0, i32 0
  store ptr null, ptr %4, align 8, !tbaa !129
  %5 = getelementptr inbounds nuw %"struct.std::_Vector_base<acd::ac_decomposition_result, std::allocator<acd::ac_decomposition_result>>::_Vector_impl_data", ptr %3, i32 0, i32 1
  store ptr null, ptr %5, align 8, !tbaa !130
  %6 = getelementptr inbounds nuw %"struct.std::_Vector_base<acd::ac_decomposition_result, std::allocator<acd::ac_decomposition_result>>::_Vector_impl_data", ptr %3, i32 0, i32 2
  store ptr null, ptr %6, align 8, !tbaa !131
  ret void
}

; Function Attrs: mustprogress nounwind uwtable
define linkonce_odr void @_ZNSt15__new_allocatorIN3acd23ac_decomposition_resultEEC2Ev(ptr noundef nonnull align 1 dereferenceable(1) %0) unnamed_addr #4 comdat align 2 {
  %2 = alloca ptr, align 8
  store ptr %0, ptr %2, align 8, !tbaa !132
  ret void
}

; Function Attrs: mustprogress nounwind uwtable
define linkonce_odr void @_ZNSt12_Vector_baseISt5arrayIjLm2EESaIS1_EEC2Ev(ptr noundef nonnull align 8 dereferenceable(24) %0) unnamed_addr #4 comdat align 2 {
  %2 = alloca ptr, align 8
  store ptr %0, ptr %2, align 8, !tbaa !134
  %3 = load ptr, ptr %2, align 8
  %4 = getelementptr inbounds nuw %"struct.std::_Vector_base.11", ptr %3, i32 0, i32 0
  call void @_ZNSt12_Vector_baseISt5arrayIjLm2EESaIS1_EE12_Vector_implC2Ev(ptr noundef nonnull align 8 dereferenceable(24) %4) #3
  ret void
}

; Function Attrs: mustprogress nounwind uwtable
define linkonce_odr void @_ZNSt12_Vector_baseISt5arrayIjLm2EESaIS1_EE12_Vector_implC2Ev(ptr noundef nonnull align 8 dereferenceable(24) %0) unnamed_addr #4 comdat align 2 {
  %2 = alloca ptr, align 8
  store ptr %0, ptr %2, align 8, !tbaa !136
  %3 = load ptr, ptr %2, align 8
  call void @_ZNSaISt5arrayIjLm2EEEC2Ev(ptr noundef nonnull align 1 dereferenceable(1) %3) #3
  call void @_ZNSt12_Vector_baseISt5arrayIjLm2EESaIS1_EE17_Vector_impl_dataC2Ev(ptr noundef nonnull align 8 dereferenceable(24) %3) #3
  ret void
}

; Function Attrs: mustprogress nounwind uwtable
define linkonce_odr void @_ZNSt15__new_allocatorISt5arrayIjLm2EEEC2Ev(ptr noundef nonnull align 1 dereferenceable(1) %0) unnamed_addr #4 comdat align 2 {
  %2 = alloca ptr, align 8
  store ptr %0, ptr %2, align 8, !tbaa !138
  ret void
}

; Function Attrs: mustprogress nounwind willreturn memory(none) uwtable
define linkonce_odr noundef ptr @_ZNSt5arrayIjLm11EE4dataEv(ptr noundef nonnull align 4 dereferenceable(44) %0) #8 comdat align 2 {
  %2 = alloca ptr, align 8
  store ptr %0, ptr %2, align 8, !tbaa !102
  %3 = load ptr, ptr %2, align 8
  %4 = getelementptr inbounds nuw %"struct.std::array.15", ptr %3, i32 0, i32 0
  %5 = call noundef ptr @_ZNSt14__array_traitsIjLm11EE6_S_ptrERA11_Kj(ptr noundef nonnull align 4 dereferenceable(44) %4) #3
  ret ptr %5
}

; Function Attrs: mustprogress nounwind uwtable
define linkonce_odr noundef ptr @_ZNSt14__array_traitsIjLm11EE6_S_ptrERA11_Kj(ptr noundef nonnull align 4 dereferenceable(44) %0) #4 comdat align 2 {
  %2 = alloca ptr, align 8
  store ptr %0, ptr %2, align 8, !tbaa !10
  %3 = load ptr, ptr %2, align 8, !tbaa !10
  %4 = getelementptr inbounds [11 x i32], ptr %3, i64 0, i64 0
  ret ptr %4
}

; Function Attrs: nocallback nofree nosync nounwind speculatable willreturn memory(none)
declare i32 @llvm.ctpop.i32(i32) #9

; Function Attrs: mustprogress nounwind uwtable
define linkonce_odr void @_ZN3acd21ac_decomposition_impl16init_truth_tableEPm(ptr noundef nonnull align 8 dereferenceable(500) %0, ptr noundef %1) #4 comdat align 2 {
  %3 = alloca ptr, align 8
  %4 = alloca ptr, align 8
  %5 = alloca i32, align 4
  %6 = alloca i32, align 4
  store ptr %0, ptr %3, align 8, !tbaa !27
  store ptr %1, ptr %4, align 8, !tbaa !3
  %7 = load ptr, ptr %3, align 8
  call void @llvm.lifetime.start.p0(i64 4, ptr %5) #3
  %8 = getelementptr inbounds nuw %"class.acd::ac_decomposition_impl", ptr %7, i32 0, i32 10
  %9 = load i32, ptr %8, align 8, !tbaa !54
  %10 = icmp ule i32 %9, 6
  br i1 %10, label %11, label %12

11:                                               ; preds = %2
  br label %17

12:                                               ; preds = %2
  %13 = getelementptr inbounds nuw %"class.acd::ac_decomposition_impl", ptr %7, i32 0, i32 10
  %14 = load i32, ptr %13, align 8, !tbaa !54
  %15 = sub i32 %14, 6
  %16 = shl i32 1, %15
  br label %17

17:                                               ; preds = %12, %11
  %18 = phi i32 [ 1, %11 ], [ %16, %12 ]
  store i32 %18, ptr %5, align 4, !tbaa !8
  call void @llvm.lifetime.start.p0(i64 4, ptr %6) #3
  store i32 0, ptr %6, align 4, !tbaa !8
  br label %19

19:                                               ; preds = %35, %17
  %20 = load i32, ptr %6, align 4, !tbaa !8
  %21 = load i32, ptr %5, align 4, !tbaa !8
  %22 = icmp ult i32 %20, %21
  br i1 %22, label %24, label %23

23:                                               ; preds = %19
  call void @llvm.lifetime.end.p0(i64 4, ptr %6) #3
  br label %38

24:                                               ; preds = %19
  %25 = load ptr, ptr %4, align 8, !tbaa !3
  %26 = load i32, ptr %6, align 4, !tbaa !8
  %27 = zext i32 %26 to i64
  %28 = getelementptr inbounds nuw i64, ptr %25, i64 %27
  %29 = load i64, ptr %28, align 8, !tbaa !91
  %30 = getelementptr inbounds nuw %"class.acd::ac_decomposition_impl", ptr %7, i32 0, i32 2
  %31 = getelementptr inbounds nuw %"struct.kitty::static_truth_table", ptr %30, i32 0, i32 0
  %32 = load i32, ptr %6, align 4, !tbaa !8
  %33 = zext i32 %32 to i64
  %34 = call noundef nonnull align 8 dereferenceable(8) ptr @_ZNSt5arrayImLm32EEixEm(ptr noundef nonnull align 8 dereferenceable(256) %31, i64 noundef %33) #3
  store i64 %29, ptr %34, align 8, !tbaa !91
  br label %35

35:                                               ; preds = %24
  %36 = load i32, ptr %6, align 4, !tbaa !8
  %37 = add i32 %36, 1
  store i32 %37, ptr %6, align 4, !tbaa !8
  br label %19, !llvm.loop !140

38:                                               ; preds = %23
  call void @llvm.lifetime.end.p0(i64 4, ptr %5) #3
  ret void
}

; Function Attrs: inlinehint mustprogress nounwind uwtable
define linkonce_odr void @_ZN3acd21ac_decomposition_impl34reposition_late_arriving_variablesEjj(ptr noundef nonnull align 8 dereferenceable(500) %0, i32 noundef %1, i32 noundef %2) #6 comdat align 2 {
  %4 = alloca ptr, align 8
  %5 = alloca i32, align 4
  %6 = alloca i32, align 4
  %7 = alloca i32, align 4
  %8 = alloca i32, align 4
  store ptr %0, ptr %4, align 8, !tbaa !27
  store i32 %1, ptr %5, align 4, !tbaa !8
  store i32 %2, ptr %6, align 4, !tbaa !8
  %9 = load ptr, ptr %4, align 8
  call void @llvm.lifetime.start.p0(i64 4, ptr %7) #3
  store i32 0, ptr %7, align 4, !tbaa !8
  call void @llvm.lifetime.start.p0(i64 4, ptr %8) #3
  store i32 0, ptr %8, align 4, !tbaa !8
  br label %10

10:                                               ; preds = %52, %3
  %11 = load i32, ptr %8, align 4, !tbaa !8
  %12 = load i32, ptr %6, align 4, !tbaa !8
  %13 = icmp ult i32 %11, %12
  br i1 %13, label %15, label %14

14:                                               ; preds = %10
  call void @llvm.lifetime.end.p0(i64 4, ptr %8) #3
  br label %55

15:                                               ; preds = %10
  br label %16

16:                                               ; preds = %22, %15
  %17 = load i32, ptr %5, align 4, !tbaa !8
  %18 = load i32, ptr %7, align 4, !tbaa !8
  %19 = lshr i32 %17, %18
  %20 = and i32 %19, 1
  %21 = icmp eq i32 %20, 0
  br i1 %21, label %22, label %25

22:                                               ; preds = %16
  %23 = load i32, ptr %7, align 4, !tbaa !8
  %24 = add i32 %23, 1
  store i32 %24, ptr %7, align 4, !tbaa !8
  br label %16, !llvm.loop !141

25:                                               ; preds = %16
  %26 = getelementptr inbounds nuw %"class.acd::ac_decomposition_impl", ptr %9, i32 0, i32 13
  %27 = load i32, ptr %8, align 4, !tbaa !8
  %28 = zext i32 %27 to i64
  %29 = call noundef nonnull align 4 dereferenceable(4) ptr @_ZNSt5arrayIjLm11EEixEm(ptr noundef nonnull align 4 dereferenceable(44) %26, i64 noundef %28) #3
  %30 = load i32, ptr %29, align 4, !tbaa !8
  %31 = load i32, ptr %7, align 4, !tbaa !8
  %32 = icmp eq i32 %30, %31
  br i1 %32, label %33, label %36

33:                                               ; preds = %25
  %34 = load i32, ptr %7, align 4, !tbaa !8
  %35 = add i32 %34, 1
  store i32 %35, ptr %7, align 4, !tbaa !8
  br label %52

36:                                               ; preds = %25
  %37 = getelementptr inbounds nuw %"class.acd::ac_decomposition_impl", ptr %9, i32 0, i32 13
  %38 = load i32, ptr %8, align 4, !tbaa !8
  %39 = zext i32 %38 to i64
  %40 = call noundef nonnull align 4 dereferenceable(4) ptr @_ZNSt5arrayIjLm11EEixEm(ptr noundef nonnull align 4 dereferenceable(44) %37, i64 noundef %39) #3
  %41 = getelementptr inbounds nuw %"class.acd::ac_decomposition_impl", ptr %9, i32 0, i32 13
  %42 = load i32, ptr %7, align 4, !tbaa !8
  %43 = zext i32 %42 to i64
  %44 = call noundef nonnull align 4 dereferenceable(4) ptr @_ZNSt5arrayIjLm11EEixEm(ptr noundef nonnull align 4 dereferenceable(44) %41, i64 noundef %43) #3
  call void @_ZSt4swapIjENSt9enable_ifIXsr6__and_ISt6__not_ISt15__is_tuple_likeIT_EESt21is_move_constructibleIS3_ESt18is_move_assignableIS3_EEE5valueEvE4typeERS3_SC_(ptr noundef nonnull align 4 dereferenceable(4) %40, ptr noundef nonnull align 4 dereferenceable(4) %44) #3
  %45 = getelementptr inbounds nuw %"class.acd::ac_decomposition_impl", ptr %9, i32 0, i32 2
  %46 = load i32, ptr %8, align 4, !tbaa !8
  %47 = trunc i32 %46 to i8
  %48 = load i32, ptr %7, align 4, !tbaa !8
  %49 = trunc i32 %48 to i8
  call void @_ZN3acd21ac_decomposition_impl18swap_inplace_localERN5kitty18static_truth_tableILj11ELb0EEEhh(ptr noundef nonnull align 8 dereferenceable(500) %9, ptr noundef nonnull align 8 dereferenceable(256) %45, i8 noundef zeroext %47, i8 noundef zeroext %49)
  %50 = load i32, ptr %7, align 4, !tbaa !8
  %51 = add i32 %50, 1
  store i32 %51, ptr %7, align 4, !tbaa !8
  br label %52

52:                                               ; preds = %36, %33
  %53 = load i32, ptr %8, align 4, !tbaa !8
  %54 = add i32 %53, 1
  store i32 %54, ptr %8, align 4, !tbaa !8
  br label %10, !llvm.loop !142

55:                                               ; preds = %14
  call void @llvm.lifetime.end.p0(i64 4, ptr %7) #3
  ret void
}

; Function Attrs: mustprogress nounwind uwtable
define linkonce_odr noundef zeroext i1 @_ZN3acd21ac_decomposition_impl18find_decompositionERjj(ptr noundef nonnull align 8 dereferenceable(500) %0, ptr noundef nonnull align 4 dereferenceable(4) %1, i32 noundef %2) #4 comdat align 2 {
  %4 = alloca i1, align 1
  %5 = alloca ptr, align 8
  %6 = alloca ptr, align 8
  %7 = alloca i32, align 4
  %8 = alloca i32, align 4
  %9 = alloca i32, align 4
  %10 = alloca i32, align 4
  %11 = alloca i32, align 4
  %12 = alloca i32, align 4
  %13 = alloca [5 x %"class.std::function"], align 16
  %14 = alloca %class.anon.16, align 8
  %15 = alloca %class.anon.17, align 8
  %16 = alloca %class.anon.18, align 8
  %17 = alloca %class.anon.19, align 8
  %18 = alloca %class.anon.20, align 8
  %19 = alloca i32, align 4
  %20 = alloca i32, align 4
  %21 = alloca %"class.std::tuple", align 8
  %22 = alloca i32, align 4
  %23 = alloca i32, align 4
  %24 = alloca i32, align 4
  %25 = alloca i32, align 4
  %26 = alloca i32, align 4
  %27 = alloca %"class.std::tuple", align 8
  %28 = alloca i32, align 4
  %29 = alloca i32, align 4
  store ptr %0, ptr %5, align 8, !tbaa !27
  store ptr %1, ptr %6, align 8, !tbaa !10
  store i32 %2, ptr %7, align 4, !tbaa !8
  %30 = load ptr, ptr %5, align 8
  %31 = getelementptr inbounds nuw %"class.acd::ac_decomposition_impl", ptr %30, i32 0, i32 0
  store i32 -1, ptr %31, align 8, !tbaa !29
  %32 = getelementptr inbounds nuw %"class.acd::ac_decomposition_impl", ptr %30, i32 0, i32 1
  store i32 -1, ptr %32, align 4, !tbaa !53
  call void @llvm.lifetime.start.p0(i64 4, ptr %8) #3
  store i32 -1, ptr %8, align 4, !tbaa !8
  call void @llvm.lifetime.start.p0(i64 4, ptr %9) #3
  %33 = load i32, ptr %7, align 4, !tbaa !8
  store i32 %33, ptr %9, align 4, !tbaa !8
  call void @llvm.lifetime.start.p0(i64 4, ptr %10) #3
  call void @llvm.lifetime.start.p0(i64 4, ptr %11) #3
  store i32 1, ptr %11, align 4, !tbaa !8
  %34 = call noundef nonnull align 4 dereferenceable(4) ptr @_ZSt3maxIjERKT_S2_S2_(ptr noundef nonnull align 4 dereferenceable(4) %9, ptr noundef nonnull align 4 dereferenceable(4) %11)
  %35 = load i32, ptr %34, align 4, !tbaa !8
  call void @llvm.lifetime.end.p0(i64 4, ptr %11) #3
  store i32 %35, ptr %10, align 4, !tbaa !8
  %36 = getelementptr inbounds nuw %"class.acd::ac_decomposition_impl", ptr %30, i32 0, i32 11
  %37 = getelementptr inbounds nuw %"struct.acd::ac_decomposition_params", ptr %36, i32 0, i32 2
  %38 = load i8, ptr %37, align 4, !tbaa !143, !range !85, !noundef !86
  %39 = trunc i8 %38 to i1
  br i1 %39, label %40, label %49

40:                                               ; preds = %3
  call void @llvm.lifetime.start.p0(i64 4, ptr %12) #3
  %41 = getelementptr inbounds nuw %"class.acd::ac_decomposition_impl", ptr %30, i32 0, i32 10
  %42 = load i32, ptr %41, align 8, !tbaa !54
  %43 = getelementptr inbounds nuw %"class.acd::ac_decomposition_impl", ptr %30, i32 0, i32 11
  %44 = getelementptr inbounds nuw %"struct.acd::ac_decomposition_params", ptr %43, i32 0, i32 0
  %45 = load i32, ptr %44, align 4, !tbaa !59
  %46 = sub i32 %42, %45
  store i32 %46, ptr %12, align 4, !tbaa !8
  %47 = call noundef nonnull align 4 dereferenceable(4) ptr @_ZSt3maxIjERKT_S2_S2_(ptr noundef nonnull align 4 dereferenceable(4) %10, ptr noundef nonnull align 4 dereferenceable(4) %12)
  %48 = load i32, ptr %47, align 4, !tbaa !8
  store i32 %48, ptr %10, align 4, !tbaa !8
  call void @llvm.lifetime.end.p0(i64 4, ptr %12) #3
  br label %49

49:                                               ; preds = %40, %3
  call void @llvm.lifetime.start.p0(i64 160, ptr %13) #3
  call void @llvm.lifetime.start.p0(i64 8, ptr %14) #3
  %50 = getelementptr inbounds nuw %class.anon.16, ptr %14, i32 0, i32 0
  store ptr %30, ptr %50, align 8, !tbaa !144
  call void @_ZNSt8functionIFjRKN5kitty18static_truth_tableILj11ELb0EEEEEC2IZN3acd21ac_decomposition_impl18find_decompositionERjjEUlS4_E_vEEOT_(ptr noundef nonnull align 8 dereferenceable(32) %13, ptr noundef nonnull align 8 dereferenceable(8) %14) #3
  %51 = getelementptr inbounds %"class.std::function", ptr %13, i64 1
  call void @llvm.lifetime.start.p0(i64 8, ptr %15) #3
  %52 = getelementptr inbounds nuw %class.anon.17, ptr %15, i32 0, i32 0
  store ptr %30, ptr %52, align 8, !tbaa !146
  call void @_ZNSt8functionIFjRKN5kitty18static_truth_tableILj11ELb0EEEEEC2IZN3acd21ac_decomposition_impl18find_decompositionERjjEUlS4_E0_vEEOT_(ptr noundef nonnull align 8 dereferenceable(32) %51, ptr noundef nonnull align 8 dereferenceable(8) %15) #3
  %53 = getelementptr inbounds %"class.std::function", ptr %13, i64 2
  call void @llvm.lifetime.start.p0(i64 8, ptr %16) #3
  %54 = getelementptr inbounds nuw %class.anon.18, ptr %16, i32 0, i32 0
  store ptr %30, ptr %54, align 8, !tbaa !148
  call void @_ZNSt8functionIFjRKN5kitty18static_truth_tableILj11ELb0EEEEEC2IZN3acd21ac_decomposition_impl18find_decompositionERjjEUlS4_E1_vEEOT_(ptr noundef nonnull align 8 dereferenceable(32) %53, ptr noundef nonnull align 8 dereferenceable(8) %16) #3
  %55 = getelementptr inbounds %"class.std::function", ptr %13, i64 3
  call void @llvm.lifetime.start.p0(i64 8, ptr %17) #3
  %56 = getelementptr inbounds nuw %class.anon.19, ptr %17, i32 0, i32 0
  store ptr %30, ptr %56, align 8, !tbaa !150
  call void @_ZNSt8functionIFjRKN5kitty18static_truth_tableILj11ELb0EEEEEC2IZN3acd21ac_decomposition_impl18find_decompositionERjjEUlS4_E2_vEEOT_(ptr noundef nonnull align 8 dereferenceable(32) %55, ptr noundef nonnull align 8 dereferenceable(8) %17) #3
  %57 = getelementptr inbounds %"class.std::function", ptr %13, i64 4
  call void @llvm.lifetime.start.p0(i64 8, ptr %18) #3
  %58 = getelementptr inbounds nuw %class.anon.20, ptr %18, i32 0, i32 0
  store ptr %30, ptr %58, align 8, !tbaa !152
  call void @_ZNSt8functionIFjRKN5kitty18static_truth_tableILj11ELb0EEEEEC2IZN3acd21ac_decomposition_impl18find_decompositionERjjEUlS4_E3_vEEOT_(ptr noundef nonnull align 8 dereferenceable(32) %57, ptr noundef nonnull align 8 dereferenceable(8) %18) #3
  call void @llvm.lifetime.end.p0(i64 8, ptr %18) #3
  call void @llvm.lifetime.end.p0(i64 8, ptr %17) #3
  call void @llvm.lifetime.end.p0(i64 8, ptr %16) #3
  call void @llvm.lifetime.end.p0(i64 8, ptr %15) #3
  call void @llvm.lifetime.end.p0(i64 8, ptr %14) #3
  call void @llvm.lifetime.start.p0(i64 4, ptr %19) #3
  %59 = load i32, ptr %10, align 4, !tbaa !8
  store i32 %59, ptr %19, align 4, !tbaa !8
  br label %60

60:                                               ; preds = %135, %49
  %61 = load i32, ptr %19, align 4, !tbaa !8
  %62 = getelementptr inbounds nuw %"class.acd::ac_decomposition_impl", ptr %30, i32 0, i32 11
  %63 = getelementptr inbounds nuw %"struct.acd::ac_decomposition_params", ptr %62, i32 0, i32 0
  %64 = load i32, ptr %63, align 4, !tbaa !59
  %65 = sub i32 %64, 1
  %66 = icmp ule i32 %61, %65
  br i1 %66, label %67, label %73

67:                                               ; preds = %60
  %68 = load i32, ptr %19, align 4, !tbaa !8
  %69 = getelementptr inbounds nuw %"class.acd::ac_decomposition_impl", ptr %30, i32 0, i32 11
  %70 = getelementptr inbounds nuw %"struct.acd::ac_decomposition_params", ptr %69, i32 0, i32 1
  %71 = load i32, ptr %70, align 4, !tbaa !58
  %72 = icmp ule i32 %68, %71
  br label %73

73:                                               ; preds = %67, %60
  %74 = phi i1 [ false, %60 ], [ %72, %67 ]
  br i1 %74, label %76, label %75

75:                                               ; preds = %73
  store i32 2, ptr %20, align 4
  br label %138

76:                                               ; preds = %73
  call void @llvm.lifetime.start.p0(i64 304, ptr %21) #3
  %77 = load i32, ptr %19, align 4, !tbaa !8
  %78 = load i32, ptr %9, align 4, !tbaa !8
  %79 = load i32, ptr %19, align 4, !tbaa !8
  %80 = sub i32 %79, 1
  %81 = zext i32 %80 to i64
  %82 = getelementptr inbounds nuw [5 x %"class.std::function"], ptr %13, i64 0, i64 %81
  call void @_ZN3acd21ac_decomposition_impl27enumerate_iset_combinationsIRSt8functionIFjRKN5kitty18static_truth_tableILj11ELb0EEEEEEESt5tupleIJS5_St5arrayIjLm11EEjEEjjOT_(ptr dead_on_unwind writable sret(%"class.std::tuple") align 8 %21, ptr noundef nonnull align 8 dereferenceable(500) %30, i32 noundef %77, i32 noundef %78, ptr noundef nonnull align 8 dereferenceable(32) %82)
  call void @llvm.lifetime.start.p0(i64 4, ptr %22) #3
  %83 = call noundef nonnull align 4 dereferenceable(4) ptr @_ZSt3getILm2EJN5kitty18static_truth_tableILj11ELb0EEESt5arrayIjLm11EEjEERNSt13tuple_elementIXT_ESt5tupleIJDpT0_EEE4typeERS9_(ptr noundef nonnull align 8 dereferenceable(304) %21) #3
  %84 = load i32, ptr %83, align 4, !tbaa !8
  store i32 %84, ptr %22, align 4, !tbaa !8
  call void @llvm.lifetime.start.p0(i64 4, ptr %23) #3
  %85 = getelementptr inbounds nuw %"class.acd::ac_decomposition_impl", ptr %30, i32 0, i32 10
  %86 = load i32, ptr %85, align 8, !tbaa !54
  %87 = load i32, ptr %19, align 4, !tbaa !8
  %88 = sub i32 %86, %87
  %89 = getelementptr inbounds nuw %"class.acd::ac_decomposition_impl", ptr %30, i32 0, i32 11
  %90 = getelementptr inbounds nuw %"struct.acd::ac_decomposition_params", ptr %89, i32 0, i32 0
  %91 = load i32, ptr %90, align 4, !tbaa !59
  %92 = icmp ugt i32 %88, %91
  %93 = select i1 %92, i32 128, i32 0
  store i32 %93, ptr %23, align 4, !tbaa !8
  %94 = load i32, ptr %22, align 4, !tbaa !8
  %95 = getelementptr inbounds nuw %"class.acd::ac_decomposition_impl", ptr %30, i32 0, i32 11
  %96 = getelementptr inbounds nuw %"struct.acd::ac_decomposition_params", ptr %95, i32 0, i32 0
  %97 = load i32, ptr %96, align 4, !tbaa !59
  %98 = load i32, ptr %19, align 4, !tbaa !8
  %99 = sub i32 %97, %98
  %100 = shl i32 1, %99
  %101 = icmp ule i32 %94, %100
  br i1 %101, label %102, label %132

102:                                              ; preds = %76
  %103 = load i32, ptr %22, align 4, !tbaa !8
  %104 = load i32, ptr %23, align 4, !tbaa !8
  %105 = add i32 %103, %104
  %106 = load i32, ptr %8, align 4, !tbaa !8
  %107 = icmp ult i32 %105, %106
  br i1 %107, label %108, label %132

108:                                              ; preds = %102
  %109 = load i32, ptr %22, align 4, !tbaa !8
  %110 = icmp ule i32 %109, 16
  br i1 %110, label %111, label %132

111:                                              ; preds = %108
  %112 = call noundef nonnull align 8 dereferenceable(256) ptr @_ZSt3getILm0EJN5kitty18static_truth_tableILj11ELb0EEESt5arrayIjLm11EEjEERNSt13tuple_elementIXT_ESt5tupleIJDpT0_EEE4typeERS9_(ptr noundef nonnull align 8 dereferenceable(304) %21) #3
  %113 = getelementptr inbounds nuw %"class.acd::ac_decomposition_impl", ptr %30, i32 0, i32 2
  call void @llvm.memcpy.p0.p0.i64(ptr align 8 %113, ptr align 8 %112, i64 256, i1 false), !tbaa.struct !82
  %114 = call noundef nonnull align 4 dereferenceable(44) ptr @_ZSt3getILm1EJN5kitty18static_truth_tableILj11ELb0EEESt5arrayIjLm11EEjEERNSt13tuple_elementIXT_ESt5tupleIJDpT0_EEE4typeERS9_(ptr noundef nonnull align 8 dereferenceable(304) %21) #3
  %115 = getelementptr inbounds nuw %"class.acd::ac_decomposition_impl", ptr %30, i32 0, i32 13
  call void @llvm.memcpy.p0.p0.i64(ptr align 8 %115, ptr align 4 %114, i64 44, i1 false), !tbaa.struct !154
  %116 = load i32, ptr %22, align 4, !tbaa !8
  %117 = getelementptr inbounds nuw %"class.acd::ac_decomposition_impl", ptr %30, i32 0, i32 0
  store i32 %116, ptr %117, align 8, !tbaa !29
  %118 = load i32, ptr %22, align 4, !tbaa !8
  %119 = load i32, ptr %23, align 4, !tbaa !8
  %120 = add i32 %118, %119
  store i32 %120, ptr %8, align 4, !tbaa !8
  %121 = load i32, ptr %19, align 4, !tbaa !8
  %122 = getelementptr inbounds nuw %"class.acd::ac_decomposition_impl", ptr %30, i32 0, i32 1
  store i32 %121, ptr %122, align 4, !tbaa !53
  %123 = getelementptr inbounds nuw %"class.acd::ac_decomposition_impl", ptr %30, i32 0, i32 11
  %124 = getelementptr inbounds nuw %"struct.acd::ac_decomposition_params", ptr %123, i32 0, i32 3
  %125 = load i8, ptr %124, align 1, !tbaa !155, !range !85, !noundef !86
  %126 = trunc i8 %125 to i1
  br i1 %126, label %131, label %127

127:                                              ; preds = %111
  %128 = load i32, ptr %22, align 4, !tbaa !8
  %129 = icmp ugt i32 %128, 2
  br i1 %129, label %130, label %131

130:                                              ; preds = %127
  store i32 4, ptr %20, align 4
  br label %133

131:                                              ; preds = %127, %111
  br label %132

132:                                              ; preds = %131, %108, %102, %76
  store i32 2, ptr %20, align 4
  br label %133

133:                                              ; preds = %132, %130
  call void @llvm.lifetime.end.p0(i64 4, ptr %23) #3
  call void @llvm.lifetime.end.p0(i64 4, ptr %22) #3
  call void @llvm.lifetime.end.p0(i64 304, ptr %21) #3
  %134 = load i32, ptr %20, align 4
  switch i32 %134, label %138 [
    i32 4, label %135
  ]

135:                                              ; preds = %133
  %136 = load i32, ptr %19, align 4, !tbaa !8
  %137 = add i32 %136, 1
  store i32 %137, ptr %19, align 4, !tbaa !8
  br label %60, !llvm.loop !156

138:                                              ; preds = %133, %75
  call void @llvm.lifetime.end.p0(i64 4, ptr %19) #3
  br label %139

139:                                              ; preds = %138
  %140 = getelementptr inbounds nuw %"class.acd::ac_decomposition_impl", ptr %30, i32 0, i32 0
  %141 = load i32, ptr %140, align 8, !tbaa !29
  %142 = icmp eq i32 %141, -1
  br i1 %142, label %143, label %152

143:                                              ; preds = %139
  %144 = getelementptr inbounds nuw %"class.acd::ac_decomposition_impl", ptr %30, i32 0, i32 11
  %145 = getelementptr inbounds nuw %"struct.acd::ac_decomposition_params", ptr %144, i32 0, i32 4
  %146 = load i8, ptr %145, align 2, !tbaa !157, !range !85, !noundef !86
  %147 = trunc i8 %146 to i1
  br i1 %147, label %148, label %151

148:                                              ; preds = %143
  %149 = load i32, ptr %7, align 4, !tbaa !8
  %150 = icmp eq i32 %149, 0
  br i1 %150, label %151, label %152

151:                                              ; preds = %148, %143
  store i1 false, ptr %4, align 1
  store i32 1, ptr %20, align 4
  br label %307

152:                                              ; preds = %148, %139
  %153 = getelementptr inbounds nuw %"class.acd::ac_decomposition_impl", ptr %30, i32 0, i32 0
  %154 = load i32, ptr %153, align 8, !tbaa !29
  %155 = icmp eq i32 %154, -1
  br i1 %155, label %156, label %252

156:                                              ; preds = %152
  %157 = load ptr, ptr %6, align 8, !tbaa !10
  store i32 0, ptr %157, align 4, !tbaa !8
  %158 = getelementptr inbounds nuw %"class.acd::ac_decomposition_impl", ptr %30, i32 0, i32 11
  %159 = getelementptr inbounds nuw %"struct.acd::ac_decomposition_params", ptr %158, i32 0, i32 2
  %160 = load i8, ptr %159, align 4, !tbaa !143, !range !85, !noundef !86
  %161 = trunc i8 %160 to i1
  br i1 %161, label %162, label %171

162:                                              ; preds = %156
  call void @llvm.lifetime.start.p0(i64 4, ptr %24) #3
  store i32 1, ptr %24, align 4, !tbaa !8
  call void @llvm.lifetime.start.p0(i64 4, ptr %25) #3
  %163 = getelementptr inbounds nuw %"class.acd::ac_decomposition_impl", ptr %30, i32 0, i32 10
  %164 = load i32, ptr %163, align 8, !tbaa !54
  %165 = getelementptr inbounds nuw %"class.acd::ac_decomposition_impl", ptr %30, i32 0, i32 11
  %166 = getelementptr inbounds nuw %"struct.acd::ac_decomposition_params", ptr %165, i32 0, i32 0
  %167 = load i32, ptr %166, align 4, !tbaa !59
  %168 = sub i32 %164, %167
  store i32 %168, ptr %25, align 4, !tbaa !8
  %169 = call noundef nonnull align 4 dereferenceable(4) ptr @_ZSt3maxIjERKT_S2_S2_(ptr noundef nonnull align 4 dereferenceable(4) %24, ptr noundef nonnull align 4 dereferenceable(4) %25)
  %170 = load i32, ptr %169, align 4, !tbaa !8
  store i32 %170, ptr %10, align 4, !tbaa !8
  call void @llvm.lifetime.end.p0(i64 4, ptr %25) #3
  call void @llvm.lifetime.end.p0(i64 4, ptr %24) #3
  br label %171

171:                                              ; preds = %162, %156
  call void @llvm.lifetime.start.p0(i64 4, ptr %26) #3
  %172 = load i32, ptr %10, align 4, !tbaa !8
  store i32 %172, ptr %26, align 4, !tbaa !8
  br label %173

173:                                              ; preds = %247, %171
  %174 = load i32, ptr %26, align 4, !tbaa !8
  %175 = getelementptr inbounds nuw %"class.acd::ac_decomposition_impl", ptr %30, i32 0, i32 11
  %176 = getelementptr inbounds nuw %"struct.acd::ac_decomposition_params", ptr %175, i32 0, i32 0
  %177 = load i32, ptr %176, align 4, !tbaa !59
  %178 = sub i32 %177, 1
  %179 = icmp ule i32 %174, %178
  br i1 %179, label %180, label %186

180:                                              ; preds = %173
  %181 = load i32, ptr %26, align 4, !tbaa !8
  %182 = getelementptr inbounds nuw %"class.acd::ac_decomposition_impl", ptr %30, i32 0, i32 11
  %183 = getelementptr inbounds nuw %"struct.acd::ac_decomposition_params", ptr %182, i32 0, i32 1
  %184 = load i32, ptr %183, align 4, !tbaa !58
  %185 = icmp ule i32 %181, %184
  br label %186

186:                                              ; preds = %180, %173
  %187 = phi i1 [ false, %173 ], [ %185, %180 ]
  br i1 %187, label %189, label %188

188:                                              ; preds = %186
  store i32 5, ptr %20, align 4
  br label %250

189:                                              ; preds = %186
  call void @llvm.lifetime.start.p0(i64 304, ptr %27) #3
  %190 = load i32, ptr %26, align 4, !tbaa !8
  %191 = load i32, ptr %26, align 4, !tbaa !8
  %192 = sub i32 %191, 1
  %193 = zext i32 %192 to i64
  %194 = getelementptr inbounds nuw [5 x %"class.std::function"], ptr %13, i64 0, i64 %193
  call void @_ZN3acd21ac_decomposition_impl27enumerate_iset_combinationsIRSt8functionIFjRKN5kitty18static_truth_tableILj11ELb0EEEEEEESt5tupleIJS5_St5arrayIjLm11EEjEEjjOT_(ptr dead_on_unwind writable sret(%"class.std::tuple") align 8 %27, ptr noundef nonnull align 8 dereferenceable(500) %30, i32 noundef %190, i32 noundef 0, ptr noundef nonnull align 8 dereferenceable(32) %194)
  call void @llvm.lifetime.start.p0(i64 4, ptr %28) #3
  %195 = call noundef nonnull align 4 dereferenceable(4) ptr @_ZSt3getILm2EJN5kitty18static_truth_tableILj11ELb0EEESt5arrayIjLm11EEjEERNSt13tuple_elementIXT_ESt5tupleIJDpT0_EEE4typeERS9_(ptr noundef nonnull align 8 dereferenceable(304) %27) #3
  %196 = load i32, ptr %195, align 4, !tbaa !8
  store i32 %196, ptr %28, align 4, !tbaa !8
  call void @llvm.lifetime.start.p0(i64 4, ptr %29) #3
  %197 = getelementptr inbounds nuw %"class.acd::ac_decomposition_impl", ptr %30, i32 0, i32 10
  %198 = load i32, ptr %197, align 8, !tbaa !54
  %199 = load i32, ptr %26, align 4, !tbaa !8
  %200 = sub i32 %198, %199
  %201 = getelementptr inbounds nuw %"class.acd::ac_decomposition_impl", ptr %30, i32 0, i32 11
  %202 = getelementptr inbounds nuw %"struct.acd::ac_decomposition_params", ptr %201, i32 0, i32 0
  %203 = load i32, ptr %202, align 4, !tbaa !59
  %204 = icmp ugt i32 %200, %203
  %205 = select i1 %204, i32 128, i32 0
  store i32 %205, ptr %29, align 4, !tbaa !8
  %206 = load i32, ptr %28, align 4, !tbaa !8
  %207 = getelementptr inbounds nuw %"class.acd::ac_decomposition_impl", ptr %30, i32 0, i32 11
  %208 = getelementptr inbounds nuw %"struct.acd::ac_decomposition_params", ptr %207, i32 0, i32 0
  %209 = load i32, ptr %208, align 4, !tbaa !59
  %210 = load i32, ptr %26, align 4, !tbaa !8
  %211 = sub i32 %209, %210
  %212 = shl i32 1, %211
  %213 = icmp ule i32 %206, %212
  br i1 %213, label %214, label %244

214:                                              ; preds = %189
  %215 = load i32, ptr %28, align 4, !tbaa !8
  %216 = load i32, ptr %29, align 4, !tbaa !8
  %217 = add i32 %215, %216
  %218 = load i32, ptr %8, align 4, !tbaa !8
  %219 = icmp ult i32 %217, %218
  br i1 %219, label %220, label %244

220:                                              ; preds = %214
  %221 = load i32, ptr %28, align 4, !tbaa !8
  %222 = icmp ule i32 %221, 16
  br i1 %222, label %223, label %244

223:                                              ; preds = %220
  %224 = call noundef nonnull align 8 dereferenceable(256) ptr @_ZSt3getILm0EJN5kitty18static_truth_tableILj11ELb0EEESt5arrayIjLm11EEjEERNSt13tuple_elementIXT_ESt5tupleIJDpT0_EEE4typeERS9_(ptr noundef nonnull align 8 dereferenceable(304) %27) #3
  %225 = getelementptr inbounds nuw %"class.acd::ac_decomposition_impl", ptr %30, i32 0, i32 2
  call void @llvm.memcpy.p0.p0.i64(ptr align 8 %225, ptr align 8 %224, i64 256, i1 false), !tbaa.struct !82
  %226 = call noundef nonnull align 4 dereferenceable(44) ptr @_ZSt3getILm1EJN5kitty18static_truth_tableILj11ELb0EEESt5arrayIjLm11EEjEERNSt13tuple_elementIXT_ESt5tupleIJDpT0_EEE4typeERS9_(ptr noundef nonnull align 8 dereferenceable(304) %27) #3
  %227 = getelementptr inbounds nuw %"class.acd::ac_decomposition_impl", ptr %30, i32 0, i32 13
  call void @llvm.memcpy.p0.p0.i64(ptr align 8 %227, ptr align 4 %226, i64 44, i1 false), !tbaa.struct !154
  %228 = load i32, ptr %28, align 4, !tbaa !8
  %229 = getelementptr inbounds nuw %"class.acd::ac_decomposition_impl", ptr %30, i32 0, i32 0
  store i32 %228, ptr %229, align 8, !tbaa !29
  %230 = load i32, ptr %28, align 4, !tbaa !8
  %231 = load i32, ptr %29, align 4, !tbaa !8
  %232 = add i32 %230, %231
  store i32 %232, ptr %8, align 4, !tbaa !8
  %233 = load i32, ptr %26, align 4, !tbaa !8
  %234 = getelementptr inbounds nuw %"class.acd::ac_decomposition_impl", ptr %30, i32 0, i32 1
  store i32 %233, ptr %234, align 4, !tbaa !53
  %235 = getelementptr inbounds nuw %"class.acd::ac_decomposition_impl", ptr %30, i32 0, i32 11
  %236 = getelementptr inbounds nuw %"struct.acd::ac_decomposition_params", ptr %235, i32 0, i32 3
  %237 = load i8, ptr %236, align 1, !tbaa !155, !range !85, !noundef !86
  %238 = trunc i8 %237 to i1
  br i1 %238, label %243, label %239

239:                                              ; preds = %223
  %240 = load i32, ptr %28, align 4, !tbaa !8
  %241 = icmp ugt i32 %240, 2
  br i1 %241, label %242, label %243

242:                                              ; preds = %239
  store i32 7, ptr %20, align 4
  br label %245

243:                                              ; preds = %239, %223
  br label %244

244:                                              ; preds = %243, %220, %214, %189
  store i32 5, ptr %20, align 4
  br label %245

245:                                              ; preds = %244, %242
  call void @llvm.lifetime.end.p0(i64 4, ptr %29) #3
  call void @llvm.lifetime.end.p0(i64 4, ptr %28) #3
  call void @llvm.lifetime.end.p0(i64 304, ptr %27) #3
  %246 = load i32, ptr %20, align 4
  switch i32 %246, label %250 [
    i32 7, label %247
  ]

247:                                              ; preds = %245
  %248 = load i32, ptr %26, align 4, !tbaa !8
  %249 = add i32 %248, 1
  store i32 %249, ptr %26, align 4, !tbaa !8
  br label %173, !llvm.loop !158

250:                                              ; preds = %245, %188
  call void @llvm.lifetime.end.p0(i64 4, ptr %26) #3
  br label %251

251:                                              ; preds = %250
  br label %252

252:                                              ; preds = %251, %152
  %253 = getelementptr inbounds nuw %"class.acd::ac_decomposition_impl", ptr %30, i32 0, i32 0
  %254 = load i32, ptr %253, align 8, !tbaa !29
  %255 = icmp eq i32 %254, -1
  br i1 %255, label %256, label %257

256:                                              ; preds = %252
  store i1 false, ptr %4, align 1
  store i32 1, ptr %20, align 4
  br label %307

257:                                              ; preds = %252
  %258 = getelementptr inbounds nuw %"class.acd::ac_decomposition_impl", ptr %30, i32 0, i32 12
  %259 = load ptr, ptr %258, align 8, !tbaa !57
  %260 = icmp ne ptr %259, null
  br i1 %260, label %261, label %306

261:                                              ; preds = %257
  %262 = getelementptr inbounds nuw %"class.acd::ac_decomposition_impl", ptr %30, i32 0, i32 0
  %263 = load i32, ptr %262, align 8, !tbaa !29
  %264 = icmp ule i32 %263, 2
  br i1 %264, label %265, label %266

265:                                              ; preds = %261
  br label %278

266:                                              ; preds = %261
  %267 = getelementptr inbounds nuw %"class.acd::ac_decomposition_impl", ptr %30, i32 0, i32 0
  %268 = load i32, ptr %267, align 8, !tbaa !29
  %269 = icmp ule i32 %268, 4
  br i1 %269, label %270, label %271

270:                                              ; preds = %266
  br label %276

271:                                              ; preds = %266
  %272 = getelementptr inbounds nuw %"class.acd::ac_decomposition_impl", ptr %30, i32 0, i32 0
  %273 = load i32, ptr %272, align 8, !tbaa !29
  %274 = icmp ule i32 %273, 8
  %275 = select i1 %274, i32 4, i32 5
  br label %276

276:                                              ; preds = %271, %270
  %277 = phi i32 [ 3, %270 ], [ %275, %271 ]
  br label %278

278:                                              ; preds = %276, %265
  %279 = phi i32 [ 2, %265 ], [ %277, %276 ]
  %280 = getelementptr inbounds nuw %"class.acd::ac_decomposition_impl", ptr %30, i32 0, i32 12
  %281 = load ptr, ptr %280, align 8, !tbaa !57
  %282 = getelementptr inbounds nuw %"struct.acd::ac_decomposition_stats", ptr %281, i32 0, i32 0
  store i32 %279, ptr %282, align 4, !tbaa !17
  %283 = getelementptr inbounds nuw %"class.acd::ac_decomposition_impl", ptr %30, i32 0, i32 12
  %284 = load ptr, ptr %283, align 8, !tbaa !57
  %285 = getelementptr inbounds nuw %"struct.acd::ac_decomposition_stats", ptr %284, i32 0, i32 0
  %286 = load i32, ptr %285, align 4, !tbaa !17
  %287 = sub i32 %286, 1
  %288 = getelementptr inbounds nuw %"class.acd::ac_decomposition_impl", ptr %30, i32 0, i32 10
  %289 = load i32, ptr %288, align 8, !tbaa !54
  %290 = getelementptr inbounds nuw %"class.acd::ac_decomposition_impl", ptr %30, i32 0, i32 1
  %291 = load i32, ptr %290, align 4, !tbaa !53
  %292 = sub i32 %289, %291
  %293 = mul i32 %287, %292
  %294 = getelementptr inbounds nuw %"class.acd::ac_decomposition_impl", ptr %30, i32 0, i32 12
  %295 = load ptr, ptr %294, align 8, !tbaa !57
  %296 = getelementptr inbounds nuw %"struct.acd::ac_decomposition_stats", ptr %295, i32 0, i32 0
  %297 = load i32, ptr %296, align 4, !tbaa !17
  %298 = sub i32 %297, 1
  %299 = add i32 %293, %298
  %300 = getelementptr inbounds nuw %"class.acd::ac_decomposition_impl", ptr %30, i32 0, i32 1
  %301 = load i32, ptr %300, align 4, !tbaa !53
  %302 = add i32 %299, %301
  %303 = getelementptr inbounds nuw %"class.acd::ac_decomposition_impl", ptr %30, i32 0, i32 12
  %304 = load ptr, ptr %303, align 8, !tbaa !57
  %305 = getelementptr inbounds nuw %"struct.acd::ac_decomposition_stats", ptr %304, i32 0, i32 1
  store i32 %302, ptr %305, align 4, !tbaa !25
  br label %306

306:                                              ; preds = %278, %257
  store i1 true, ptr %4, align 1
  store i32 1, ptr %20, align 4
  br label %307

307:                                              ; preds = %306, %256, %151
  %308 = getelementptr inbounds [5 x %"class.std::function"], ptr %13, i32 0, i32 0
  %309 = getelementptr inbounds %"class.std::function", ptr %308, i64 5
  br label %310

310:                                              ; preds = %310, %307
  %311 = phi ptr [ %309, %307 ], [ %312, %310 ]
  %312 = getelementptr inbounds %"class.std::function", ptr %311, i64 -1
  call void @_ZNSt14_Function_baseD2Ev(ptr noundef nonnull align 8 dereferenceable(32) %312) #3
  %313 = icmp eq ptr %312, %308
  br i1 %313, label %314, label %310

314:                                              ; preds = %310
  call void @llvm.lifetime.end.p0(i64 160, ptr %13) #3
  call void @llvm.lifetime.end.p0(i64 4, ptr %10) #3
  call void @llvm.lifetime.end.p0(i64 4, ptr %9) #3
  call void @llvm.lifetime.end.p0(i64 4, ptr %8) #3
  %315 = load i1, ptr %4, align 1
  ret i1 %315
}

; Function Attrs: mustprogress nounwind uwtable
define linkonce_odr noundef nonnull align 8 dereferenceable(8) ptr @_ZNSt5arrayImLm32EEixEm(ptr noundef nonnull align 8 dereferenceable(256) %0, i64 noundef %1) #4 comdat align 2 {
  %3 = alloca ptr, align 8
  %4 = alloca i64, align 8
  store ptr %0, ptr %3, align 8, !tbaa !104
  store i64 %1, ptr %4, align 8, !tbaa !91
  %5 = load ptr, ptr %3, align 8
  %6 = getelementptr inbounds nuw %"struct.std::array", ptr %5, i32 0, i32 0
  %7 = load i64, ptr %4, align 8, !tbaa !91
  %8 = call noundef nonnull align 8 dereferenceable(8) ptr @_ZNSt14__array_traitsImLm32EE6_S_refERA32_Kmm(ptr noundef nonnull align 8 dereferenceable(256) %6, i64 noundef %7) #3
  ret ptr %8
}

; Function Attrs: mustprogress nounwind uwtable
define linkonce_odr noundef nonnull align 8 dereferenceable(8) ptr @_ZNSt14__array_traitsImLm32EE6_S_refERA32_Kmm(ptr noundef nonnull align 8 dereferenceable(256) %0, i64 noundef %1) #4 comdat align 2 {
  %3 = alloca ptr, align 8
  %4 = alloca i64, align 8
  store ptr %0, ptr %3, align 8, !tbaa !3
  store i64 %1, ptr %4, align 8, !tbaa !91
  %5 = load ptr, ptr %3, align 8, !tbaa !3
  %6 = load i64, ptr %4, align 8, !tbaa !91
  %7 = getelementptr inbounds nuw [32 x i64], ptr %5, i64 0, i64 %6
  ret ptr %7
}

; Function Attrs: mustprogress nounwind uwtable
define linkonce_odr noundef nonnull align 4 dereferenceable(4) ptr @_ZNSt5arrayIjLm11EEixEm(ptr noundef nonnull align 4 dereferenceable(44) %0, i64 noundef %1) #4 comdat align 2 {
  %3 = alloca ptr, align 8
  %4 = alloca i64, align 8
  store ptr %0, ptr %3, align 8, !tbaa !102
  store i64 %1, ptr %4, align 8, !tbaa !91
  %5 = load ptr, ptr %3, align 8
  %6 = getelementptr inbounds nuw %"struct.std::array.15", ptr %5, i32 0, i32 0
  %7 = load i64, ptr %4, align 8, !tbaa !91
  %8 = call noundef nonnull align 4 dereferenceable(4) ptr @_ZNSt14__array_traitsIjLm11EE6_S_refERA11_Kjm(ptr noundef nonnull align 4 dereferenceable(44) %6, i64 noundef %7) #3
  ret ptr %8
}

; Function Attrs: inlinehint mustprogress nounwind uwtable
define linkonce_odr void @_ZSt4swapIjENSt9enable_ifIXsr6__and_ISt6__not_ISt15__is_tuple_likeIT_EESt21is_move_constructibleIS3_ESt18is_move_assignableIS3_EEE5valueEvE4typeERS3_SC_(ptr noundef nonnull align 4 dereferenceable(4) %0, ptr noundef nonnull align 4 dereferenceable(4) %1) #6 comdat {
  %3 = alloca ptr, align 8
  %4 = alloca ptr, align 8
  %5 = alloca i32, align 4
  store ptr %0, ptr %3, align 8, !tbaa !10
  store ptr %1, ptr %4, align 8, !tbaa !10
  call void @llvm.lifetime.start.p0(i64 4, ptr %5) #3
  %6 = load ptr, ptr %3, align 8, !tbaa !10
  %7 = load i32, ptr %6, align 4, !tbaa !8
  store i32 %7, ptr %5, align 4, !tbaa !8
  %8 = load ptr, ptr %4, align 8, !tbaa !10
  %9 = load i32, ptr %8, align 4, !tbaa !8
  %10 = load ptr, ptr %3, align 8, !tbaa !10
  store i32 %9, ptr %10, align 4, !tbaa !8
  %11 = load i32, ptr %5, align 4, !tbaa !8
  %12 = load ptr, ptr %4, align 8, !tbaa !10
  store i32 %11, ptr %12, align 4, !tbaa !8
  call void @llvm.lifetime.end.p0(i64 4, ptr %5) #3
  ret void
}

; Function Attrs: mustprogress nounwind uwtable
define linkonce_odr void @_ZN3acd21ac_decomposition_impl18swap_inplace_localERN5kitty18static_truth_tableILj11ELb0EEEhh(ptr noundef nonnull align 8 dereferenceable(500) %0, ptr noundef nonnull align 8 dereferenceable(256) %1, i8 noundef zeroext %2, i8 noundef zeroext %3) #4 comdat align 2 {
  %5 = alloca ptr, align 8
  %6 = alloca ptr, align 8
  %7 = alloca i8, align 1
  %8 = alloca i8, align 1
  %9 = alloca i32, align 4
  %10 = alloca ptr, align 8
  %11 = alloca i32, align 4
  %12 = alloca ptr, align 8
  %13 = alloca i32, align 4
  %14 = alloca %class.anon, align 8
  %15 = alloca i32, align 4
  %16 = alloca i32, align 4
  %17 = alloca ptr, align 8
  %18 = alloca i32, align 4
  %19 = alloca i64, align 8
  %20 = alloca i64, align 8
  %21 = alloca i32, align 4
  %22 = alloca i32, align 4
  %23 = alloca ptr, align 8
  %24 = alloca i32, align 4
  %25 = alloca i32, align 4
  %26 = alloca i32, align 4
  store ptr %0, ptr %5, align 8, !tbaa !27
  store ptr %1, ptr %6, align 8, !tbaa !90
  store i8 %2, ptr %7, align 1, !tbaa !83
  store i8 %3, ptr %8, align 1, !tbaa !83
  %27 = load ptr, ptr %5, align 8
  %28 = load i8, ptr %7, align 1, !tbaa !83
  %29 = zext i8 %28 to i32
  %30 = load i8, ptr %8, align 1, !tbaa !83
  %31 = zext i8 %30 to i32
  %32 = icmp eq i32 %29, %31
  br i1 %32, label %33, label %34

33:                                               ; preds = %4
  br label %326

34:                                               ; preds = %4
  %35 = load i8, ptr %7, align 1, !tbaa !83
  %36 = zext i8 %35 to i32
  %37 = load i8, ptr %8, align 1, !tbaa !83
  %38 = zext i8 %37 to i32
  %39 = icmp sgt i32 %36, %38
  br i1 %39, label %40, label %41

40:                                               ; preds = %34
  call void @_ZSt4swapIhENSt9enable_ifIXsr6__and_ISt6__not_ISt15__is_tuple_likeIT_EESt21is_move_constructibleIS3_ESt18is_move_assignableIS3_EEE5valueEvE4typeERS3_SC_(ptr noundef nonnull align 1 dereferenceable(1) %7, ptr noundef nonnull align 1 dereferenceable(1) %8) #3
  br label %41

41:                                               ; preds = %40, %34
  call void @llvm.lifetime.start.p0(i64 4, ptr %9) #3
  %42 = getelementptr inbounds nuw %"class.acd::ac_decomposition_impl", ptr %27, i32 0, i32 10
  %43 = load i32, ptr %42, align 8, !tbaa !54
  %44 = icmp ule i32 %43, 6
  br i1 %44, label %45, label %46

45:                                               ; preds = %41
  br label %51

46:                                               ; preds = %41
  %47 = getelementptr inbounds nuw %"class.acd::ac_decomposition_impl", ptr %27, i32 0, i32 10
  %48 = load i32, ptr %47, align 8, !tbaa !54
  %49 = sub i32 %48, 6
  %50 = shl i32 1, %49
  br label %51

51:                                               ; preds = %46, %45
  %52 = phi i32 [ 1, %45 ], [ %50, %46 ]
  store i32 %52, ptr %9, align 4, !tbaa !8
  %53 = getelementptr inbounds nuw %"class.acd::ac_decomposition_impl", ptr %27, i32 0, i32 10
  %54 = load i32, ptr %53, align 8, !tbaa !54
  %55 = icmp ule i32 %54, 6
  br i1 %55, label %56, label %105

56:                                               ; preds = %51
  call void @llvm.lifetime.start.p0(i64 8, ptr %10) #3
  %57 = load i8, ptr %7, align 1, !tbaa !83
  %58 = zext i8 %57 to i64
  %59 = getelementptr inbounds nuw [5 x [6 x [3 x i64]]], ptr @_ZN5kitty6detailL18ppermutation_masksE, i64 0, i64 %58
  %60 = load i8, ptr %8, align 1, !tbaa !83
  %61 = zext i8 %60 to i64
  %62 = getelementptr inbounds nuw [6 x [3 x i64]], ptr %59, i64 0, i64 %61
  store ptr %62, ptr %10, align 8, !tbaa !3
  call void @llvm.lifetime.start.p0(i64 4, ptr %11) #3
  %63 = load i8, ptr %8, align 1, !tbaa !83
  %64 = zext i8 %63 to i32
  %65 = shl i32 1, %64
  %66 = load i8, ptr %7, align 1, !tbaa !83
  %67 = zext i8 %66 to i32
  %68 = shl i32 1, %67
  %69 = sub nsw i32 %65, %68
  store i32 %69, ptr %11, align 4, !tbaa !8
  %70 = load ptr, ptr %6, align 8, !tbaa !90
  %71 = getelementptr inbounds nuw %"struct.kitty::static_truth_table", ptr %70, i32 0, i32 0
  %72 = call noundef nonnull align 8 dereferenceable(8) ptr @_ZNSt5arrayImLm32EEixEm(ptr noundef nonnull align 8 dereferenceable(256) %71, i64 noundef 0) #3
  %73 = load i64, ptr %72, align 8, !tbaa !91
  %74 = load ptr, ptr %10, align 8, !tbaa !3
  %75 = getelementptr inbounds [3 x i64], ptr %74, i64 0, i64 0
  %76 = load i64, ptr %75, align 8, !tbaa !91
  %77 = and i64 %73, %76
  %78 = load ptr, ptr %6, align 8, !tbaa !90
  %79 = getelementptr inbounds nuw %"struct.kitty::static_truth_table", ptr %78, i32 0, i32 0
  %80 = call noundef nonnull align 8 dereferenceable(8) ptr @_ZNSt5arrayImLm32EEixEm(ptr noundef nonnull align 8 dereferenceable(256) %79, i64 noundef 0) #3
  %81 = load i64, ptr %80, align 8, !tbaa !91
  %82 = load ptr, ptr %10, align 8, !tbaa !3
  %83 = getelementptr inbounds [3 x i64], ptr %82, i64 0, i64 1
  %84 = load i64, ptr %83, align 8, !tbaa !91
  %85 = and i64 %81, %84
  %86 = load i32, ptr %11, align 4, !tbaa !8
  %87 = zext i32 %86 to i64
  %88 = shl i64 %85, %87
  %89 = or i64 %77, %88
  %90 = load ptr, ptr %6, align 8, !tbaa !90
  %91 = getelementptr inbounds nuw %"struct.kitty::static_truth_table", ptr %90, i32 0, i32 0
  %92 = call noundef nonnull align 8 dereferenceable(8) ptr @_ZNSt5arrayImLm32EEixEm(ptr noundef nonnull align 8 dereferenceable(256) %91, i64 noundef 0) #3
  %93 = load i64, ptr %92, align 8, !tbaa !91
  %94 = load ptr, ptr %10, align 8, !tbaa !3
  %95 = getelementptr inbounds [3 x i64], ptr %94, i64 0, i64 2
  %96 = load i64, ptr %95, align 8, !tbaa !91
  %97 = and i64 %93, %96
  %98 = load i32, ptr %11, align 4, !tbaa !8
  %99 = zext i32 %98 to i64
  %100 = lshr i64 %97, %99
  %101 = or i64 %89, %100
  %102 = load ptr, ptr %6, align 8, !tbaa !90
  %103 = getelementptr inbounds nuw %"struct.kitty::static_truth_table", ptr %102, i32 0, i32 0
  %104 = call noundef nonnull align 8 dereferenceable(8) ptr @_ZNSt5arrayImLm32EEixEm(ptr noundef nonnull align 8 dereferenceable(256) %103, i64 noundef 0) #3
  store i64 %101, ptr %104, align 8, !tbaa !91
  call void @llvm.lifetime.end.p0(i64 4, ptr %11) #3
  call void @llvm.lifetime.end.p0(i64 8, ptr %10) #3
  br label %325

105:                                              ; preds = %51
  %106 = load i8, ptr %8, align 1, !tbaa !83
  %107 = zext i8 %106 to i32
  %108 = icmp sle i32 %107, 5
  br i1 %108, label %109, label %144

109:                                              ; preds = %105
  call void @llvm.lifetime.start.p0(i64 8, ptr %12) #3
  %110 = load i8, ptr %7, align 1, !tbaa !83
  %111 = zext i8 %110 to i64
  %112 = getelementptr inbounds nuw [5 x [6 x [3 x i64]]], ptr @_ZN5kitty6detailL18ppermutation_masksE, i64 0, i64 %111
  %113 = load i8, ptr %8, align 1, !tbaa !83
  %114 = zext i8 %113 to i64
  %115 = getelementptr inbounds nuw [6 x [3 x i64]], ptr %112, i64 0, i64 %114
  store ptr %115, ptr %12, align 8, !tbaa !3
  call void @llvm.lifetime.start.p0(i64 4, ptr %13) #3
  %116 = load i8, ptr %8, align 1, !tbaa !83
  %117 = zext i8 %116 to i32
  %118 = shl i32 1, %117
  %119 = load i8, ptr %7, align 1, !tbaa !83
  %120 = zext i8 %119 to i32
  %121 = shl i32 1, %120
  %122 = sub nsw i32 %118, %121
  store i32 %122, ptr %13, align 4, !tbaa !8
  %123 = load ptr, ptr %6, align 8, !tbaa !90
  %124 = getelementptr inbounds nuw %"struct.kitty::static_truth_table", ptr %123, i32 0, i32 0
  %125 = call noundef ptr @_ZSt5beginISt5arrayImLm32EEEDTcldtfp_5beginEERT_(ptr noundef nonnull align 8 dereferenceable(256) %124)
  %126 = load ptr, ptr %6, align 8, !tbaa !90
  %127 = getelementptr inbounds nuw %"struct.kitty::static_truth_table", ptr %126, i32 0, i32 0
  %128 = call noundef ptr @_ZSt5beginISt5arrayImLm32EEEDTcldtfp_5beginEERT_(ptr noundef nonnull align 8 dereferenceable(256) %127)
  %129 = load i32, ptr %9, align 4, !tbaa !8
  %130 = zext i32 %129 to i64
  %131 = getelementptr inbounds nuw i64, ptr %128, i64 %130
  %132 = load ptr, ptr %6, align 8, !tbaa !90
  %133 = getelementptr inbounds nuw %"struct.kitty::static_truth_table", ptr %132, i32 0, i32 0
  %134 = call noundef ptr @_ZSt5beginISt5arrayImLm32EEEDTcldtfp_5beginEERT_(ptr noundef nonnull align 8 dereferenceable(256) %133)
  %135 = getelementptr inbounds nuw %class.anon, ptr %14, i32 0, i32 0
  %136 = load i32, ptr %13, align 4, !tbaa !8
  store i32 %136, ptr %135, align 8, !tbaa !159
  %137 = getelementptr inbounds nuw %class.anon, ptr %14, i32 0, i32 1
  %138 = load ptr, ptr %12, align 8, !tbaa !3
  store ptr %138, ptr %137, align 8, !tbaa !3
  %139 = getelementptr inbounds nuw { i32, ptr }, ptr %14, i32 0, i32 0
  %140 = load i32, ptr %139, align 8
  %141 = getelementptr inbounds nuw { i32, ptr }, ptr %14, i32 0, i32 1
  %142 = load ptr, ptr %141, align 8
  %143 = call noundef ptr @_ZSt9transformIPmS0_ZN3acd21ac_decomposition_impl18swap_inplace_localERN5kitty18static_truth_tableILj11ELb0EEEhhEUlmE_ET0_T_S9_S8_T1_(ptr noundef %125, ptr noundef %131, ptr noundef %134, i32 %140, ptr %142)
  call void @llvm.lifetime.end.p0(i64 4, ptr %13) #3
  call void @llvm.lifetime.end.p0(i64 8, ptr %12) #3
  br label %324

144:                                              ; preds = %105
  %145 = load i8, ptr %7, align 1, !tbaa !83
  %146 = zext i8 %145 to i32
  %147 = icmp sle i32 %146, 5
  br i1 %147, label %148, label %253

148:                                              ; preds = %144
  call void @llvm.lifetime.start.p0(i64 4, ptr %15) #3
  %149 = load i8, ptr %8, align 1, !tbaa !83
  %150 = zext i8 %149 to i32
  %151 = sub nsw i32 %150, 6
  %152 = shl i32 1, %151
  store i32 %152, ptr %15, align 4, !tbaa !8
  call void @llvm.lifetime.start.p0(i64 4, ptr %16) #3
  %153 = load i8, ptr %7, align 1, !tbaa !83
  %154 = zext i8 %153 to i32
  %155 = shl i32 1, %154
  store i32 %155, ptr %16, align 4, !tbaa !8
  call void @llvm.lifetime.start.p0(i64 8, ptr %17) #3
  %156 = load ptr, ptr %6, align 8, !tbaa !90
  %157 = getelementptr inbounds nuw %"struct.kitty::static_truth_table", ptr %156, i32 0, i32 0
  %158 = call noundef ptr @_ZSt5beginISt5arrayImLm32EEEDTcldtfp_5beginEERT_(ptr noundef nonnull align 8 dereferenceable(256) %157)
  store ptr %158, ptr %17, align 8, !tbaa !3
  br label %159

159:                                              ; preds = %246, %148
  %160 = load ptr, ptr %17, align 8, !tbaa !3
  %161 = load ptr, ptr %6, align 8, !tbaa !90
  %162 = getelementptr inbounds nuw %"struct.kitty::static_truth_table", ptr %161, i32 0, i32 0
  %163 = call noundef ptr @_ZSt5beginISt5arrayImLm32EEEDTcldtfp_5beginEERT_(ptr noundef nonnull align 8 dereferenceable(256) %162)
  %164 = load i32, ptr %9, align 4, !tbaa !8
  %165 = zext i32 %164 to i64
  %166 = getelementptr inbounds nuw i64, ptr %163, i64 %165
  %167 = icmp ne ptr %160, %166
  br i1 %167, label %168, label %252

168:                                              ; preds = %159
  call void @llvm.lifetime.start.p0(i64 4, ptr %18) #3
  store i32 0, ptr %18, align 4, !tbaa !8
  br label %169

169:                                              ; preds = %243, %168
  %170 = load i32, ptr %18, align 4, !tbaa !8
  %171 = load i32, ptr %15, align 4, !tbaa !8
  %172 = icmp slt i32 %170, %171
  br i1 %172, label %174, label %173

173:                                              ; preds = %169
  call void @llvm.lifetime.end.p0(i64 4, ptr %18) #3
  br label %246

174:                                              ; preds = %169
  call void @llvm.lifetime.start.p0(i64 8, ptr %19) #3
  %175 = load ptr, ptr %17, align 8, !tbaa !3
  %176 = load i32, ptr %18, align 4, !tbaa !8
  %177 = sext i32 %176 to i64
  %178 = getelementptr inbounds i64, ptr %175, i64 %177
  %179 = load i64, ptr %178, align 8, !tbaa !91
  %180 = load i8, ptr %7, align 1, !tbaa !83
  %181 = zext i8 %180 to i64
  %182 = getelementptr inbounds nuw [6 x i64], ptr @_ZN5kitty6detailL11projectionsE, i64 0, i64 %181
  %183 = load i64, ptr %182, align 8, !tbaa !91
  %184 = and i64 %179, %183
  %185 = load i32, ptr %16, align 4, !tbaa !8
  %186 = zext i32 %185 to i64
  %187 = lshr i64 %184, %186
  store i64 %187, ptr %19, align 8, !tbaa !91
  call void @llvm.lifetime.start.p0(i64 8, ptr %20) #3
  %188 = load ptr, ptr %17, align 8, !tbaa !3
  %189 = load i32, ptr %18, align 4, !tbaa !8
  %190 = sext i32 %189 to i64
  %191 = getelementptr inbounds i64, ptr %188, i64 %190
  %192 = load i32, ptr %15, align 4, !tbaa !8
  %193 = sext i32 %192 to i64
  %194 = getelementptr inbounds i64, ptr %191, i64 %193
  %195 = load i64, ptr %194, align 8, !tbaa !91
  %196 = load i32, ptr %16, align 4, !tbaa !8
  %197 = zext i32 %196 to i64
  %198 = shl i64 %195, %197
  %199 = load i8, ptr %7, align 1, !tbaa !83
  %200 = zext i8 %199 to i64
  %201 = getelementptr inbounds nuw [6 x i64], ptr @_ZN5kitty6detailL11projectionsE, i64 0, i64 %200
  %202 = load i64, ptr %201, align 8, !tbaa !91
  %203 = and i64 %198, %202
  store i64 %203, ptr %20, align 8, !tbaa !91
  %204 = load ptr, ptr %17, align 8, !tbaa !3
  %205 = load i32, ptr %18, align 4, !tbaa !8
  %206 = sext i32 %205 to i64
  %207 = getelementptr inbounds i64, ptr %204, i64 %206
  %208 = load i64, ptr %207, align 8, !tbaa !91
  %209 = load i8, ptr %7, align 1, !tbaa !83
  %210 = zext i8 %209 to i64
  %211 = getelementptr inbounds nuw [6 x i64], ptr @_ZN5kitty6detailL11projectionsE, i64 0, i64 %210
  %212 = load i64, ptr %211, align 8, !tbaa !91
  %213 = xor i64 %212, -1
  %214 = and i64 %208, %213
  %215 = load i64, ptr %20, align 8, !tbaa !91
  %216 = or i64 %214, %215
  %217 = load ptr, ptr %17, align 8, !tbaa !3
  %218 = load i32, ptr %18, align 4, !tbaa !8
  %219 = sext i32 %218 to i64
  %220 = getelementptr inbounds i64, ptr %217, i64 %219
  store i64 %216, ptr %220, align 8, !tbaa !91
  %221 = load ptr, ptr %17, align 8, !tbaa !3
  %222 = load i32, ptr %18, align 4, !tbaa !8
  %223 = sext i32 %222 to i64
  %224 = getelementptr inbounds i64, ptr %221, i64 %223
  %225 = load i32, ptr %15, align 4, !tbaa !8
  %226 = sext i32 %225 to i64
  %227 = getelementptr inbounds i64, ptr %224, i64 %226
  %228 = load i64, ptr %227, align 8, !tbaa !91
  %229 = load i8, ptr %7, align 1, !tbaa !83
  %230 = zext i8 %229 to i64
  %231 = getelementptr inbounds nuw [6 x i64], ptr @_ZN5kitty6detailL11projectionsE, i64 0, i64 %230
  %232 = load i64, ptr %231, align 8, !tbaa !91
  %233 = and i64 %228, %232
  %234 = load i64, ptr %19, align 8, !tbaa !91
  %235 = or i64 %233, %234
  %236 = load ptr, ptr %17, align 8, !tbaa !3
  %237 = load i32, ptr %18, align 4, !tbaa !8
  %238 = sext i32 %237 to i64
  %239 = getelementptr inbounds i64, ptr %236, i64 %238
  %240 = load i32, ptr %15, align 4, !tbaa !8
  %241 = sext i32 %240 to i64
  %242 = getelementptr inbounds i64, ptr %239, i64 %241
  store i64 %235, ptr %242, align 8, !tbaa !91
  call void @llvm.lifetime.end.p0(i64 8, ptr %20) #3
  call void @llvm.lifetime.end.p0(i64 8, ptr %19) #3
  br label %243

243:                                              ; preds = %174
  %244 = load i32, ptr %18, align 4, !tbaa !8
  %245 = add nsw i32 %244, 1
  store i32 %245, ptr %18, align 4, !tbaa !8
  br label %169, !llvm.loop !161

246:                                              ; preds = %173
  %247 = load i32, ptr %15, align 4, !tbaa !8
  %248 = mul nsw i32 2, %247
  %249 = load ptr, ptr %17, align 8, !tbaa !3
  %250 = sext i32 %248 to i64
  %251 = getelementptr inbounds i64, ptr %249, i64 %250
  store ptr %251, ptr %17, align 8, !tbaa !3
  br label %159, !llvm.loop !162

252:                                              ; preds = %159
  call void @llvm.lifetime.end.p0(i64 8, ptr %17) #3
  call void @llvm.lifetime.end.p0(i64 4, ptr %16) #3
  call void @llvm.lifetime.end.p0(i64 4, ptr %15) #3
  br label %323

253:                                              ; preds = %144
  call void @llvm.lifetime.start.p0(i64 4, ptr %21) #3
  %254 = load i8, ptr %7, align 1, !tbaa !83
  %255 = zext i8 %254 to i32
  %256 = sub nsw i32 %255, 6
  %257 = shl i32 1, %256
  store i32 %257, ptr %21, align 4, !tbaa !8
  call void @llvm.lifetime.start.p0(i64 4, ptr %22) #3
  %258 = load i8, ptr %8, align 1, !tbaa !83
  %259 = zext i8 %258 to i32
  %260 = sub nsw i32 %259, 6
  %261 = shl i32 1, %260
  store i32 %261, ptr %22, align 4, !tbaa !8
  call void @llvm.lifetime.start.p0(i64 8, ptr %23) #3
  %262 = load ptr, ptr %6, align 8, !tbaa !90
  %263 = getelementptr inbounds nuw %"struct.kitty::static_truth_table", ptr %262, i32 0, i32 0
  %264 = call noundef ptr @_ZSt5beginISt5arrayImLm32EEEDTcldtfp_5beginEERT_(ptr noundef nonnull align 8 dereferenceable(256) %263)
  store ptr %264, ptr %23, align 8, !tbaa !3
  br label %265

265:                                              ; preds = %316, %253
  %266 = load ptr, ptr %23, align 8, !tbaa !3
  %267 = load ptr, ptr %6, align 8, !tbaa !90
  %268 = getelementptr inbounds nuw %"struct.kitty::static_truth_table", ptr %267, i32 0, i32 0
  %269 = call noundef ptr @_ZSt5beginISt5arrayImLm32EEEDTcldtfp_5beginEERT_(ptr noundef nonnull align 8 dereferenceable(256) %268)
  %270 = load i32, ptr %9, align 4, !tbaa !8
  %271 = zext i32 %270 to i64
  %272 = getelementptr inbounds nuw i64, ptr %269, i64 %271
  %273 = icmp ne ptr %266, %272
  br i1 %273, label %274, label %322

274:                                              ; preds = %265
  call void @llvm.lifetime.start.p0(i64 4, ptr %24) #3
  store i32 0, ptr %24, align 4, !tbaa !8
  br label %275

275:                                              ; preds = %311, %274
  %276 = load i32, ptr %24, align 4, !tbaa !8
  %277 = load i32, ptr %22, align 4, !tbaa !8
  %278 = icmp slt i32 %276, %277
  br i1 %278, label %280, label %279

279:                                              ; preds = %275
  store i32 9, ptr %25, align 4
  call void @llvm.lifetime.end.p0(i64 4, ptr %24) #3
  br label %316

280:                                              ; preds = %275
  call void @llvm.lifetime.start.p0(i64 4, ptr %26) #3
  store i32 0, ptr %26, align 4, !tbaa !8
  br label %281

281:                                              ; preds = %307, %280
  %282 = load i32, ptr %26, align 4, !tbaa !8
  %283 = load i32, ptr %21, align 4, !tbaa !8
  %284 = icmp slt i32 %282, %283
  br i1 %284, label %286, label %285

285:                                              ; preds = %281
  store i32 12, ptr %25, align 4
  call void @llvm.lifetime.end.p0(i64 4, ptr %26) #3
  br label %310

286:                                              ; preds = %281
  %287 = load ptr, ptr %23, align 8, !tbaa !3
  %288 = load i32, ptr %24, align 4, !tbaa !8
  %289 = sext i32 %288 to i64
  %290 = getelementptr inbounds i64, ptr %287, i64 %289
  %291 = load i32, ptr %26, align 4, !tbaa !8
  %292 = sext i32 %291 to i64
  %293 = getelementptr inbounds i64, ptr %290, i64 %292
  %294 = load i32, ptr %21, align 4, !tbaa !8
  %295 = sext i32 %294 to i64
  %296 = getelementptr inbounds i64, ptr %293, i64 %295
  %297 = load ptr, ptr %23, align 8, !tbaa !3
  %298 = load i32, ptr %24, align 4, !tbaa !8
  %299 = sext i32 %298 to i64
  %300 = getelementptr inbounds i64, ptr %297, i64 %299
  %301 = load i32, ptr %26, align 4, !tbaa !8
  %302 = sext i32 %301 to i64
  %303 = getelementptr inbounds i64, ptr %300, i64 %302
  %304 = load i32, ptr %22, align 4, !tbaa !8
  %305 = sext i32 %304 to i64
  %306 = getelementptr inbounds i64, ptr %303, i64 %305
  call void @_ZSt4swapImENSt9enable_ifIXsr6__and_ISt6__not_ISt15__is_tuple_likeIT_EESt21is_move_constructibleIS3_ESt18is_move_assignableIS3_EEE5valueEvE4typeERS3_SC_(ptr noundef nonnull align 8 dereferenceable(8) %296, ptr noundef nonnull align 8 dereferenceable(8) %306) #3
  br label %307

307:                                              ; preds = %286
  %308 = load i32, ptr %26, align 4, !tbaa !8
  %309 = add nsw i32 %308, 1
  store i32 %309, ptr %26, align 4, !tbaa !8
  br label %281, !llvm.loop !163

310:                                              ; preds = %285
  br label %311

311:                                              ; preds = %310
  %312 = load i32, ptr %21, align 4, !tbaa !8
  %313 = mul nsw i32 2, %312
  %314 = load i32, ptr %24, align 4, !tbaa !8
  %315 = add nsw i32 %314, %313
  store i32 %315, ptr %24, align 4, !tbaa !8
  br label %275, !llvm.loop !164

316:                                              ; preds = %279
  %317 = load i32, ptr %22, align 4, !tbaa !8
  %318 = mul nsw i32 2, %317
  %319 = load ptr, ptr %23, align 8, !tbaa !3
  %320 = sext i32 %318 to i64
  %321 = getelementptr inbounds i64, ptr %319, i64 %320
  store ptr %321, ptr %23, align 8, !tbaa !3
  br label %265, !llvm.loop !165

322:                                              ; preds = %265
  call void @llvm.lifetime.end.p0(i64 8, ptr %23) #3
  call void @llvm.lifetime.end.p0(i64 4, ptr %22) #3
  call void @llvm.lifetime.end.p0(i64 4, ptr %21) #3
  br label %323

323:                                              ; preds = %322, %252
  br label %324

324:                                              ; preds = %323, %109
  br label %325

325:                                              ; preds = %324, %56
  call void @llvm.lifetime.end.p0(i64 4, ptr %9) #3
  br label %326

326:                                              ; preds = %325, %33
  ret void
}

; Function Attrs: mustprogress nounwind uwtable
define linkonce_odr noundef nonnull align 4 dereferenceable(4) ptr @_ZNSt14__array_traitsIjLm11EE6_S_refERA11_Kjm(ptr noundef nonnull align 4 dereferenceable(44) %0, i64 noundef %1) #4 comdat align 2 {
  %3 = alloca ptr, align 8
  %4 = alloca i64, align 8
  store ptr %0, ptr %3, align 8, !tbaa !10
  store i64 %1, ptr %4, align 8, !tbaa !91
  %5 = load ptr, ptr %3, align 8, !tbaa !10
  %6 = load i64, ptr %4, align 8, !tbaa !91
  %7 = getelementptr inbounds nuw [11 x i32], ptr %5, i64 0, i64 %6
  ret ptr %7
}

; Function Attrs: inlinehint mustprogress nounwind uwtable
define linkonce_odr void @_ZSt4swapIhENSt9enable_ifIXsr6__and_ISt6__not_ISt15__is_tuple_likeIT_EESt21is_move_constructibleIS3_ESt18is_move_assignableIS3_EEE5valueEvE4typeERS3_SC_(ptr noundef nonnull align 1 dereferenceable(1) %0, ptr noundef nonnull align 1 dereferenceable(1) %1) #6 comdat {
  %3 = alloca ptr, align 8
  %4 = alloca ptr, align 8
  %5 = alloca i8, align 1
  store ptr %0, ptr %3, align 8, !tbaa !62
  store ptr %1, ptr %4, align 8, !tbaa !62
  call void @llvm.lifetime.start.p0(i64 1, ptr %5) #3
  %6 = load ptr, ptr %3, align 8, !tbaa !62
  %7 = load i8, ptr %6, align 1, !tbaa !83
  store i8 %7, ptr %5, align 1, !tbaa !83
  %8 = load ptr, ptr %4, align 8, !tbaa !62
  %9 = load i8, ptr %8, align 1, !tbaa !83
  %10 = load ptr, ptr %3, align 8, !tbaa !62
  store i8 %9, ptr %10, align 1, !tbaa !83
  %11 = load i8, ptr %5, align 1, !tbaa !83
  %12 = load ptr, ptr %4, align 8, !tbaa !62
  store i8 %11, ptr %12, align 1, !tbaa !83
  call void @llvm.lifetime.end.p0(i64 1, ptr %5) #3
  ret void
}

; Function Attrs: mustprogress nounwind uwtable
define linkonce_odr noundef ptr @_ZSt9transformIPmS0_ZN3acd21ac_decomposition_impl18swap_inplace_localERN5kitty18static_truth_tableILj11ELb0EEEhhEUlmE_ET0_T_S9_S8_T1_(ptr noundef %0, ptr noundef %1, ptr noundef %2, i32 %3, ptr %4) #4 comdat {
  %6 = alloca %class.anon, align 8
  %7 = alloca ptr, align 8
  %8 = alloca ptr, align 8
  %9 = alloca ptr, align 8
  %10 = getelementptr inbounds nuw { i32, ptr }, ptr %6, i32 0, i32 0
  store i32 %3, ptr %10, align 8
  %11 = getelementptr inbounds nuw { i32, ptr }, ptr %6, i32 0, i32 1
  store ptr %4, ptr %11, align 8
  store ptr %0, ptr %7, align 8, !tbaa !3
  store ptr %1, ptr %8, align 8, !tbaa !3
  store ptr %2, ptr %9, align 8, !tbaa !3
  br label %12

12:                                               ; preds = %21, %5
  %13 = load ptr, ptr %7, align 8, !tbaa !3
  %14 = load ptr, ptr %8, align 8, !tbaa !3
  %15 = icmp ne ptr %13, %14
  br i1 %15, label %16, label %26

16:                                               ; preds = %12
  %17 = load ptr, ptr %7, align 8, !tbaa !3
  %18 = load i64, ptr %17, align 8, !tbaa !91
  %19 = call noundef i64 @_ZZN3acd21ac_decomposition_impl18swap_inplace_localERN5kitty18static_truth_tableILj11ELb0EEEhhENKUlmE_clEm(ptr noundef nonnull align 8 dereferenceable(16) %6, i64 noundef %18)
  %20 = load ptr, ptr %9, align 8, !tbaa !3
  store i64 %19, ptr %20, align 8, !tbaa !91
  br label %21

21:                                               ; preds = %16
  %22 = load ptr, ptr %7, align 8, !tbaa !3
  %23 = getelementptr inbounds nuw i64, ptr %22, i32 1
  store ptr %23, ptr %7, align 8, !tbaa !3
  %24 = load ptr, ptr %9, align 8, !tbaa !3
  %25 = getelementptr inbounds nuw i64, ptr %24, i32 1
  store ptr %25, ptr %9, align 8, !tbaa !3
  br label %12, !llvm.loop !166

26:                                               ; preds = %12
  %27 = load ptr, ptr %9, align 8, !tbaa !3
  ret ptr %27
}

; Function Attrs: inlinehint mustprogress nounwind uwtable
define linkonce_odr noundef ptr @_ZSt5beginISt5arrayImLm32EEEDTcldtfp_5beginEERT_(ptr noundef nonnull align 8 dereferenceable(256) %0) #6 comdat {
  %2 = alloca ptr, align 8
  store ptr %0, ptr %2, align 8, !tbaa !104
  %3 = load ptr, ptr %2, align 8, !tbaa !104
  %4 = call noundef ptr @_ZNSt5arrayImLm32EE5beginEv(ptr noundef nonnull align 8 dereferenceable(256) %3) #15
  ret ptr %4
}

; Function Attrs: inlinehint mustprogress nounwind uwtable
define linkonce_odr void @_ZSt4swapImENSt9enable_ifIXsr6__and_ISt6__not_ISt15__is_tuple_likeIT_EESt21is_move_constructibleIS3_ESt18is_move_assignableIS3_EEE5valueEvE4typeERS3_SC_(ptr noundef nonnull align 8 dereferenceable(8) %0, ptr noundef nonnull align 8 dereferenceable(8) %1) #6 comdat {
  %3 = alloca ptr, align 8
  %4 = alloca ptr, align 8
  %5 = alloca i64, align 8
  store ptr %0, ptr %3, align 8, !tbaa !3
  store ptr %1, ptr %4, align 8, !tbaa !3
  call void @llvm.lifetime.start.p0(i64 8, ptr %5) #3
  %6 = load ptr, ptr %3, align 8, !tbaa !3
  %7 = load i64, ptr %6, align 8, !tbaa !91
  store i64 %7, ptr %5, align 8, !tbaa !91
  %8 = load ptr, ptr %4, align 8, !tbaa !3
  %9 = load i64, ptr %8, align 8, !tbaa !91
  %10 = load ptr, ptr %3, align 8, !tbaa !3
  store i64 %9, ptr %10, align 8, !tbaa !91
  %11 = load i64, ptr %5, align 8, !tbaa !91
  %12 = load ptr, ptr %4, align 8, !tbaa !3
  store i64 %11, ptr %12, align 8, !tbaa !91
  call void @llvm.lifetime.end.p0(i64 8, ptr %5) #3
  ret void
}

; Function Attrs: inlinehint mustprogress nounwind uwtable
define linkonce_odr noundef i64 @_ZZN3acd21ac_decomposition_impl18swap_inplace_localERN5kitty18static_truth_tableILj11ELb0EEEhhENKUlmE_clEm(ptr noundef nonnull align 8 dereferenceable(16) %0, i64 noundef %1) #6 comdat align 2 {
  %3 = alloca ptr, align 8
  %4 = alloca i64, align 8
  store ptr %0, ptr %3, align 8, !tbaa !167
  store i64 %1, ptr %4, align 8, !tbaa !91
  %5 = load ptr, ptr %3, align 8
  %6 = load i64, ptr %4, align 8, !tbaa !91
  %7 = getelementptr inbounds nuw %class.anon, ptr %5, i32 0, i32 1
  %8 = load ptr, ptr %7, align 8, !tbaa !168
  %9 = getelementptr inbounds [3 x i64], ptr %8, i64 0, i64 0
  %10 = load i64, ptr %9, align 8, !tbaa !91
  %11 = and i64 %6, %10
  %12 = load i64, ptr %4, align 8, !tbaa !91
  %13 = getelementptr inbounds nuw %class.anon, ptr %5, i32 0, i32 1
  %14 = load ptr, ptr %13, align 8, !tbaa !168
  %15 = getelementptr inbounds [3 x i64], ptr %14, i64 0, i64 1
  %16 = load i64, ptr %15, align 8, !tbaa !91
  %17 = and i64 %12, %16
  %18 = getelementptr inbounds nuw %class.anon, ptr %5, i32 0, i32 0
  %19 = load i32, ptr %18, align 8, !tbaa !159
  %20 = zext i32 %19 to i64
  %21 = shl i64 %17, %20
  %22 = or i64 %11, %21
  %23 = load i64, ptr %4, align 8, !tbaa !91
  %24 = getelementptr inbounds nuw %class.anon, ptr %5, i32 0, i32 1
  %25 = load ptr, ptr %24, align 8, !tbaa !168
  %26 = getelementptr inbounds [3 x i64], ptr %25, i64 0, i64 2
  %27 = load i64, ptr %26, align 8, !tbaa !91
  %28 = and i64 %23, %27
  %29 = getelementptr inbounds nuw %class.anon, ptr %5, i32 0, i32 0
  %30 = load i32, ptr %29, align 8, !tbaa !159
  %31 = zext i32 %30 to i64
  %32 = lshr i64 %28, %31
  %33 = or i64 %22, %32
  ret i64 %33
}

; Function Attrs: inlinehint mustprogress nounwind uwtable
define linkonce_odr noundef nonnull align 4 dereferenceable(4) ptr @_ZSt3maxIjERKT_S2_S2_(ptr noundef nonnull align 4 dereferenceable(4) %0, ptr noundef nonnull align 4 dereferenceable(4) %1) #6 comdat {
  %3 = alloca ptr, align 8
  %4 = alloca ptr, align 8
  %5 = alloca ptr, align 8
  store ptr %0, ptr %4, align 8, !tbaa !10
  store ptr %1, ptr %5, align 8, !tbaa !10
  %6 = load ptr, ptr %4, align 8, !tbaa !10
  %7 = load i32, ptr %6, align 4, !tbaa !8
  %8 = load ptr, ptr %5, align 8, !tbaa !10
  %9 = load i32, ptr %8, align 4, !tbaa !8
  %10 = icmp ult i32 %7, %9
  br i1 %10, label %11, label %13

11:                                               ; preds = %2
  %12 = load ptr, ptr %5, align 8, !tbaa !10
  store ptr %12, ptr %3, align 8
  br label %15

13:                                               ; preds = %2
  %14 = load ptr, ptr %4, align 8, !tbaa !10
  store ptr %14, ptr %3, align 8
  br label %15

15:                                               ; preds = %13, %11
  %16 = load ptr, ptr %3, align 8
  ret ptr %16
}

; Function Attrs: mustprogress nounwind uwtable
define linkonce_odr void @_ZNSt8functionIFjRKN5kitty18static_truth_tableILj11ELb0EEEEEC2IZN3acd21ac_decomposition_impl18find_decompositionERjjEUlS4_E_vEEOT_(ptr noundef nonnull align 8 dereferenceable(32) %0, ptr noundef nonnull align 8 dereferenceable(8) %1) unnamed_addr #4 comdat align 2 {
  %3 = alloca ptr, align 8
  %4 = alloca ptr, align 8
  store ptr %0, ptr %3, align 8, !tbaa !169
  store ptr %1, ptr %4, align 8, !tbaa !167
  %5 = load ptr, ptr %3, align 8
  %6 = getelementptr inbounds i8, ptr %5, i64 0
  call void @llvm.memset.p0.i64(ptr align 8 %6, i8 0, i64 24, i1 false)
  call void @_ZNSt14_Function_baseC2Ev(ptr noundef nonnull align 8 dereferenceable(24) %5) #3
  %7 = getelementptr inbounds nuw %"class.std::function", ptr %5, i32 0, i32 1
  store ptr null, ptr %7, align 8, !tbaa !171
  %8 = load ptr, ptr %4, align 8, !tbaa !167
  %9 = call noundef zeroext i1 @_ZNSt14_Function_base13_Base_managerIZN3acd21ac_decomposition_impl18find_decompositionERjjEUlRKN5kitty18static_truth_tableILj11ELb0EEEE_E21_M_not_empty_functionIS9_EEbRKT_(ptr noundef nonnull align 8 dereferenceable(8) %8) #3
  br i1 %9, label %10, label %15

10:                                               ; preds = %2
  %11 = getelementptr inbounds nuw %"class.std::_Function_base", ptr %5, i32 0, i32 0
  %12 = load ptr, ptr %4, align 8, !tbaa !167
  call void @_ZNSt14_Function_base13_Base_managerIZN3acd21ac_decomposition_impl18find_decompositionERjjEUlRKN5kitty18static_truth_tableILj11ELb0EEEE_E15_M_init_functorIS9_EEvRSt9_Any_dataOT_(ptr noundef nonnull align 8 dereferenceable(16) %11, ptr noundef nonnull align 8 dereferenceable(8) %12) #3
  %13 = getelementptr inbounds nuw %"class.std::function", ptr %5, i32 0, i32 1
  store ptr @_ZNSt17_Function_handlerIFjRKN5kitty18static_truth_tableILj11ELb0EEEEZN3acd21ac_decomposition_impl18find_decompositionERjjEUlS4_E_E9_M_invokeERKSt9_Any_dataS4_, ptr %13, align 8, !tbaa !171
  %14 = getelementptr inbounds nuw %"class.std::_Function_base", ptr %5, i32 0, i32 1
  store ptr @_ZNSt17_Function_handlerIFjRKN5kitty18static_truth_tableILj11ELb0EEEEZN3acd21ac_decomposition_impl18find_decompositionERjjEUlS4_E_E10_M_managerERSt9_Any_dataRKSB_St18_Manager_operation, ptr %14, align 8, !tbaa !174
  br label %15

15:                                               ; preds = %10, %2
  ret void
}

; Function Attrs: mustprogress nounwind uwtable
define linkonce_odr void @_ZNSt8functionIFjRKN5kitty18static_truth_tableILj11ELb0EEEEEC2IZN3acd21ac_decomposition_impl18find_decompositionERjjEUlS4_E0_vEEOT_(ptr noundef nonnull align 8 dereferenceable(32) %0, ptr noundef nonnull align 8 dereferenceable(8) %1) unnamed_addr #4 comdat align 2 {
  %3 = alloca ptr, align 8
  %4 = alloca ptr, align 8
  store ptr %0, ptr %3, align 8, !tbaa !169
  store ptr %1, ptr %4, align 8, !tbaa !167
  %5 = load ptr, ptr %3, align 8
  %6 = getelementptr inbounds i8, ptr %5, i64 0
  call void @llvm.memset.p0.i64(ptr align 8 %6, i8 0, i64 24, i1 false)
  call void @_ZNSt14_Function_baseC2Ev(ptr noundef nonnull align 8 dereferenceable(24) %5) #3
  %7 = getelementptr inbounds nuw %"class.std::function", ptr %5, i32 0, i32 1
  store ptr null, ptr %7, align 8, !tbaa !171
  %8 = load ptr, ptr %4, align 8, !tbaa !167
  %9 = call noundef zeroext i1 @_ZNSt14_Function_base13_Base_managerIZN3acd21ac_decomposition_impl18find_decompositionERjjEUlRKN5kitty18static_truth_tableILj11ELb0EEEE0_E21_M_not_empty_functionIS9_EEbRKT_(ptr noundef nonnull align 8 dereferenceable(8) %8) #3
  br i1 %9, label %10, label %15

10:                                               ; preds = %2
  %11 = getelementptr inbounds nuw %"class.std::_Function_base", ptr %5, i32 0, i32 0
  %12 = load ptr, ptr %4, align 8, !tbaa !167
  call void @_ZNSt14_Function_base13_Base_managerIZN3acd21ac_decomposition_impl18find_decompositionERjjEUlRKN5kitty18static_truth_tableILj11ELb0EEEE0_E15_M_init_functorIS9_EEvRSt9_Any_dataOT_(ptr noundef nonnull align 8 dereferenceable(16) %11, ptr noundef nonnull align 8 dereferenceable(8) %12) #3
  %13 = getelementptr inbounds nuw %"class.std::function", ptr %5, i32 0, i32 1
  store ptr @_ZNSt17_Function_handlerIFjRKN5kitty18static_truth_tableILj11ELb0EEEEZN3acd21ac_decomposition_impl18find_decompositionERjjEUlS4_E0_E9_M_invokeERKSt9_Any_dataS4_, ptr %13, align 8, !tbaa !171
  %14 = getelementptr inbounds nuw %"class.std::_Function_base", ptr %5, i32 0, i32 1
  store ptr @_ZNSt17_Function_handlerIFjRKN5kitty18static_truth_tableILj11ELb0EEEEZN3acd21ac_decomposition_impl18find_decompositionERjjEUlS4_E0_E10_M_managerERSt9_Any_dataRKSB_St18_Manager_operation, ptr %14, align 8, !tbaa !174
  br label %15

15:                                               ; preds = %10, %2
  ret void
}

; Function Attrs: mustprogress nounwind uwtable
define linkonce_odr void @_ZNSt8functionIFjRKN5kitty18static_truth_tableILj11ELb0EEEEEC2IZN3acd21ac_decomposition_impl18find_decompositionERjjEUlS4_E1_vEEOT_(ptr noundef nonnull align 8 dereferenceable(32) %0, ptr noundef nonnull align 8 dereferenceable(8) %1) unnamed_addr #4 comdat align 2 {
  %3 = alloca ptr, align 8
  %4 = alloca ptr, align 8
  store ptr %0, ptr %3, align 8, !tbaa !169
  store ptr %1, ptr %4, align 8, !tbaa !167
  %5 = load ptr, ptr %3, align 8
  %6 = getelementptr inbounds i8, ptr %5, i64 0
  call void @llvm.memset.p0.i64(ptr align 8 %6, i8 0, i64 24, i1 false)
  call void @_ZNSt14_Function_baseC2Ev(ptr noundef nonnull align 8 dereferenceable(24) %5) #3
  %7 = getelementptr inbounds nuw %"class.std::function", ptr %5, i32 0, i32 1
  store ptr null, ptr %7, align 8, !tbaa !171
  %8 = load ptr, ptr %4, align 8, !tbaa !167
  %9 = call noundef zeroext i1 @_ZNSt14_Function_base13_Base_managerIZN3acd21ac_decomposition_impl18find_decompositionERjjEUlRKN5kitty18static_truth_tableILj11ELb0EEEE1_E21_M_not_empty_functionIS9_EEbRKT_(ptr noundef nonnull align 8 dereferenceable(8) %8) #3
  br i1 %9, label %10, label %15

10:                                               ; preds = %2
  %11 = getelementptr inbounds nuw %"class.std::_Function_base", ptr %5, i32 0, i32 0
  %12 = load ptr, ptr %4, align 8, !tbaa !167
  call void @_ZNSt14_Function_base13_Base_managerIZN3acd21ac_decomposition_impl18find_decompositionERjjEUlRKN5kitty18static_truth_tableILj11ELb0EEEE1_E15_M_init_functorIS9_EEvRSt9_Any_dataOT_(ptr noundef nonnull align 8 dereferenceable(16) %11, ptr noundef nonnull align 8 dereferenceable(8) %12) #3
  %13 = getelementptr inbounds nuw %"class.std::function", ptr %5, i32 0, i32 1
  store ptr @_ZNSt17_Function_handlerIFjRKN5kitty18static_truth_tableILj11ELb0EEEEZN3acd21ac_decomposition_impl18find_decompositionERjjEUlS4_E1_E9_M_invokeERKSt9_Any_dataS4_, ptr %13, align 8, !tbaa !171
  %14 = getelementptr inbounds nuw %"class.std::_Function_base", ptr %5, i32 0, i32 1
  store ptr @_ZNSt17_Function_handlerIFjRKN5kitty18static_truth_tableILj11ELb0EEEEZN3acd21ac_decomposition_impl18find_decompositionERjjEUlS4_E1_E10_M_managerERSt9_Any_dataRKSB_St18_Manager_operation, ptr %14, align 8, !tbaa !174
  br label %15

15:                                               ; preds = %10, %2
  ret void
}

; Function Attrs: mustprogress nounwind uwtable
define linkonce_odr void @_ZNSt8functionIFjRKN5kitty18static_truth_tableILj11ELb0EEEEEC2IZN3acd21ac_decomposition_impl18find_decompositionERjjEUlS4_E2_vEEOT_(ptr noundef nonnull align 8 dereferenceable(32) %0, ptr noundef nonnull align 8 dereferenceable(8) %1) unnamed_addr #4 comdat align 2 {
  %3 = alloca ptr, align 8
  %4 = alloca ptr, align 8
  store ptr %0, ptr %3, align 8, !tbaa !169
  store ptr %1, ptr %4, align 8, !tbaa !167
  %5 = load ptr, ptr %3, align 8
  %6 = getelementptr inbounds i8, ptr %5, i64 0
  call void @llvm.memset.p0.i64(ptr align 8 %6, i8 0, i64 24, i1 false)
  call void @_ZNSt14_Function_baseC2Ev(ptr noundef nonnull align 8 dereferenceable(24) %5) #3
  %7 = getelementptr inbounds nuw %"class.std::function", ptr %5, i32 0, i32 1
  store ptr null, ptr %7, align 8, !tbaa !171
  %8 = load ptr, ptr %4, align 8, !tbaa !167
  %9 = call noundef zeroext i1 @_ZNSt14_Function_base13_Base_managerIZN3acd21ac_decomposition_impl18find_decompositionERjjEUlRKN5kitty18static_truth_tableILj11ELb0EEEE2_E21_M_not_empty_functionIS9_EEbRKT_(ptr noundef nonnull align 8 dereferenceable(8) %8) #3
  br i1 %9, label %10, label %15

10:                                               ; preds = %2
  %11 = getelementptr inbounds nuw %"class.std::_Function_base", ptr %5, i32 0, i32 0
  %12 = load ptr, ptr %4, align 8, !tbaa !167
  call void @_ZNSt14_Function_base13_Base_managerIZN3acd21ac_decomposition_impl18find_decompositionERjjEUlRKN5kitty18static_truth_tableILj11ELb0EEEE2_E15_M_init_functorIS9_EEvRSt9_Any_dataOT_(ptr noundef nonnull align 8 dereferenceable(16) %11, ptr noundef nonnull align 8 dereferenceable(8) %12) #3
  %13 = getelementptr inbounds nuw %"class.std::function", ptr %5, i32 0, i32 1
  store ptr @_ZNSt17_Function_handlerIFjRKN5kitty18static_truth_tableILj11ELb0EEEEZN3acd21ac_decomposition_impl18find_decompositionERjjEUlS4_E2_E9_M_invokeERKSt9_Any_dataS4_, ptr %13, align 8, !tbaa !171
  %14 = getelementptr inbounds nuw %"class.std::_Function_base", ptr %5, i32 0, i32 1
  store ptr @_ZNSt17_Function_handlerIFjRKN5kitty18static_truth_tableILj11ELb0EEEEZN3acd21ac_decomposition_impl18find_decompositionERjjEUlS4_E2_E10_M_managerERSt9_Any_dataRKSB_St18_Manager_operation, ptr %14, align 8, !tbaa !174
  br label %15

15:                                               ; preds = %10, %2
  ret void
}

; Function Attrs: mustprogress nounwind uwtable
define linkonce_odr void @_ZNSt8functionIFjRKN5kitty18static_truth_tableILj11ELb0EEEEEC2IZN3acd21ac_decomposition_impl18find_decompositionERjjEUlS4_E3_vEEOT_(ptr noundef nonnull align 8 dereferenceable(32) %0, ptr noundef nonnull align 8 dereferenceable(8) %1) unnamed_addr #4 comdat align 2 {
  %3 = alloca ptr, align 8
  %4 = alloca ptr, align 8
  store ptr %0, ptr %3, align 8, !tbaa !169
  store ptr %1, ptr %4, align 8, !tbaa !167
  %5 = load ptr, ptr %3, align 8
  %6 = getelementptr inbounds i8, ptr %5, i64 0
  call void @llvm.memset.p0.i64(ptr align 8 %6, i8 0, i64 24, i1 false)
  call void @_ZNSt14_Function_baseC2Ev(ptr noundef nonnull align 8 dereferenceable(24) %5) #3
  %7 = getelementptr inbounds nuw %"class.std::function", ptr %5, i32 0, i32 1
  store ptr null, ptr %7, align 8, !tbaa !171
  %8 = load ptr, ptr %4, align 8, !tbaa !167
  %9 = call noundef zeroext i1 @_ZNSt14_Function_base13_Base_managerIZN3acd21ac_decomposition_impl18find_decompositionERjjEUlRKN5kitty18static_truth_tableILj11ELb0EEEE3_E21_M_not_empty_functionIS9_EEbRKT_(ptr noundef nonnull align 8 dereferenceable(8) %8) #3
  br i1 %9, label %10, label %15

10:                                               ; preds = %2
  %11 = getelementptr inbounds nuw %"class.std::_Function_base", ptr %5, i32 0, i32 0
  %12 = load ptr, ptr %4, align 8, !tbaa !167
  call void @_ZNSt14_Function_base13_Base_managerIZN3acd21ac_decomposition_impl18find_decompositionERjjEUlRKN5kitty18static_truth_tableILj11ELb0EEEE3_E15_M_init_functorIS9_EEvRSt9_Any_dataOT_(ptr noundef nonnull align 8 dereferenceable(16) %11, ptr noundef nonnull align 8 dereferenceable(8) %12) #3
  %13 = getelementptr inbounds nuw %"class.std::function", ptr %5, i32 0, i32 1
  store ptr @_ZNSt17_Function_handlerIFjRKN5kitty18static_truth_tableILj11ELb0EEEEZN3acd21ac_decomposition_impl18find_decompositionERjjEUlS4_E3_E9_M_invokeERKSt9_Any_dataS4_, ptr %13, align 8, !tbaa !171
  %14 = getelementptr inbounds nuw %"class.std::_Function_base", ptr %5, i32 0, i32 1
  store ptr @_ZNSt17_Function_handlerIFjRKN5kitty18static_truth_tableILj11ELb0EEEEZN3acd21ac_decomposition_impl18find_decompositionERjjEUlS4_E3_E10_M_managerERSt9_Any_dataRKSB_St18_Manager_operation, ptr %14, align 8, !tbaa !174
  br label %15

15:                                               ; preds = %10, %2
  ret void
}

; Function Attrs: mustprogress nounwind uwtable
define linkonce_odr void @_ZN3acd21ac_decomposition_impl27enumerate_iset_combinationsIRSt8functionIFjRKN5kitty18static_truth_tableILj11ELb0EEEEEEESt5tupleIJS5_St5arrayIjLm11EEjEEjjOT_(ptr dead_on_unwind noalias writable sret(%"class.std::tuple") align 8 %0, ptr noundef nonnull align 8 dereferenceable(500) %1, i32 noundef %2, i32 noundef %3, ptr noundef nonnull align 8 dereferenceable(32) %4) #4 comdat align 2 {
  %6 = alloca ptr, align 8
  %7 = alloca ptr, align 8
  %8 = alloca i32, align 4
  %9 = alloca i32, align 4
  %10 = alloca ptr, align 8
  %11 = alloca %"struct.kitty::static_truth_table", align 8
  %12 = alloca %"struct.kitty::static_truth_table", align 8
  %13 = alloca i32, align 4
  %14 = alloca i32, align 4
  %15 = alloca [16 x i32], align 16
  %16 = alloca [16 x i32], align 16
  %17 = alloca [16 x i32], align 16
  %18 = alloca i32, align 4
  %19 = alloca i32, align 4
  %20 = alloca i32, align 4
  %21 = alloca i32, align 4
  %22 = alloca %"struct.std::array.15", align 4
  %23 = alloca i32, align 4
  %24 = alloca i32, align 4
  store ptr %0, ptr %6, align 8
  store ptr %1, ptr %7, align 8, !tbaa !27
  store i32 %2, ptr %8, align 4, !tbaa !8
  store i32 %3, ptr %9, align 4, !tbaa !8
  store ptr %4, ptr %10, align 8, !tbaa !169
  %25 = load ptr, ptr %7, align 8
  call void @llvm.lifetime.start.p0(i64 256, ptr %11) #3
  %26 = getelementptr inbounds nuw %"class.acd::ac_decomposition_impl", ptr %25, i32 0, i32 2
  call void @llvm.memcpy.p0.p0.i64(ptr align 8 %11, ptr align 8 %26, i64 256, i1 false), !tbaa.struct !82
  call void @llvm.lifetime.start.p0(i64 256, ptr %12) #3
  call void @llvm.memcpy.p0.p0.i64(ptr align 8 %12, ptr align 8 %11, i64 256, i1 false), !tbaa.struct !82
  call void @llvm.lifetime.start.p0(i64 4, ptr %13) #3
  %27 = getelementptr inbounds nuw %"class.acd::ac_decomposition_impl", ptr %25, i32 0, i32 11
  %28 = getelementptr inbounds nuw %"struct.acd::ac_decomposition_params", ptr %27, i32 0, i32 0
  %29 = load i32, ptr %28, align 4, !tbaa !59
  %30 = load i32, ptr %8, align 4, !tbaa !8
  %31 = sub i32 %29, %30
  %32 = shl i32 1, %31
  %33 = add nsw i32 %32, 1
  store i32 %33, ptr %13, align 4, !tbaa !8
  %34 = load i32, ptr %8, align 4, !tbaa !8
  %35 = load i32, ptr %9, align 4, !tbaa !8
  %36 = icmp eq i32 %34, %35
  br i1 %36, label %37, label %41

37:                                               ; preds = %5
  %38 = load ptr, ptr %10, align 8, !tbaa !169
  %39 = call noundef i32 @_ZNKSt8functionIFjRKN5kitty18static_truth_tableILj11ELb0EEEEEclES4_(ptr noundef nonnull align 8 dereferenceable(32) %38, ptr noundef nonnull align 8 dereferenceable(256) %11)
  store i32 %39, ptr %13, align 4, !tbaa !8
  %40 = getelementptr inbounds nuw %"class.acd::ac_decomposition_impl", ptr %25, i32 0, i32 13
  call void @_ZSt10make_tupleIJRN5kitty18static_truth_tableILj11ELb0EEERSt5arrayIjLm11EERjEESt5tupleIJDpNSt25__strip_reference_wrapperINSt5decayIT_E4typeEE6__typeEEEDpOSB_(ptr dead_on_unwind writable sret(%"class.std::tuple") align 8 %0, ptr noundef nonnull align 8 dereferenceable(256) %11, ptr noundef nonnull align 4 dereferenceable(44) %40, ptr noundef nonnull align 4 dereferenceable(4) %13)
  store i32 1, ptr %14, align 4
  br label %157

41:                                               ; preds = %5
  %42 = load i32, ptr %8, align 4, !tbaa !8
  %43 = getelementptr inbounds nuw %"class.acd::ac_decomposition_impl", ptr %25, i32 0, i32 11
  %44 = getelementptr inbounds nuw %"struct.acd::ac_decomposition_params", ptr %43, i32 0, i32 0
  %45 = load i32, ptr %44, align 4, !tbaa !59
  %46 = sub i32 %45, 1
  %47 = icmp eq i32 %42, %46
  br i1 %47, label %48, label %51

48:                                               ; preds = %41
  %49 = load i32, ptr %8, align 4, !tbaa !8
  %50 = load i32, ptr %9, align 4, !tbaa !8
  call void @_ZN3acd21ac_decomposition_impl28enumerate_iset_combinations2Ejj(ptr dead_on_unwind writable sret(%"class.std::tuple") align 8 %0, ptr noundef nonnull align 8 dereferenceable(500) %25, i32 noundef %49, i32 noundef %50)
  store i32 1, ptr %14, align 4
  br label %157

51:                                               ; preds = %41
  call void @llvm.lifetime.start.p0(i64 64, ptr %15) #3
  call void @llvm.lifetime.start.p0(i64 64, ptr %16) #3
  call void @llvm.lifetime.start.p0(i64 64, ptr %17) #3
  call void @llvm.lifetime.start.p0(i64 4, ptr %18) #3
  store i32 0, ptr %18, align 4, !tbaa !8
  br label %52

52:                                               ; preds = %66, %51
  %53 = load i32, ptr %18, align 4, !tbaa !8
  %54 = getelementptr inbounds nuw %"class.acd::ac_decomposition_impl", ptr %25, i32 0, i32 10
  %55 = load i32, ptr %54, align 8, !tbaa !54
  %56 = icmp ult i32 %53, %55
  br i1 %56, label %58, label %57

57:                                               ; preds = %52
  store i32 2, ptr %14, align 4
  call void @llvm.lifetime.end.p0(i64 4, ptr %18) #3
  br label %69

58:                                               ; preds = %52
  %59 = load i32, ptr %18, align 4, !tbaa !8
  %60 = load i32, ptr %18, align 4, !tbaa !8
  %61 = zext i32 %60 to i64
  %62 = getelementptr inbounds nuw [16 x i32], ptr %16, i64 0, i64 %61
  store i32 %59, ptr %62, align 4, !tbaa !8
  %63 = load i32, ptr %18, align 4, !tbaa !8
  %64 = zext i32 %63 to i64
  %65 = getelementptr inbounds nuw [16 x i32], ptr %15, i64 0, i64 %64
  store i32 %59, ptr %65, align 4, !tbaa !8
  br label %66

66:                                               ; preds = %58
  %67 = load i32, ptr %18, align 4, !tbaa !8
  %68 = add i32 %67, 1
  store i32 %68, ptr %18, align 4, !tbaa !8
  br label %52, !llvm.loop !175

69:                                               ; preds = %57
  call void @llvm.lifetime.start.p0(i64 4, ptr %19) #3
  store i32 2, ptr %19, align 4, !tbaa !8
  %70 = getelementptr inbounds nuw %"class.acd::ac_decomposition_impl", ptr %25, i32 0, i32 0
  %71 = load i32, ptr %70, align 8, !tbaa !29
  %72 = icmp ult i32 %71, -1
  br i1 %72, label %73, label %81

73:                                               ; preds = %69
  %74 = getelementptr inbounds nuw %"class.acd::ac_decomposition_impl", ptr %25, i32 0, i32 0
  %75 = load i32, ptr %74, align 8, !tbaa !29
  %76 = lshr i32 %75, 1
  %77 = getelementptr inbounds nuw %"class.acd::ac_decomposition_impl", ptr %25, i32 0, i32 0
  %78 = load i32, ptr %77, align 8, !tbaa !29
  %79 = and i32 %78, 1
  %80 = add i32 %76, %79
  store i32 %80, ptr %19, align 4, !tbaa !8
  br label %81

81:                                               ; preds = %73, %69
  br label %82

82:                                               ; preds = %117, %81
  call void @llvm.lifetime.start.p0(i64 4, ptr %20) #3
  %83 = load ptr, ptr %10, align 8, !tbaa !169
  %84 = call noundef i32 @_ZNKSt8functionIFjRKN5kitty18static_truth_tableILj11ELb0EEEEEclES4_(ptr noundef nonnull align 8 dereferenceable(32) %83, ptr noundef nonnull align 8 dereferenceable(256) %11)
  store i32 %84, ptr %20, align 4, !tbaa !8
  %85 = load i32, ptr %20, align 4, !tbaa !8
  %86 = load i32, ptr %13, align 4, !tbaa !8
  %87 = icmp ult i32 %85, %86
  br i1 %87, label %88, label %113

88:                                               ; preds = %82
  call void @llvm.memcpy.p0.p0.i64(ptr align 8 %12, ptr align 8 %11, i64 256, i1 false), !tbaa.struct !82
  %89 = load i32, ptr %20, align 4, !tbaa !8
  store i32 %89, ptr %13, align 4, !tbaa !8
  call void @llvm.lifetime.start.p0(i64 4, ptr %21) #3
  store i32 0, ptr %21, align 4, !tbaa !8
  br label %90

90:                                               ; preds = %104, %88
  %91 = load i32, ptr %21, align 4, !tbaa !8
  %92 = getelementptr inbounds nuw %"class.acd::ac_decomposition_impl", ptr %25, i32 0, i32 10
  %93 = load i32, ptr %92, align 8, !tbaa !54
  %94 = icmp ult i32 %91, %93
  br i1 %94, label %96, label %95

95:                                               ; preds = %90
  store i32 7, ptr %14, align 4
  call void @llvm.lifetime.end.p0(i64 4, ptr %21) #3
  br label %107

96:                                               ; preds = %90
  %97 = load i32, ptr %21, align 4, !tbaa !8
  %98 = zext i32 %97 to i64
  %99 = getelementptr inbounds nuw [16 x i32], ptr %15, i64 0, i64 %98
  %100 = load i32, ptr %99, align 4, !tbaa !8
  %101 = load i32, ptr %21, align 4, !tbaa !8
  %102 = zext i32 %101 to i64
  %103 = getelementptr inbounds nuw [16 x i32], ptr %17, i64 0, i64 %102
  store i32 %100, ptr %103, align 4, !tbaa !8
  br label %104

104:                                              ; preds = %96
  %105 = load i32, ptr %21, align 4, !tbaa !8
  %106 = add i32 %105, 1
  store i32 %106, ptr %21, align 4, !tbaa !8
  br label %90, !llvm.loop !176

107:                                              ; preds = %95
  %108 = load i32, ptr %13, align 4, !tbaa !8
  %109 = load i32, ptr %19, align 4, !tbaa !8
  %110 = icmp ule i32 %108, %109
  br i1 %110, label %111, label %112

111:                                              ; preds = %107
  store i32 5, ptr %14, align 4
  br label %114

112:                                              ; preds = %107
  br label %113

113:                                              ; preds = %112, %82
  store i32 0, ptr %14, align 4
  br label %114

114:                                              ; preds = %113, %111
  call void @llvm.lifetime.end.p0(i64 4, ptr %20) #3
  %115 = load i32, ptr %14, align 4
  switch i32 %115, label %158 [
    i32 0, label %116
    i32 5, label %123
  ]

116:                                              ; preds = %114
  br label %117

117:                                              ; preds = %116
  %118 = load i32, ptr %8, align 4, !tbaa !8
  %119 = load i32, ptr %9, align 4, !tbaa !8
  %120 = getelementptr inbounds [16 x i32], ptr %15, i64 0, i64 0
  %121 = getelementptr inbounds [16 x i32], ptr %16, i64 0, i64 0
  %122 = call noundef zeroext i1 @_ZN3acd21ac_decomposition_impl24combinations_offset_nextEjjPjS1_RN5kitty18static_truth_tableILj11ELb0EEE(ptr noundef nonnull align 8 dereferenceable(500) %25, i32 noundef %118, i32 noundef %119, ptr noundef %120, ptr noundef %121, ptr noundef nonnull align 8 dereferenceable(256) %11)
  br i1 %122, label %82, label %123, !llvm.loop !177

123:                                              ; preds = %117, %114
  call void @llvm.lifetime.start.p0(i64 44, ptr %22) #3
  %124 = load i32, ptr %13, align 4, !tbaa !8
  %125 = getelementptr inbounds nuw %"class.acd::ac_decomposition_impl", ptr %25, i32 0, i32 11
  %126 = getelementptr inbounds nuw %"struct.acd::ac_decomposition_params", ptr %125, i32 0, i32 0
  %127 = load i32, ptr %126, align 4, !tbaa !59
  %128 = load i32, ptr %8, align 4, !tbaa !8
  %129 = sub i32 %127, %128
  %130 = shl i32 1, %129
  %131 = icmp ugt i32 %124, %130
  br i1 %131, label %132, label %133

132:                                              ; preds = %123
  call void @llvm.lifetime.start.p0(i64 4, ptr %23) #3
  store i32 -1, ptr %23, align 4, !tbaa !8
  call void @_ZSt10make_tupleIJRN5kitty18static_truth_tableILj11ELb0EEERSt5arrayIjLm11EEjEESt5tupleIJDpNSt25__strip_reference_wrapperINSt5decayIT_E4typeEE6__typeEEEDpOSA_(ptr dead_on_unwind writable sret(%"class.std::tuple") align 8 %0, ptr noundef nonnull align 8 dereferenceable(256) %12, ptr noundef nonnull align 4 dereferenceable(44) %22, ptr noundef nonnull align 4 dereferenceable(4) %23)
  call void @llvm.lifetime.end.p0(i64 4, ptr %23) #3
  store i32 1, ptr %14, align 4
  br label %156

133:                                              ; preds = %123
  call void @llvm.lifetime.start.p0(i64 4, ptr %24) #3
  store i32 0, ptr %24, align 4, !tbaa !8
  br label %134

134:                                              ; preds = %152, %133
  %135 = load i32, ptr %24, align 4, !tbaa !8
  %136 = getelementptr inbounds nuw %"class.acd::ac_decomposition_impl", ptr %25, i32 0, i32 10
  %137 = load i32, ptr %136, align 8, !tbaa !54
  %138 = icmp ult i32 %135, %137
  br i1 %138, label %140, label %139

139:                                              ; preds = %134
  store i32 10, ptr %14, align 4
  call void @llvm.lifetime.end.p0(i64 4, ptr %24) #3
  br label %155

140:                                              ; preds = %134
  %141 = getelementptr inbounds nuw %"class.acd::ac_decomposition_impl", ptr %25, i32 0, i32 13
  %142 = load i32, ptr %24, align 4, !tbaa !8
  %143 = zext i32 %142 to i64
  %144 = getelementptr inbounds nuw [16 x i32], ptr %17, i64 0, i64 %143
  %145 = load i32, ptr %144, align 4, !tbaa !8
  %146 = zext i32 %145 to i64
  %147 = call noundef nonnull align 4 dereferenceable(4) ptr @_ZNSt5arrayIjLm11EEixEm(ptr noundef nonnull align 4 dereferenceable(44) %141, i64 noundef %146) #3
  %148 = load i32, ptr %147, align 4, !tbaa !8
  %149 = load i32, ptr %24, align 4, !tbaa !8
  %150 = zext i32 %149 to i64
  %151 = call noundef nonnull align 4 dereferenceable(4) ptr @_ZNSt5arrayIjLm11EEixEm(ptr noundef nonnull align 4 dereferenceable(44) %22, i64 noundef %150) #3
  store i32 %148, ptr %151, align 4, !tbaa !8
  br label %152

152:                                              ; preds = %140
  %153 = load i32, ptr %24, align 4, !tbaa !8
  %154 = add i32 %153, 1
  store i32 %154, ptr %24, align 4, !tbaa !8
  br label %134, !llvm.loop !178

155:                                              ; preds = %139
  call void @_ZSt10make_tupleIJRN5kitty18static_truth_tableILj11ELb0EEERSt5arrayIjLm11EERjEESt5tupleIJDpNSt25__strip_reference_wrapperINSt5decayIT_E4typeEE6__typeEEEDpOSB_(ptr dead_on_unwind writable sret(%"class.std::tuple") align 8 %0, ptr noundef nonnull align 8 dereferenceable(256) %12, ptr noundef nonnull align 4 dereferenceable(44) %22, ptr noundef nonnull align 4 dereferenceable(4) %13)
  store i32 1, ptr %14, align 4
  br label %156

156:                                              ; preds = %155, %132
  call void @llvm.lifetime.end.p0(i64 44, ptr %22) #3
  call void @llvm.lifetime.end.p0(i64 4, ptr %19) #3
  call void @llvm.lifetime.end.p0(i64 64, ptr %17) #3
  call void @llvm.lifetime.end.p0(i64 64, ptr %16) #3
  call void @llvm.lifetime.end.p0(i64 64, ptr %15) #3
  br label %157

157:                                              ; preds = %156, %48, %37
  call void @llvm.lifetime.end.p0(i64 4, ptr %13) #3
  call void @llvm.lifetime.end.p0(i64 256, ptr %12) #3
  call void @llvm.lifetime.end.p0(i64 256, ptr %11) #3
  ret void

158:                                              ; preds = %114
  unreachable
}

; Function Attrs: mustprogress nounwind uwtable
define linkonce_odr noundef nonnull align 4 dereferenceable(4) ptr @_ZSt3getILm2EJN5kitty18static_truth_tableILj11ELb0EEESt5arrayIjLm11EEjEERNSt13tuple_elementIXT_ESt5tupleIJDpT0_EEE4typeERS9_(ptr noundef nonnull align 8 dereferenceable(304) %0) #4 comdat {
  %2 = alloca ptr, align 8
  store ptr %0, ptr %2, align 8, !tbaa !179
  %3 = load ptr, ptr %2, align 8, !tbaa !179
  %4 = call noundef nonnull align 4 dereferenceable(4) ptr @_ZSt12__get_helperILm2EjJEERT0_RSt11_Tuple_implIXT_EJS0_DpT1_EE(ptr noundef nonnull align 4 dereferenceable(4) %3) #3
  ret ptr %4
}

; Function Attrs: mustprogress nounwind uwtable
define linkonce_odr noundef nonnull align 8 dereferenceable(256) ptr @_ZSt3getILm0EJN5kitty18static_truth_tableILj11ELb0EEESt5arrayIjLm11EEjEERNSt13tuple_elementIXT_ESt5tupleIJDpT0_EEE4typeERS9_(ptr noundef nonnull align 8 dereferenceable(304) %0) #4 comdat {
  %2 = alloca ptr, align 8
  store ptr %0, ptr %2, align 8, !tbaa !179
  %3 = load ptr, ptr %2, align 8, !tbaa !179
  %4 = call noundef nonnull align 8 dereferenceable(256) ptr @_ZSt12__get_helperILm0EN5kitty18static_truth_tableILj11ELb0EEEJSt5arrayIjLm11EEjEERT0_RSt11_Tuple_implIXT_EJS5_DpT1_EE(ptr noundef nonnull align 8 dereferenceable(304) %3) #3
  ret ptr %4
}

; Function Attrs: mustprogress nounwind uwtable
define linkonce_odr noundef nonnull align 4 dereferenceable(44) ptr @_ZSt3getILm1EJN5kitty18static_truth_tableILj11ELb0EEESt5arrayIjLm11EEjEERNSt13tuple_elementIXT_ESt5tupleIJDpT0_EEE4typeERS9_(ptr noundef nonnull align 8 dereferenceable(304) %0) #4 comdat {
  %2 = alloca ptr, align 8
  store ptr %0, ptr %2, align 8, !tbaa !179
  %3 = load ptr, ptr %2, align 8, !tbaa !179
  %4 = call noundef nonnull align 4 dereferenceable(44) ptr @_ZSt12__get_helperILm1ESt5arrayIjLm11EEJjEERT0_RSt11_Tuple_implIXT_EJS2_DpT1_EE(ptr noundef nonnull align 4 dereferenceable(48) %3) #3
  ret ptr %4
}

; Function Attrs: mustprogress nounwind uwtable
define linkonce_odr void @_ZNSt14_Function_baseD2Ev(ptr noundef nonnull align 8 dereferenceable(24) %0) unnamed_addr #4 comdat align 2 {
  %2 = alloca ptr, align 8
  store ptr %0, ptr %2, align 8, !tbaa !181
  %3 = load ptr, ptr %2, align 8
  %4 = getelementptr inbounds nuw %"class.std::_Function_base", ptr %3, i32 0, i32 1
  %5 = load ptr, ptr %4, align 8, !tbaa !174
  %6 = icmp ne ptr %5, null
  br i1 %6, label %7, label %13

7:                                                ; preds = %1
  %8 = getelementptr inbounds nuw %"class.std::_Function_base", ptr %3, i32 0, i32 1
  %9 = load ptr, ptr %8, align 8, !tbaa !174
  %10 = getelementptr inbounds nuw %"class.std::_Function_base", ptr %3, i32 0, i32 0
  %11 = getelementptr inbounds nuw %"class.std::_Function_base", ptr %3, i32 0, i32 0
  %12 = call noundef zeroext i1 %9(ptr noundef nonnull align 8 dereferenceable(16) %10, ptr noundef nonnull align 8 dereferenceable(16) %11, i32 noundef 3)
  br label %13

13:                                               ; preds = %7, %1
  ret void
}

; Function Attrs: nocallback nofree nounwind willreturn memory(argmem: write)
declare void @llvm.memset.p0.i64(ptr writeonly captures(none), i8, i64, i1 immarg) #10

; Function Attrs: mustprogress nounwind uwtable
define linkonce_odr void @_ZNSt14_Function_baseC2Ev(ptr noundef nonnull align 8 dereferenceable(24) %0) unnamed_addr #4 comdat align 2 {
  %2 = alloca ptr, align 8
  store ptr %0, ptr %2, align 8, !tbaa !181
  %3 = load ptr, ptr %2, align 8
  %4 = getelementptr inbounds nuw %"class.std::_Function_base", ptr %3, i32 0, i32 0
  store ptr null, ptr %4, align 8, !tbaa !83
  %5 = getelementptr inbounds nuw %"class.std::_Function_base", ptr %3, i32 0, i32 1
  store ptr null, ptr %5, align 8, !tbaa !174
  ret void
}

; Function Attrs: mustprogress nounwind uwtable
define linkonce_odr noundef zeroext i1 @_ZNSt14_Function_base13_Base_managerIZN3acd21ac_decomposition_impl18find_decompositionERjjEUlRKN5kitty18static_truth_tableILj11ELb0EEEE_E21_M_not_empty_functionIS9_EEbRKT_(ptr noundef nonnull align 8 dereferenceable(8) %0) #4 comdat align 2 {
  %2 = alloca ptr, align 8
  store ptr %0, ptr %2, align 8, !tbaa !167
  ret i1 true
}

; Function Attrs: mustprogress nounwind uwtable
define linkonce_odr void @_ZNSt14_Function_base13_Base_managerIZN3acd21ac_decomposition_impl18find_decompositionERjjEUlRKN5kitty18static_truth_tableILj11ELb0EEEE_E15_M_init_functorIS9_EEvRSt9_Any_dataOT_(ptr noundef nonnull align 8 dereferenceable(16) %0, ptr noundef nonnull align 8 dereferenceable(8) %1) #4 comdat align 2 {
  %3 = alloca ptr, align 8
  %4 = alloca ptr, align 8
  store ptr %0, ptr %3, align 8, !tbaa !183
  store ptr %1, ptr %4, align 8, !tbaa !167
  %5 = load ptr, ptr %3, align 8, !tbaa !183
  %6 = load ptr, ptr %4, align 8, !tbaa !167
  call void @_ZNSt14_Function_base13_Base_managerIZN3acd21ac_decomposition_impl18find_decompositionERjjEUlRKN5kitty18static_truth_tableILj11ELb0EEEE_E9_M_createIS9_EEvRSt9_Any_dataOT_St17integral_constantIbLb1EE(ptr noundef nonnull align 8 dereferenceable(16) %5, ptr noundef nonnull align 8 dereferenceable(8) %6)
  ret void
}

; Function Attrs: mustprogress nounwind uwtable
define linkonce_odr noundef i32 @_ZNSt17_Function_handlerIFjRKN5kitty18static_truth_tableILj11ELb0EEEEZN3acd21ac_decomposition_impl18find_decompositionERjjEUlS4_E_E9_M_invokeERKSt9_Any_dataS4_(ptr noundef nonnull align 8 dereferenceable(16) %0, ptr noundef nonnull align 8 dereferenceable(256) %1) #4 comdat align 2 {
  %3 = alloca ptr, align 8
  %4 = alloca ptr, align 8
  store ptr %0, ptr %3, align 8, !tbaa !183
  store ptr %1, ptr %4, align 8, !tbaa !90
  %5 = load ptr, ptr %3, align 8, !tbaa !183
  %6 = call noundef ptr @_ZNSt14_Function_base13_Base_managerIZN3acd21ac_decomposition_impl18find_decompositionERjjEUlRKN5kitty18static_truth_tableILj11ELb0EEEE_E14_M_get_pointerERKSt9_Any_data(ptr noundef nonnull align 8 dereferenceable(16) %5) #3
  %7 = load ptr, ptr %4, align 8, !tbaa !90
  %8 = call noundef i32 @_ZSt10__invoke_rIjRZN3acd21ac_decomposition_impl18find_decompositionERjjEUlRKN5kitty18static_truth_tableILj11ELb0EEEE_JS7_EENSt9enable_ifIX16is_invocable_r_vIT_T0_DpT1_EESB_E4typeEOSC_DpOSD_(ptr noundef nonnull align 8 dereferenceable(8) %6, ptr noundef nonnull align 8 dereferenceable(256) %7)
  ret i32 %8
}

; Function Attrs: mustprogress nounwind uwtable
define linkonce_odr noundef zeroext i1 @_ZNSt17_Function_handlerIFjRKN5kitty18static_truth_tableILj11ELb0EEEEZN3acd21ac_decomposition_impl18find_decompositionERjjEUlS4_E_E10_M_managerERSt9_Any_dataRKSB_St18_Manager_operation(ptr noundef nonnull align 8 dereferenceable(16) %0, ptr noundef nonnull align 8 dereferenceable(16) %1, i32 noundef %2) #4 comdat align 2 {
  %4 = alloca ptr, align 8
  %5 = alloca ptr, align 8
  %6 = alloca i32, align 4
  store ptr %0, ptr %4, align 8, !tbaa !183
  store ptr %1, ptr %5, align 8, !tbaa !183
  store i32 %2, ptr %6, align 4, !tbaa !185
  %7 = load i32, ptr %6, align 4, !tbaa !185
  switch i32 %7, label %16 [
    i32 0, label %8
    i32 1, label %11
  ]

8:                                                ; preds = %3
  %9 = load ptr, ptr %4, align 8, !tbaa !183
  %10 = call noundef nonnull align 8 dereferenceable(8) ptr @_ZNSt9_Any_data9_M_accessIPKSt9type_infoEERT_v(ptr noundef nonnull align 8 dereferenceable(16) %9) #3
  store ptr @_ZTIZN3acd21ac_decomposition_impl18find_decompositionERjjEUlRKN5kitty18static_truth_tableILj11ELb0EEEE_, ptr %10, align 8, !tbaa !187
  br label %21

11:                                               ; preds = %3
  %12 = load ptr, ptr %5, align 8, !tbaa !183
  %13 = call noundef ptr @_ZNSt14_Function_base13_Base_managerIZN3acd21ac_decomposition_impl18find_decompositionERjjEUlRKN5kitty18static_truth_tableILj11ELb0EEEE_E14_M_get_pointerERKSt9_Any_data(ptr noundef nonnull align 8 dereferenceable(16) %12) #3
  %14 = load ptr, ptr %4, align 8, !tbaa !183
  %15 = call noundef nonnull align 8 dereferenceable(8) ptr @_ZNSt9_Any_data9_M_accessIPZN3acd21ac_decomposition_impl18find_decompositionERjjEUlRKN5kitty18static_truth_tableILj11ELb0EEEE_EERT_v(ptr noundef nonnull align 8 dereferenceable(16) %14) #3
  store ptr %13, ptr %15, align 8, !tbaa !167
  br label %21

16:                                               ; preds = %3
  %17 = load ptr, ptr %4, align 8, !tbaa !183
  %18 = load ptr, ptr %5, align 8, !tbaa !183
  %19 = load i32, ptr %6, align 4, !tbaa !185
  %20 = call noundef zeroext i1 @_ZNSt14_Function_base13_Base_managerIZN3acd21ac_decomposition_impl18find_decompositionERjjEUlRKN5kitty18static_truth_tableILj11ELb0EEEE_E10_M_managerERSt9_Any_dataRKSB_St18_Manager_operation(ptr noundef nonnull align 8 dereferenceable(16) %17, ptr noundef nonnull align 8 dereferenceable(16) %18, i32 noundef %19)
  br label %21

21:                                               ; preds = %16, %11, %8
  ret i1 false
}

; Function Attrs: mustprogress nounwind uwtable
define linkonce_odr void @_ZNSt14_Function_base13_Base_managerIZN3acd21ac_decomposition_impl18find_decompositionERjjEUlRKN5kitty18static_truth_tableILj11ELb0EEEE_E9_M_createIS9_EEvRSt9_Any_dataOT_St17integral_constantIbLb1EE(ptr noundef nonnull align 8 dereferenceable(16) %0, ptr noundef nonnull align 8 dereferenceable(8) %1) #4 comdat align 2 {
  %3 = alloca ptr, align 8
  %4 = alloca ptr, align 8
  store ptr %0, ptr %3, align 8, !tbaa !183
  store ptr %1, ptr %4, align 8, !tbaa !167
  %5 = load ptr, ptr %3, align 8, !tbaa !183
  %6 = call noundef ptr @_ZNSt9_Any_data9_M_accessEv(ptr noundef nonnull align 8 dereferenceable(16) %5) #3
  %7 = load ptr, ptr %4, align 8, !tbaa !167
  call void @llvm.memcpy.p0.p0.i64(ptr align 8 %6, ptr align 8 %7, i64 8, i1 false), !tbaa.struct !189
  ret void
}

; Function Attrs: mustprogress nounwind uwtable
define linkonce_odr noundef ptr @_ZNSt9_Any_data9_M_accessEv(ptr noundef nonnull align 8 dereferenceable(16) %0) #4 comdat align 2 {
  %2 = alloca ptr, align 8
  store ptr %0, ptr %2, align 8, !tbaa !183
  %3 = load ptr, ptr %2, align 8
  %4 = getelementptr inbounds [16 x i8], ptr %3, i64 0, i64 0
  ret ptr %4
}

; Function Attrs: mustprogress nounwind uwtable
define linkonce_odr noundef i32 @_ZSt10__invoke_rIjRZN3acd21ac_decomposition_impl18find_decompositionERjjEUlRKN5kitty18static_truth_tableILj11ELb0EEEE_JS7_EENSt9enable_ifIX16is_invocable_r_vIT_T0_DpT1_EESB_E4typeEOSC_DpOSD_(ptr noundef nonnull align 8 dereferenceable(8) %0, ptr noundef nonnull align 8 dereferenceable(256) %1) #4 comdat {
  %3 = alloca ptr, align 8
  %4 = alloca ptr, align 8
  store ptr %0, ptr %3, align 8, !tbaa !167
  store ptr %1, ptr %4, align 8, !tbaa !90
  %5 = load ptr, ptr %3, align 8, !tbaa !167
  %6 = load ptr, ptr %4, align 8, !tbaa !90
  %7 = call noundef i32 @_ZSt13__invoke_implIjRZN3acd21ac_decomposition_impl18find_decompositionERjjEUlRKN5kitty18static_truth_tableILj11ELb0EEEE_JS7_EET_St14__invoke_otherOT0_DpOT1_(ptr noundef nonnull align 8 dereferenceable(8) %5, ptr noundef nonnull align 8 dereferenceable(256) %6)
  ret i32 %7
}

; Function Attrs: mustprogress nounwind uwtable
define linkonce_odr noundef ptr @_ZNSt14_Function_base13_Base_managerIZN3acd21ac_decomposition_impl18find_decompositionERjjEUlRKN5kitty18static_truth_tableILj11ELb0EEEE_E14_M_get_pointerERKSt9_Any_data(ptr noundef nonnull align 8 dereferenceable(16) %0) #4 comdat align 2 {
  %2 = alloca ptr, align 8
  %3 = alloca ptr, align 8
  store ptr %0, ptr %2, align 8, !tbaa !183
  call void @llvm.lifetime.start.p0(i64 8, ptr %3) #3
  %4 = load ptr, ptr %2, align 8, !tbaa !183
  %5 = call noundef nonnull align 8 dereferenceable(8) ptr @_ZNKSt9_Any_data9_M_accessIZN3acd21ac_decomposition_impl18find_decompositionERjjEUlRKN5kitty18static_truth_tableILj11ELb0EEEE_EERKT_v(ptr noundef nonnull align 8 dereferenceable(16) %4) #3
  store ptr %5, ptr %3, align 8, !tbaa !167
  %6 = load ptr, ptr %3, align 8, !tbaa !167
  call void @llvm.lifetime.end.p0(i64 8, ptr %3) #3
  ret ptr %6
}

; Function Attrs: mustprogress nounwind uwtable
define linkonce_odr noundef i32 @_ZSt13__invoke_implIjRZN3acd21ac_decomposition_impl18find_decompositionERjjEUlRKN5kitty18static_truth_tableILj11ELb0EEEE_JS7_EET_St14__invoke_otherOT0_DpOT1_(ptr noundef nonnull align 8 dereferenceable(8) %0, ptr noundef nonnull align 8 dereferenceable(256) %1) #4 comdat {
  %3 = alloca ptr, align 8
  %4 = alloca ptr, align 8
  store ptr %0, ptr %3, align 8, !tbaa !167
  store ptr %1, ptr %4, align 8, !tbaa !90
  %5 = load ptr, ptr %3, align 8, !tbaa !167
  %6 = load ptr, ptr %4, align 8, !tbaa !90
  %7 = call noundef i32 @_ZZN3acd21ac_decomposition_impl18find_decompositionERjjENKUlRKN5kitty18static_truth_tableILj11ELb0EEEE_clES6_(ptr noundef nonnull align 8 dereferenceable(8) %5, ptr noundef nonnull align 8 dereferenceable(256) %6)
  ret i32 %7
}

; Function Attrs: inlinehint mustprogress nounwind uwtable
define linkonce_odr noundef i32 @_ZZN3acd21ac_decomposition_impl18find_decompositionERjjENKUlRKN5kitty18static_truth_tableILj11ELb0EEEE_clES6_(ptr noundef nonnull align 8 dereferenceable(8) %0, ptr noundef nonnull align 8 dereferenceable(256) %1) #6 comdat align 2 {
  %3 = alloca ptr, align 8
  %4 = alloca ptr, align 8
  store ptr %0, ptr %3, align 8, !tbaa !167
  store ptr %1, ptr %4, align 8, !tbaa !90
  %5 = load ptr, ptr %3, align 8
  %6 = getelementptr inbounds nuw %class.anon.16, ptr %5, i32 0, i32 0
  %7 = load ptr, ptr %6, align 8, !tbaa !144
  %8 = load ptr, ptr %4, align 8, !tbaa !90
  %9 = call noundef i32 @_ZN3acd21ac_decomposition_impl19column_multiplicityILj1EEEjRKN5kitty18static_truth_tableILj11ELb0EEE(ptr noundef nonnull align 8 dereferenceable(500) %7, ptr noundef nonnull align 8 dereferenceable(256) %8)
  ret i32 %9
}

; Function Attrs: mustprogress nounwind uwtable
define linkonce_odr noundef i32 @_ZN3acd21ac_decomposition_impl19column_multiplicityILj1EEEjRKN5kitty18static_truth_tableILj11ELb0EEE(ptr noundef nonnull align 8 dereferenceable(500) %0, ptr noundef nonnull align 8 dereferenceable(256) %1) #4 comdat align 2 {
  %3 = alloca ptr, align 8
  %4 = alloca ptr, align 8
  %5 = alloca [4 x i64], align 16
  %6 = alloca i32, align 4
  %7 = alloca i32, align 4
  %8 = alloca [4 x i64], align 16
  %9 = alloca [4 x i64], align 16
  %10 = alloca i32, align 4
  %11 = alloca i32, align 4
  %12 = alloca i64, align 8
  %13 = alloca i32, align 4
  store ptr %0, ptr %3, align 8, !tbaa !27
  store ptr %1, ptr %4, align 8, !tbaa !90
  %14 = load ptr, ptr %3, align 8
  call void @llvm.lifetime.start.p0(i64 32, ptr %5) #3
  call void @llvm.memset.p0.i64(ptr align 16 %5, i8 0, i64 32, i1 false)
  call void @llvm.lifetime.start.p0(i64 4, ptr %6) #3
  store i32 0, ptr %6, align 4, !tbaa !8
  call void @llvm.lifetime.start.p0(i64 4, ptr %7) #3
  %15 = getelementptr inbounds nuw %"class.acd::ac_decomposition_impl", ptr %14, i32 0, i32 10
  %16 = load i32, ptr %15, align 8, !tbaa !54
  %17 = icmp ugt i32 %16, 6
  br i1 %17, label %18, label %23

18:                                               ; preds = %2
  %19 = getelementptr inbounds nuw %"class.acd::ac_decomposition_impl", ptr %14, i32 0, i32 10
  %20 = load i32, ptr %19, align 8, !tbaa !54
  %21 = sub i32 %20, 6
  %22 = shl i32 1, %21
  br label %24

23:                                               ; preds = %2
  br label %24

24:                                               ; preds = %23, %18
  %25 = phi i32 [ %22, %18 ], [ 1, %23 ]
  store i32 %25, ptr %7, align 4, !tbaa !8
  call void @llvm.lifetime.start.p0(i64 32, ptr %8) #3
  call void @llvm.memcpy.p0.p0.i64(ptr align 16 %8, ptr align 16 @__const._ZN3acd21ac_decomposition_impl19column_multiplicityILj1EEEjRKN5kitty18static_truth_tableILj11ELb0EEE.masks_bits, i64 32, i1 false)
  call void @llvm.lifetime.start.p0(i64 32, ptr %9) #3
  call void @llvm.memcpy.p0.p0.i64(ptr align 16 %9, ptr align 16 @__const._ZN3acd21ac_decomposition_impl19column_multiplicityILj1EEEjRKN5kitty18static_truth_tableILj11ELb0EEE.masks_idx, i64 32, i1 false)
  call void @llvm.lifetime.start.p0(i64 4, ptr %10) #3
  store i32 0, ptr %10, align 4, !tbaa !8
  br label %26

26:                                               ; preds = %62, %24
  %27 = load i32, ptr %10, align 4, !tbaa !8
  %28 = load i32, ptr %7, align 4, !tbaa !8
  %29 = icmp ult i32 %27, %28
  br i1 %29, label %31, label %30

30:                                               ; preds = %26
  store i32 2, ptr %11, align 4
  call void @llvm.lifetime.end.p0(i64 4, ptr %10) #3
  br label %65

31:                                               ; preds = %26
  call void @llvm.lifetime.start.p0(i64 8, ptr %12) #3
  %32 = load ptr, ptr %4, align 8, !tbaa !90
  %33 = getelementptr inbounds nuw %"struct.kitty::static_truth_table", ptr %32, i32 0, i32 0
  %34 = load i32, ptr %10, align 4, !tbaa !8
  %35 = zext i32 %34 to i64
  %36 = call noundef nonnull align 8 dereferenceable(8) ptr @_ZNKSt5arrayImLm32EEixEm(ptr noundef nonnull align 8 dereferenceable(256) %33, i64 noundef %35) #3
  %37 = load i64, ptr %36, align 8, !tbaa !91
  store i64 %37, ptr %12, align 8, !tbaa !91
  call void @llvm.lifetime.start.p0(i64 4, ptr %13) #3
  store i32 0, ptr %13, align 4, !tbaa !8
  br label %38

38:                                               ; preds = %58, %31
  %39 = load i32, ptr %13, align 4, !tbaa !8
  %40 = icmp slt i32 %39, 32
  br i1 %40, label %42, label %41

41:                                               ; preds = %38
  store i32 5, ptr %11, align 4
  call void @llvm.lifetime.end.p0(i64 4, ptr %13) #3
  br label %61

42:                                               ; preds = %38
  %43 = load i64, ptr %12, align 8, !tbaa !91
  %44 = getelementptr inbounds nuw [4 x i64], ptr %8, i64 0, i64 1
  %45 = load i64, ptr %44, align 8, !tbaa !91
  %46 = and i64 %43, %45
  %47 = shl i64 1, %46
  %48 = load i64, ptr %12, align 8, !tbaa !91
  %49 = lshr i64 %48, 6
  %50 = getelementptr inbounds nuw [4 x i64], ptr %9, i64 0, i64 1
  %51 = load i64, ptr %50, align 8, !tbaa !91
  %52 = and i64 %49, %51
  %53 = getelementptr inbounds nuw [4 x i64], ptr %5, i64 0, i64 %52
  %54 = load i64, ptr %53, align 8, !tbaa !91
  %55 = or i64 %54, %47
  store i64 %55, ptr %53, align 8, !tbaa !91
  %56 = load i64, ptr %12, align 8, !tbaa !91
  %57 = lshr i64 %56, 2
  store i64 %57, ptr %12, align 8, !tbaa !91
  br label %58

58:                                               ; preds = %42
  %59 = load i32, ptr %13, align 4, !tbaa !8
  %60 = add nsw i32 %59, 1
  store i32 %60, ptr %13, align 4, !tbaa !8
  br label %38, !llvm.loop !190

61:                                               ; preds = %41
  call void @llvm.lifetime.end.p0(i64 8, ptr %12) #3
  br label %62

62:                                               ; preds = %61
  %63 = load i32, ptr %10, align 4, !tbaa !8
  %64 = add i32 %63, 1
  store i32 %64, ptr %10, align 4, !tbaa !8
  br label %26, !llvm.loop !191

65:                                               ; preds = %30
  %66 = getelementptr inbounds [4 x i64], ptr %5, i64 0, i64 0
  %67 = load i64, ptr %66, align 16, !tbaa !91
  %68 = call i64 @llvm.ctpop.i64(i64 %67)
  %69 = trunc i64 %68 to i32
  store i32 %69, ptr %6, align 4, !tbaa !8
  %70 = load i32, ptr %6, align 4, !tbaa !8
  store i32 1, ptr %11, align 4
  call void @llvm.lifetime.end.p0(i64 32, ptr %9) #3
  call void @llvm.lifetime.end.p0(i64 32, ptr %8) #3
  call void @llvm.lifetime.end.p0(i64 4, ptr %7) #3
  call void @llvm.lifetime.end.p0(i64 4, ptr %6) #3
  call void @llvm.lifetime.end.p0(i64 32, ptr %5) #3
  ret i32 %70
}

; Function Attrs: mustprogress nounwind uwtable
define linkonce_odr noundef nonnull align 8 dereferenceable(8) ptr @_ZNKSt5arrayImLm32EEixEm(ptr noundef nonnull align 8 dereferenceable(256) %0, i64 noundef %1) #4 comdat align 2 {
  %3 = alloca ptr, align 8
  %4 = alloca i64, align 8
  store ptr %0, ptr %3, align 8, !tbaa !104
  store i64 %1, ptr %4, align 8, !tbaa !91
  %5 = load ptr, ptr %3, align 8
  %6 = getelementptr inbounds nuw %"struct.std::array", ptr %5, i32 0, i32 0
  %7 = load i64, ptr %4, align 8, !tbaa !91
  %8 = call noundef nonnull align 8 dereferenceable(8) ptr @_ZNSt14__array_traitsImLm32EE6_S_refERA32_Kmm(ptr noundef nonnull align 8 dereferenceable(256) %6, i64 noundef %7) #3
  ret ptr %8
}

; Function Attrs: nocallback nofree nosync nounwind speculatable willreturn memory(none)
declare i64 @llvm.ctpop.i64(i64) #9

; Function Attrs: mustprogress nounwind uwtable
define linkonce_odr noundef nonnull align 8 dereferenceable(8) ptr @_ZNKSt9_Any_data9_M_accessIZN3acd21ac_decomposition_impl18find_decompositionERjjEUlRKN5kitty18static_truth_tableILj11ELb0EEEE_EERKT_v(ptr noundef nonnull align 8 dereferenceable(16) %0) #4 comdat align 2 {
  %2 = alloca ptr, align 8
  store ptr %0, ptr %2, align 8, !tbaa !183
  %3 = load ptr, ptr %2, align 8
  %4 = call noundef ptr @_ZNKSt9_Any_data9_M_accessEv(ptr noundef nonnull align 8 dereferenceable(16) %3) #3
  ret ptr %4
}

; Function Attrs: mustprogress nounwind uwtable
define linkonce_odr noundef ptr @_ZNKSt9_Any_data9_M_accessEv(ptr noundef nonnull align 8 dereferenceable(16) %0) #4 comdat align 2 {
  %2 = alloca ptr, align 8
  store ptr %0, ptr %2, align 8, !tbaa !183
  %3 = load ptr, ptr %2, align 8
  %4 = getelementptr inbounds [16 x i8], ptr %3, i64 0, i64 0
  ret ptr %4
}

; Function Attrs: mustprogress nounwind uwtable
define linkonce_odr noundef nonnull align 8 dereferenceable(8) ptr @_ZNSt9_Any_data9_M_accessIPKSt9type_infoEERT_v(ptr noundef nonnull align 8 dereferenceable(16) %0) #4 comdat align 2 {
  %2 = alloca ptr, align 8
  store ptr %0, ptr %2, align 8, !tbaa !183
  %3 = load ptr, ptr %2, align 8
  %4 = call noundef ptr @_ZNSt9_Any_data9_M_accessEv(ptr noundef nonnull align 8 dereferenceable(16) %3) #3
  ret ptr %4
}

; Function Attrs: mustprogress nounwind uwtable
define linkonce_odr noundef nonnull align 8 dereferenceable(8) ptr @_ZNSt9_Any_data9_M_accessIPZN3acd21ac_decomposition_impl18find_decompositionERjjEUlRKN5kitty18static_truth_tableILj11ELb0EEEE_EERT_v(ptr noundef nonnull align 8 dereferenceable(16) %0) #4 comdat align 2 {
  %2 = alloca ptr, align 8
  store ptr %0, ptr %2, align 8, !tbaa !183
  %3 = load ptr, ptr %2, align 8
  %4 = call noundef ptr @_ZNSt9_Any_data9_M_accessEv(ptr noundef nonnull align 8 dereferenceable(16) %3) #3
  ret ptr %4
}

; Function Attrs: mustprogress nounwind uwtable
define linkonce_odr noundef zeroext i1 @_ZNSt14_Function_base13_Base_managerIZN3acd21ac_decomposition_impl18find_decompositionERjjEUlRKN5kitty18static_truth_tableILj11ELb0EEEE_E10_M_managerERSt9_Any_dataRKSB_St18_Manager_operation(ptr noundef nonnull align 8 dereferenceable(16) %0, ptr noundef nonnull align 8 dereferenceable(16) %1, i32 noundef %2) #4 comdat align 2 {
  %4 = alloca ptr, align 8
  %5 = alloca ptr, align 8
  %6 = alloca i32, align 4
  store ptr %0, ptr %4, align 8, !tbaa !183
  store ptr %1, ptr %5, align 8, !tbaa !183
  store i32 %2, ptr %6, align 4, !tbaa !185
  %7 = load i32, ptr %6, align 4, !tbaa !185
  switch i32 %7, label %22 [
    i32 0, label %8
    i32 1, label %11
    i32 2, label %16
    i32 3, label %20
  ]

8:                                                ; preds = %3
  %9 = load ptr, ptr %4, align 8, !tbaa !183
  %10 = call noundef nonnull align 8 dereferenceable(8) ptr @_ZNSt9_Any_data9_M_accessIPKSt9type_infoEERT_v(ptr noundef nonnull align 8 dereferenceable(16) %9) #3
  store ptr @_ZTIZN3acd21ac_decomposition_impl18find_decompositionERjjEUlRKN5kitty18static_truth_tableILj11ELb0EEEE_, ptr %10, align 8, !tbaa !187
  br label %22

11:                                               ; preds = %3
  %12 = load ptr, ptr %5, align 8, !tbaa !183
  %13 = call noundef ptr @_ZNSt14_Function_base13_Base_managerIZN3acd21ac_decomposition_impl18find_decompositionERjjEUlRKN5kitty18static_truth_tableILj11ELb0EEEE_E14_M_get_pointerERKSt9_Any_data(ptr noundef nonnull align 8 dereferenceable(16) %12) #3
  %14 = load ptr, ptr %4, align 8, !tbaa !183
  %15 = call noundef nonnull align 8 dereferenceable(8) ptr @_ZNSt9_Any_data9_M_accessIPZN3acd21ac_decomposition_impl18find_decompositionERjjEUlRKN5kitty18static_truth_tableILj11ELb0EEEE_EERT_v(ptr noundef nonnull align 8 dereferenceable(16) %14) #3
  store ptr %13, ptr %15, align 8, !tbaa !167
  br label %22

16:                                               ; preds = %3
  %17 = load ptr, ptr %4, align 8, !tbaa !183
  %18 = load ptr, ptr %5, align 8, !tbaa !183
  %19 = call noundef ptr @_ZNSt14_Function_base13_Base_managerIZN3acd21ac_decomposition_impl18find_decompositionERjjEUlRKN5kitty18static_truth_tableILj11ELb0EEEE_E14_M_get_pointerERKSt9_Any_data(ptr noundef nonnull align 8 dereferenceable(16) %18) #3
  call void @_ZNSt14_Function_base13_Base_managerIZN3acd21ac_decomposition_impl18find_decompositionERjjEUlRKN5kitty18static_truth_tableILj11ELb0EEEE_E15_M_init_functorIRKS9_EEvRSt9_Any_dataOT_(ptr noundef nonnull align 8 dereferenceable(16) %17, ptr noundef nonnull align 8 dereferenceable(8) %19) #3
  br label %22

20:                                               ; preds = %3
  %21 = load ptr, ptr %4, align 8, !tbaa !183
  call void @_ZNSt14_Function_base13_Base_managerIZN3acd21ac_decomposition_impl18find_decompositionERjjEUlRKN5kitty18static_truth_tableILj11ELb0EEEE_E10_M_destroyERSt9_Any_dataSt17integral_constantIbLb1EE(ptr noundef nonnull align 8 dereferenceable(16) %21)
  br label %22

22:                                               ; preds = %3, %20, %16, %11, %8
  ret i1 false
}

; Function Attrs: mustprogress nounwind uwtable
define linkonce_odr void @_ZNSt14_Function_base13_Base_managerIZN3acd21ac_decomposition_impl18find_decompositionERjjEUlRKN5kitty18static_truth_tableILj11ELb0EEEE_E15_M_init_functorIRKS9_EEvRSt9_Any_dataOT_(ptr noundef nonnull align 8 dereferenceable(16) %0, ptr noundef nonnull align 8 dereferenceable(8) %1) #4 comdat align 2 {
  %3 = alloca ptr, align 8
  %4 = alloca ptr, align 8
  store ptr %0, ptr %3, align 8, !tbaa !183
  store ptr %1, ptr %4, align 8, !tbaa !167
  %5 = load ptr, ptr %3, align 8, !tbaa !183
  %6 = load ptr, ptr %4, align 8, !tbaa !167
  call void @_ZNSt14_Function_base13_Base_managerIZN3acd21ac_decomposition_impl18find_decompositionERjjEUlRKN5kitty18static_truth_tableILj11ELb0EEEE_E9_M_createIRKS9_EEvRSt9_Any_dataOT_St17integral_constantIbLb1EE(ptr noundef nonnull align 8 dereferenceable(16) %5, ptr noundef nonnull align 8 dereferenceable(8) %6)
  ret void
}

; Function Attrs: mustprogress nounwind uwtable
define linkonce_odr void @_ZNSt14_Function_base13_Base_managerIZN3acd21ac_decomposition_impl18find_decompositionERjjEUlRKN5kitty18static_truth_tableILj11ELb0EEEE_E10_M_destroyERSt9_Any_dataSt17integral_constantIbLb1EE(ptr noundef nonnull align 8 dereferenceable(16) %0) #4 comdat align 2 {
  %2 = alloca ptr, align 8
  store ptr %0, ptr %2, align 8, !tbaa !183
  %3 = load ptr, ptr %2, align 8, !tbaa !183
  %4 = call noundef nonnull align 8 dereferenceable(8) ptr @_ZNSt9_Any_data9_M_accessIZN3acd21ac_decomposition_impl18find_decompositionERjjEUlRKN5kitty18static_truth_tableILj11ELb0EEEE_EERT_v(ptr noundef nonnull align 8 dereferenceable(16) %3) #3
  ret void
}

; Function Attrs: mustprogress nounwind uwtable
define linkonce_odr void @_ZNSt14_Function_base13_Base_managerIZN3acd21ac_decomposition_impl18find_decompositionERjjEUlRKN5kitty18static_truth_tableILj11ELb0EEEE_E9_M_createIRKS9_EEvRSt9_Any_dataOT_St17integral_constantIbLb1EE(ptr noundef nonnull align 8 dereferenceable(16) %0, ptr noundef nonnull align 8 dereferenceable(8) %1) #4 comdat align 2 {
  %3 = alloca ptr, align 8
  %4 = alloca ptr, align 8
  store ptr %0, ptr %3, align 8, !tbaa !183
  store ptr %1, ptr %4, align 8, !tbaa !167
  %5 = load ptr, ptr %3, align 8, !tbaa !183
  %6 = call noundef ptr @_ZNSt9_Any_data9_M_accessEv(ptr noundef nonnull align 8 dereferenceable(16) %5) #3
  %7 = load ptr, ptr %4, align 8, !tbaa !167
  call void @llvm.memcpy.p0.p0.i64(ptr align 8 %6, ptr align 8 %7, i64 8, i1 false), !tbaa.struct !189
  ret void
}

; Function Attrs: mustprogress nounwind uwtable
define linkonce_odr noundef nonnull align 8 dereferenceable(8) ptr @_ZNSt9_Any_data9_M_accessIZN3acd21ac_decomposition_impl18find_decompositionERjjEUlRKN5kitty18static_truth_tableILj11ELb0EEEE_EERT_v(ptr noundef nonnull align 8 dereferenceable(16) %0) #4 comdat align 2 {
  %2 = alloca ptr, align 8
  store ptr %0, ptr %2, align 8, !tbaa !183
  %3 = load ptr, ptr %2, align 8
  %4 = call noundef ptr @_ZNSt9_Any_data9_M_accessEv(ptr noundef nonnull align 8 dereferenceable(16) %3) #3
  ret ptr %4
}

; Function Attrs: mustprogress nounwind uwtable
define linkonce_odr noundef zeroext i1 @_ZNSt14_Function_base13_Base_managerIZN3acd21ac_decomposition_impl18find_decompositionERjjEUlRKN5kitty18static_truth_tableILj11ELb0EEEE0_E21_M_not_empty_functionIS9_EEbRKT_(ptr noundef nonnull align 8 dereferenceable(8) %0) #4 comdat align 2 {
  %2 = alloca ptr, align 8
  store ptr %0, ptr %2, align 8, !tbaa !167
  ret i1 true
}

; Function Attrs: mustprogress nounwind uwtable
define linkonce_odr void @_ZNSt14_Function_base13_Base_managerIZN3acd21ac_decomposition_impl18find_decompositionERjjEUlRKN5kitty18static_truth_tableILj11ELb0EEEE0_E15_M_init_functorIS9_EEvRSt9_Any_dataOT_(ptr noundef nonnull align 8 dereferenceable(16) %0, ptr noundef nonnull align 8 dereferenceable(8) %1) #4 comdat align 2 {
  %3 = alloca ptr, align 8
  %4 = alloca ptr, align 8
  store ptr %0, ptr %3, align 8, !tbaa !183
  store ptr %1, ptr %4, align 8, !tbaa !167
  %5 = load ptr, ptr %3, align 8, !tbaa !183
  %6 = load ptr, ptr %4, align 8, !tbaa !167
  call void @_ZNSt14_Function_base13_Base_managerIZN3acd21ac_decomposition_impl18find_decompositionERjjEUlRKN5kitty18static_truth_tableILj11ELb0EEEE0_E9_M_createIS9_EEvRSt9_Any_dataOT_St17integral_constantIbLb1EE(ptr noundef nonnull align 8 dereferenceable(16) %5, ptr noundef nonnull align 8 dereferenceable(8) %6)
  ret void
}

; Function Attrs: mustprogress nounwind uwtable
define linkonce_odr noundef i32 @_ZNSt17_Function_handlerIFjRKN5kitty18static_truth_tableILj11ELb0EEEEZN3acd21ac_decomposition_impl18find_decompositionERjjEUlS4_E0_E9_M_invokeERKSt9_Any_dataS4_(ptr noundef nonnull align 8 dereferenceable(16) %0, ptr noundef nonnull align 8 dereferenceable(256) %1) #4 comdat align 2 {
  %3 = alloca ptr, align 8
  %4 = alloca ptr, align 8
  store ptr %0, ptr %3, align 8, !tbaa !183
  store ptr %1, ptr %4, align 8, !tbaa !90
  %5 = load ptr, ptr %3, align 8, !tbaa !183
  %6 = call noundef ptr @_ZNSt14_Function_base13_Base_managerIZN3acd21ac_decomposition_impl18find_decompositionERjjEUlRKN5kitty18static_truth_tableILj11ELb0EEEE0_E14_M_get_pointerERKSt9_Any_data(ptr noundef nonnull align 8 dereferenceable(16) %5) #3
  %7 = load ptr, ptr %4, align 8, !tbaa !90
  %8 = call noundef i32 @_ZSt10__invoke_rIjRZN3acd21ac_decomposition_impl18find_decompositionERjjEUlRKN5kitty18static_truth_tableILj11ELb0EEEE0_JS7_EENSt9enable_ifIX16is_invocable_r_vIT_T0_DpT1_EESB_E4typeEOSC_DpOSD_(ptr noundef nonnull align 8 dereferenceable(8) %6, ptr noundef nonnull align 8 dereferenceable(256) %7)
  ret i32 %8
}

; Function Attrs: mustprogress nounwind uwtable
define linkonce_odr noundef zeroext i1 @_ZNSt17_Function_handlerIFjRKN5kitty18static_truth_tableILj11ELb0EEEEZN3acd21ac_decomposition_impl18find_decompositionERjjEUlS4_E0_E10_M_managerERSt9_Any_dataRKSB_St18_Manager_operation(ptr noundef nonnull align 8 dereferenceable(16) %0, ptr noundef nonnull align 8 dereferenceable(16) %1, i32 noundef %2) #4 comdat align 2 {
  %4 = alloca ptr, align 8
  %5 = alloca ptr, align 8
  %6 = alloca i32, align 4
  store ptr %0, ptr %4, align 8, !tbaa !183
  store ptr %1, ptr %5, align 8, !tbaa !183
  store i32 %2, ptr %6, align 4, !tbaa !185
  %7 = load i32, ptr %6, align 4, !tbaa !185
  switch i32 %7, label %16 [
    i32 0, label %8
    i32 1, label %11
  ]

8:                                                ; preds = %3
  %9 = load ptr, ptr %4, align 8, !tbaa !183
  %10 = call noundef nonnull align 8 dereferenceable(8) ptr @_ZNSt9_Any_data9_M_accessIPKSt9type_infoEERT_v(ptr noundef nonnull align 8 dereferenceable(16) %9) #3
  store ptr @_ZTIZN3acd21ac_decomposition_impl18find_decompositionERjjEUlRKN5kitty18static_truth_tableILj11ELb0EEEE0_, ptr %10, align 8, !tbaa !187
  br label %21

11:                                               ; preds = %3
  %12 = load ptr, ptr %5, align 8, !tbaa !183
  %13 = call noundef ptr @_ZNSt14_Function_base13_Base_managerIZN3acd21ac_decomposition_impl18find_decompositionERjjEUlRKN5kitty18static_truth_tableILj11ELb0EEEE0_E14_M_get_pointerERKSt9_Any_data(ptr noundef nonnull align 8 dereferenceable(16) %12) #3
  %14 = load ptr, ptr %4, align 8, !tbaa !183
  %15 = call noundef nonnull align 8 dereferenceable(8) ptr @_ZNSt9_Any_data9_M_accessIPZN3acd21ac_decomposition_impl18find_decompositionERjjEUlRKN5kitty18static_truth_tableILj11ELb0EEEE0_EERT_v(ptr noundef nonnull align 8 dereferenceable(16) %14) #3
  store ptr %13, ptr %15, align 8, !tbaa !167
  br label %21

16:                                               ; preds = %3
  %17 = load ptr, ptr %4, align 8, !tbaa !183
  %18 = load ptr, ptr %5, align 8, !tbaa !183
  %19 = load i32, ptr %6, align 4, !tbaa !185
  %20 = call noundef zeroext i1 @_ZNSt14_Function_base13_Base_managerIZN3acd21ac_decomposition_impl18find_decompositionERjjEUlRKN5kitty18static_truth_tableILj11ELb0EEEE0_E10_M_managerERSt9_Any_dataRKSB_St18_Manager_operation(ptr noundef nonnull align 8 dereferenceable(16) %17, ptr noundef nonnull align 8 dereferenceable(16) %18, i32 noundef %19)
  br label %21

21:                                               ; preds = %16, %11, %8
  ret i1 false
}

; Function Attrs: mustprogress nounwind uwtable
define linkonce_odr void @_ZNSt14_Function_base13_Base_managerIZN3acd21ac_decomposition_impl18find_decompositionERjjEUlRKN5kitty18static_truth_tableILj11ELb0EEEE0_E9_M_createIS9_EEvRSt9_Any_dataOT_St17integral_constantIbLb1EE(ptr noundef nonnull align 8 dereferenceable(16) %0, ptr noundef nonnull align 8 dereferenceable(8) %1) #4 comdat align 2 {
  %3 = alloca ptr, align 8
  %4 = alloca ptr, align 8
  store ptr %0, ptr %3, align 8, !tbaa !183
  store ptr %1, ptr %4, align 8, !tbaa !167
  %5 = load ptr, ptr %3, align 8, !tbaa !183
  %6 = call noundef ptr @_ZNSt9_Any_data9_M_accessEv(ptr noundef nonnull align 8 dereferenceable(16) %5) #3
  %7 = load ptr, ptr %4, align 8, !tbaa !167
  call void @llvm.memcpy.p0.p0.i64(ptr align 8 %6, ptr align 8 %7, i64 8, i1 false), !tbaa.struct !189
  ret void
}

; Function Attrs: mustprogress nounwind uwtable
define linkonce_odr noundef i32 @_ZSt10__invoke_rIjRZN3acd21ac_decomposition_impl18find_decompositionERjjEUlRKN5kitty18static_truth_tableILj11ELb0EEEE0_JS7_EENSt9enable_ifIX16is_invocable_r_vIT_T0_DpT1_EESB_E4typeEOSC_DpOSD_(ptr noundef nonnull align 8 dereferenceable(8) %0, ptr noundef nonnull align 8 dereferenceable(256) %1) #4 comdat {
  %3 = alloca ptr, align 8
  %4 = alloca ptr, align 8
  store ptr %0, ptr %3, align 8, !tbaa !167
  store ptr %1, ptr %4, align 8, !tbaa !90
  %5 = load ptr, ptr %3, align 8, !tbaa !167
  %6 = load ptr, ptr %4, align 8, !tbaa !90
  %7 = call noundef i32 @_ZSt13__invoke_implIjRZN3acd21ac_decomposition_impl18find_decompositionERjjEUlRKN5kitty18static_truth_tableILj11ELb0EEEE0_JS7_EET_St14__invoke_otherOT0_DpOT1_(ptr noundef nonnull align 8 dereferenceable(8) %5, ptr noundef nonnull align 8 dereferenceable(256) %6)
  ret i32 %7
}

; Function Attrs: mustprogress nounwind uwtable
define linkonce_odr noundef ptr @_ZNSt14_Function_base13_Base_managerIZN3acd21ac_decomposition_impl18find_decompositionERjjEUlRKN5kitty18static_truth_tableILj11ELb0EEEE0_E14_M_get_pointerERKSt9_Any_data(ptr noundef nonnull align 8 dereferenceable(16) %0) #4 comdat align 2 {
  %2 = alloca ptr, align 8
  %3 = alloca ptr, align 8
  store ptr %0, ptr %2, align 8, !tbaa !183
  call void @llvm.lifetime.start.p0(i64 8, ptr %3) #3
  %4 = load ptr, ptr %2, align 8, !tbaa !183
  %5 = call noundef nonnull align 8 dereferenceable(8) ptr @_ZNKSt9_Any_data9_M_accessIZN3acd21ac_decomposition_impl18find_decompositionERjjEUlRKN5kitty18static_truth_tableILj11ELb0EEEE0_EERKT_v(ptr noundef nonnull align 8 dereferenceable(16) %4) #3
  store ptr %5, ptr %3, align 8, !tbaa !167
  %6 = load ptr, ptr %3, align 8, !tbaa !167
  call void @llvm.lifetime.end.p0(i64 8, ptr %3) #3
  ret ptr %6
}

; Function Attrs: mustprogress nounwind uwtable
define linkonce_odr noundef i32 @_ZSt13__invoke_implIjRZN3acd21ac_decomposition_impl18find_decompositionERjjEUlRKN5kitty18static_truth_tableILj11ELb0EEEE0_JS7_EET_St14__invoke_otherOT0_DpOT1_(ptr noundef nonnull align 8 dereferenceable(8) %0, ptr noundef nonnull align 8 dereferenceable(256) %1) #4 comdat {
  %3 = alloca ptr, align 8
  %4 = alloca ptr, align 8
  store ptr %0, ptr %3, align 8, !tbaa !167
  store ptr %1, ptr %4, align 8, !tbaa !90
  %5 = load ptr, ptr %3, align 8, !tbaa !167
  %6 = load ptr, ptr %4, align 8, !tbaa !90
  %7 = call noundef i32 @_ZZN3acd21ac_decomposition_impl18find_decompositionERjjENKUlRKN5kitty18static_truth_tableILj11ELb0EEEE0_clES6_(ptr noundef nonnull align 8 dereferenceable(8) %5, ptr noundef nonnull align 8 dereferenceable(256) %6)
  ret i32 %7
}

; Function Attrs: inlinehint mustprogress nounwind uwtable
define linkonce_odr noundef i32 @_ZZN3acd21ac_decomposition_impl18find_decompositionERjjENKUlRKN5kitty18static_truth_tableILj11ELb0EEEE0_clES6_(ptr noundef nonnull align 8 dereferenceable(8) %0, ptr noundef nonnull align 8 dereferenceable(256) %1) #6 comdat align 2 {
  %3 = alloca ptr, align 8
  %4 = alloca ptr, align 8
  store ptr %0, ptr %3, align 8, !tbaa !167
  store ptr %1, ptr %4, align 8, !tbaa !90
  %5 = load ptr, ptr %3, align 8
  %6 = getelementptr inbounds nuw %class.anon.17, ptr %5, i32 0, i32 0
  %7 = load ptr, ptr %6, align 8, !tbaa !146
  %8 = load ptr, ptr %4, align 8, !tbaa !90
  %9 = call noundef i32 @_ZN3acd21ac_decomposition_impl19column_multiplicityILj2EEEjRKN5kitty18static_truth_tableILj11ELb0EEE(ptr noundef nonnull align 8 dereferenceable(500) %7, ptr noundef nonnull align 8 dereferenceable(256) %8)
  ret i32 %9
}

; Function Attrs: mustprogress nounwind uwtable
define linkonce_odr noundef i32 @_ZN3acd21ac_decomposition_impl19column_multiplicityILj2EEEjRKN5kitty18static_truth_tableILj11ELb0EEE(ptr noundef nonnull align 8 dereferenceable(500) %0, ptr noundef nonnull align 8 dereferenceable(256) %1) #4 comdat align 2 {
  %3 = alloca ptr, align 8
  %4 = alloca ptr, align 8
  %5 = alloca [4 x i64], align 16
  %6 = alloca i32, align 4
  %7 = alloca i32, align 4
  %8 = alloca [4 x i64], align 16
  %9 = alloca [4 x i64], align 16
  %10 = alloca i32, align 4
  %11 = alloca i32, align 4
  %12 = alloca i64, align 8
  %13 = alloca i32, align 4
  store ptr %0, ptr %3, align 8, !tbaa !27
  store ptr %1, ptr %4, align 8, !tbaa !90
  %14 = load ptr, ptr %3, align 8
  call void @llvm.lifetime.start.p0(i64 32, ptr %5) #3
  call void @llvm.memset.p0.i64(ptr align 16 %5, i8 0, i64 32, i1 false)
  call void @llvm.lifetime.start.p0(i64 4, ptr %6) #3
  store i32 0, ptr %6, align 4, !tbaa !8
  call void @llvm.lifetime.start.p0(i64 4, ptr %7) #3
  %15 = getelementptr inbounds nuw %"class.acd::ac_decomposition_impl", ptr %14, i32 0, i32 10
  %16 = load i32, ptr %15, align 8, !tbaa !54
  %17 = icmp ugt i32 %16, 6
  br i1 %17, label %18, label %23

18:                                               ; preds = %2
  %19 = getelementptr inbounds nuw %"class.acd::ac_decomposition_impl", ptr %14, i32 0, i32 10
  %20 = load i32, ptr %19, align 8, !tbaa !54
  %21 = sub i32 %20, 6
  %22 = shl i32 1, %21
  br label %24

23:                                               ; preds = %2
  br label %24

24:                                               ; preds = %23, %18
  %25 = phi i32 [ %22, %18 ], [ 1, %23 ]
  store i32 %25, ptr %7, align 4, !tbaa !8
  call void @llvm.lifetime.start.p0(i64 32, ptr %8) #3
  call void @llvm.memcpy.p0.p0.i64(ptr align 16 %8, ptr align 16 @__const._ZN3acd21ac_decomposition_impl19column_multiplicityILj2EEEjRKN5kitty18static_truth_tableILj11ELb0EEE.masks_bits, i64 32, i1 false)
  call void @llvm.lifetime.start.p0(i64 32, ptr %9) #3
  call void @llvm.memcpy.p0.p0.i64(ptr align 16 %9, ptr align 16 @__const._ZN3acd21ac_decomposition_impl19column_multiplicityILj2EEEjRKN5kitty18static_truth_tableILj11ELb0EEE.masks_idx, i64 32, i1 false)
  call void @llvm.lifetime.start.p0(i64 4, ptr %10) #3
  store i32 0, ptr %10, align 4, !tbaa !8
  br label %26

26:                                               ; preds = %62, %24
  %27 = load i32, ptr %10, align 4, !tbaa !8
  %28 = load i32, ptr %7, align 4, !tbaa !8
  %29 = icmp ult i32 %27, %28
  br i1 %29, label %31, label %30

30:                                               ; preds = %26
  store i32 2, ptr %11, align 4
  call void @llvm.lifetime.end.p0(i64 4, ptr %10) #3
  br label %65

31:                                               ; preds = %26
  call void @llvm.lifetime.start.p0(i64 8, ptr %12) #3
  %32 = load ptr, ptr %4, align 8, !tbaa !90
  %33 = getelementptr inbounds nuw %"struct.kitty::static_truth_table", ptr %32, i32 0, i32 0
  %34 = load i32, ptr %10, align 4, !tbaa !8
  %35 = zext i32 %34 to i64
  %36 = call noundef nonnull align 8 dereferenceable(8) ptr @_ZNKSt5arrayImLm32EEixEm(ptr noundef nonnull align 8 dereferenceable(256) %33, i64 noundef %35) #3
  %37 = load i64, ptr %36, align 8, !tbaa !91
  store i64 %37, ptr %12, align 8, !tbaa !91
  call void @llvm.lifetime.start.p0(i64 4, ptr %13) #3
  store i32 0, ptr %13, align 4, !tbaa !8
  br label %38

38:                                               ; preds = %58, %31
  %39 = load i32, ptr %13, align 4, !tbaa !8
  %40 = icmp slt i32 %39, 16
  br i1 %40, label %42, label %41

41:                                               ; preds = %38
  store i32 5, ptr %11, align 4
  call void @llvm.lifetime.end.p0(i64 4, ptr %13) #3
  br label %61

42:                                               ; preds = %38
  %43 = load i64, ptr %12, align 8, !tbaa !91
  %44 = getelementptr inbounds nuw [4 x i64], ptr %8, i64 0, i64 2
  %45 = load i64, ptr %44, align 16, !tbaa !91
  %46 = and i64 %43, %45
  %47 = shl i64 1, %46
  %48 = load i64, ptr %12, align 8, !tbaa !91
  %49 = lshr i64 %48, 6
  %50 = getelementptr inbounds nuw [4 x i64], ptr %9, i64 0, i64 2
  %51 = load i64, ptr %50, align 16, !tbaa !91
  %52 = and i64 %49, %51
  %53 = getelementptr inbounds nuw [4 x i64], ptr %5, i64 0, i64 %52
  %54 = load i64, ptr %53, align 8, !tbaa !91
  %55 = or i64 %54, %47
  store i64 %55, ptr %53, align 8, !tbaa !91
  %56 = load i64, ptr %12, align 8, !tbaa !91
  %57 = lshr i64 %56, 4
  store i64 %57, ptr %12, align 8, !tbaa !91
  br label %58

58:                                               ; preds = %42
  %59 = load i32, ptr %13, align 4, !tbaa !8
  %60 = add nsw i32 %59, 1
  store i32 %60, ptr %13, align 4, !tbaa !8
  br label %38, !llvm.loop !192

61:                                               ; preds = %41
  call void @llvm.lifetime.end.p0(i64 8, ptr %12) #3
  br label %62

62:                                               ; preds = %61
  %63 = load i32, ptr %10, align 4, !tbaa !8
  %64 = add i32 %63, 1
  store i32 %64, ptr %10, align 4, !tbaa !8
  br label %26, !llvm.loop !193

65:                                               ; preds = %30
  %66 = getelementptr inbounds [4 x i64], ptr %5, i64 0, i64 0
  %67 = load i64, ptr %66, align 16, !tbaa !91
  %68 = call i64 @llvm.ctpop.i64(i64 %67)
  %69 = trunc i64 %68 to i32
  store i32 %69, ptr %6, align 4, !tbaa !8
  %70 = load i32, ptr %6, align 4, !tbaa !8
  store i32 1, ptr %11, align 4
  call void @llvm.lifetime.end.p0(i64 32, ptr %9) #3
  call void @llvm.lifetime.end.p0(i64 32, ptr %8) #3
  call void @llvm.lifetime.end.p0(i64 4, ptr %7) #3
  call void @llvm.lifetime.end.p0(i64 4, ptr %6) #3
  call void @llvm.lifetime.end.p0(i64 32, ptr %5) #3
  ret i32 %70
}

; Function Attrs: mustprogress nounwind uwtable
define linkonce_odr noundef nonnull align 8 dereferenceable(8) ptr @_ZNKSt9_Any_data9_M_accessIZN3acd21ac_decomposition_impl18find_decompositionERjjEUlRKN5kitty18static_truth_tableILj11ELb0EEEE0_EERKT_v(ptr noundef nonnull align 8 dereferenceable(16) %0) #4 comdat align 2 {
  %2 = alloca ptr, align 8
  store ptr %0, ptr %2, align 8, !tbaa !183
  %3 = load ptr, ptr %2, align 8
  %4 = call noundef ptr @_ZNKSt9_Any_data9_M_accessEv(ptr noundef nonnull align 8 dereferenceable(16) %3) #3
  ret ptr %4
}

; Function Attrs: mustprogress nounwind uwtable
define linkonce_odr noundef nonnull align 8 dereferenceable(8) ptr @_ZNSt9_Any_data9_M_accessIPZN3acd21ac_decomposition_impl18find_decompositionERjjEUlRKN5kitty18static_truth_tableILj11ELb0EEEE0_EERT_v(ptr noundef nonnull align 8 dereferenceable(16) %0) #4 comdat align 2 {
  %2 = alloca ptr, align 8
  store ptr %0, ptr %2, align 8, !tbaa !183
  %3 = load ptr, ptr %2, align 8
  %4 = call noundef ptr @_ZNSt9_Any_data9_M_accessEv(ptr noundef nonnull align 8 dereferenceable(16) %3) #3
  ret ptr %4
}

; Function Attrs: mustprogress nounwind uwtable
define linkonce_odr noundef zeroext i1 @_ZNSt14_Function_base13_Base_managerIZN3acd21ac_decomposition_impl18find_decompositionERjjEUlRKN5kitty18static_truth_tableILj11ELb0EEEE0_E10_M_managerERSt9_Any_dataRKSB_St18_Manager_operation(ptr noundef nonnull align 8 dereferenceable(16) %0, ptr noundef nonnull align 8 dereferenceable(16) %1, i32 noundef %2) #4 comdat align 2 {
  %4 = alloca ptr, align 8
  %5 = alloca ptr, align 8
  %6 = alloca i32, align 4
  store ptr %0, ptr %4, align 8, !tbaa !183
  store ptr %1, ptr %5, align 8, !tbaa !183
  store i32 %2, ptr %6, align 4, !tbaa !185
  %7 = load i32, ptr %6, align 4, !tbaa !185
  switch i32 %7, label %22 [
    i32 0, label %8
    i32 1, label %11
    i32 2, label %16
    i32 3, label %20
  ]

8:                                                ; preds = %3
  %9 = load ptr, ptr %4, align 8, !tbaa !183
  %10 = call noundef nonnull align 8 dereferenceable(8) ptr @_ZNSt9_Any_data9_M_accessIPKSt9type_infoEERT_v(ptr noundef nonnull align 8 dereferenceable(16) %9) #3
  store ptr @_ZTIZN3acd21ac_decomposition_impl18find_decompositionERjjEUlRKN5kitty18static_truth_tableILj11ELb0EEEE0_, ptr %10, align 8, !tbaa !187
  br label %22

11:                                               ; preds = %3
  %12 = load ptr, ptr %5, align 8, !tbaa !183
  %13 = call noundef ptr @_ZNSt14_Function_base13_Base_managerIZN3acd21ac_decomposition_impl18find_decompositionERjjEUlRKN5kitty18static_truth_tableILj11ELb0EEEE0_E14_M_get_pointerERKSt9_Any_data(ptr noundef nonnull align 8 dereferenceable(16) %12) #3
  %14 = load ptr, ptr %4, align 8, !tbaa !183
  %15 = call noundef nonnull align 8 dereferenceable(8) ptr @_ZNSt9_Any_data9_M_accessIPZN3acd21ac_decomposition_impl18find_decompositionERjjEUlRKN5kitty18static_truth_tableILj11ELb0EEEE0_EERT_v(ptr noundef nonnull align 8 dereferenceable(16) %14) #3
  store ptr %13, ptr %15, align 8, !tbaa !167
  br label %22

16:                                               ; preds = %3
  %17 = load ptr, ptr %4, align 8, !tbaa !183
  %18 = load ptr, ptr %5, align 8, !tbaa !183
  %19 = call noundef ptr @_ZNSt14_Function_base13_Base_managerIZN3acd21ac_decomposition_impl18find_decompositionERjjEUlRKN5kitty18static_truth_tableILj11ELb0EEEE0_E14_M_get_pointerERKSt9_Any_data(ptr noundef nonnull align 8 dereferenceable(16) %18) #3
  call void @_ZNSt14_Function_base13_Base_managerIZN3acd21ac_decomposition_impl18find_decompositionERjjEUlRKN5kitty18static_truth_tableILj11ELb0EEEE0_E15_M_init_functorIRKS9_EEvRSt9_Any_dataOT_(ptr noundef nonnull align 8 dereferenceable(16) %17, ptr noundef nonnull align 8 dereferenceable(8) %19) #3
  br label %22

20:                                               ; preds = %3
  %21 = load ptr, ptr %4, align 8, !tbaa !183
  call void @_ZNSt14_Function_base13_Base_managerIZN3acd21ac_decomposition_impl18find_decompositionERjjEUlRKN5kitty18static_truth_tableILj11ELb0EEEE0_E10_M_destroyERSt9_Any_dataSt17integral_constantIbLb1EE(ptr noundef nonnull align 8 dereferenceable(16) %21)
  br label %22

22:                                               ; preds = %3, %20, %16, %11, %8
  ret i1 false
}

; Function Attrs: mustprogress nounwind uwtable
define linkonce_odr void @_ZNSt14_Function_base13_Base_managerIZN3acd21ac_decomposition_impl18find_decompositionERjjEUlRKN5kitty18static_truth_tableILj11ELb0EEEE0_E15_M_init_functorIRKS9_EEvRSt9_Any_dataOT_(ptr noundef nonnull align 8 dereferenceable(16) %0, ptr noundef nonnull align 8 dereferenceable(8) %1) #4 comdat align 2 {
  %3 = alloca ptr, align 8
  %4 = alloca ptr, align 8
  store ptr %0, ptr %3, align 8, !tbaa !183
  store ptr %1, ptr %4, align 8, !tbaa !167
  %5 = load ptr, ptr %3, align 8, !tbaa !183
  %6 = load ptr, ptr %4, align 8, !tbaa !167
  call void @_ZNSt14_Function_base13_Base_managerIZN3acd21ac_decomposition_impl18find_decompositionERjjEUlRKN5kitty18static_truth_tableILj11ELb0EEEE0_E9_M_createIRKS9_EEvRSt9_Any_dataOT_St17integral_constantIbLb1EE(ptr noundef nonnull align 8 dereferenceable(16) %5, ptr noundef nonnull align 8 dereferenceable(8) %6)
  ret void
}

; Function Attrs: mustprogress nounwind uwtable
define linkonce_odr void @_ZNSt14_Function_base13_Base_managerIZN3acd21ac_decomposition_impl18find_decompositionERjjEUlRKN5kitty18static_truth_tableILj11ELb0EEEE0_E10_M_destroyERSt9_Any_dataSt17integral_constantIbLb1EE(ptr noundef nonnull align 8 dereferenceable(16) %0) #4 comdat align 2 {
  %2 = alloca ptr, align 8
  store ptr %0, ptr %2, align 8, !tbaa !183
  %3 = load ptr, ptr %2, align 8, !tbaa !183
  %4 = call noundef nonnull align 8 dereferenceable(8) ptr @_ZNSt9_Any_data9_M_accessIZN3acd21ac_decomposition_impl18find_decompositionERjjEUlRKN5kitty18static_truth_tableILj11ELb0EEEE0_EERT_v(ptr noundef nonnull align 8 dereferenceable(16) %3) #3
  ret void
}

; Function Attrs: mustprogress nounwind uwtable
define linkonce_odr void @_ZNSt14_Function_base13_Base_managerIZN3acd21ac_decomposition_impl18find_decompositionERjjEUlRKN5kitty18static_truth_tableILj11ELb0EEEE0_E9_M_createIRKS9_EEvRSt9_Any_dataOT_St17integral_constantIbLb1EE(ptr noundef nonnull align 8 dereferenceable(16) %0, ptr noundef nonnull align 8 dereferenceable(8) %1) #4 comdat align 2 {
  %3 = alloca ptr, align 8
  %4 = alloca ptr, align 8
  store ptr %0, ptr %3, align 8, !tbaa !183
  store ptr %1, ptr %4, align 8, !tbaa !167
  %5 = load ptr, ptr %3, align 8, !tbaa !183
  %6 = call noundef ptr @_ZNSt9_Any_data9_M_accessEv(ptr noundef nonnull align 8 dereferenceable(16) %5) #3
  %7 = load ptr, ptr %4, align 8, !tbaa !167
  call void @llvm.memcpy.p0.p0.i64(ptr align 8 %6, ptr align 8 %7, i64 8, i1 false), !tbaa.struct !189
  ret void
}

; Function Attrs: mustprogress nounwind uwtable
define linkonce_odr noundef nonnull align 8 dereferenceable(8) ptr @_ZNSt9_Any_data9_M_accessIZN3acd21ac_decomposition_impl18find_decompositionERjjEUlRKN5kitty18static_truth_tableILj11ELb0EEEE0_EERT_v(ptr noundef nonnull align 8 dereferenceable(16) %0) #4 comdat align 2 {
  %2 = alloca ptr, align 8
  store ptr %0, ptr %2, align 8, !tbaa !183
  %3 = load ptr, ptr %2, align 8
  %4 = call noundef ptr @_ZNSt9_Any_data9_M_accessEv(ptr noundef nonnull align 8 dereferenceable(16) %3) #3
  ret ptr %4
}

; Function Attrs: mustprogress nounwind uwtable
define linkonce_odr noundef zeroext i1 @_ZNSt14_Function_base13_Base_managerIZN3acd21ac_decomposition_impl18find_decompositionERjjEUlRKN5kitty18static_truth_tableILj11ELb0EEEE1_E21_M_not_empty_functionIS9_EEbRKT_(ptr noundef nonnull align 8 dereferenceable(8) %0) #4 comdat align 2 {
  %2 = alloca ptr, align 8
  store ptr %0, ptr %2, align 8, !tbaa !167
  ret i1 true
}

; Function Attrs: mustprogress nounwind uwtable
define linkonce_odr void @_ZNSt14_Function_base13_Base_managerIZN3acd21ac_decomposition_impl18find_decompositionERjjEUlRKN5kitty18static_truth_tableILj11ELb0EEEE1_E15_M_init_functorIS9_EEvRSt9_Any_dataOT_(ptr noundef nonnull align 8 dereferenceable(16) %0, ptr noundef nonnull align 8 dereferenceable(8) %1) #4 comdat align 2 {
  %3 = alloca ptr, align 8
  %4 = alloca ptr, align 8
  store ptr %0, ptr %3, align 8, !tbaa !183
  store ptr %1, ptr %4, align 8, !tbaa !167
  %5 = load ptr, ptr %3, align 8, !tbaa !183
  %6 = load ptr, ptr %4, align 8, !tbaa !167
  call void @_ZNSt14_Function_base13_Base_managerIZN3acd21ac_decomposition_impl18find_decompositionERjjEUlRKN5kitty18static_truth_tableILj11ELb0EEEE1_E9_M_createIS9_EEvRSt9_Any_dataOT_St17integral_constantIbLb1EE(ptr noundef nonnull align 8 dereferenceable(16) %5, ptr noundef nonnull align 8 dereferenceable(8) %6)
  ret void
}

; Function Attrs: mustprogress nounwind uwtable
define linkonce_odr noundef i32 @_ZNSt17_Function_handlerIFjRKN5kitty18static_truth_tableILj11ELb0EEEEZN3acd21ac_decomposition_impl18find_decompositionERjjEUlS4_E1_E9_M_invokeERKSt9_Any_dataS4_(ptr noundef nonnull align 8 dereferenceable(16) %0, ptr noundef nonnull align 8 dereferenceable(256) %1) #4 comdat align 2 {
  %3 = alloca ptr, align 8
  %4 = alloca ptr, align 8
  store ptr %0, ptr %3, align 8, !tbaa !183
  store ptr %1, ptr %4, align 8, !tbaa !90
  %5 = load ptr, ptr %3, align 8, !tbaa !183
  %6 = call noundef ptr @_ZNSt14_Function_base13_Base_managerIZN3acd21ac_decomposition_impl18find_decompositionERjjEUlRKN5kitty18static_truth_tableILj11ELb0EEEE1_E14_M_get_pointerERKSt9_Any_data(ptr noundef nonnull align 8 dereferenceable(16) %5) #3
  %7 = load ptr, ptr %4, align 8, !tbaa !90
  %8 = call noundef i32 @_ZSt10__invoke_rIjRZN3acd21ac_decomposition_impl18find_decompositionERjjEUlRKN5kitty18static_truth_tableILj11ELb0EEEE1_JS7_EENSt9enable_ifIX16is_invocable_r_vIT_T0_DpT1_EESB_E4typeEOSC_DpOSD_(ptr noundef nonnull align 8 dereferenceable(8) %6, ptr noundef nonnull align 8 dereferenceable(256) %7)
  ret i32 %8
}

; Function Attrs: mustprogress nounwind uwtable
define linkonce_odr noundef zeroext i1 @_ZNSt17_Function_handlerIFjRKN5kitty18static_truth_tableILj11ELb0EEEEZN3acd21ac_decomposition_impl18find_decompositionERjjEUlS4_E1_E10_M_managerERSt9_Any_dataRKSB_St18_Manager_operation(ptr noundef nonnull align 8 dereferenceable(16) %0, ptr noundef nonnull align 8 dereferenceable(16) %1, i32 noundef %2) #4 comdat align 2 {
  %4 = alloca ptr, align 8
  %5 = alloca ptr, align 8
  %6 = alloca i32, align 4
  store ptr %0, ptr %4, align 8, !tbaa !183
  store ptr %1, ptr %5, align 8, !tbaa !183
  store i32 %2, ptr %6, align 4, !tbaa !185
  %7 = load i32, ptr %6, align 4, !tbaa !185
  switch i32 %7, label %16 [
    i32 0, label %8
    i32 1, label %11
  ]

8:                                                ; preds = %3
  %9 = load ptr, ptr %4, align 8, !tbaa !183
  %10 = call noundef nonnull align 8 dereferenceable(8) ptr @_ZNSt9_Any_data9_M_accessIPKSt9type_infoEERT_v(ptr noundef nonnull align 8 dereferenceable(16) %9) #3
  store ptr @_ZTIZN3acd21ac_decomposition_impl18find_decompositionERjjEUlRKN5kitty18static_truth_tableILj11ELb0EEEE1_, ptr %10, align 8, !tbaa !187
  br label %21

11:                                               ; preds = %3
  %12 = load ptr, ptr %5, align 8, !tbaa !183
  %13 = call noundef ptr @_ZNSt14_Function_base13_Base_managerIZN3acd21ac_decomposition_impl18find_decompositionERjjEUlRKN5kitty18static_truth_tableILj11ELb0EEEE1_E14_M_get_pointerERKSt9_Any_data(ptr noundef nonnull align 8 dereferenceable(16) %12) #3
  %14 = load ptr, ptr %4, align 8, !tbaa !183
  %15 = call noundef nonnull align 8 dereferenceable(8) ptr @_ZNSt9_Any_data9_M_accessIPZN3acd21ac_decomposition_impl18find_decompositionERjjEUlRKN5kitty18static_truth_tableILj11ELb0EEEE1_EERT_v(ptr noundef nonnull align 8 dereferenceable(16) %14) #3
  store ptr %13, ptr %15, align 8, !tbaa !167
  br label %21

16:                                               ; preds = %3
  %17 = load ptr, ptr %4, align 8, !tbaa !183
  %18 = load ptr, ptr %5, align 8, !tbaa !183
  %19 = load i32, ptr %6, align 4, !tbaa !185
  %20 = call noundef zeroext i1 @_ZNSt14_Function_base13_Base_managerIZN3acd21ac_decomposition_impl18find_decompositionERjjEUlRKN5kitty18static_truth_tableILj11ELb0EEEE1_E10_M_managerERSt9_Any_dataRKSB_St18_Manager_operation(ptr noundef nonnull align 8 dereferenceable(16) %17, ptr noundef nonnull align 8 dereferenceable(16) %18, i32 noundef %19)
  br label %21

21:                                               ; preds = %16, %11, %8
  ret i1 false
}

; Function Attrs: mustprogress nounwind uwtable
define linkonce_odr void @_ZNSt14_Function_base13_Base_managerIZN3acd21ac_decomposition_impl18find_decompositionERjjEUlRKN5kitty18static_truth_tableILj11ELb0EEEE1_E9_M_createIS9_EEvRSt9_Any_dataOT_St17integral_constantIbLb1EE(ptr noundef nonnull align 8 dereferenceable(16) %0, ptr noundef nonnull align 8 dereferenceable(8) %1) #4 comdat align 2 {
  %3 = alloca ptr, align 8
  %4 = alloca ptr, align 8
  store ptr %0, ptr %3, align 8, !tbaa !183
  store ptr %1, ptr %4, align 8, !tbaa !167
  %5 = load ptr, ptr %3, align 8, !tbaa !183
  %6 = call noundef ptr @_ZNSt9_Any_data9_M_accessEv(ptr noundef nonnull align 8 dereferenceable(16) %5) #3
  %7 = load ptr, ptr %4, align 8, !tbaa !167
  call void @llvm.memcpy.p0.p0.i64(ptr align 8 %6, ptr align 8 %7, i64 8, i1 false), !tbaa.struct !189
  ret void
}

; Function Attrs: mustprogress nounwind uwtable
define linkonce_odr noundef i32 @_ZSt10__invoke_rIjRZN3acd21ac_decomposition_impl18find_decompositionERjjEUlRKN5kitty18static_truth_tableILj11ELb0EEEE1_JS7_EENSt9enable_ifIX16is_invocable_r_vIT_T0_DpT1_EESB_E4typeEOSC_DpOSD_(ptr noundef nonnull align 8 dereferenceable(8) %0, ptr noundef nonnull align 8 dereferenceable(256) %1) #4 comdat {
  %3 = alloca ptr, align 8
  %4 = alloca ptr, align 8
  store ptr %0, ptr %3, align 8, !tbaa !167
  store ptr %1, ptr %4, align 8, !tbaa !90
  %5 = load ptr, ptr %3, align 8, !tbaa !167
  %6 = load ptr, ptr %4, align 8, !tbaa !90
  %7 = call noundef i32 @_ZSt13__invoke_implIjRZN3acd21ac_decomposition_impl18find_decompositionERjjEUlRKN5kitty18static_truth_tableILj11ELb0EEEE1_JS7_EET_St14__invoke_otherOT0_DpOT1_(ptr noundef nonnull align 8 dereferenceable(8) %5, ptr noundef nonnull align 8 dereferenceable(256) %6)
  ret i32 %7
}

; Function Attrs: mustprogress nounwind uwtable
define linkonce_odr noundef ptr @_ZNSt14_Function_base13_Base_managerIZN3acd21ac_decomposition_impl18find_decompositionERjjEUlRKN5kitty18static_truth_tableILj11ELb0EEEE1_E14_M_get_pointerERKSt9_Any_data(ptr noundef nonnull align 8 dereferenceable(16) %0) #4 comdat align 2 {
  %2 = alloca ptr, align 8
  %3 = alloca ptr, align 8
  store ptr %0, ptr %2, align 8, !tbaa !183
  call void @llvm.lifetime.start.p0(i64 8, ptr %3) #3
  %4 = load ptr, ptr %2, align 8, !tbaa !183
  %5 = call noundef nonnull align 8 dereferenceable(8) ptr @_ZNKSt9_Any_data9_M_accessIZN3acd21ac_decomposition_impl18find_decompositionERjjEUlRKN5kitty18static_truth_tableILj11ELb0EEEE1_EERKT_v(ptr noundef nonnull align 8 dereferenceable(16) %4) #3
  store ptr %5, ptr %3, align 8, !tbaa !167
  %6 = load ptr, ptr %3, align 8, !tbaa !167
  call void @llvm.lifetime.end.p0(i64 8, ptr %3) #3
  ret ptr %6
}

; Function Attrs: mustprogress nounwind uwtable
define linkonce_odr noundef i32 @_ZSt13__invoke_implIjRZN3acd21ac_decomposition_impl18find_decompositionERjjEUlRKN5kitty18static_truth_tableILj11ELb0EEEE1_JS7_EET_St14__invoke_otherOT0_DpOT1_(ptr noundef nonnull align 8 dereferenceable(8) %0, ptr noundef nonnull align 8 dereferenceable(256) %1) #4 comdat {
  %3 = alloca ptr, align 8
  %4 = alloca ptr, align 8
  store ptr %0, ptr %3, align 8, !tbaa !167
  store ptr %1, ptr %4, align 8, !tbaa !90
  %5 = load ptr, ptr %3, align 8, !tbaa !167
  %6 = load ptr, ptr %4, align 8, !tbaa !90
  %7 = call noundef i32 @_ZZN3acd21ac_decomposition_impl18find_decompositionERjjENKUlRKN5kitty18static_truth_tableILj11ELb0EEEE1_clES6_(ptr noundef nonnull align 8 dereferenceable(8) %5, ptr noundef nonnull align 8 dereferenceable(256) %6)
  ret i32 %7
}

; Function Attrs: inlinehint mustprogress nounwind uwtable
define linkonce_odr noundef i32 @_ZZN3acd21ac_decomposition_impl18find_decompositionERjjENKUlRKN5kitty18static_truth_tableILj11ELb0EEEE1_clES6_(ptr noundef nonnull align 8 dereferenceable(8) %0, ptr noundef nonnull align 8 dereferenceable(256) %1) #6 comdat align 2 {
  %3 = alloca ptr, align 8
  %4 = alloca ptr, align 8
  store ptr %0, ptr %3, align 8, !tbaa !167
  store ptr %1, ptr %4, align 8, !tbaa !90
  %5 = load ptr, ptr %3, align 8
  %6 = getelementptr inbounds nuw %class.anon.18, ptr %5, i32 0, i32 0
  %7 = load ptr, ptr %6, align 8, !tbaa !148
  %8 = load ptr, ptr %4, align 8, !tbaa !90
  %9 = call noundef i32 @_ZN3acd21ac_decomposition_impl19column_multiplicityILj3EEEjRKN5kitty18static_truth_tableILj11ELb0EEE(ptr noundef nonnull align 8 dereferenceable(500) %7, ptr noundef nonnull align 8 dereferenceable(256) %8)
  ret i32 %9
}

; Function Attrs: mustprogress nounwind uwtable
define linkonce_odr noundef i32 @_ZN3acd21ac_decomposition_impl19column_multiplicityILj3EEEjRKN5kitty18static_truth_tableILj11ELb0EEE(ptr noundef nonnull align 8 dereferenceable(500) %0, ptr noundef nonnull align 8 dereferenceable(256) %1) #4 comdat align 2 {
  %3 = alloca ptr, align 8
  %4 = alloca ptr, align 8
  %5 = alloca [4 x i64], align 16
  %6 = alloca i32, align 4
  %7 = alloca i32, align 4
  %8 = alloca [4 x i64], align 16
  %9 = alloca [4 x i64], align 16
  %10 = alloca i32, align 4
  %11 = alloca i32, align 4
  %12 = alloca i64, align 8
  %13 = alloca i32, align 4
  store ptr %0, ptr %3, align 8, !tbaa !27
  store ptr %1, ptr %4, align 8, !tbaa !90
  %14 = load ptr, ptr %3, align 8
  call void @llvm.lifetime.start.p0(i64 32, ptr %5) #3
  call void @llvm.memset.p0.i64(ptr align 16 %5, i8 0, i64 32, i1 false)
  call void @llvm.lifetime.start.p0(i64 4, ptr %6) #3
  store i32 0, ptr %6, align 4, !tbaa !8
  call void @llvm.lifetime.start.p0(i64 4, ptr %7) #3
  %15 = getelementptr inbounds nuw %"class.acd::ac_decomposition_impl", ptr %14, i32 0, i32 10
  %16 = load i32, ptr %15, align 8, !tbaa !54
  %17 = icmp ugt i32 %16, 6
  br i1 %17, label %18, label %23

18:                                               ; preds = %2
  %19 = getelementptr inbounds nuw %"class.acd::ac_decomposition_impl", ptr %14, i32 0, i32 10
  %20 = load i32, ptr %19, align 8, !tbaa !54
  %21 = sub i32 %20, 6
  %22 = shl i32 1, %21
  br label %24

23:                                               ; preds = %2
  br label %24

24:                                               ; preds = %23, %18
  %25 = phi i32 [ %22, %18 ], [ 1, %23 ]
  store i32 %25, ptr %7, align 4, !tbaa !8
  call void @llvm.lifetime.start.p0(i64 32, ptr %8) #3
  call void @llvm.memcpy.p0.p0.i64(ptr align 16 %8, ptr align 16 @__const._ZN3acd21ac_decomposition_impl19column_multiplicityILj3EEEjRKN5kitty18static_truth_tableILj11ELb0EEE.masks_bits, i64 32, i1 false)
  call void @llvm.lifetime.start.p0(i64 32, ptr %9) #3
  call void @llvm.memcpy.p0.p0.i64(ptr align 16 %9, ptr align 16 @__const._ZN3acd21ac_decomposition_impl19column_multiplicityILj3EEEjRKN5kitty18static_truth_tableILj11ELb0EEE.masks_idx, i64 32, i1 false)
  call void @llvm.lifetime.start.p0(i64 4, ptr %10) #3
  store i32 0, ptr %10, align 4, !tbaa !8
  br label %26

26:                                               ; preds = %62, %24
  %27 = load i32, ptr %10, align 4, !tbaa !8
  %28 = load i32, ptr %7, align 4, !tbaa !8
  %29 = icmp ult i32 %27, %28
  br i1 %29, label %31, label %30

30:                                               ; preds = %26
  store i32 2, ptr %11, align 4
  call void @llvm.lifetime.end.p0(i64 4, ptr %10) #3
  br label %65

31:                                               ; preds = %26
  call void @llvm.lifetime.start.p0(i64 8, ptr %12) #3
  %32 = load ptr, ptr %4, align 8, !tbaa !90
  %33 = getelementptr inbounds nuw %"struct.kitty::static_truth_table", ptr %32, i32 0, i32 0
  %34 = load i32, ptr %10, align 4, !tbaa !8
  %35 = zext i32 %34 to i64
  %36 = call noundef nonnull align 8 dereferenceable(8) ptr @_ZNKSt5arrayImLm32EEixEm(ptr noundef nonnull align 8 dereferenceable(256) %33, i64 noundef %35) #3
  %37 = load i64, ptr %36, align 8, !tbaa !91
  store i64 %37, ptr %12, align 8, !tbaa !91
  call void @llvm.lifetime.start.p0(i64 4, ptr %13) #3
  store i32 0, ptr %13, align 4, !tbaa !8
  br label %38

38:                                               ; preds = %58, %31
  %39 = load i32, ptr %13, align 4, !tbaa !8
  %40 = icmp slt i32 %39, 8
  br i1 %40, label %42, label %41

41:                                               ; preds = %38
  store i32 5, ptr %11, align 4
  call void @llvm.lifetime.end.p0(i64 4, ptr %13) #3
  br label %61

42:                                               ; preds = %38
  %43 = load i64, ptr %12, align 8, !tbaa !91
  %44 = getelementptr inbounds nuw [4 x i64], ptr %8, i64 0, i64 3
  %45 = load i64, ptr %44, align 8, !tbaa !91
  %46 = and i64 %43, %45
  %47 = shl i64 1, %46
  %48 = load i64, ptr %12, align 8, !tbaa !91
  %49 = lshr i64 %48, 6
  %50 = getelementptr inbounds nuw [4 x i64], ptr %9, i64 0, i64 3
  %51 = load i64, ptr %50, align 8, !tbaa !91
  %52 = and i64 %49, %51
  %53 = getelementptr inbounds nuw [4 x i64], ptr %5, i64 0, i64 %52
  %54 = load i64, ptr %53, align 8, !tbaa !91
  %55 = or i64 %54, %47
  store i64 %55, ptr %53, align 8, !tbaa !91
  %56 = load i64, ptr %12, align 8, !tbaa !91
  %57 = lshr i64 %56, 8
  store i64 %57, ptr %12, align 8, !tbaa !91
  br label %58

58:                                               ; preds = %42
  %59 = load i32, ptr %13, align 4, !tbaa !8
  %60 = add nsw i32 %59, 1
  store i32 %60, ptr %13, align 4, !tbaa !8
  br label %38, !llvm.loop !194

61:                                               ; preds = %41
  call void @llvm.lifetime.end.p0(i64 8, ptr %12) #3
  br label %62

62:                                               ; preds = %61
  %63 = load i32, ptr %10, align 4, !tbaa !8
  %64 = add i32 %63, 1
  store i32 %64, ptr %10, align 4, !tbaa !8
  br label %26, !llvm.loop !195

65:                                               ; preds = %30
  %66 = getelementptr inbounds [4 x i64], ptr %5, i64 0, i64 0
  %67 = load i64, ptr %66, align 16, !tbaa !91
  %68 = call i64 @llvm.ctpop.i64(i64 %67)
  %69 = trunc i64 %68 to i32
  store i32 %69, ptr %6, align 4, !tbaa !8
  %70 = getelementptr inbounds [4 x i64], ptr %5, i64 0, i64 1
  %71 = load i64, ptr %70, align 8, !tbaa !91
  %72 = call i64 @llvm.ctpop.i64(i64 %71)
  %73 = trunc i64 %72 to i32
  %74 = load i32, ptr %6, align 4, !tbaa !8
  %75 = add i32 %74, %73
  store i32 %75, ptr %6, align 4, !tbaa !8
  %76 = getelementptr inbounds [4 x i64], ptr %5, i64 0, i64 2
  %77 = load i64, ptr %76, align 16, !tbaa !91
  %78 = call i64 @llvm.ctpop.i64(i64 %77)
  %79 = trunc i64 %78 to i32
  %80 = load i32, ptr %6, align 4, !tbaa !8
  %81 = add i32 %80, %79
  store i32 %81, ptr %6, align 4, !tbaa !8
  %82 = getelementptr inbounds [4 x i64], ptr %5, i64 0, i64 3
  %83 = load i64, ptr %82, align 8, !tbaa !91
  %84 = call i64 @llvm.ctpop.i64(i64 %83)
  %85 = trunc i64 %84 to i32
  %86 = load i32, ptr %6, align 4, !tbaa !8
  %87 = add i32 %86, %85
  store i32 %87, ptr %6, align 4, !tbaa !8
  %88 = load i32, ptr %6, align 4, !tbaa !8
  store i32 1, ptr %11, align 4
  call void @llvm.lifetime.end.p0(i64 32, ptr %9) #3
  call void @llvm.lifetime.end.p0(i64 32, ptr %8) #3
  call void @llvm.lifetime.end.p0(i64 4, ptr %7) #3
  call void @llvm.lifetime.end.p0(i64 4, ptr %6) #3
  call void @llvm.lifetime.end.p0(i64 32, ptr %5) #3
  ret i32 %88
}

; Function Attrs: mustprogress nounwind uwtable
define linkonce_odr noundef nonnull align 8 dereferenceable(8) ptr @_ZNKSt9_Any_data9_M_accessIZN3acd21ac_decomposition_impl18find_decompositionERjjEUlRKN5kitty18static_truth_tableILj11ELb0EEEE1_EERKT_v(ptr noundef nonnull align 8 dereferenceable(16) %0) #4 comdat align 2 {
  %2 = alloca ptr, align 8
  store ptr %0, ptr %2, align 8, !tbaa !183
  %3 = load ptr, ptr %2, align 8
  %4 = call noundef ptr @_ZNKSt9_Any_data9_M_accessEv(ptr noundef nonnull align 8 dereferenceable(16) %3) #3
  ret ptr %4
}

; Function Attrs: mustprogress nounwind uwtable
define linkonce_odr noundef nonnull align 8 dereferenceable(8) ptr @_ZNSt9_Any_data9_M_accessIPZN3acd21ac_decomposition_impl18find_decompositionERjjEUlRKN5kitty18static_truth_tableILj11ELb0EEEE1_EERT_v(ptr noundef nonnull align 8 dereferenceable(16) %0) #4 comdat align 2 {
  %2 = alloca ptr, align 8
  store ptr %0, ptr %2, align 8, !tbaa !183
  %3 = load ptr, ptr %2, align 8
  %4 = call noundef ptr @_ZNSt9_Any_data9_M_accessEv(ptr noundef nonnull align 8 dereferenceable(16) %3) #3
  ret ptr %4
}

; Function Attrs: mustprogress nounwind uwtable
define linkonce_odr noundef zeroext i1 @_ZNSt14_Function_base13_Base_managerIZN3acd21ac_decomposition_impl18find_decompositionERjjEUlRKN5kitty18static_truth_tableILj11ELb0EEEE1_E10_M_managerERSt9_Any_dataRKSB_St18_Manager_operation(ptr noundef nonnull align 8 dereferenceable(16) %0, ptr noundef nonnull align 8 dereferenceable(16) %1, i32 noundef %2) #4 comdat align 2 {
  %4 = alloca ptr, align 8
  %5 = alloca ptr, align 8
  %6 = alloca i32, align 4
  store ptr %0, ptr %4, align 8, !tbaa !183
  store ptr %1, ptr %5, align 8, !tbaa !183
  store i32 %2, ptr %6, align 4, !tbaa !185
  %7 = load i32, ptr %6, align 4, !tbaa !185
  switch i32 %7, label %22 [
    i32 0, label %8
    i32 1, label %11
    i32 2, label %16
    i32 3, label %20
  ]

8:                                                ; preds = %3
  %9 = load ptr, ptr %4, align 8, !tbaa !183
  %10 = call noundef nonnull align 8 dereferenceable(8) ptr @_ZNSt9_Any_data9_M_accessIPKSt9type_infoEERT_v(ptr noundef nonnull align 8 dereferenceable(16) %9) #3
  store ptr @_ZTIZN3acd21ac_decomposition_impl18find_decompositionERjjEUlRKN5kitty18static_truth_tableILj11ELb0EEEE1_, ptr %10, align 8, !tbaa !187
  br label %22

11:                                               ; preds = %3
  %12 = load ptr, ptr %5, align 8, !tbaa !183
  %13 = call noundef ptr @_ZNSt14_Function_base13_Base_managerIZN3acd21ac_decomposition_impl18find_decompositionERjjEUlRKN5kitty18static_truth_tableILj11ELb0EEEE1_E14_M_get_pointerERKSt9_Any_data(ptr noundef nonnull align 8 dereferenceable(16) %12) #3
  %14 = load ptr, ptr %4, align 8, !tbaa !183
  %15 = call noundef nonnull align 8 dereferenceable(8) ptr @_ZNSt9_Any_data9_M_accessIPZN3acd21ac_decomposition_impl18find_decompositionERjjEUlRKN5kitty18static_truth_tableILj11ELb0EEEE1_EERT_v(ptr noundef nonnull align 8 dereferenceable(16) %14) #3
  store ptr %13, ptr %15, align 8, !tbaa !167
  br label %22

16:                                               ; preds = %3
  %17 = load ptr, ptr %4, align 8, !tbaa !183
  %18 = load ptr, ptr %5, align 8, !tbaa !183
  %19 = call noundef ptr @_ZNSt14_Function_base13_Base_managerIZN3acd21ac_decomposition_impl18find_decompositionERjjEUlRKN5kitty18static_truth_tableILj11ELb0EEEE1_E14_M_get_pointerERKSt9_Any_data(ptr noundef nonnull align 8 dereferenceable(16) %18) #3
  call void @_ZNSt14_Function_base13_Base_managerIZN3acd21ac_decomposition_impl18find_decompositionERjjEUlRKN5kitty18static_truth_tableILj11ELb0EEEE1_E15_M_init_functorIRKS9_EEvRSt9_Any_dataOT_(ptr noundef nonnull align 8 dereferenceable(16) %17, ptr noundef nonnull align 8 dereferenceable(8) %19) #3
  br label %22

20:                                               ; preds = %3
  %21 = load ptr, ptr %4, align 8, !tbaa !183
  call void @_ZNSt14_Function_base13_Base_managerIZN3acd21ac_decomposition_impl18find_decompositionERjjEUlRKN5kitty18static_truth_tableILj11ELb0EEEE1_E10_M_destroyERSt9_Any_dataSt17integral_constantIbLb1EE(ptr noundef nonnull align 8 dereferenceable(16) %21)
  br label %22

22:                                               ; preds = %3, %20, %16, %11, %8
  ret i1 false
}

; Function Attrs: mustprogress nounwind uwtable
define linkonce_odr void @_ZNSt14_Function_base13_Base_managerIZN3acd21ac_decomposition_impl18find_decompositionERjjEUlRKN5kitty18static_truth_tableILj11ELb0EEEE1_E15_M_init_functorIRKS9_EEvRSt9_Any_dataOT_(ptr noundef nonnull align 8 dereferenceable(16) %0, ptr noundef nonnull align 8 dereferenceable(8) %1) #4 comdat align 2 {
  %3 = alloca ptr, align 8
  %4 = alloca ptr, align 8
  store ptr %0, ptr %3, align 8, !tbaa !183
  store ptr %1, ptr %4, align 8, !tbaa !167
  %5 = load ptr, ptr %3, align 8, !tbaa !183
  %6 = load ptr, ptr %4, align 8, !tbaa !167
  call void @_ZNSt14_Function_base13_Base_managerIZN3acd21ac_decomposition_impl18find_decompositionERjjEUlRKN5kitty18static_truth_tableILj11ELb0EEEE1_E9_M_createIRKS9_EEvRSt9_Any_dataOT_St17integral_constantIbLb1EE(ptr noundef nonnull align 8 dereferenceable(16) %5, ptr noundef nonnull align 8 dereferenceable(8) %6)
  ret void
}

; Function Attrs: mustprogress nounwind uwtable
define linkonce_odr void @_ZNSt14_Function_base13_Base_managerIZN3acd21ac_decomposition_impl18find_decompositionERjjEUlRKN5kitty18static_truth_tableILj11ELb0EEEE1_E10_M_destroyERSt9_Any_dataSt17integral_constantIbLb1EE(ptr noundef nonnull align 8 dereferenceable(16) %0) #4 comdat align 2 {
  %2 = alloca ptr, align 8
  store ptr %0, ptr %2, align 8, !tbaa !183
  %3 = load ptr, ptr %2, align 8, !tbaa !183
  %4 = call noundef nonnull align 8 dereferenceable(8) ptr @_ZNSt9_Any_data9_M_accessIZN3acd21ac_decomposition_impl18find_decompositionERjjEUlRKN5kitty18static_truth_tableILj11ELb0EEEE1_EERT_v(ptr noundef nonnull align 8 dereferenceable(16) %3) #3
  ret void
}

; Function Attrs: mustprogress nounwind uwtable
define linkonce_odr void @_ZNSt14_Function_base13_Base_managerIZN3acd21ac_decomposition_impl18find_decompositionERjjEUlRKN5kitty18static_truth_tableILj11ELb0EEEE1_E9_M_createIRKS9_EEvRSt9_Any_dataOT_St17integral_constantIbLb1EE(ptr noundef nonnull align 8 dereferenceable(16) %0, ptr noundef nonnull align 8 dereferenceable(8) %1) #4 comdat align 2 {
  %3 = alloca ptr, align 8
  %4 = alloca ptr, align 8
  store ptr %0, ptr %3, align 8, !tbaa !183
  store ptr %1, ptr %4, align 8, !tbaa !167
  %5 = load ptr, ptr %3, align 8, !tbaa !183
  %6 = call noundef ptr @_ZNSt9_Any_data9_M_accessEv(ptr noundef nonnull align 8 dereferenceable(16) %5) #3
  %7 = load ptr, ptr %4, align 8, !tbaa !167
  call void @llvm.memcpy.p0.p0.i64(ptr align 8 %6, ptr align 8 %7, i64 8, i1 false), !tbaa.struct !189
  ret void
}

; Function Attrs: mustprogress nounwind uwtable
define linkonce_odr noundef nonnull align 8 dereferenceable(8) ptr @_ZNSt9_Any_data9_M_accessIZN3acd21ac_decomposition_impl18find_decompositionERjjEUlRKN5kitty18static_truth_tableILj11ELb0EEEE1_EERT_v(ptr noundef nonnull align 8 dereferenceable(16) %0) #4 comdat align 2 {
  %2 = alloca ptr, align 8
  store ptr %0, ptr %2, align 8, !tbaa !183
  %3 = load ptr, ptr %2, align 8
  %4 = call noundef ptr @_ZNSt9_Any_data9_M_accessEv(ptr noundef nonnull align 8 dereferenceable(16) %3) #3
  ret ptr %4
}

; Function Attrs: mustprogress nounwind uwtable
define linkonce_odr noundef zeroext i1 @_ZNSt14_Function_base13_Base_managerIZN3acd21ac_decomposition_impl18find_decompositionERjjEUlRKN5kitty18static_truth_tableILj11ELb0EEEE2_E21_M_not_empty_functionIS9_EEbRKT_(ptr noundef nonnull align 8 dereferenceable(8) %0) #4 comdat align 2 {
  %2 = alloca ptr, align 8
  store ptr %0, ptr %2, align 8, !tbaa !167
  ret i1 true
}

; Function Attrs: mustprogress nounwind uwtable
define linkonce_odr void @_ZNSt14_Function_base13_Base_managerIZN3acd21ac_decomposition_impl18find_decompositionERjjEUlRKN5kitty18static_truth_tableILj11ELb0EEEE2_E15_M_init_functorIS9_EEvRSt9_Any_dataOT_(ptr noundef nonnull align 8 dereferenceable(16) %0, ptr noundef nonnull align 8 dereferenceable(8) %1) #4 comdat align 2 {
  %3 = alloca ptr, align 8
  %4 = alloca ptr, align 8
  store ptr %0, ptr %3, align 8, !tbaa !183
  store ptr %1, ptr %4, align 8, !tbaa !167
  %5 = load ptr, ptr %3, align 8, !tbaa !183
  %6 = load ptr, ptr %4, align 8, !tbaa !167
  call void @_ZNSt14_Function_base13_Base_managerIZN3acd21ac_decomposition_impl18find_decompositionERjjEUlRKN5kitty18static_truth_tableILj11ELb0EEEE2_E9_M_createIS9_EEvRSt9_Any_dataOT_St17integral_constantIbLb1EE(ptr noundef nonnull align 8 dereferenceable(16) %5, ptr noundef nonnull align 8 dereferenceable(8) %6)
  ret void
}

; Function Attrs: mustprogress nounwind uwtable
define linkonce_odr noundef i32 @_ZNSt17_Function_handlerIFjRKN5kitty18static_truth_tableILj11ELb0EEEEZN3acd21ac_decomposition_impl18find_decompositionERjjEUlS4_E2_E9_M_invokeERKSt9_Any_dataS4_(ptr noundef nonnull align 8 dereferenceable(16) %0, ptr noundef nonnull align 8 dereferenceable(256) %1) #4 comdat align 2 {
  %3 = alloca ptr, align 8
  %4 = alloca ptr, align 8
  store ptr %0, ptr %3, align 8, !tbaa !183
  store ptr %1, ptr %4, align 8, !tbaa !90
  %5 = load ptr, ptr %3, align 8, !tbaa !183
  %6 = call noundef ptr @_ZNSt14_Function_base13_Base_managerIZN3acd21ac_decomposition_impl18find_decompositionERjjEUlRKN5kitty18static_truth_tableILj11ELb0EEEE2_E14_M_get_pointerERKSt9_Any_data(ptr noundef nonnull align 8 dereferenceable(16) %5) #3
  %7 = load ptr, ptr %4, align 8, !tbaa !90
  %8 = call noundef i32 @_ZSt10__invoke_rIjRZN3acd21ac_decomposition_impl18find_decompositionERjjEUlRKN5kitty18static_truth_tableILj11ELb0EEEE2_JS7_EENSt9enable_ifIX16is_invocable_r_vIT_T0_DpT1_EESB_E4typeEOSC_DpOSD_(ptr noundef nonnull align 8 dereferenceable(8) %6, ptr noundef nonnull align 8 dereferenceable(256) %7)
  ret i32 %8
}

; Function Attrs: mustprogress nounwind uwtable
define linkonce_odr noundef zeroext i1 @_ZNSt17_Function_handlerIFjRKN5kitty18static_truth_tableILj11ELb0EEEEZN3acd21ac_decomposition_impl18find_decompositionERjjEUlS4_E2_E10_M_managerERSt9_Any_dataRKSB_St18_Manager_operation(ptr noundef nonnull align 8 dereferenceable(16) %0, ptr noundef nonnull align 8 dereferenceable(16) %1, i32 noundef %2) #4 comdat align 2 {
  %4 = alloca ptr, align 8
  %5 = alloca ptr, align 8
  %6 = alloca i32, align 4
  store ptr %0, ptr %4, align 8, !tbaa !183
  store ptr %1, ptr %5, align 8, !tbaa !183
  store i32 %2, ptr %6, align 4, !tbaa !185
  %7 = load i32, ptr %6, align 4, !tbaa !185
  switch i32 %7, label %16 [
    i32 0, label %8
    i32 1, label %11
  ]

8:                                                ; preds = %3
  %9 = load ptr, ptr %4, align 8, !tbaa !183
  %10 = call noundef nonnull align 8 dereferenceable(8) ptr @_ZNSt9_Any_data9_M_accessIPKSt9type_infoEERT_v(ptr noundef nonnull align 8 dereferenceable(16) %9) #3
  store ptr @_ZTIZN3acd21ac_decomposition_impl18find_decompositionERjjEUlRKN5kitty18static_truth_tableILj11ELb0EEEE2_, ptr %10, align 8, !tbaa !187
  br label %21

11:                                               ; preds = %3
  %12 = load ptr, ptr %5, align 8, !tbaa !183
  %13 = call noundef ptr @_ZNSt14_Function_base13_Base_managerIZN3acd21ac_decomposition_impl18find_decompositionERjjEUlRKN5kitty18static_truth_tableILj11ELb0EEEE2_E14_M_get_pointerERKSt9_Any_data(ptr noundef nonnull align 8 dereferenceable(16) %12) #3
  %14 = load ptr, ptr %4, align 8, !tbaa !183
  %15 = call noundef nonnull align 8 dereferenceable(8) ptr @_ZNSt9_Any_data9_M_accessIPZN3acd21ac_decomposition_impl18find_decompositionERjjEUlRKN5kitty18static_truth_tableILj11ELb0EEEE2_EERT_v(ptr noundef nonnull align 8 dereferenceable(16) %14) #3
  store ptr %13, ptr %15, align 8, !tbaa !167
  br label %21

16:                                               ; preds = %3
  %17 = load ptr, ptr %4, align 8, !tbaa !183
  %18 = load ptr, ptr %5, align 8, !tbaa !183
  %19 = load i32, ptr %6, align 4, !tbaa !185
  %20 = call noundef zeroext i1 @_ZNSt14_Function_base13_Base_managerIZN3acd21ac_decomposition_impl18find_decompositionERjjEUlRKN5kitty18static_truth_tableILj11ELb0EEEE2_E10_M_managerERSt9_Any_dataRKSB_St18_Manager_operation(ptr noundef nonnull align 8 dereferenceable(16) %17, ptr noundef nonnull align 8 dereferenceable(16) %18, i32 noundef %19)
  br label %21

21:                                               ; preds = %16, %11, %8
  ret i1 false
}

; Function Attrs: mustprogress nounwind uwtable
define linkonce_odr void @_ZNSt14_Function_base13_Base_managerIZN3acd21ac_decomposition_impl18find_decompositionERjjEUlRKN5kitty18static_truth_tableILj11ELb0EEEE2_E9_M_createIS9_EEvRSt9_Any_dataOT_St17integral_constantIbLb1EE(ptr noundef nonnull align 8 dereferenceable(16) %0, ptr noundef nonnull align 8 dereferenceable(8) %1) #4 comdat align 2 {
  %3 = alloca ptr, align 8
  %4 = alloca ptr, align 8
  store ptr %0, ptr %3, align 8, !tbaa !183
  store ptr %1, ptr %4, align 8, !tbaa !167
  %5 = load ptr, ptr %3, align 8, !tbaa !183
  %6 = call noundef ptr @_ZNSt9_Any_data9_M_accessEv(ptr noundef nonnull align 8 dereferenceable(16) %5) #3
  %7 = load ptr, ptr %4, align 8, !tbaa !167
  call void @llvm.memcpy.p0.p0.i64(ptr align 8 %6, ptr align 8 %7, i64 8, i1 false), !tbaa.struct !189
  ret void
}

; Function Attrs: mustprogress nounwind uwtable
define linkonce_odr noundef i32 @_ZSt10__invoke_rIjRZN3acd21ac_decomposition_impl18find_decompositionERjjEUlRKN5kitty18static_truth_tableILj11ELb0EEEE2_JS7_EENSt9enable_ifIX16is_invocable_r_vIT_T0_DpT1_EESB_E4typeEOSC_DpOSD_(ptr noundef nonnull align 8 dereferenceable(8) %0, ptr noundef nonnull align 8 dereferenceable(256) %1) #4 comdat {
  %3 = alloca ptr, align 8
  %4 = alloca ptr, align 8
  store ptr %0, ptr %3, align 8, !tbaa !167
  store ptr %1, ptr %4, align 8, !tbaa !90
  %5 = load ptr, ptr %3, align 8, !tbaa !167
  %6 = load ptr, ptr %4, align 8, !tbaa !90
  %7 = call noundef i32 @_ZSt13__invoke_implIjRZN3acd21ac_decomposition_impl18find_decompositionERjjEUlRKN5kitty18static_truth_tableILj11ELb0EEEE2_JS7_EET_St14__invoke_otherOT0_DpOT1_(ptr noundef nonnull align 8 dereferenceable(8) %5, ptr noundef nonnull align 8 dereferenceable(256) %6)
  ret i32 %7
}

; Function Attrs: mustprogress nounwind uwtable
define linkonce_odr noundef ptr @_ZNSt14_Function_base13_Base_managerIZN3acd21ac_decomposition_impl18find_decompositionERjjEUlRKN5kitty18static_truth_tableILj11ELb0EEEE2_E14_M_get_pointerERKSt9_Any_data(ptr noundef nonnull align 8 dereferenceable(16) %0) #4 comdat align 2 {
  %2 = alloca ptr, align 8
  %3 = alloca ptr, align 8
  store ptr %0, ptr %2, align 8, !tbaa !183
  call void @llvm.lifetime.start.p0(i64 8, ptr %3) #3
  %4 = load ptr, ptr %2, align 8, !tbaa !183
  %5 = call noundef nonnull align 8 dereferenceable(8) ptr @_ZNKSt9_Any_data9_M_accessIZN3acd21ac_decomposition_impl18find_decompositionERjjEUlRKN5kitty18static_truth_tableILj11ELb0EEEE2_EERKT_v(ptr noundef nonnull align 8 dereferenceable(16) %4) #3
  store ptr %5, ptr %3, align 8, !tbaa !167
  %6 = load ptr, ptr %3, align 8, !tbaa !167
  call void @llvm.lifetime.end.p0(i64 8, ptr %3) #3
  ret ptr %6
}

; Function Attrs: mustprogress nounwind uwtable
define linkonce_odr noundef i32 @_ZSt13__invoke_implIjRZN3acd21ac_decomposition_impl18find_decompositionERjjEUlRKN5kitty18static_truth_tableILj11ELb0EEEE2_JS7_EET_St14__invoke_otherOT0_DpOT1_(ptr noundef nonnull align 8 dereferenceable(8) %0, ptr noundef nonnull align 8 dereferenceable(256) %1) #4 comdat {
  %3 = alloca ptr, align 8
  %4 = alloca ptr, align 8
  store ptr %0, ptr %3, align 8, !tbaa !167
  store ptr %1, ptr %4, align 8, !tbaa !90
  %5 = load ptr, ptr %3, align 8, !tbaa !167
  %6 = load ptr, ptr %4, align 8, !tbaa !90
  %7 = call noundef i32 @_ZZN3acd21ac_decomposition_impl18find_decompositionERjjENKUlRKN5kitty18static_truth_tableILj11ELb0EEEE2_clES6_(ptr noundef nonnull align 8 dereferenceable(8) %5, ptr noundef nonnull align 8 dereferenceable(256) %6)
  ret i32 %7
}

; Function Attrs: inlinehint mustprogress nounwind uwtable
define linkonce_odr noundef i32 @_ZZN3acd21ac_decomposition_impl18find_decompositionERjjENKUlRKN5kitty18static_truth_tableILj11ELb0EEEE2_clES6_(ptr noundef nonnull align 8 dereferenceable(8) %0, ptr noundef nonnull align 8 dereferenceable(256) %1) #6 comdat align 2 {
  %3 = alloca ptr, align 8
  %4 = alloca ptr, align 8
  store ptr %0, ptr %3, align 8, !tbaa !167
  store ptr %1, ptr %4, align 8, !tbaa !90
  %5 = load ptr, ptr %3, align 8
  %6 = getelementptr inbounds nuw %class.anon.19, ptr %5, i32 0, i32 0
  %7 = load ptr, ptr %6, align 8, !tbaa !150
  %8 = load ptr, ptr %4, align 8, !tbaa !90
  %9 = call noundef i32 @_ZN3acd21ac_decomposition_impl20column_multiplicity5ILj4EEEjRKN5kitty18static_truth_tableILj11ELb0EEE(ptr noundef nonnull align 8 dereferenceable(500) %7, ptr noundef nonnull align 8 dereferenceable(256) %8)
  ret i32 %9
}

; Function Attrs: mustprogress nounwind uwtable
define linkonce_odr noundef i32 @_ZN3acd21ac_decomposition_impl20column_multiplicity5ILj4EEEjRKN5kitty18static_truth_tableILj11ELb0EEE(ptr noundef nonnull align 8 dereferenceable(500) %0, ptr noundef nonnull align 8 dereferenceable(256) %1) #4 comdat align 2 {
  %3 = alloca ptr, align 8
  %4 = alloca ptr, align 8
  %5 = alloca i32, align 4
  %6 = alloca [6 x i64], align 16
  %7 = alloca i32, align 4
  %8 = alloca i64, align 8
  %9 = alloca %"struct.std::array.25", align 4
  %10 = alloca i32, align 4
  %11 = alloca i32, align 4
  %12 = alloca i64, align 8
  %13 = alloca i32, align 4
  %14 = alloca i64, align 8
  %15 = alloca i32, align 4
  %16 = alloca i32, align 4
  store ptr %0, ptr %3, align 8, !tbaa !27
  store ptr %1, ptr %4, align 8, !tbaa !90
  %17 = load ptr, ptr %3, align 8
  call void @llvm.lifetime.start.p0(i64 4, ptr %5) #3
  %18 = getelementptr inbounds nuw %"class.acd::ac_decomposition_impl", ptr %17, i32 0, i32 10
  %19 = load i32, ptr %18, align 8, !tbaa !54
  %20 = icmp ugt i32 %19, 6
  br i1 %20, label %21, label %26

21:                                               ; preds = %2
  %22 = getelementptr inbounds nuw %"class.acd::ac_decomposition_impl", ptr %17, i32 0, i32 10
  %23 = load i32, ptr %22, align 8, !tbaa !54
  %24 = sub i32 %23, 6
  %25 = shl i32 1, %24
  br label %27

26:                                               ; preds = %2
  br label %27

27:                                               ; preds = %26, %21
  %28 = phi i32 [ %25, %21 ], [ 1, %26 ]
  store i32 %28, ptr %5, align 4, !tbaa !8
  call void @llvm.lifetime.start.p0(i64 48, ptr %6) #3
  call void @llvm.memset.p0.i64(ptr align 16 %6, i8 0, i64 48, i1 false)
  %29 = getelementptr inbounds [6 x i64], ptr %6, i32 0, i32 1
  store i64 3, ptr %29, align 8
  %30 = getelementptr inbounds [6 x i64], ptr %6, i32 0, i32 2
  store i64 15, ptr %30, align 16
  %31 = getelementptr inbounds [6 x i64], ptr %6, i32 0, i32 3
  store i64 255, ptr %31, align 8
  %32 = getelementptr inbounds [6 x i64], ptr %6, i32 0, i32 4
  store i64 65535, ptr %32, align 16
  %33 = getelementptr inbounds [6 x i64], ptr %6, i32 0, i32 5
  store i64 4294967295, ptr %33, align 8
  call void @llvm.lifetime.start.p0(i64 4, ptr %7) #3
  store i32 0, ptr %7, align 4, !tbaa !8
  call void @llvm.lifetime.start.p0(i64 8, ptr %8) #3
  store i64 -1, ptr %8, align 8, !tbaa !91
  call void @llvm.lifetime.start.p0(i64 256, ptr %9) #3
  call void @llvm.lifetime.start.p0(i64 4, ptr %10) #3
  store i32 0, ptr %10, align 4, !tbaa !8
  br label %34

34:                                               ; preds = %73, %27
  %35 = load i32, ptr %10, align 4, !tbaa !8
  %36 = load i32, ptr %5, align 4, !tbaa !8
  %37 = icmp ult i32 %35, %36
  br i1 %37, label %39, label %38

38:                                               ; preds = %34
  store i32 2, ptr %11, align 4
  call void @llvm.lifetime.end.p0(i64 4, ptr %10) #3
  br label %76

39:                                               ; preds = %34
  call void @llvm.lifetime.start.p0(i64 8, ptr %12) #3
  %40 = load ptr, ptr %4, align 8, !tbaa !90
  %41 = getelementptr inbounds nuw %"struct.kitty::static_truth_table", ptr %40, i32 0, i32 0
  %42 = load i32, ptr %10, align 4, !tbaa !8
  %43 = zext i32 %42 to i64
  %44 = call noundef nonnull align 8 dereferenceable(8) ptr @_ZNKSt5arrayImLm32EEixEm(ptr noundef nonnull align 8 dereferenceable(256) %41, i64 noundef %43) #3
  %45 = load i64, ptr %44, align 8, !tbaa !91
  store i64 %45, ptr %12, align 8, !tbaa !91
  call void @llvm.lifetime.start.p0(i64 4, ptr %13) #3
  store i32 0, ptr %13, align 4, !tbaa !8
  br label %46

46:                                               ; preds = %69, %39
  %47 = load i32, ptr %13, align 4, !tbaa !8
  %48 = icmp slt i32 %47, 4
  br i1 %48, label %50, label %49

49:                                               ; preds = %46
  store i32 5, ptr %11, align 4
  call void @llvm.lifetime.end.p0(i64 4, ptr %13) #3
  br label %72

50:                                               ; preds = %46
  call void @llvm.lifetime.start.p0(i64 8, ptr %14) #3
  %51 = load i64, ptr %12, align 8, !tbaa !91
  %52 = getelementptr inbounds nuw [6 x i64], ptr %6, i64 0, i64 4
  %53 = load i64, ptr %52, align 16, !tbaa !91
  %54 = and i64 %51, %53
  store i64 %54, ptr %14, align 8, !tbaa !91
  %55 = load i64, ptr %14, align 8, !tbaa !91
  %56 = load i64, ptr %8, align 8, !tbaa !91
  %57 = icmp ne i64 %55, %56
  br i1 %57, label %58, label %66

58:                                               ; preds = %50
  %59 = load i64, ptr %14, align 8, !tbaa !91
  %60 = trunc i64 %59 to i32
  %61 = load i32, ptr %7, align 4, !tbaa !8
  %62 = add i32 %61, 1
  store i32 %62, ptr %7, align 4, !tbaa !8
  %63 = zext i32 %61 to i64
  %64 = call noundef nonnull align 4 dereferenceable(4) ptr @_ZNSt5arrayIjLm64EEixEm(ptr noundef nonnull align 4 dereferenceable(256) %9, i64 noundef %63) #3
  store i32 %60, ptr %64, align 4, !tbaa !8
  %65 = load i64, ptr %14, align 8, !tbaa !91
  store i64 %65, ptr %8, align 8, !tbaa !91
  br label %66

66:                                               ; preds = %58, %50
  %67 = load i64, ptr %12, align 8, !tbaa !91
  %68 = lshr i64 %67, 16
  store i64 %68, ptr %12, align 8, !tbaa !91
  call void @llvm.lifetime.end.p0(i64 8, ptr %14) #3
  br label %69

69:                                               ; preds = %66
  %70 = load i32, ptr %13, align 4, !tbaa !8
  %71 = add nsw i32 %70, 1
  store i32 %71, ptr %13, align 4, !tbaa !8
  br label %46, !llvm.loop !196

72:                                               ; preds = %49
  call void @llvm.lifetime.end.p0(i64 8, ptr %12) #3
  br label %73

73:                                               ; preds = %72
  %74 = load i32, ptr %10, align 4, !tbaa !8
  %75 = add i32 %74, 1
  store i32 %75, ptr %10, align 4, !tbaa !8
  br label %34, !llvm.loop !197

76:                                               ; preds = %38
  %77 = call noundef ptr @_ZNSt5arrayIjLm64EE5beginEv(ptr noundef nonnull align 4 dereferenceable(256) %9) #15
  %78 = call noundef ptr @_ZNSt5arrayIjLm64EE5beginEv(ptr noundef nonnull align 4 dereferenceable(256) %9) #15
  %79 = load i32, ptr %7, align 4, !tbaa !8
  %80 = zext i32 %79 to i64
  %81 = getelementptr inbounds nuw i32, ptr %78, i64 %80
  call void @_ZSt4sortIPjEvT_S1_(ptr noundef %77, ptr noundef %81)
  call void @llvm.lifetime.start.p0(i64 4, ptr %15) #3
  store i32 1, ptr %15, align 4, !tbaa !8
  call void @llvm.lifetime.start.p0(i64 4, ptr %16) #3
  store i32 1, ptr %16, align 4, !tbaa !8
  br label %82

82:                                               ; preds = %101, %76
  %83 = load i32, ptr %16, align 4, !tbaa !8
  %84 = load i32, ptr %7, align 4, !tbaa !8
  %85 = icmp ult i32 %83, %84
  br i1 %85, label %87, label %86

86:                                               ; preds = %82
  store i32 8, ptr %11, align 4
  call void @llvm.lifetime.end.p0(i64 4, ptr %16) #3
  br label %104

87:                                               ; preds = %82
  %88 = load i32, ptr %16, align 4, !tbaa !8
  %89 = zext i32 %88 to i64
  %90 = call noundef nonnull align 4 dereferenceable(4) ptr @_ZNSt5arrayIjLm64EEixEm(ptr noundef nonnull align 4 dereferenceable(256) %9, i64 noundef %89) #3
  %91 = load i32, ptr %90, align 4, !tbaa !8
  %92 = load i32, ptr %16, align 4, !tbaa !8
  %93 = sub i32 %92, 1
  %94 = zext i32 %93 to i64
  %95 = call noundef nonnull align 4 dereferenceable(4) ptr @_ZNSt5arrayIjLm64EEixEm(ptr noundef nonnull align 4 dereferenceable(256) %9, i64 noundef %94) #3
  %96 = load i32, ptr %95, align 4, !tbaa !8
  %97 = icmp ne i32 %91, %96
  %98 = select i1 %97, i32 1, i32 0
  %99 = load i32, ptr %15, align 4, !tbaa !8
  %100 = add i32 %99, %98
  store i32 %100, ptr %15, align 4, !tbaa !8
  br label %101

101:                                              ; preds = %87
  %102 = load i32, ptr %16, align 4, !tbaa !8
  %103 = add i32 %102, 1
  store i32 %103, ptr %16, align 4, !tbaa !8
  br label %82, !llvm.loop !198

104:                                              ; preds = %86
  %105 = load i32, ptr %15, align 4, !tbaa !8
  store i32 1, ptr %11, align 4
  call void @llvm.lifetime.end.p0(i64 4, ptr %15) #3
  call void @llvm.lifetime.end.p0(i64 256, ptr %9) #3
  call void @llvm.lifetime.end.p0(i64 8, ptr %8) #3
  call void @llvm.lifetime.end.p0(i64 4, ptr %7) #3
  call void @llvm.lifetime.end.p0(i64 48, ptr %6) #3
  call void @llvm.lifetime.end.p0(i64 4, ptr %5) #3
  ret i32 %105
}

; Function Attrs: mustprogress nounwind uwtable
define linkonce_odr noundef nonnull align 4 dereferenceable(4) ptr @_ZNSt5arrayIjLm64EEixEm(ptr noundef nonnull align 4 dereferenceable(256) %0, i64 noundef %1) #4 comdat align 2 {
  %3 = alloca ptr, align 8
  %4 = alloca i64, align 8
  store ptr %0, ptr %3, align 8, !tbaa !199
  store i64 %1, ptr %4, align 8, !tbaa !91
  %5 = load ptr, ptr %3, align 8
  %6 = getelementptr inbounds nuw %"struct.std::array.25", ptr %5, i32 0, i32 0
  %7 = load i64, ptr %4, align 8, !tbaa !91
  %8 = call noundef nonnull align 4 dereferenceable(4) ptr @_ZNSt14__array_traitsIjLm64EE6_S_refERA64_Kjm(ptr noundef nonnull align 4 dereferenceable(256) %6, i64 noundef %7) #3
  ret ptr %8
}

; Function Attrs: inlinehint mustprogress nounwind uwtable
define linkonce_odr void @_ZSt4sortIPjEvT_S1_(ptr noundef %0, ptr noundef %1) #6 comdat {
  %3 = alloca ptr, align 8
  %4 = alloca ptr, align 8
  store ptr %0, ptr %3, align 8, !tbaa !10
  store ptr %1, ptr %4, align 8, !tbaa !10
  %5 = load ptr, ptr %3, align 8, !tbaa !10
  %6 = load ptr, ptr %4, align 8, !tbaa !10
  call void @_ZN9__gnu_cxx5__ops16__iter_less_iterEv()
  call void @_ZSt6__sortIPjN9__gnu_cxx5__ops15_Iter_less_iterEEvT_S4_T0_(ptr noundef %5, ptr noundef %6)
  ret void
}

; Function Attrs: mustprogress nounwind willreturn memory(none) uwtable
define linkonce_odr noundef ptr @_ZNSt5arrayIjLm64EE5beginEv(ptr noundef nonnull align 4 dereferenceable(256) %0) #8 comdat align 2 {
  %2 = alloca ptr, align 8
  store ptr %0, ptr %2, align 8, !tbaa !199
  %3 = load ptr, ptr %2, align 8
  %4 = call noundef ptr @_ZNSt5arrayIjLm64EE4dataEv(ptr noundef nonnull align 4 dereferenceable(256) %3) #15
  ret ptr %4
}

; Function Attrs: mustprogress nounwind uwtable
define linkonce_odr noundef nonnull align 4 dereferenceable(4) ptr @_ZNSt14__array_traitsIjLm64EE6_S_refERA64_Kjm(ptr noundef nonnull align 4 dereferenceable(256) %0, i64 noundef %1) #4 comdat align 2 {
  %3 = alloca ptr, align 8
  %4 = alloca i64, align 8
  store ptr %0, ptr %3, align 8, !tbaa !10
  store i64 %1, ptr %4, align 8, !tbaa !91
  %5 = load ptr, ptr %3, align 8, !tbaa !10
  %6 = load i64, ptr %4, align 8, !tbaa !91
  %7 = getelementptr inbounds nuw [64 x i32], ptr %5, i64 0, i64 %6
  ret ptr %7
}

; Function Attrs: inlinehint mustprogress nounwind uwtable
define linkonce_odr void @_ZSt6__sortIPjN9__gnu_cxx5__ops15_Iter_less_iterEEvT_S4_T0_(ptr noundef %0, ptr noundef %1) #6 comdat {
  %3 = alloca ptr, align 8
  %4 = alloca ptr, align 8
  store ptr %0, ptr %3, align 8, !tbaa !10
  store ptr %1, ptr %4, align 8, !tbaa !10
  %5 = load ptr, ptr %3, align 8, !tbaa !10
  %6 = load ptr, ptr %4, align 8, !tbaa !10
  %7 = icmp ne ptr %5, %6
  br i1 %7, label %8, label %21

8:                                                ; preds = %2
  %9 = load ptr, ptr %3, align 8, !tbaa !10
  %10 = load ptr, ptr %4, align 8, !tbaa !10
  %11 = load ptr, ptr %4, align 8, !tbaa !10
  %12 = load ptr, ptr %3, align 8, !tbaa !10
  %13 = ptrtoint ptr %11 to i64
  %14 = ptrtoint ptr %12 to i64
  %15 = sub i64 %13, %14
  %16 = sdiv exact i64 %15, 4
  %17 = call noundef i64 @_ZSt4__lgl(i64 noundef %16)
  %18 = mul nsw i64 %17, 2
  call void @_ZSt16__introsort_loopIPjlN9__gnu_cxx5__ops15_Iter_less_iterEEvT_S4_T0_T1_(ptr noundef %9, ptr noundef %10, i64 noundef %18)
  %19 = load ptr, ptr %3, align 8, !tbaa !10
  %20 = load ptr, ptr %4, align 8, !tbaa !10
  call void @_ZSt22__final_insertion_sortIPjN9__gnu_cxx5__ops15_Iter_less_iterEEvT_S4_T0_(ptr noundef %19, ptr noundef %20)
  br label %21

21:                                               ; preds = %8, %2
  ret void
}

; Function Attrs: inlinehint mustprogress nounwind uwtable
define linkonce_odr void @_ZN9__gnu_cxx5__ops16__iter_less_iterEv() #6 comdat {
  ret void
}

; Function Attrs: mustprogress nounwind uwtable
define linkonce_odr void @_ZSt16__introsort_loopIPjlN9__gnu_cxx5__ops15_Iter_less_iterEEvT_S4_T0_T1_(ptr noundef %0, ptr noundef %1, i64 noundef %2) #4 comdat {
  %4 = alloca ptr, align 8
  %5 = alloca ptr, align 8
  %6 = alloca i64, align 8
  %7 = alloca ptr, align 8
  store ptr %0, ptr %4, align 8, !tbaa !10
  store ptr %1, ptr %5, align 8, !tbaa !10
  store i64 %2, ptr %6, align 8, !tbaa !91
  br label %8

8:                                                ; preds = %23, %3
  %9 = load ptr, ptr %5, align 8, !tbaa !10
  %10 = load ptr, ptr %4, align 8, !tbaa !10
  %11 = ptrtoint ptr %9 to i64
  %12 = ptrtoint ptr %10 to i64
  %13 = sub i64 %11, %12
  %14 = sdiv exact i64 %13, 4
  %15 = icmp sgt i64 %14, 16
  br i1 %15, label %16, label %33

16:                                               ; preds = %8
  %17 = load i64, ptr %6, align 8, !tbaa !91
  %18 = icmp eq i64 %17, 0
  br i1 %18, label %19, label %23

19:                                               ; preds = %16
  %20 = load ptr, ptr %4, align 8, !tbaa !10
  %21 = load ptr, ptr %5, align 8, !tbaa !10
  %22 = load ptr, ptr %5, align 8, !tbaa !10
  call void @_ZSt14__partial_sortIPjN9__gnu_cxx5__ops15_Iter_less_iterEEvT_S4_S4_T0_(ptr noundef %20, ptr noundef %21, ptr noundef %22)
  br label %33

23:                                               ; preds = %16
  %24 = load i64, ptr %6, align 8, !tbaa !91
  %25 = add nsw i64 %24, -1
  store i64 %25, ptr %6, align 8, !tbaa !91
  call void @llvm.lifetime.start.p0(i64 8, ptr %7) #3
  %26 = load ptr, ptr %4, align 8, !tbaa !10
  %27 = load ptr, ptr %5, align 8, !tbaa !10
  %28 = call noundef ptr @_ZSt27__unguarded_partition_pivotIPjN9__gnu_cxx5__ops15_Iter_less_iterEET_S4_S4_T0_(ptr noundef %26, ptr noundef %27)
  store ptr %28, ptr %7, align 8, !tbaa !10
  %29 = load ptr, ptr %7, align 8, !tbaa !10
  %30 = load ptr, ptr %5, align 8, !tbaa !10
  %31 = load i64, ptr %6, align 8, !tbaa !91
  call void @_ZSt16__introsort_loopIPjlN9__gnu_cxx5__ops15_Iter_less_iterEEvT_S4_T0_T1_(ptr noundef %29, ptr noundef %30, i64 noundef %31)
  %32 = load ptr, ptr %7, align 8, !tbaa !10
  store ptr %32, ptr %5, align 8, !tbaa !10
  call void @llvm.lifetime.end.p0(i64 8, ptr %7) #3
  br label %8, !llvm.loop !201

33:                                               ; preds = %19, %8
  ret void
}

; Function Attrs: inlinehint mustprogress nounwind uwtable
define linkonce_odr noundef i64 @_ZSt4__lgl(i64 noundef %0) #6 comdat {
  %2 = alloca i64, align 8
  store i64 %0, ptr %2, align 8, !tbaa !91
  %3 = load i64, ptr %2, align 8, !tbaa !91
  %4 = call i64 @llvm.ctlz.i64(i64 %3, i1 true)
  %5 = trunc i64 %4 to i32
  %6 = sub nsw i32 63, %5
  %7 = sext i32 %6 to i64
  ret i64 %7
}

; Function Attrs: mustprogress nounwind uwtable
define linkonce_odr void @_ZSt22__final_insertion_sortIPjN9__gnu_cxx5__ops15_Iter_less_iterEEvT_S4_T0_(ptr noundef %0, ptr noundef %1) #4 comdat {
  %3 = alloca ptr, align 8
  %4 = alloca ptr, align 8
  store ptr %0, ptr %3, align 8, !tbaa !10
  store ptr %1, ptr %4, align 8, !tbaa !10
  %5 = load ptr, ptr %4, align 8, !tbaa !10
  %6 = load ptr, ptr %3, align 8, !tbaa !10
  %7 = ptrtoint ptr %5 to i64
  %8 = ptrtoint ptr %6 to i64
  %9 = sub i64 %7, %8
  %10 = sdiv exact i64 %9, 4
  %11 = icmp sgt i64 %10, 16
  br i1 %11, label %12, label %19

12:                                               ; preds = %2
  %13 = load ptr, ptr %3, align 8, !tbaa !10
  %14 = load ptr, ptr %3, align 8, !tbaa !10
  %15 = getelementptr inbounds i32, ptr %14, i64 16
  call void @_ZSt16__insertion_sortIPjN9__gnu_cxx5__ops15_Iter_less_iterEEvT_S4_T0_(ptr noundef %13, ptr noundef %15)
  %16 = load ptr, ptr %3, align 8, !tbaa !10
  %17 = getelementptr inbounds i32, ptr %16, i64 16
  %18 = load ptr, ptr %4, align 8, !tbaa !10
  call void @_ZSt26__unguarded_insertion_sortIPjN9__gnu_cxx5__ops15_Iter_less_iterEEvT_S4_T0_(ptr noundef %17, ptr noundef %18)
  br label %22

19:                                               ; preds = %2
  %20 = load ptr, ptr %3, align 8, !tbaa !10
  %21 = load ptr, ptr %4, align 8, !tbaa !10
  call void @_ZSt16__insertion_sortIPjN9__gnu_cxx5__ops15_Iter_less_iterEEvT_S4_T0_(ptr noundef %20, ptr noundef %21)
  br label %22

22:                                               ; preds = %19, %12
  ret void
}

; Function Attrs: inlinehint mustprogress nounwind uwtable
define linkonce_odr void @_ZSt14__partial_sortIPjN9__gnu_cxx5__ops15_Iter_less_iterEEvT_S4_S4_T0_(ptr noundef %0, ptr noundef %1, ptr noundef %2) #6 comdat {
  %4 = alloca %"struct.__gnu_cxx::__ops::_Iter_less_iter", align 1
  %5 = alloca ptr, align 8
  %6 = alloca ptr, align 8
  %7 = alloca ptr, align 8
  store ptr %0, ptr %5, align 8, !tbaa !10
  store ptr %1, ptr %6, align 8, !tbaa !10
  store ptr %2, ptr %7, align 8, !tbaa !10
  %8 = load ptr, ptr %5, align 8, !tbaa !10
  %9 = load ptr, ptr %6, align 8, !tbaa !10
  %10 = load ptr, ptr %7, align 8, !tbaa !10
  call void @_ZSt13__heap_selectIPjN9__gnu_cxx5__ops15_Iter_less_iterEEvT_S4_S4_T0_(ptr noundef %8, ptr noundef %9, ptr noundef %10)
  %11 = load ptr, ptr %5, align 8, !tbaa !10
  %12 = load ptr, ptr %6, align 8, !tbaa !10
  call void @_ZSt11__sort_heapIPjN9__gnu_cxx5__ops15_Iter_less_iterEEvT_S4_RT0_(ptr noundef %11, ptr noundef %12, ptr noundef nonnull align 1 dereferenceable(1) %4)
  ret void
}

; Function Attrs: inlinehint mustprogress nounwind uwtable
define linkonce_odr noundef ptr @_ZSt27__unguarded_partition_pivotIPjN9__gnu_cxx5__ops15_Iter_less_iterEET_S4_S4_T0_(ptr noundef %0, ptr noundef %1) #6 comdat {
  %3 = alloca ptr, align 8
  %4 = alloca ptr, align 8
  %5 = alloca ptr, align 8
  store ptr %0, ptr %3, align 8, !tbaa !10
  store ptr %1, ptr %4, align 8, !tbaa !10
  call void @llvm.lifetime.start.p0(i64 8, ptr %5) #3
  %6 = load ptr, ptr %3, align 8, !tbaa !10
  %7 = load ptr, ptr %4, align 8, !tbaa !10
  %8 = load ptr, ptr %3, align 8, !tbaa !10
  %9 = ptrtoint ptr %7 to i64
  %10 = ptrtoint ptr %8 to i64
  %11 = sub i64 %9, %10
  %12 = sdiv exact i64 %11, 4
  %13 = sdiv i64 %12, 2
  %14 = getelementptr inbounds i32, ptr %6, i64 %13
  store ptr %14, ptr %5, align 8, !tbaa !10
  %15 = load ptr, ptr %3, align 8, !tbaa !10
  %16 = load ptr, ptr %3, align 8, !tbaa !10
  %17 = getelementptr inbounds i32, ptr %16, i64 1
  %18 = load ptr, ptr %5, align 8, !tbaa !10
  %19 = load ptr, ptr %4, align 8, !tbaa !10
  %20 = getelementptr inbounds i32, ptr %19, i64 -1
  call void @_ZSt22__move_median_to_firstIPjN9__gnu_cxx5__ops15_Iter_less_iterEEvT_S4_S4_S4_T0_(ptr noundef %15, ptr noundef %17, ptr noundef %18, ptr noundef %20)
  %21 = load ptr, ptr %3, align 8, !tbaa !10
  %22 = getelementptr inbounds i32, ptr %21, i64 1
  %23 = load ptr, ptr %4, align 8, !tbaa !10
  %24 = load ptr, ptr %3, align 8, !tbaa !10
  %25 = call noundef ptr @_ZSt21__unguarded_partitionIPjN9__gnu_cxx5__ops15_Iter_less_iterEET_S4_S4_S4_T0_(ptr noundef %22, ptr noundef %23, ptr noundef %24)
  call void @llvm.lifetime.end.p0(i64 8, ptr %5) #3
  ret ptr %25
}

; Function Attrs: mustprogress nounwind uwtable
define linkonce_odr void @_ZSt13__heap_selectIPjN9__gnu_cxx5__ops15_Iter_less_iterEEvT_S4_S4_T0_(ptr noundef %0, ptr noundef %1, ptr noundef %2) #4 comdat {
  %4 = alloca %"struct.__gnu_cxx::__ops::_Iter_less_iter", align 1
  %5 = alloca ptr, align 8
  %6 = alloca ptr, align 8
  %7 = alloca ptr, align 8
  %8 = alloca ptr, align 8
  store ptr %0, ptr %5, align 8, !tbaa !10
  store ptr %1, ptr %6, align 8, !tbaa !10
  store ptr %2, ptr %7, align 8, !tbaa !10
  %9 = load ptr, ptr %5, align 8, !tbaa !10
  %10 = load ptr, ptr %6, align 8, !tbaa !10
  call void @_ZSt11__make_heapIPjN9__gnu_cxx5__ops15_Iter_less_iterEEvT_S4_RT0_(ptr noundef %9, ptr noundef %10, ptr noundef nonnull align 1 dereferenceable(1) %4)
  call void @llvm.lifetime.start.p0(i64 8, ptr %8) #3
  %11 = load ptr, ptr %6, align 8, !tbaa !10
  store ptr %11, ptr %8, align 8, !tbaa !10
  br label %12

12:                                               ; preds = %26, %3
  %13 = load ptr, ptr %8, align 8, !tbaa !10
  %14 = load ptr, ptr %7, align 8, !tbaa !10
  %15 = icmp ult ptr %13, %14
  br i1 %15, label %17, label %16

16:                                               ; preds = %12
  call void @llvm.lifetime.end.p0(i64 8, ptr %8) #3
  br label %29

17:                                               ; preds = %12
  %18 = load ptr, ptr %8, align 8, !tbaa !10
  %19 = load ptr, ptr %5, align 8, !tbaa !10
  %20 = call noundef zeroext i1 @_ZNK9__gnu_cxx5__ops15_Iter_less_iterclIPjS3_EEbT_T0_(ptr noundef nonnull align 1 dereferenceable(1) %4, ptr noundef %18, ptr noundef %19)
  br i1 %20, label %21, label %25

21:                                               ; preds = %17
  %22 = load ptr, ptr %5, align 8, !tbaa !10
  %23 = load ptr, ptr %6, align 8, !tbaa !10
  %24 = load ptr, ptr %8, align 8, !tbaa !10
  call void @_ZSt10__pop_heapIPjN9__gnu_cxx5__ops15_Iter_less_iterEEvT_S4_S4_RT0_(ptr noundef %22, ptr noundef %23, ptr noundef %24, ptr noundef nonnull align 1 dereferenceable(1) %4)
  br label %25

25:                                               ; preds = %21, %17
  br label %26

26:                                               ; preds = %25
  %27 = load ptr, ptr %8, align 8, !tbaa !10
  %28 = getelementptr inbounds nuw i32, ptr %27, i32 1
  store ptr %28, ptr %8, align 8, !tbaa !10
  br label %12, !llvm.loop !202

29:                                               ; preds = %16
  ret void
}

; Function Attrs: mustprogress nounwind uwtable
define linkonce_odr void @_ZSt11__sort_heapIPjN9__gnu_cxx5__ops15_Iter_less_iterEEvT_S4_RT0_(ptr noundef %0, ptr noundef %1, ptr noundef nonnull align 1 dereferenceable(1) %2) #4 comdat {
  %4 = alloca ptr, align 8
  %5 = alloca ptr, align 8
  %6 = alloca ptr, align 8
  store ptr %0, ptr %4, align 8, !tbaa !10
  store ptr %1, ptr %5, align 8, !tbaa !10
  store ptr %2, ptr %6, align 8, !tbaa !203
  br label %7

7:                                                ; preds = %15, %3
  %8 = load ptr, ptr %5, align 8, !tbaa !10
  %9 = load ptr, ptr %4, align 8, !tbaa !10
  %10 = ptrtoint ptr %8 to i64
  %11 = ptrtoint ptr %9 to i64
  %12 = sub i64 %10, %11
  %13 = sdiv exact i64 %12, 4
  %14 = icmp sgt i64 %13, 1
  br i1 %14, label %15, label %22

15:                                               ; preds = %7
  %16 = load ptr, ptr %5, align 8, !tbaa !10
  %17 = getelementptr inbounds i32, ptr %16, i32 -1
  store ptr %17, ptr %5, align 8, !tbaa !10
  %18 = load ptr, ptr %4, align 8, !tbaa !10
  %19 = load ptr, ptr %5, align 8, !tbaa !10
  %20 = load ptr, ptr %5, align 8, !tbaa !10
  %21 = load ptr, ptr %6, align 8, !tbaa !203
  call void @_ZSt10__pop_heapIPjN9__gnu_cxx5__ops15_Iter_less_iterEEvT_S4_S4_RT0_(ptr noundef %18, ptr noundef %19, ptr noundef %20, ptr noundef nonnull align 1 dereferenceable(1) %21)
  br label %7, !llvm.loop !205

22:                                               ; preds = %7
  ret void
}

; Function Attrs: mustprogress nounwind uwtable
define linkonce_odr void @_ZSt11__make_heapIPjN9__gnu_cxx5__ops15_Iter_less_iterEEvT_S4_RT0_(ptr noundef %0, ptr noundef %1, ptr noundef nonnull align 1 dereferenceable(1) %2) #4 comdat {
  %4 = alloca ptr, align 8
  %5 = alloca ptr, align 8
  %6 = alloca ptr, align 8
  %7 = alloca i64, align 8
  %8 = alloca i64, align 8
  %9 = alloca i32, align 4
  %10 = alloca i32, align 4
  store ptr %0, ptr %4, align 8, !tbaa !10
  store ptr %1, ptr %5, align 8, !tbaa !10
  store ptr %2, ptr %6, align 8, !tbaa !203
  %11 = load ptr, ptr %5, align 8, !tbaa !10
  %12 = load ptr, ptr %4, align 8, !tbaa !10
  %13 = ptrtoint ptr %11 to i64
  %14 = ptrtoint ptr %12 to i64
  %15 = sub i64 %13, %14
  %16 = sdiv exact i64 %15, 4
  %17 = icmp slt i64 %16, 2
  br i1 %17, label %18, label %19

18:                                               ; preds = %3
  br label %49

19:                                               ; preds = %3
  call void @llvm.lifetime.start.p0(i64 8, ptr %7) #3
  %20 = load ptr, ptr %5, align 8, !tbaa !10
  %21 = load ptr, ptr %4, align 8, !tbaa !10
  %22 = ptrtoint ptr %20 to i64
  %23 = ptrtoint ptr %21 to i64
  %24 = sub i64 %22, %23
  %25 = sdiv exact i64 %24, 4
  store i64 %25, ptr %7, align 8, !tbaa !91
  call void @llvm.lifetime.start.p0(i64 8, ptr %8) #3
  %26 = load i64, ptr %7, align 8, !tbaa !91
  %27 = sub nsw i64 %26, 2
  %28 = sdiv i64 %27, 2
  store i64 %28, ptr %8, align 8, !tbaa !91
  br label %29

29:                                               ; preds = %47, %19
  br label %30

30:                                               ; preds = %29
  call void @llvm.lifetime.start.p0(i64 4, ptr %9) #3
  %31 = load ptr, ptr %4, align 8, !tbaa !10
  %32 = load i64, ptr %8, align 8, !tbaa !91
  %33 = getelementptr inbounds i32, ptr %31, i64 %32
  %34 = load i32, ptr %33, align 4, !tbaa !8
  store i32 %34, ptr %9, align 4, !tbaa !8
  %35 = load ptr, ptr %4, align 8, !tbaa !10
  %36 = load i64, ptr %8, align 8, !tbaa !91
  %37 = load i64, ptr %7, align 8, !tbaa !91
  %38 = load i32, ptr %9, align 4, !tbaa !8
  call void @_ZSt13__adjust_heapIPjljN9__gnu_cxx5__ops15_Iter_less_iterEEvT_T0_S5_T1_T2_(ptr noundef %35, i64 noundef %36, i64 noundef %37, i32 noundef %38)
  %39 = load i64, ptr %8, align 8, !tbaa !91
  %40 = icmp eq i64 %39, 0
  br i1 %40, label %41, label %42

41:                                               ; preds = %30
  store i32 1, ptr %10, align 4
  br label %45

42:                                               ; preds = %30
  %43 = load i64, ptr %8, align 8, !tbaa !91
  %44 = add nsw i64 %43, -1
  store i64 %44, ptr %8, align 8, !tbaa !91
  store i32 0, ptr %10, align 4
  br label %45

45:                                               ; preds = %42, %41
  call void @llvm.lifetime.end.p0(i64 4, ptr %9) #3
  %46 = load i32, ptr %10, align 4
  switch i32 %46, label %48 [
    i32 0, label %47
  ]

47:                                               ; preds = %45
  br label %29, !llvm.loop !206

48:                                               ; preds = %45
  call void @llvm.lifetime.end.p0(i64 8, ptr %8) #3
  call void @llvm.lifetime.end.p0(i64 8, ptr %7) #3
  br label %49

49:                                               ; preds = %48, %18
  ret void
}

; Function Attrs: mustprogress nounwind uwtable
define linkonce_odr noundef zeroext i1 @_ZNK9__gnu_cxx5__ops15_Iter_less_iterclIPjS3_EEbT_T0_(ptr noundef nonnull align 1 dereferenceable(1) %0, ptr noundef %1, ptr noundef %2) #4 comdat align 2 {
  %4 = alloca ptr, align 8
  %5 = alloca ptr, align 8
  %6 = alloca ptr, align 8
  store ptr %0, ptr %4, align 8, !tbaa !203
  store ptr %1, ptr %5, align 8, !tbaa !10
  store ptr %2, ptr %6, align 8, !tbaa !10
  %7 = load ptr, ptr %5, align 8, !tbaa !10
  %8 = load i32, ptr %7, align 4, !tbaa !8
  %9 = load ptr, ptr %6, align 8, !tbaa !10
  %10 = load i32, ptr %9, align 4, !tbaa !8
  %11 = icmp ult i32 %8, %10
  ret i1 %11
}

; Function Attrs: inlinehint mustprogress nounwind uwtable
define linkonce_odr void @_ZSt10__pop_heapIPjN9__gnu_cxx5__ops15_Iter_less_iterEEvT_S4_S4_RT0_(ptr noundef %0, ptr noundef %1, ptr noundef %2, ptr noundef nonnull align 1 dereferenceable(1) %3) #6 comdat {
  %5 = alloca ptr, align 8
  %6 = alloca ptr, align 8
  %7 = alloca ptr, align 8
  %8 = alloca ptr, align 8
  %9 = alloca i32, align 4
  store ptr %0, ptr %5, align 8, !tbaa !10
  store ptr %1, ptr %6, align 8, !tbaa !10
  store ptr %2, ptr %7, align 8, !tbaa !10
  store ptr %3, ptr %8, align 8, !tbaa !203
  call void @llvm.lifetime.start.p0(i64 4, ptr %9) #3
  %10 = load ptr, ptr %7, align 8, !tbaa !10
  %11 = load i32, ptr %10, align 4, !tbaa !8
  store i32 %11, ptr %9, align 4, !tbaa !8
  %12 = load ptr, ptr %5, align 8, !tbaa !10
  %13 = load i32, ptr %12, align 4, !tbaa !8
  %14 = load ptr, ptr %7, align 8, !tbaa !10
  store i32 %13, ptr %14, align 4, !tbaa !8
  %15 = load ptr, ptr %5, align 8, !tbaa !10
  %16 = load ptr, ptr %6, align 8, !tbaa !10
  %17 = load ptr, ptr %5, align 8, !tbaa !10
  %18 = ptrtoint ptr %16 to i64
  %19 = ptrtoint ptr %17 to i64
  %20 = sub i64 %18, %19
  %21 = sdiv exact i64 %20, 4
  %22 = load i32, ptr %9, align 4, !tbaa !8
  call void @_ZSt13__adjust_heapIPjljN9__gnu_cxx5__ops15_Iter_less_iterEEvT_T0_S5_T1_T2_(ptr noundef %15, i64 noundef 0, i64 noundef %21, i32 noundef %22)
  call void @llvm.lifetime.end.p0(i64 4, ptr %9) #3
  ret void
}

; Function Attrs: mustprogress nounwind uwtable
define linkonce_odr void @_ZSt13__adjust_heapIPjljN9__gnu_cxx5__ops15_Iter_less_iterEEvT_T0_S5_T1_T2_(ptr noundef %0, i64 noundef %1, i64 noundef %2, i32 noundef %3) #4 comdat {
  %5 = alloca %"struct.__gnu_cxx::__ops::_Iter_less_iter", align 1
  %6 = alloca ptr, align 8
  %7 = alloca i64, align 8
  %8 = alloca i64, align 8
  %9 = alloca i32, align 4
  %10 = alloca i64, align 8
  %11 = alloca i64, align 8
  %12 = alloca %"struct.__gnu_cxx::__ops::_Iter_less_val", align 1
  store ptr %0, ptr %6, align 8, !tbaa !10
  store i64 %1, ptr %7, align 8, !tbaa !91
  store i64 %2, ptr %8, align 8, !tbaa !91
  store i32 %3, ptr %9, align 4, !tbaa !8
  call void @llvm.lifetime.start.p0(i64 8, ptr %10) #3
  %13 = load i64, ptr %7, align 8, !tbaa !91
  store i64 %13, ptr %10, align 8, !tbaa !91
  call void @llvm.lifetime.start.p0(i64 8, ptr %11) #3
  %14 = load i64, ptr %7, align 8, !tbaa !91
  store i64 %14, ptr %11, align 8, !tbaa !91
  br label %15

15:                                               ; preds = %36, %4
  %16 = load i64, ptr %11, align 8, !tbaa !91
  %17 = load i64, ptr %8, align 8, !tbaa !91
  %18 = sub nsw i64 %17, 1
  %19 = sdiv i64 %18, 2
  %20 = icmp slt i64 %16, %19
  br i1 %20, label %21, label %45

21:                                               ; preds = %15
  %22 = load i64, ptr %11, align 8, !tbaa !91
  %23 = add nsw i64 %22, 1
  %24 = mul nsw i64 2, %23
  store i64 %24, ptr %11, align 8, !tbaa !91
  %25 = load ptr, ptr %6, align 8, !tbaa !10
  %26 = load i64, ptr %11, align 8, !tbaa !91
  %27 = getelementptr inbounds i32, ptr %25, i64 %26
  %28 = load ptr, ptr %6, align 8, !tbaa !10
  %29 = load i64, ptr %11, align 8, !tbaa !91
  %30 = sub nsw i64 %29, 1
  %31 = getelementptr inbounds i32, ptr %28, i64 %30
  %32 = call noundef zeroext i1 @_ZNK9__gnu_cxx5__ops15_Iter_less_iterclIPjS3_EEbT_T0_(ptr noundef nonnull align 1 dereferenceable(1) %5, ptr noundef %27, ptr noundef %31)
  br i1 %32, label %33, label %36

33:                                               ; preds = %21
  %34 = load i64, ptr %11, align 8, !tbaa !91
  %35 = add nsw i64 %34, -1
  store i64 %35, ptr %11, align 8, !tbaa !91
  br label %36

36:                                               ; preds = %33, %21
  %37 = load ptr, ptr %6, align 8, !tbaa !10
  %38 = load i64, ptr %11, align 8, !tbaa !91
  %39 = getelementptr inbounds i32, ptr %37, i64 %38
  %40 = load i32, ptr %39, align 4, !tbaa !8
  %41 = load ptr, ptr %6, align 8, !tbaa !10
  %42 = load i64, ptr %7, align 8, !tbaa !91
  %43 = getelementptr inbounds i32, ptr %41, i64 %42
  store i32 %40, ptr %43, align 4, !tbaa !8
  %44 = load i64, ptr %11, align 8, !tbaa !91
  store i64 %44, ptr %7, align 8, !tbaa !91
  br label %15, !llvm.loop !207

45:                                               ; preds = %15
  %46 = load i64, ptr %8, align 8, !tbaa !91
  %47 = and i64 %46, 1
  %48 = icmp eq i64 %47, 0
  br i1 %48, label %49, label %69

49:                                               ; preds = %45
  %50 = load i64, ptr %11, align 8, !tbaa !91
  %51 = load i64, ptr %8, align 8, !tbaa !91
  %52 = sub nsw i64 %51, 2
  %53 = sdiv i64 %52, 2
  %54 = icmp eq i64 %50, %53
  br i1 %54, label %55, label %69

55:                                               ; preds = %49
  %56 = load i64, ptr %11, align 8, !tbaa !91
  %57 = add nsw i64 %56, 1
  %58 = mul nsw i64 2, %57
  store i64 %58, ptr %11, align 8, !tbaa !91
  %59 = load ptr, ptr %6, align 8, !tbaa !10
  %60 = load i64, ptr %11, align 8, !tbaa !91
  %61 = sub nsw i64 %60, 1
  %62 = getelementptr inbounds i32, ptr %59, i64 %61
  %63 = load i32, ptr %62, align 4, !tbaa !8
  %64 = load ptr, ptr %6, align 8, !tbaa !10
  %65 = load i64, ptr %7, align 8, !tbaa !91
  %66 = getelementptr inbounds i32, ptr %64, i64 %65
  store i32 %63, ptr %66, align 4, !tbaa !8
  %67 = load i64, ptr %11, align 8, !tbaa !91
  %68 = sub nsw i64 %67, 1
  store i64 %68, ptr %7, align 8, !tbaa !91
  br label %69

69:                                               ; preds = %55, %49, %45
  call void @llvm.lifetime.start.p0(i64 1, ptr %12) #3
  call void @_ZN9__gnu_cxx5__ops14_Iter_less_valC2ENS0_15_Iter_less_iterE(ptr noundef nonnull align 1 dereferenceable(1) %12)
  %70 = load ptr, ptr %6, align 8, !tbaa !10
  %71 = load i64, ptr %7, align 8, !tbaa !91
  %72 = load i64, ptr %10, align 8, !tbaa !91
  %73 = load i32, ptr %9, align 4, !tbaa !8
  call void @_ZSt11__push_heapIPjljN9__gnu_cxx5__ops14_Iter_less_valEEvT_T0_S5_T1_RT2_(ptr noundef %70, i64 noundef %71, i64 noundef %72, i32 noundef %73, ptr noundef nonnull align 1 dereferenceable(1) %12)
  call void @llvm.lifetime.end.p0(i64 1, ptr %12) #3
  call void @llvm.lifetime.end.p0(i64 8, ptr %11) #3
  call void @llvm.lifetime.end.p0(i64 8, ptr %10) #3
  ret void
}

; Function Attrs: mustprogress nounwind uwtable
define linkonce_odr void @_ZN9__gnu_cxx5__ops14_Iter_less_valC2ENS0_15_Iter_less_iterE(ptr noundef nonnull align 1 dereferenceable(1) %0) unnamed_addr #4 comdat align 2 {
  %2 = alloca ptr, align 8
  store ptr %0, ptr %2, align 8, !tbaa !208
  ret void
}

; Function Attrs: mustprogress nounwind uwtable
define linkonce_odr void @_ZSt11__push_heapIPjljN9__gnu_cxx5__ops14_Iter_less_valEEvT_T0_S5_T1_RT2_(ptr noundef %0, i64 noundef %1, i64 noundef %2, i32 noundef %3, ptr noundef nonnull align 1 dereferenceable(1) %4) #4 comdat {
  %6 = alloca ptr, align 8
  %7 = alloca i64, align 8
  %8 = alloca i64, align 8
  %9 = alloca i32, align 4
  %10 = alloca ptr, align 8
  %11 = alloca i64, align 8
  store ptr %0, ptr %6, align 8, !tbaa !10
  store i64 %1, ptr %7, align 8, !tbaa !91
  store i64 %2, ptr %8, align 8, !tbaa !91
  store i32 %3, ptr %9, align 4, !tbaa !8
  store ptr %4, ptr %10, align 8, !tbaa !208
  call void @llvm.lifetime.start.p0(i64 8, ptr %11) #3
  %12 = load i64, ptr %7, align 8, !tbaa !91
  %13 = sub nsw i64 %12, 1
  %14 = sdiv i64 %13, 2
  store i64 %14, ptr %11, align 8, !tbaa !91
  br label %15

15:                                               ; preds = %27, %5
  %16 = load i64, ptr %7, align 8, !tbaa !91
  %17 = load i64, ptr %8, align 8, !tbaa !91
  %18 = icmp sgt i64 %16, %17
  br i1 %18, label %19, label %25

19:                                               ; preds = %15
  %20 = load ptr, ptr %10, align 8, !tbaa !208
  %21 = load ptr, ptr %6, align 8, !tbaa !10
  %22 = load i64, ptr %11, align 8, !tbaa !91
  %23 = getelementptr inbounds i32, ptr %21, i64 %22
  %24 = call noundef zeroext i1 @_ZNK9__gnu_cxx5__ops14_Iter_less_valclIPjjEEbT_RT0_(ptr noundef nonnull align 1 dereferenceable(1) %20, ptr noundef %23, ptr noundef nonnull align 4 dereferenceable(4) %9)
  br label %25

25:                                               ; preds = %19, %15
  %26 = phi i1 [ false, %15 ], [ %24, %19 ]
  br i1 %26, label %27, label %39

27:                                               ; preds = %25
  %28 = load ptr, ptr %6, align 8, !tbaa !10
  %29 = load i64, ptr %11, align 8, !tbaa !91
  %30 = getelementptr inbounds i32, ptr %28, i64 %29
  %31 = load i32, ptr %30, align 4, !tbaa !8
  %32 = load ptr, ptr %6, align 8, !tbaa !10
  %33 = load i64, ptr %7, align 8, !tbaa !91
  %34 = getelementptr inbounds i32, ptr %32, i64 %33
  store i32 %31, ptr %34, align 4, !tbaa !8
  %35 = load i64, ptr %11, align 8, !tbaa !91
  store i64 %35, ptr %7, align 8, !tbaa !91
  %36 = load i64, ptr %7, align 8, !tbaa !91
  %37 = sub nsw i64 %36, 1
  %38 = sdiv i64 %37, 2
  store i64 %38, ptr %11, align 8, !tbaa !91
  br label %15, !llvm.loop !210

39:                                               ; preds = %25
  %40 = load i32, ptr %9, align 4, !tbaa !8
  %41 = load ptr, ptr %6, align 8, !tbaa !10
  %42 = load i64, ptr %7, align 8, !tbaa !91
  %43 = getelementptr inbounds i32, ptr %41, i64 %42
  store i32 %40, ptr %43, align 4, !tbaa !8
  call void @llvm.lifetime.end.p0(i64 8, ptr %11) #3
  ret void
}

; Function Attrs: mustprogress nounwind uwtable
define linkonce_odr noundef zeroext i1 @_ZNK9__gnu_cxx5__ops14_Iter_less_valclIPjjEEbT_RT0_(ptr noundef nonnull align 1 dereferenceable(1) %0, ptr noundef %1, ptr noundef nonnull align 4 dereferenceable(4) %2) #4 comdat align 2 {
  %4 = alloca ptr, align 8
  %5 = alloca ptr, align 8
  %6 = alloca ptr, align 8
  store ptr %0, ptr %4, align 8, !tbaa !208
  store ptr %1, ptr %5, align 8, !tbaa !10
  store ptr %2, ptr %6, align 8, !tbaa !10
  %7 = load ptr, ptr %5, align 8, !tbaa !10
  %8 = load i32, ptr %7, align 4, !tbaa !8
  %9 = load ptr, ptr %6, align 8, !tbaa !10
  %10 = load i32, ptr %9, align 4, !tbaa !8
  %11 = icmp ult i32 %8, %10
  ret i1 %11
}

; Function Attrs: mustprogress nounwind uwtable
define linkonce_odr void @_ZSt22__move_median_to_firstIPjN9__gnu_cxx5__ops15_Iter_less_iterEEvT_S4_S4_S4_T0_(ptr noundef %0, ptr noundef %1, ptr noundef %2, ptr noundef %3) #4 comdat {
  %5 = alloca %"struct.__gnu_cxx::__ops::_Iter_less_iter", align 1
  %6 = alloca ptr, align 8
  %7 = alloca ptr, align 8
  %8 = alloca ptr, align 8
  %9 = alloca ptr, align 8
  store ptr %0, ptr %6, align 8, !tbaa !10
  store ptr %1, ptr %7, align 8, !tbaa !10
  store ptr %2, ptr %8, align 8, !tbaa !10
  store ptr %3, ptr %9, align 8, !tbaa !10
  %10 = load ptr, ptr %7, align 8, !tbaa !10
  %11 = load ptr, ptr %8, align 8, !tbaa !10
  %12 = call noundef zeroext i1 @_ZNK9__gnu_cxx5__ops15_Iter_less_iterclIPjS3_EEbT_T0_(ptr noundef nonnull align 1 dereferenceable(1) %5, ptr noundef %10, ptr noundef %11)
  br i1 %12, label %13, label %32

13:                                               ; preds = %4
  %14 = load ptr, ptr %8, align 8, !tbaa !10
  %15 = load ptr, ptr %9, align 8, !tbaa !10
  %16 = call noundef zeroext i1 @_ZNK9__gnu_cxx5__ops15_Iter_less_iterclIPjS3_EEbT_T0_(ptr noundef nonnull align 1 dereferenceable(1) %5, ptr noundef %14, ptr noundef %15)
  br i1 %16, label %17, label %20

17:                                               ; preds = %13
  %18 = load ptr, ptr %6, align 8, !tbaa !10
  %19 = load ptr, ptr %8, align 8, !tbaa !10
  call void @_ZSt9iter_swapIPjS0_EvT_T0_(ptr noundef %18, ptr noundef %19)
  br label %31

20:                                               ; preds = %13
  %21 = load ptr, ptr %7, align 8, !tbaa !10
  %22 = load ptr, ptr %9, align 8, !tbaa !10
  %23 = call noundef zeroext i1 @_ZNK9__gnu_cxx5__ops15_Iter_less_iterclIPjS3_EEbT_T0_(ptr noundef nonnull align 1 dereferenceable(1) %5, ptr noundef %21, ptr noundef %22)
  br i1 %23, label %24, label %27

24:                                               ; preds = %20
  %25 = load ptr, ptr %6, align 8, !tbaa !10
  %26 = load ptr, ptr %9, align 8, !tbaa !10
  call void @_ZSt9iter_swapIPjS0_EvT_T0_(ptr noundef %25, ptr noundef %26)
  br label %30

27:                                               ; preds = %20
  %28 = load ptr, ptr %6, align 8, !tbaa !10
  %29 = load ptr, ptr %7, align 8, !tbaa !10
  call void @_ZSt9iter_swapIPjS0_EvT_T0_(ptr noundef %28, ptr noundef %29)
  br label %30

30:                                               ; preds = %27, %24
  br label %31

31:                                               ; preds = %30, %17
  br label %51

32:                                               ; preds = %4
  %33 = load ptr, ptr %7, align 8, !tbaa !10
  %34 = load ptr, ptr %9, align 8, !tbaa !10
  %35 = call noundef zeroext i1 @_ZNK9__gnu_cxx5__ops15_Iter_less_iterclIPjS3_EEbT_T0_(ptr noundef nonnull align 1 dereferenceable(1) %5, ptr noundef %33, ptr noundef %34)
  br i1 %35, label %36, label %39

36:                                               ; preds = %32
  %37 = load ptr, ptr %6, align 8, !tbaa !10
  %38 = load ptr, ptr %7, align 8, !tbaa !10
  call void @_ZSt9iter_swapIPjS0_EvT_T0_(ptr noundef %37, ptr noundef %38)
  br label %50

39:                                               ; preds = %32
  %40 = load ptr, ptr %8, align 8, !tbaa !10
  %41 = load ptr, ptr %9, align 8, !tbaa !10
  %42 = call noundef zeroext i1 @_ZNK9__gnu_cxx5__ops15_Iter_less_iterclIPjS3_EEbT_T0_(ptr noundef nonnull align 1 dereferenceable(1) %5, ptr noundef %40, ptr noundef %41)
  br i1 %42, label %43, label %46

43:                                               ; preds = %39
  %44 = load ptr, ptr %6, align 8, !tbaa !10
  %45 = load ptr, ptr %9, align 8, !tbaa !10
  call void @_ZSt9iter_swapIPjS0_EvT_T0_(ptr noundef %44, ptr noundef %45)
  br label %49

46:                                               ; preds = %39
  %47 = load ptr, ptr %6, align 8, !tbaa !10
  %48 = load ptr, ptr %8, align 8, !tbaa !10
  call void @_ZSt9iter_swapIPjS0_EvT_T0_(ptr noundef %47, ptr noundef %48)
  br label %49

49:                                               ; preds = %46, %43
  br label %50

50:                                               ; preds = %49, %36
  br label %51

51:                                               ; preds = %50, %31
  ret void
}

; Function Attrs: mustprogress nounwind uwtable
define linkonce_odr noundef ptr @_ZSt21__unguarded_partitionIPjN9__gnu_cxx5__ops15_Iter_less_iterEET_S4_S4_S4_T0_(ptr noundef %0, ptr noundef %1, ptr noundef %2) #4 comdat {
  %4 = alloca %"struct.__gnu_cxx::__ops::_Iter_less_iter", align 1
  %5 = alloca ptr, align 8
  %6 = alloca ptr, align 8
  %7 = alloca ptr, align 8
  store ptr %0, ptr %5, align 8, !tbaa !10
  store ptr %1, ptr %6, align 8, !tbaa !10
  store ptr %2, ptr %7, align 8, !tbaa !10
  br label %8

8:                                                ; preds = %3, %32
  br label %9

9:                                                ; preds = %13, %8
  %10 = load ptr, ptr %5, align 8, !tbaa !10
  %11 = load ptr, ptr %7, align 8, !tbaa !10
  %12 = call noundef zeroext i1 @_ZNK9__gnu_cxx5__ops15_Iter_less_iterclIPjS3_EEbT_T0_(ptr noundef nonnull align 1 dereferenceable(1) %4, ptr noundef %10, ptr noundef %11)
  br i1 %12, label %13, label %16

13:                                               ; preds = %9
  %14 = load ptr, ptr %5, align 8, !tbaa !10
  %15 = getelementptr inbounds nuw i32, ptr %14, i32 1
  store ptr %15, ptr %5, align 8, !tbaa !10
  br label %9, !llvm.loop !211

16:                                               ; preds = %9
  %17 = load ptr, ptr %6, align 8, !tbaa !10
  %18 = getelementptr inbounds i32, ptr %17, i32 -1
  store ptr %18, ptr %6, align 8, !tbaa !10
  br label %19

19:                                               ; preds = %23, %16
  %20 = load ptr, ptr %7, align 8, !tbaa !10
  %21 = load ptr, ptr %6, align 8, !tbaa !10
  %22 = call noundef zeroext i1 @_ZNK9__gnu_cxx5__ops15_Iter_less_iterclIPjS3_EEbT_T0_(ptr noundef nonnull align 1 dereferenceable(1) %4, ptr noundef %20, ptr noundef %21)
  br i1 %22, label %23, label %26

23:                                               ; preds = %19
  %24 = load ptr, ptr %6, align 8, !tbaa !10
  %25 = getelementptr inbounds i32, ptr %24, i32 -1
  store ptr %25, ptr %6, align 8, !tbaa !10
  br label %19, !llvm.loop !212

26:                                               ; preds = %19
  %27 = load ptr, ptr %5, align 8, !tbaa !10
  %28 = load ptr, ptr %6, align 8, !tbaa !10
  %29 = icmp ult ptr %27, %28
  br i1 %29, label %32, label %30

30:                                               ; preds = %26
  %31 = load ptr, ptr %5, align 8, !tbaa !10
  ret ptr %31

32:                                               ; preds = %26
  %33 = load ptr, ptr %5, align 8, !tbaa !10
  %34 = load ptr, ptr %6, align 8, !tbaa !10
  call void @_ZSt9iter_swapIPjS0_EvT_T0_(ptr noundef %33, ptr noundef %34)
  %35 = load ptr, ptr %5, align 8, !tbaa !10
  %36 = getelementptr inbounds nuw i32, ptr %35, i32 1
  store ptr %36, ptr %5, align 8, !tbaa !10
  br label %8, !llvm.loop !213
}

; Function Attrs: inlinehint mustprogress nounwind uwtable
define linkonce_odr void @_ZSt9iter_swapIPjS0_EvT_T0_(ptr noundef %0, ptr noundef %1) #6 comdat {
  %3 = alloca ptr, align 8
  %4 = alloca ptr, align 8
  store ptr %0, ptr %3, align 8, !tbaa !10
  store ptr %1, ptr %4, align 8, !tbaa !10
  %5 = load ptr, ptr %3, align 8, !tbaa !10
  %6 = load ptr, ptr %4, align 8, !tbaa !10
  call void @_ZSt4swapIjENSt9enable_ifIXsr6__and_ISt6__not_ISt15__is_tuple_likeIT_EESt21is_move_constructibleIS3_ESt18is_move_assignableIS3_EEE5valueEvE4typeERS3_SC_(ptr noundef nonnull align 4 dereferenceable(4) %5, ptr noundef nonnull align 4 dereferenceable(4) %6) #3
  ret void
}

; Function Attrs: nocallback nofree nosync nounwind speculatable willreturn memory(none)
declare i64 @llvm.ctlz.i64(i64, i1 immarg) #9

; Function Attrs: mustprogress nounwind uwtable
define linkonce_odr void @_ZSt16__insertion_sortIPjN9__gnu_cxx5__ops15_Iter_less_iterEEvT_S4_T0_(ptr noundef %0, ptr noundef %1) #4 comdat {
  %3 = alloca %"struct.__gnu_cxx::__ops::_Iter_less_iter", align 1
  %4 = alloca ptr, align 8
  %5 = alloca ptr, align 8
  %6 = alloca ptr, align 8
  %7 = alloca i32, align 4
  store ptr %0, ptr %4, align 8, !tbaa !10
  store ptr %1, ptr %5, align 8, !tbaa !10
  %8 = load ptr, ptr %4, align 8, !tbaa !10
  %9 = load ptr, ptr %5, align 8, !tbaa !10
  %10 = icmp eq ptr %8, %9
  br i1 %10, label %11, label %12

11:                                               ; preds = %2
  br label %40

12:                                               ; preds = %2
  call void @llvm.lifetime.start.p0(i64 8, ptr %6) #3
  %13 = load ptr, ptr %4, align 8, !tbaa !10
  %14 = getelementptr inbounds i32, ptr %13, i64 1
  store ptr %14, ptr %6, align 8, !tbaa !10
  br label %15

15:                                               ; preds = %37, %12
  %16 = load ptr, ptr %6, align 8, !tbaa !10
  %17 = load ptr, ptr %5, align 8, !tbaa !10
  %18 = icmp ne ptr %16, %17
  br i1 %18, label %20, label %19

19:                                               ; preds = %15
  call void @llvm.lifetime.end.p0(i64 8, ptr %6) #3
  br label %40

20:                                               ; preds = %15
  %21 = load ptr, ptr %6, align 8, !tbaa !10
  %22 = load ptr, ptr %4, align 8, !tbaa !10
  %23 = call noundef zeroext i1 @_ZNK9__gnu_cxx5__ops15_Iter_less_iterclIPjS3_EEbT_T0_(ptr noundef nonnull align 1 dereferenceable(1) %3, ptr noundef %21, ptr noundef %22)
  br i1 %23, label %24, label %34

24:                                               ; preds = %20
  call void @llvm.lifetime.start.p0(i64 4, ptr %7) #3
  %25 = load ptr, ptr %6, align 8, !tbaa !10
  %26 = load i32, ptr %25, align 4, !tbaa !8
  store i32 %26, ptr %7, align 4, !tbaa !8
  %27 = load ptr, ptr %4, align 8, !tbaa !10
  %28 = load ptr, ptr %6, align 8, !tbaa !10
  %29 = load ptr, ptr %6, align 8, !tbaa !10
  %30 = getelementptr inbounds i32, ptr %29, i64 1
  %31 = call noundef ptr @_ZSt13move_backwardIPjS0_ET0_T_S2_S1_(ptr noundef %27, ptr noundef %28, ptr noundef %30)
  %32 = load i32, ptr %7, align 4, !tbaa !8
  %33 = load ptr, ptr %4, align 8, !tbaa !10
  store i32 %32, ptr %33, align 4, !tbaa !8
  call void @llvm.lifetime.end.p0(i64 4, ptr %7) #3
  br label %36

34:                                               ; preds = %20
  %35 = load ptr, ptr %6, align 8, !tbaa !10
  call void @_ZN9__gnu_cxx5__ops15__val_comp_iterENS0_15_Iter_less_iterE()
  call void @_ZSt25__unguarded_linear_insertIPjN9__gnu_cxx5__ops14_Val_less_iterEEvT_T0_(ptr noundef %35)
  br label %36

36:                                               ; preds = %34, %24
  br label %37

37:                                               ; preds = %36
  %38 = load ptr, ptr %6, align 8, !tbaa !10
  %39 = getelementptr inbounds nuw i32, ptr %38, i32 1
  store ptr %39, ptr %6, align 8, !tbaa !10
  br label %15, !llvm.loop !214

40:                                               ; preds = %11, %19
  ret void
}

; Function Attrs: inlinehint mustprogress nounwind uwtable
define linkonce_odr void @_ZSt26__unguarded_insertion_sortIPjN9__gnu_cxx5__ops15_Iter_less_iterEEvT_S4_T0_(ptr noundef %0, ptr noundef %1) #6 comdat {
  %3 = alloca ptr, align 8
  %4 = alloca ptr, align 8
  %5 = alloca ptr, align 8
  store ptr %0, ptr %3, align 8, !tbaa !10
  store ptr %1, ptr %4, align 8, !tbaa !10
  call void @llvm.lifetime.start.p0(i64 8, ptr %5) #3
  %6 = load ptr, ptr %3, align 8, !tbaa !10
  store ptr %6, ptr %5, align 8, !tbaa !10
  br label %7

7:                                                ; preds = %14, %2
  %8 = load ptr, ptr %5, align 8, !tbaa !10
  %9 = load ptr, ptr %4, align 8, !tbaa !10
  %10 = icmp ne ptr %8, %9
  br i1 %10, label %12, label %11

11:                                               ; preds = %7
  call void @llvm.lifetime.end.p0(i64 8, ptr %5) #3
  br label %17

12:                                               ; preds = %7
  %13 = load ptr, ptr %5, align 8, !tbaa !10
  call void @_ZN9__gnu_cxx5__ops15__val_comp_iterENS0_15_Iter_less_iterE()
  call void @_ZSt25__unguarded_linear_insertIPjN9__gnu_cxx5__ops14_Val_less_iterEEvT_T0_(ptr noundef %13)
  br label %14

14:                                               ; preds = %12
  %15 = load ptr, ptr %5, align 8, !tbaa !10
  %16 = getelementptr inbounds nuw i32, ptr %15, i32 1
  store ptr %16, ptr %5, align 8, !tbaa !10
  br label %7, !llvm.loop !215

17:                                               ; preds = %11
  ret void
}

; Function Attrs: inlinehint mustprogress nounwind uwtable
define linkonce_odr noundef ptr @_ZSt13move_backwardIPjS0_ET0_T_S2_S1_(ptr noundef %0, ptr noundef %1, ptr noundef %2) #6 comdat {
  %4 = alloca ptr, align 8
  %5 = alloca ptr, align 8
  %6 = alloca ptr, align 8
  store ptr %0, ptr %4, align 8, !tbaa !10
  store ptr %1, ptr %5, align 8, !tbaa !10
  store ptr %2, ptr %6, align 8, !tbaa !10
  %7 = load ptr, ptr %4, align 8, !tbaa !10
  %8 = call noundef ptr @_ZSt12__miter_baseIPjET_S1_(ptr noundef %7)
  %9 = load ptr, ptr %5, align 8, !tbaa !10
  %10 = call noundef ptr @_ZSt12__miter_baseIPjET_S1_(ptr noundef %9)
  %11 = load ptr, ptr %6, align 8, !tbaa !10
  %12 = call noundef ptr @_ZSt22__copy_move_backward_aILb1EPjS0_ET1_T0_S2_S1_(ptr noundef %8, ptr noundef %10, ptr noundef %11)
  ret ptr %12
}

; Function Attrs: mustprogress nounwind uwtable
define linkonce_odr void @_ZSt25__unguarded_linear_insertIPjN9__gnu_cxx5__ops14_Val_less_iterEEvT_T0_(ptr noundef %0) #4 comdat {
  %2 = alloca %"struct.__gnu_cxx::__ops::_Val_less_iter", align 1
  %3 = alloca ptr, align 8
  %4 = alloca i32, align 4
  %5 = alloca ptr, align 8
  store ptr %0, ptr %3, align 8, !tbaa !10
  call void @llvm.lifetime.start.p0(i64 4, ptr %4) #3
  %6 = load ptr, ptr %3, align 8, !tbaa !10
  %7 = load i32, ptr %6, align 4, !tbaa !8
  store i32 %7, ptr %4, align 4, !tbaa !8
  call void @llvm.lifetime.start.p0(i64 8, ptr %5) #3
  %8 = load ptr, ptr %3, align 8, !tbaa !10
  store ptr %8, ptr %5, align 8, !tbaa !10
  %9 = load ptr, ptr %5, align 8, !tbaa !10
  %10 = getelementptr inbounds i32, ptr %9, i32 -1
  store ptr %10, ptr %5, align 8, !tbaa !10
  br label %11

11:                                               ; preds = %14, %1
  %12 = load ptr, ptr %5, align 8, !tbaa !10
  %13 = call noundef zeroext i1 @_ZNK9__gnu_cxx5__ops14_Val_less_iterclIjPjEEbRT_T0_(ptr noundef nonnull align 1 dereferenceable(1) %2, ptr noundef nonnull align 4 dereferenceable(4) %4, ptr noundef %12)
  br i1 %13, label %14, label %21

14:                                               ; preds = %11
  %15 = load ptr, ptr %5, align 8, !tbaa !10
  %16 = load i32, ptr %15, align 4, !tbaa !8
  %17 = load ptr, ptr %3, align 8, !tbaa !10
  store i32 %16, ptr %17, align 4, !tbaa !8
  %18 = load ptr, ptr %5, align 8, !tbaa !10
  store ptr %18, ptr %3, align 8, !tbaa !10
  %19 = load ptr, ptr %5, align 8, !tbaa !10
  %20 = getelementptr inbounds i32, ptr %19, i32 -1
  store ptr %20, ptr %5, align 8, !tbaa !10
  br label %11, !llvm.loop !216

21:                                               ; preds = %11
  %22 = load i32, ptr %4, align 4, !tbaa !8
  %23 = load ptr, ptr %3, align 8, !tbaa !10
  store i32 %22, ptr %23, align 4, !tbaa !8
  call void @llvm.lifetime.end.p0(i64 8, ptr %5) #3
  call void @llvm.lifetime.end.p0(i64 4, ptr %4) #3
  ret void
}

; Function Attrs: inlinehint mustprogress nounwind uwtable
define linkonce_odr void @_ZN9__gnu_cxx5__ops15__val_comp_iterENS0_15_Iter_less_iterE() #6 comdat {
  ret void
}

; Function Attrs: inlinehint mustprogress nounwind uwtable
define linkonce_odr noundef ptr @_ZSt22__copy_move_backward_aILb1EPjS0_ET1_T0_S2_S1_(ptr noundef %0, ptr noundef %1, ptr noundef %2) #6 comdat {
  %4 = alloca ptr, align 8
  %5 = alloca ptr, align 8
  %6 = alloca ptr, align 8
  store ptr %0, ptr %4, align 8, !tbaa !10
  store ptr %1, ptr %5, align 8, !tbaa !10
  store ptr %2, ptr %6, align 8, !tbaa !10
  %7 = load ptr, ptr %4, align 8, !tbaa !10
  %8 = call noundef ptr @_ZSt12__niter_baseIPjET_S1_(ptr noundef %7) #3
  %9 = load ptr, ptr %5, align 8, !tbaa !10
  %10 = call noundef ptr @_ZSt12__niter_baseIPjET_S1_(ptr noundef %9) #3
  %11 = load ptr, ptr %6, align 8, !tbaa !10
  %12 = call noundef ptr @_ZSt12__niter_baseIPjET_S1_(ptr noundef %11) #3
  %13 = call noundef ptr @_ZSt23__copy_move_backward_a1ILb1EPjS0_ET1_T0_S2_S1_(ptr noundef %8, ptr noundef %10, ptr noundef %12)
  %14 = call noundef ptr @_ZSt12__niter_wrapIPjET_RKS1_S1_(ptr noundef nonnull align 8 dereferenceable(8) %6, ptr noundef %13)
  ret ptr %14
}

; Function Attrs: inlinehint mustprogress nounwind uwtable
define linkonce_odr noundef ptr @_ZSt12__miter_baseIPjET_S1_(ptr noundef %0) #6 comdat {
  %2 = alloca ptr, align 8
  store ptr %0, ptr %2, align 8, !tbaa !10
  %3 = load ptr, ptr %2, align 8, !tbaa !10
  ret ptr %3
}

; Function Attrs: inlinehint mustprogress nounwind uwtable
define linkonce_odr noundef ptr @_ZSt12__niter_wrapIPjET_RKS1_S1_(ptr noundef nonnull align 8 dereferenceable(8) %0, ptr noundef %1) #6 comdat {
  %3 = alloca ptr, align 8
  %4 = alloca ptr, align 8
  store ptr %0, ptr %3, align 8, !tbaa !217
  store ptr %1, ptr %4, align 8, !tbaa !10
  %5 = load ptr, ptr %4, align 8, !tbaa !10
  ret ptr %5
}

; Function Attrs: inlinehint mustprogress nounwind uwtable
define linkonce_odr noundef ptr @_ZSt23__copy_move_backward_a1ILb1EPjS0_ET1_T0_S2_S1_(ptr noundef %0, ptr noundef %1, ptr noundef %2) #6 comdat {
  %4 = alloca ptr, align 8
  %5 = alloca ptr, align 8
  %6 = alloca ptr, align 8
  store ptr %0, ptr %4, align 8, !tbaa !10
  store ptr %1, ptr %5, align 8, !tbaa !10
  store ptr %2, ptr %6, align 8, !tbaa !10
  %7 = load ptr, ptr %4, align 8, !tbaa !10
  %8 = load ptr, ptr %5, align 8, !tbaa !10
  %9 = load ptr, ptr %6, align 8, !tbaa !10
  %10 = call noundef ptr @_ZSt23__copy_move_backward_a2ILb1EPjS0_ET1_T0_S2_S1_(ptr noundef %7, ptr noundef %8, ptr noundef %9)
  ret ptr %10
}

; Function Attrs: inlinehint mustprogress nounwind uwtable
define linkonce_odr noundef ptr @_ZSt12__niter_baseIPjET_S1_(ptr noundef %0) #6 comdat {
  %2 = alloca ptr, align 8
  store ptr %0, ptr %2, align 8, !tbaa !10
  %3 = load ptr, ptr %2, align 8, !tbaa !10
  ret ptr %3
}

; Function Attrs: inlinehint mustprogress nounwind uwtable
define linkonce_odr noundef ptr @_ZSt23__copy_move_backward_a2ILb1EPjS0_ET1_T0_S2_S1_(ptr noundef %0, ptr noundef %1, ptr noundef %2) #6 comdat {
  %4 = alloca ptr, align 8
  %5 = alloca ptr, align 8
  %6 = alloca ptr, align 8
  store ptr %0, ptr %4, align 8, !tbaa !10
  store ptr %1, ptr %5, align 8, !tbaa !10
  store ptr %2, ptr %6, align 8, !tbaa !10
  %7 = load ptr, ptr %4, align 8, !tbaa !10
  %8 = load ptr, ptr %5, align 8, !tbaa !10
  %9 = load ptr, ptr %6, align 8, !tbaa !10
  %10 = call noundef ptr @_ZNSt20__copy_move_backwardILb1ELb1ESt26random_access_iterator_tagE13__copy_move_bIjEEPT_PKS3_S6_S4_(ptr noundef %7, ptr noundef %8, ptr noundef %9)
  ret ptr %10
}

; Function Attrs: mustprogress nounwind uwtable
define linkonce_odr noundef ptr @_ZNSt20__copy_move_backwardILb1ELb1ESt26random_access_iterator_tagE13__copy_move_bIjEEPT_PKS3_S6_S4_(ptr noundef %0, ptr noundef %1, ptr noundef %2) #4 comdat align 2 {
  %4 = alloca ptr, align 8
  %5 = alloca ptr, align 8
  %6 = alloca ptr, align 8
  %7 = alloca i64, align 8
  store ptr %0, ptr %4, align 8, !tbaa !10
  store ptr %1, ptr %5, align 8, !tbaa !10
  store ptr %2, ptr %6, align 8, !tbaa !10
  call void @llvm.lifetime.start.p0(i64 8, ptr %7) #3
  %8 = load ptr, ptr %5, align 8, !tbaa !10
  %9 = load ptr, ptr %4, align 8, !tbaa !10
  %10 = ptrtoint ptr %8 to i64
  %11 = ptrtoint ptr %9 to i64
  %12 = sub i64 %10, %11
  %13 = sdiv exact i64 %12, 4
  store i64 %13, ptr %7, align 8, !tbaa !91
  %14 = load i64, ptr %7, align 8, !tbaa !91
  %15 = icmp ne i64 %14, 0
  br i1 %15, label %16, label %24

16:                                               ; preds = %3
  %17 = load ptr, ptr %6, align 8, !tbaa !10
  %18 = load i64, ptr %7, align 8, !tbaa !91
  %19 = sub i64 0, %18
  %20 = getelementptr inbounds i32, ptr %17, i64 %19
  %21 = load ptr, ptr %4, align 8, !tbaa !10
  %22 = load i64, ptr %7, align 8, !tbaa !91
  %23 = mul i64 4, %22
  call void @llvm.memmove.p0.p0.i64(ptr align 4 %20, ptr align 4 %21, i64 %23, i1 false)
  br label %24

24:                                               ; preds = %16, %3
  %25 = load ptr, ptr %6, align 8, !tbaa !10
  %26 = load i64, ptr %7, align 8, !tbaa !91
  %27 = sub i64 0, %26
  %28 = getelementptr inbounds i32, ptr %25, i64 %27
  call void @llvm.lifetime.end.p0(i64 8, ptr %7) #3
  ret ptr %28
}

; Function Attrs: nocallback nofree nounwind willreturn memory(argmem: readwrite)
declare void @llvm.memmove.p0.p0.i64(ptr writeonly captures(none), ptr readonly captures(none), i64, i1 immarg) #7

; Function Attrs: mustprogress nounwind uwtable
define linkonce_odr noundef zeroext i1 @_ZNK9__gnu_cxx5__ops14_Val_less_iterclIjPjEEbRT_T0_(ptr noundef nonnull align 1 dereferenceable(1) %0, ptr noundef nonnull align 4 dereferenceable(4) %1, ptr noundef %2) #4 comdat align 2 {
  %4 = alloca ptr, align 8
  %5 = alloca ptr, align 8
  %6 = alloca ptr, align 8
  store ptr %0, ptr %4, align 8, !tbaa !219
  store ptr %1, ptr %5, align 8, !tbaa !10
  store ptr %2, ptr %6, align 8, !tbaa !10
  %7 = load ptr, ptr %5, align 8, !tbaa !10
  %8 = load i32, ptr %7, align 4, !tbaa !8
  %9 = load ptr, ptr %6, align 8, !tbaa !10
  %10 = load i32, ptr %9, align 4, !tbaa !8
  %11 = icmp ult i32 %8, %10
  ret i1 %11
}

; Function Attrs: mustprogress nounwind willreturn memory(none) uwtable
define linkonce_odr noundef ptr @_ZNSt5arrayIjLm64EE4dataEv(ptr noundef nonnull align 4 dereferenceable(256) %0) #8 comdat align 2 {
  %2 = alloca ptr, align 8
  store ptr %0, ptr %2, align 8, !tbaa !199
  %3 = load ptr, ptr %2, align 8
  %4 = getelementptr inbounds nuw %"struct.std::array.25", ptr %3, i32 0, i32 0
  %5 = call noundef ptr @_ZNSt14__array_traitsIjLm64EE6_S_ptrERA64_Kj(ptr noundef nonnull align 4 dereferenceable(256) %4) #3
  ret ptr %5
}

; Function Attrs: mustprogress nounwind uwtable
define linkonce_odr noundef ptr @_ZNSt14__array_traitsIjLm64EE6_S_ptrERA64_Kj(ptr noundef nonnull align 4 dereferenceable(256) %0) #4 comdat align 2 {
  %2 = alloca ptr, align 8
  store ptr %0, ptr %2, align 8, !tbaa !10
  %3 = load ptr, ptr %2, align 8, !tbaa !10
  %4 = getelementptr inbounds [64 x i32], ptr %3, i64 0, i64 0
  ret ptr %4
}

; Function Attrs: mustprogress nounwind uwtable
define linkonce_odr noundef nonnull align 8 dereferenceable(8) ptr @_ZNKSt9_Any_data9_M_accessIZN3acd21ac_decomposition_impl18find_decompositionERjjEUlRKN5kitty18static_truth_tableILj11ELb0EEEE2_EERKT_v(ptr noundef nonnull align 8 dereferenceable(16) %0) #4 comdat align 2 {
  %2 = alloca ptr, align 8
  store ptr %0, ptr %2, align 8, !tbaa !183
  %3 = load ptr, ptr %2, align 8
  %4 = call noundef ptr @_ZNKSt9_Any_data9_M_accessEv(ptr noundef nonnull align 8 dereferenceable(16) %3) #3
  ret ptr %4
}

; Function Attrs: mustprogress nounwind uwtable
define linkonce_odr noundef nonnull align 8 dereferenceable(8) ptr @_ZNSt9_Any_data9_M_accessIPZN3acd21ac_decomposition_impl18find_decompositionERjjEUlRKN5kitty18static_truth_tableILj11ELb0EEEE2_EERT_v(ptr noundef nonnull align 8 dereferenceable(16) %0) #4 comdat align 2 {
  %2 = alloca ptr, align 8
  store ptr %0, ptr %2, align 8, !tbaa !183
  %3 = load ptr, ptr %2, align 8
  %4 = call noundef ptr @_ZNSt9_Any_data9_M_accessEv(ptr noundef nonnull align 8 dereferenceable(16) %3) #3
  ret ptr %4
}

; Function Attrs: mustprogress nounwind uwtable
define linkonce_odr noundef zeroext i1 @_ZNSt14_Function_base13_Base_managerIZN3acd21ac_decomposition_impl18find_decompositionERjjEUlRKN5kitty18static_truth_tableILj11ELb0EEEE2_E10_M_managerERSt9_Any_dataRKSB_St18_Manager_operation(ptr noundef nonnull align 8 dereferenceable(16) %0, ptr noundef nonnull align 8 dereferenceable(16) %1, i32 noundef %2) #4 comdat align 2 {
  %4 = alloca ptr, align 8
  %5 = alloca ptr, align 8
  %6 = alloca i32, align 4
  store ptr %0, ptr %4, align 8, !tbaa !183
  store ptr %1, ptr %5, align 8, !tbaa !183
  store i32 %2, ptr %6, align 4, !tbaa !185
  %7 = load i32, ptr %6, align 4, !tbaa !185
  switch i32 %7, label %22 [
    i32 0, label %8
    i32 1, label %11
    i32 2, label %16
    i32 3, label %20
  ]

8:                                                ; preds = %3
  %9 = load ptr, ptr %4, align 8, !tbaa !183
  %10 = call noundef nonnull align 8 dereferenceable(8) ptr @_ZNSt9_Any_data9_M_accessIPKSt9type_infoEERT_v(ptr noundef nonnull align 8 dereferenceable(16) %9) #3
  store ptr @_ZTIZN3acd21ac_decomposition_impl18find_decompositionERjjEUlRKN5kitty18static_truth_tableILj11ELb0EEEE2_, ptr %10, align 8, !tbaa !187
  br label %22

11:                                               ; preds = %3
  %12 = load ptr, ptr %5, align 8, !tbaa !183
  %13 = call noundef ptr @_ZNSt14_Function_base13_Base_managerIZN3acd21ac_decomposition_impl18find_decompositionERjjEUlRKN5kitty18static_truth_tableILj11ELb0EEEE2_E14_M_get_pointerERKSt9_Any_data(ptr noundef nonnull align 8 dereferenceable(16) %12) #3
  %14 = load ptr, ptr %4, align 8, !tbaa !183
  %15 = call noundef nonnull align 8 dereferenceable(8) ptr @_ZNSt9_Any_data9_M_accessIPZN3acd21ac_decomposition_impl18find_decompositionERjjEUlRKN5kitty18static_truth_tableILj11ELb0EEEE2_EERT_v(ptr noundef nonnull align 8 dereferenceable(16) %14) #3
  store ptr %13, ptr %15, align 8, !tbaa !167
  br label %22

16:                                               ; preds = %3
  %17 = load ptr, ptr %4, align 8, !tbaa !183
  %18 = load ptr, ptr %5, align 8, !tbaa !183
  %19 = call noundef ptr @_ZNSt14_Function_base13_Base_managerIZN3acd21ac_decomposition_impl18find_decompositionERjjEUlRKN5kitty18static_truth_tableILj11ELb0EEEE2_E14_M_get_pointerERKSt9_Any_data(ptr noundef nonnull align 8 dereferenceable(16) %18) #3
  call void @_ZNSt14_Function_base13_Base_managerIZN3acd21ac_decomposition_impl18find_decompositionERjjEUlRKN5kitty18static_truth_tableILj11ELb0EEEE2_E15_M_init_functorIRKS9_EEvRSt9_Any_dataOT_(ptr noundef nonnull align 8 dereferenceable(16) %17, ptr noundef nonnull align 8 dereferenceable(8) %19) #3
  br label %22

20:                                               ; preds = %3
  %21 = load ptr, ptr %4, align 8, !tbaa !183
  call void @_ZNSt14_Function_base13_Base_managerIZN3acd21ac_decomposition_impl18find_decompositionERjjEUlRKN5kitty18static_truth_tableILj11ELb0EEEE2_E10_M_destroyERSt9_Any_dataSt17integral_constantIbLb1EE(ptr noundef nonnull align 8 dereferenceable(16) %21)
  br label %22

22:                                               ; preds = %3, %20, %16, %11, %8
  ret i1 false
}

; Function Attrs: mustprogress nounwind uwtable
define linkonce_odr void @_ZNSt14_Function_base13_Base_managerIZN3acd21ac_decomposition_impl18find_decompositionERjjEUlRKN5kitty18static_truth_tableILj11ELb0EEEE2_E15_M_init_functorIRKS9_EEvRSt9_Any_dataOT_(ptr noundef nonnull align 8 dereferenceable(16) %0, ptr noundef nonnull align 8 dereferenceable(8) %1) #4 comdat align 2 {
  %3 = alloca ptr, align 8
  %4 = alloca ptr, align 8
  store ptr %0, ptr %3, align 8, !tbaa !183
  store ptr %1, ptr %4, align 8, !tbaa !167
  %5 = load ptr, ptr %3, align 8, !tbaa !183
  %6 = load ptr, ptr %4, align 8, !tbaa !167
  call void @_ZNSt14_Function_base13_Base_managerIZN3acd21ac_decomposition_impl18find_decompositionERjjEUlRKN5kitty18static_truth_tableILj11ELb0EEEE2_E9_M_createIRKS9_EEvRSt9_Any_dataOT_St17integral_constantIbLb1EE(ptr noundef nonnull align 8 dereferenceable(16) %5, ptr noundef nonnull align 8 dereferenceable(8) %6)
  ret void
}

; Function Attrs: mustprogress nounwind uwtable
define linkonce_odr void @_ZNSt14_Function_base13_Base_managerIZN3acd21ac_decomposition_impl18find_decompositionERjjEUlRKN5kitty18static_truth_tableILj11ELb0EEEE2_E10_M_destroyERSt9_Any_dataSt17integral_constantIbLb1EE(ptr noundef nonnull align 8 dereferenceable(16) %0) #4 comdat align 2 {
  %2 = alloca ptr, align 8
  store ptr %0, ptr %2, align 8, !tbaa !183
  %3 = load ptr, ptr %2, align 8, !tbaa !183
  %4 = call noundef nonnull align 8 dereferenceable(8) ptr @_ZNSt9_Any_data9_M_accessIZN3acd21ac_decomposition_impl18find_decompositionERjjEUlRKN5kitty18static_truth_tableILj11ELb0EEEE2_EERT_v(ptr noundef nonnull align 8 dereferenceable(16) %3) #3
  ret void
}

; Function Attrs: mustprogress nounwind uwtable
define linkonce_odr void @_ZNSt14_Function_base13_Base_managerIZN3acd21ac_decomposition_impl18find_decompositionERjjEUlRKN5kitty18static_truth_tableILj11ELb0EEEE2_E9_M_createIRKS9_EEvRSt9_Any_dataOT_St17integral_constantIbLb1EE(ptr noundef nonnull align 8 dereferenceable(16) %0, ptr noundef nonnull align 8 dereferenceable(8) %1) #4 comdat align 2 {
  %3 = alloca ptr, align 8
  %4 = alloca ptr, align 8
  store ptr %0, ptr %3, align 8, !tbaa !183
  store ptr %1, ptr %4, align 8, !tbaa !167
  %5 = load ptr, ptr %3, align 8, !tbaa !183
  %6 = call noundef ptr @_ZNSt9_Any_data9_M_accessEv(ptr noundef nonnull align 8 dereferenceable(16) %5) #3
  %7 = load ptr, ptr %4, align 8, !tbaa !167
  call void @llvm.memcpy.p0.p0.i64(ptr align 8 %6, ptr align 8 %7, i64 8, i1 false), !tbaa.struct !189
  ret void
}

; Function Attrs: mustprogress nounwind uwtable
define linkonce_odr noundef nonnull align 8 dereferenceable(8) ptr @_ZNSt9_Any_data9_M_accessIZN3acd21ac_decomposition_impl18find_decompositionERjjEUlRKN5kitty18static_truth_tableILj11ELb0EEEE2_EERT_v(ptr noundef nonnull align 8 dereferenceable(16) %0) #4 comdat align 2 {
  %2 = alloca ptr, align 8
  store ptr %0, ptr %2, align 8, !tbaa !183
  %3 = load ptr, ptr %2, align 8
  %4 = call noundef ptr @_ZNSt9_Any_data9_M_accessEv(ptr noundef nonnull align 8 dereferenceable(16) %3) #3
  ret ptr %4
}

; Function Attrs: mustprogress nounwind uwtable
define linkonce_odr noundef zeroext i1 @_ZNSt14_Function_base13_Base_managerIZN3acd21ac_decomposition_impl18find_decompositionERjjEUlRKN5kitty18static_truth_tableILj11ELb0EEEE3_E21_M_not_empty_functionIS9_EEbRKT_(ptr noundef nonnull align 8 dereferenceable(8) %0) #4 comdat align 2 {
  %2 = alloca ptr, align 8
  store ptr %0, ptr %2, align 8, !tbaa !167
  ret i1 true
}

; Function Attrs: mustprogress nounwind uwtable
define linkonce_odr void @_ZNSt14_Function_base13_Base_managerIZN3acd21ac_decomposition_impl18find_decompositionERjjEUlRKN5kitty18static_truth_tableILj11ELb0EEEE3_E15_M_init_functorIS9_EEvRSt9_Any_dataOT_(ptr noundef nonnull align 8 dereferenceable(16) %0, ptr noundef nonnull align 8 dereferenceable(8) %1) #4 comdat align 2 {
  %3 = alloca ptr, align 8
  %4 = alloca ptr, align 8
  store ptr %0, ptr %3, align 8, !tbaa !183
  store ptr %1, ptr %4, align 8, !tbaa !167
  %5 = load ptr, ptr %3, align 8, !tbaa !183
  %6 = load ptr, ptr %4, align 8, !tbaa !167
  call void @_ZNSt14_Function_base13_Base_managerIZN3acd21ac_decomposition_impl18find_decompositionERjjEUlRKN5kitty18static_truth_tableILj11ELb0EEEE3_E9_M_createIS9_EEvRSt9_Any_dataOT_St17integral_constantIbLb1EE(ptr noundef nonnull align 8 dereferenceable(16) %5, ptr noundef nonnull align 8 dereferenceable(8) %6)
  ret void
}

; Function Attrs: mustprogress nounwind uwtable
define linkonce_odr noundef i32 @_ZNSt17_Function_handlerIFjRKN5kitty18static_truth_tableILj11ELb0EEEEZN3acd21ac_decomposition_impl18find_decompositionERjjEUlS4_E3_E9_M_invokeERKSt9_Any_dataS4_(ptr noundef nonnull align 8 dereferenceable(16) %0, ptr noundef nonnull align 8 dereferenceable(256) %1) #4 comdat align 2 {
  %3 = alloca ptr, align 8
  %4 = alloca ptr, align 8
  store ptr %0, ptr %3, align 8, !tbaa !183
  store ptr %1, ptr %4, align 8, !tbaa !90
  %5 = load ptr, ptr %3, align 8, !tbaa !183
  %6 = call noundef ptr @_ZNSt14_Function_base13_Base_managerIZN3acd21ac_decomposition_impl18find_decompositionERjjEUlRKN5kitty18static_truth_tableILj11ELb0EEEE3_E14_M_get_pointerERKSt9_Any_data(ptr noundef nonnull align 8 dereferenceable(16) %5) #3
  %7 = load ptr, ptr %4, align 8, !tbaa !90
  %8 = call noundef i32 @_ZSt10__invoke_rIjRZN3acd21ac_decomposition_impl18find_decompositionERjjEUlRKN5kitty18static_truth_tableILj11ELb0EEEE3_JS7_EENSt9enable_ifIX16is_invocable_r_vIT_T0_DpT1_EESB_E4typeEOSC_DpOSD_(ptr noundef nonnull align 8 dereferenceable(8) %6, ptr noundef nonnull align 8 dereferenceable(256) %7)
  ret i32 %8
}

; Function Attrs: mustprogress nounwind uwtable
define linkonce_odr noundef zeroext i1 @_ZNSt17_Function_handlerIFjRKN5kitty18static_truth_tableILj11ELb0EEEEZN3acd21ac_decomposition_impl18find_decompositionERjjEUlS4_E3_E10_M_managerERSt9_Any_dataRKSB_St18_Manager_operation(ptr noundef nonnull align 8 dereferenceable(16) %0, ptr noundef nonnull align 8 dereferenceable(16) %1, i32 noundef %2) #4 comdat align 2 {
  %4 = alloca ptr, align 8
  %5 = alloca ptr, align 8
  %6 = alloca i32, align 4
  store ptr %0, ptr %4, align 8, !tbaa !183
  store ptr %1, ptr %5, align 8, !tbaa !183
  store i32 %2, ptr %6, align 4, !tbaa !185
  %7 = load i32, ptr %6, align 4, !tbaa !185
  switch i32 %7, label %16 [
    i32 0, label %8
    i32 1, label %11
  ]

8:                                                ; preds = %3
  %9 = load ptr, ptr %4, align 8, !tbaa !183
  %10 = call noundef nonnull align 8 dereferenceable(8) ptr @_ZNSt9_Any_data9_M_accessIPKSt9type_infoEERT_v(ptr noundef nonnull align 8 dereferenceable(16) %9) #3
  store ptr @_ZTIZN3acd21ac_decomposition_impl18find_decompositionERjjEUlRKN5kitty18static_truth_tableILj11ELb0EEEE3_, ptr %10, align 8, !tbaa !187
  br label %21

11:                                               ; preds = %3
  %12 = load ptr, ptr %5, align 8, !tbaa !183
  %13 = call noundef ptr @_ZNSt14_Function_base13_Base_managerIZN3acd21ac_decomposition_impl18find_decompositionERjjEUlRKN5kitty18static_truth_tableILj11ELb0EEEE3_E14_M_get_pointerERKSt9_Any_data(ptr noundef nonnull align 8 dereferenceable(16) %12) #3
  %14 = load ptr, ptr %4, align 8, !tbaa !183
  %15 = call noundef nonnull align 8 dereferenceable(8) ptr @_ZNSt9_Any_data9_M_accessIPZN3acd21ac_decomposition_impl18find_decompositionERjjEUlRKN5kitty18static_truth_tableILj11ELb0EEEE3_EERT_v(ptr noundef nonnull align 8 dereferenceable(16) %14) #3
  store ptr %13, ptr %15, align 8, !tbaa !167
  br label %21

16:                                               ; preds = %3
  %17 = load ptr, ptr %4, align 8, !tbaa !183
  %18 = load ptr, ptr %5, align 8, !tbaa !183
  %19 = load i32, ptr %6, align 4, !tbaa !185
  %20 = call noundef zeroext i1 @_ZNSt14_Function_base13_Base_managerIZN3acd21ac_decomposition_impl18find_decompositionERjjEUlRKN5kitty18static_truth_tableILj11ELb0EEEE3_E10_M_managerERSt9_Any_dataRKSB_St18_Manager_operation(ptr noundef nonnull align 8 dereferenceable(16) %17, ptr noundef nonnull align 8 dereferenceable(16) %18, i32 noundef %19)
  br label %21

21:                                               ; preds = %16, %11, %8
  ret i1 false
}

; Function Attrs: mustprogress nounwind uwtable
define linkonce_odr void @_ZNSt14_Function_base13_Base_managerIZN3acd21ac_decomposition_impl18find_decompositionERjjEUlRKN5kitty18static_truth_tableILj11ELb0EEEE3_E9_M_createIS9_EEvRSt9_Any_dataOT_St17integral_constantIbLb1EE(ptr noundef nonnull align 8 dereferenceable(16) %0, ptr noundef nonnull align 8 dereferenceable(8) %1) #4 comdat align 2 {
  %3 = alloca ptr, align 8
  %4 = alloca ptr, align 8
  store ptr %0, ptr %3, align 8, !tbaa !183
  store ptr %1, ptr %4, align 8, !tbaa !167
  %5 = load ptr, ptr %3, align 8, !tbaa !183
  %6 = call noundef ptr @_ZNSt9_Any_data9_M_accessEv(ptr noundef nonnull align 8 dereferenceable(16) %5) #3
  %7 = load ptr, ptr %4, align 8, !tbaa !167
  call void @llvm.memcpy.p0.p0.i64(ptr align 8 %6, ptr align 8 %7, i64 8, i1 false), !tbaa.struct !189
  ret void
}

; Function Attrs: mustprogress nounwind uwtable
define linkonce_odr noundef i32 @_ZSt10__invoke_rIjRZN3acd21ac_decomposition_impl18find_decompositionERjjEUlRKN5kitty18static_truth_tableILj11ELb0EEEE3_JS7_EENSt9enable_ifIX16is_invocable_r_vIT_T0_DpT1_EESB_E4typeEOSC_DpOSD_(ptr noundef nonnull align 8 dereferenceable(8) %0, ptr noundef nonnull align 8 dereferenceable(256) %1) #4 comdat {
  %3 = alloca ptr, align 8
  %4 = alloca ptr, align 8
  store ptr %0, ptr %3, align 8, !tbaa !167
  store ptr %1, ptr %4, align 8, !tbaa !90
  %5 = load ptr, ptr %3, align 8, !tbaa !167
  %6 = load ptr, ptr %4, align 8, !tbaa !90
  %7 = call noundef i32 @_ZSt13__invoke_implIjRZN3acd21ac_decomposition_impl18find_decompositionERjjEUlRKN5kitty18static_truth_tableILj11ELb0EEEE3_JS7_EET_St14__invoke_otherOT0_DpOT1_(ptr noundef nonnull align 8 dereferenceable(8) %5, ptr noundef nonnull align 8 dereferenceable(256) %6)
  ret i32 %7
}

; Function Attrs: mustprogress nounwind uwtable
define linkonce_odr noundef ptr @_ZNSt14_Function_base13_Base_managerIZN3acd21ac_decomposition_impl18find_decompositionERjjEUlRKN5kitty18static_truth_tableILj11ELb0EEEE3_E14_M_get_pointerERKSt9_Any_data(ptr noundef nonnull align 8 dereferenceable(16) %0) #4 comdat align 2 {
  %2 = alloca ptr, align 8
  %3 = alloca ptr, align 8
  store ptr %0, ptr %2, align 8, !tbaa !183
  call void @llvm.lifetime.start.p0(i64 8, ptr %3) #3
  %4 = load ptr, ptr %2, align 8, !tbaa !183
  %5 = call noundef nonnull align 8 dereferenceable(8) ptr @_ZNKSt9_Any_data9_M_accessIZN3acd21ac_decomposition_impl18find_decompositionERjjEUlRKN5kitty18static_truth_tableILj11ELb0EEEE3_EERKT_v(ptr noundef nonnull align 8 dereferenceable(16) %4) #3
  store ptr %5, ptr %3, align 8, !tbaa !167
  %6 = load ptr, ptr %3, align 8, !tbaa !167
  call void @llvm.lifetime.end.p0(i64 8, ptr %3) #3
  ret ptr %6
}

; Function Attrs: mustprogress nounwind uwtable
define linkonce_odr noundef i32 @_ZSt13__invoke_implIjRZN3acd21ac_decomposition_impl18find_decompositionERjjEUlRKN5kitty18static_truth_tableILj11ELb0EEEE3_JS7_EET_St14__invoke_otherOT0_DpOT1_(ptr noundef nonnull align 8 dereferenceable(8) %0, ptr noundef nonnull align 8 dereferenceable(256) %1) #4 comdat {
  %3 = alloca ptr, align 8
  %4 = alloca ptr, align 8
  store ptr %0, ptr %3, align 8, !tbaa !167
  store ptr %1, ptr %4, align 8, !tbaa !90
  %5 = load ptr, ptr %3, align 8, !tbaa !167
  %6 = load ptr, ptr %4, align 8, !tbaa !90
  %7 = call noundef i32 @_ZZN3acd21ac_decomposition_impl18find_decompositionERjjENKUlRKN5kitty18static_truth_tableILj11ELb0EEEE3_clES6_(ptr noundef nonnull align 8 dereferenceable(8) %5, ptr noundef nonnull align 8 dereferenceable(256) %6)
  ret i32 %7
}

; Function Attrs: inlinehint mustprogress nounwind uwtable
define linkonce_odr noundef i32 @_ZZN3acd21ac_decomposition_impl18find_decompositionERjjENKUlRKN5kitty18static_truth_tableILj11ELb0EEEE3_clES6_(ptr noundef nonnull align 8 dereferenceable(8) %0, ptr noundef nonnull align 8 dereferenceable(256) %1) #6 comdat align 2 {
  %3 = alloca ptr, align 8
  %4 = alloca ptr, align 8
  store ptr %0, ptr %3, align 8, !tbaa !167
  store ptr %1, ptr %4, align 8, !tbaa !90
  %5 = load ptr, ptr %3, align 8
  %6 = getelementptr inbounds nuw %class.anon.20, ptr %5, i32 0, i32 0
  %7 = load ptr, ptr %6, align 8, !tbaa !152
  %8 = load ptr, ptr %4, align 8, !tbaa !90
  %9 = call noundef i32 @_ZN3acd21ac_decomposition_impl20column_multiplicity5ILj5EEEjRKN5kitty18static_truth_tableILj11ELb0EEE(ptr noundef nonnull align 8 dereferenceable(500) %7, ptr noundef nonnull align 8 dereferenceable(256) %8)
  ret i32 %9
}

; Function Attrs: mustprogress nounwind uwtable
define linkonce_odr noundef i32 @_ZN3acd21ac_decomposition_impl20column_multiplicity5ILj5EEEjRKN5kitty18static_truth_tableILj11ELb0EEE(ptr noundef nonnull align 8 dereferenceable(500) %0, ptr noundef nonnull align 8 dereferenceable(256) %1) #4 comdat align 2 {
  %3 = alloca ptr, align 8
  %4 = alloca ptr, align 8
  %5 = alloca i32, align 4
  %6 = alloca [6 x i64], align 16
  %7 = alloca i32, align 4
  %8 = alloca i64, align 8
  %9 = alloca %"struct.std::array.25", align 4
  %10 = alloca i32, align 4
  %11 = alloca i32, align 4
  %12 = alloca i64, align 8
  %13 = alloca i32, align 4
  %14 = alloca i64, align 8
  %15 = alloca i32, align 4
  %16 = alloca i32, align 4
  store ptr %0, ptr %3, align 8, !tbaa !27
  store ptr %1, ptr %4, align 8, !tbaa !90
  %17 = load ptr, ptr %3, align 8
  call void @llvm.lifetime.start.p0(i64 4, ptr %5) #3
  %18 = getelementptr inbounds nuw %"class.acd::ac_decomposition_impl", ptr %17, i32 0, i32 10
  %19 = load i32, ptr %18, align 8, !tbaa !54
  %20 = icmp ugt i32 %19, 6
  br i1 %20, label %21, label %26

21:                                               ; preds = %2
  %22 = getelementptr inbounds nuw %"class.acd::ac_decomposition_impl", ptr %17, i32 0, i32 10
  %23 = load i32, ptr %22, align 8, !tbaa !54
  %24 = sub i32 %23, 6
  %25 = shl i32 1, %24
  br label %27

26:                                               ; preds = %2
  br label %27

27:                                               ; preds = %26, %21
  %28 = phi i32 [ %25, %21 ], [ 1, %26 ]
  store i32 %28, ptr %5, align 4, !tbaa !8
  call void @llvm.lifetime.start.p0(i64 48, ptr %6) #3
  call void @llvm.memset.p0.i64(ptr align 16 %6, i8 0, i64 48, i1 false)
  %29 = getelementptr inbounds [6 x i64], ptr %6, i32 0, i32 1
  store i64 3, ptr %29, align 8
  %30 = getelementptr inbounds [6 x i64], ptr %6, i32 0, i32 2
  store i64 15, ptr %30, align 16
  %31 = getelementptr inbounds [6 x i64], ptr %6, i32 0, i32 3
  store i64 255, ptr %31, align 8
  %32 = getelementptr inbounds [6 x i64], ptr %6, i32 0, i32 4
  store i64 65535, ptr %32, align 16
  %33 = getelementptr inbounds [6 x i64], ptr %6, i32 0, i32 5
  store i64 4294967295, ptr %33, align 8
  call void @llvm.lifetime.start.p0(i64 4, ptr %7) #3
  store i32 0, ptr %7, align 4, !tbaa !8
  call void @llvm.lifetime.start.p0(i64 8, ptr %8) #3
  store i64 -1, ptr %8, align 8, !tbaa !91
  call void @llvm.lifetime.start.p0(i64 256, ptr %9) #3
  call void @llvm.lifetime.start.p0(i64 4, ptr %10) #3
  store i32 0, ptr %10, align 4, !tbaa !8
  br label %34

34:                                               ; preds = %73, %27
  %35 = load i32, ptr %10, align 4, !tbaa !8
  %36 = load i32, ptr %5, align 4, !tbaa !8
  %37 = icmp ult i32 %35, %36
  br i1 %37, label %39, label %38

38:                                               ; preds = %34
  store i32 2, ptr %11, align 4
  call void @llvm.lifetime.end.p0(i64 4, ptr %10) #3
  br label %76

39:                                               ; preds = %34
  call void @llvm.lifetime.start.p0(i64 8, ptr %12) #3
  %40 = load ptr, ptr %4, align 8, !tbaa !90
  %41 = getelementptr inbounds nuw %"struct.kitty::static_truth_table", ptr %40, i32 0, i32 0
  %42 = load i32, ptr %10, align 4, !tbaa !8
  %43 = zext i32 %42 to i64
  %44 = call noundef nonnull align 8 dereferenceable(8) ptr @_ZNKSt5arrayImLm32EEixEm(ptr noundef nonnull align 8 dereferenceable(256) %41, i64 noundef %43) #3
  %45 = load i64, ptr %44, align 8, !tbaa !91
  store i64 %45, ptr %12, align 8, !tbaa !91
  call void @llvm.lifetime.start.p0(i64 4, ptr %13) #3
  store i32 0, ptr %13, align 4, !tbaa !8
  br label %46

46:                                               ; preds = %69, %39
  %47 = load i32, ptr %13, align 4, !tbaa !8
  %48 = icmp slt i32 %47, 2
  br i1 %48, label %50, label %49

49:                                               ; preds = %46
  store i32 5, ptr %11, align 4
  call void @llvm.lifetime.end.p0(i64 4, ptr %13) #3
  br label %72

50:                                               ; preds = %46
  call void @llvm.lifetime.start.p0(i64 8, ptr %14) #3
  %51 = load i64, ptr %12, align 8, !tbaa !91
  %52 = getelementptr inbounds nuw [6 x i64], ptr %6, i64 0, i64 5
  %53 = load i64, ptr %52, align 8, !tbaa !91
  %54 = and i64 %51, %53
  store i64 %54, ptr %14, align 8, !tbaa !91
  %55 = load i64, ptr %14, align 8, !tbaa !91
  %56 = load i64, ptr %8, align 8, !tbaa !91
  %57 = icmp ne i64 %55, %56
  br i1 %57, label %58, label %66

58:                                               ; preds = %50
  %59 = load i64, ptr %14, align 8, !tbaa !91
  %60 = trunc i64 %59 to i32
  %61 = load i32, ptr %7, align 4, !tbaa !8
  %62 = add i32 %61, 1
  store i32 %62, ptr %7, align 4, !tbaa !8
  %63 = zext i32 %61 to i64
  %64 = call noundef nonnull align 4 dereferenceable(4) ptr @_ZNSt5arrayIjLm64EEixEm(ptr noundef nonnull align 4 dereferenceable(256) %9, i64 noundef %63) #3
  store i32 %60, ptr %64, align 4, !tbaa !8
  %65 = load i64, ptr %14, align 8, !tbaa !91
  store i64 %65, ptr %8, align 8, !tbaa !91
  br label %66

66:                                               ; preds = %58, %50
  %67 = load i64, ptr %12, align 8, !tbaa !91
  %68 = lshr i64 %67, 32
  store i64 %68, ptr %12, align 8, !tbaa !91
  call void @llvm.lifetime.end.p0(i64 8, ptr %14) #3
  br label %69

69:                                               ; preds = %66
  %70 = load i32, ptr %13, align 4, !tbaa !8
  %71 = add nsw i32 %70, 1
  store i32 %71, ptr %13, align 4, !tbaa !8
  br label %46, !llvm.loop !221

72:                                               ; preds = %49
  call void @llvm.lifetime.end.p0(i64 8, ptr %12) #3
  br label %73

73:                                               ; preds = %72
  %74 = load i32, ptr %10, align 4, !tbaa !8
  %75 = add i32 %74, 1
  store i32 %75, ptr %10, align 4, !tbaa !8
  br label %34, !llvm.loop !222

76:                                               ; preds = %38
  %77 = call noundef ptr @_ZNSt5arrayIjLm64EE5beginEv(ptr noundef nonnull align 4 dereferenceable(256) %9) #15
  %78 = call noundef ptr @_ZNSt5arrayIjLm64EE5beginEv(ptr noundef nonnull align 4 dereferenceable(256) %9) #15
  %79 = load i32, ptr %7, align 4, !tbaa !8
  %80 = zext i32 %79 to i64
  %81 = getelementptr inbounds nuw i32, ptr %78, i64 %80
  call void @_ZSt4sortIPjEvT_S1_(ptr noundef %77, ptr noundef %81)
  call void @llvm.lifetime.start.p0(i64 4, ptr %15) #3
  store i32 1, ptr %15, align 4, !tbaa !8
  call void @llvm.lifetime.start.p0(i64 4, ptr %16) #3
  store i32 1, ptr %16, align 4, !tbaa !8
  br label %82

82:                                               ; preds = %101, %76
  %83 = load i32, ptr %16, align 4, !tbaa !8
  %84 = load i32, ptr %7, align 4, !tbaa !8
  %85 = icmp ult i32 %83, %84
  br i1 %85, label %87, label %86

86:                                               ; preds = %82
  store i32 8, ptr %11, align 4
  call void @llvm.lifetime.end.p0(i64 4, ptr %16) #3
  br label %104

87:                                               ; preds = %82
  %88 = load i32, ptr %16, align 4, !tbaa !8
  %89 = zext i32 %88 to i64
  %90 = call noundef nonnull align 4 dereferenceable(4) ptr @_ZNSt5arrayIjLm64EEixEm(ptr noundef nonnull align 4 dereferenceable(256) %9, i64 noundef %89) #3
  %91 = load i32, ptr %90, align 4, !tbaa !8
  %92 = load i32, ptr %16, align 4, !tbaa !8
  %93 = sub i32 %92, 1
  %94 = zext i32 %93 to i64
  %95 = call noundef nonnull align 4 dereferenceable(4) ptr @_ZNSt5arrayIjLm64EEixEm(ptr noundef nonnull align 4 dereferenceable(256) %9, i64 noundef %94) #3
  %96 = load i32, ptr %95, align 4, !tbaa !8
  %97 = icmp ne i32 %91, %96
  %98 = select i1 %97, i32 1, i32 0
  %99 = load i32, ptr %15, align 4, !tbaa !8
  %100 = add i32 %99, %98
  store i32 %100, ptr %15, align 4, !tbaa !8
  br label %101

101:                                              ; preds = %87
  %102 = load i32, ptr %16, align 4, !tbaa !8
  %103 = add i32 %102, 1
  store i32 %103, ptr %16, align 4, !tbaa !8
  br label %82, !llvm.loop !223

104:                                              ; preds = %86
  %105 = load i32, ptr %15, align 4, !tbaa !8
  store i32 1, ptr %11, align 4
  call void @llvm.lifetime.end.p0(i64 4, ptr %15) #3
  call void @llvm.lifetime.end.p0(i64 256, ptr %9) #3
  call void @llvm.lifetime.end.p0(i64 8, ptr %8) #3
  call void @llvm.lifetime.end.p0(i64 4, ptr %7) #3
  call void @llvm.lifetime.end.p0(i64 48, ptr %6) #3
  call void @llvm.lifetime.end.p0(i64 4, ptr %5) #3
  ret i32 %105
}

; Function Attrs: mustprogress nounwind uwtable
define linkonce_odr noundef nonnull align 8 dereferenceable(8) ptr @_ZNKSt9_Any_data9_M_accessIZN3acd21ac_decomposition_impl18find_decompositionERjjEUlRKN5kitty18static_truth_tableILj11ELb0EEEE3_EERKT_v(ptr noundef nonnull align 8 dereferenceable(16) %0) #4 comdat align 2 {
  %2 = alloca ptr, align 8
  store ptr %0, ptr %2, align 8, !tbaa !183
  %3 = load ptr, ptr %2, align 8
  %4 = call noundef ptr @_ZNKSt9_Any_data9_M_accessEv(ptr noundef nonnull align 8 dereferenceable(16) %3) #3
  ret ptr %4
}

; Function Attrs: mustprogress nounwind uwtable
define linkonce_odr noundef nonnull align 8 dereferenceable(8) ptr @_ZNSt9_Any_data9_M_accessIPZN3acd21ac_decomposition_impl18find_decompositionERjjEUlRKN5kitty18static_truth_tableILj11ELb0EEEE3_EERT_v(ptr noundef nonnull align 8 dereferenceable(16) %0) #4 comdat align 2 {
  %2 = alloca ptr, align 8
  store ptr %0, ptr %2, align 8, !tbaa !183
  %3 = load ptr, ptr %2, align 8
  %4 = call noundef ptr @_ZNSt9_Any_data9_M_accessEv(ptr noundef nonnull align 8 dereferenceable(16) %3) #3
  ret ptr %4
}

; Function Attrs: mustprogress nounwind uwtable
define linkonce_odr noundef zeroext i1 @_ZNSt14_Function_base13_Base_managerIZN3acd21ac_decomposition_impl18find_decompositionERjjEUlRKN5kitty18static_truth_tableILj11ELb0EEEE3_E10_M_managerERSt9_Any_dataRKSB_St18_Manager_operation(ptr noundef nonnull align 8 dereferenceable(16) %0, ptr noundef nonnull align 8 dereferenceable(16) %1, i32 noundef %2) #4 comdat align 2 {
  %4 = alloca ptr, align 8
  %5 = alloca ptr, align 8
  %6 = alloca i32, align 4
  store ptr %0, ptr %4, align 8, !tbaa !183
  store ptr %1, ptr %5, align 8, !tbaa !183
  store i32 %2, ptr %6, align 4, !tbaa !185
  %7 = load i32, ptr %6, align 4, !tbaa !185
  switch i32 %7, label %22 [
    i32 0, label %8
    i32 1, label %11
    i32 2, label %16
    i32 3, label %20
  ]

8:                                                ; preds = %3
  %9 = load ptr, ptr %4, align 8, !tbaa !183
  %10 = call noundef nonnull align 8 dereferenceable(8) ptr @_ZNSt9_Any_data9_M_accessIPKSt9type_infoEERT_v(ptr noundef nonnull align 8 dereferenceable(16) %9) #3
  store ptr @_ZTIZN3acd21ac_decomposition_impl18find_decompositionERjjEUlRKN5kitty18static_truth_tableILj11ELb0EEEE3_, ptr %10, align 8, !tbaa !187
  br label %22

11:                                               ; preds = %3
  %12 = load ptr, ptr %5, align 8, !tbaa !183
  %13 = call noundef ptr @_ZNSt14_Function_base13_Base_managerIZN3acd21ac_decomposition_impl18find_decompositionERjjEUlRKN5kitty18static_truth_tableILj11ELb0EEEE3_E14_M_get_pointerERKSt9_Any_data(ptr noundef nonnull align 8 dereferenceable(16) %12) #3
  %14 = load ptr, ptr %4, align 8, !tbaa !183
  %15 = call noundef nonnull align 8 dereferenceable(8) ptr @_ZNSt9_Any_data9_M_accessIPZN3acd21ac_decomposition_impl18find_decompositionERjjEUlRKN5kitty18static_truth_tableILj11ELb0EEEE3_EERT_v(ptr noundef nonnull align 8 dereferenceable(16) %14) #3
  store ptr %13, ptr %15, align 8, !tbaa !167
  br label %22

16:                                               ; preds = %3
  %17 = load ptr, ptr %4, align 8, !tbaa !183
  %18 = load ptr, ptr %5, align 8, !tbaa !183
  %19 = call noundef ptr @_ZNSt14_Function_base13_Base_managerIZN3acd21ac_decomposition_impl18find_decompositionERjjEUlRKN5kitty18static_truth_tableILj11ELb0EEEE3_E14_M_get_pointerERKSt9_Any_data(ptr noundef nonnull align 8 dereferenceable(16) %18) #3
  call void @_ZNSt14_Function_base13_Base_managerIZN3acd21ac_decomposition_impl18find_decompositionERjjEUlRKN5kitty18static_truth_tableILj11ELb0EEEE3_E15_M_init_functorIRKS9_EEvRSt9_Any_dataOT_(ptr noundef nonnull align 8 dereferenceable(16) %17, ptr noundef nonnull align 8 dereferenceable(8) %19) #3
  br label %22

20:                                               ; preds = %3
  %21 = load ptr, ptr %4, align 8, !tbaa !183
  call void @_ZNSt14_Function_base13_Base_managerIZN3acd21ac_decomposition_impl18find_decompositionERjjEUlRKN5kitty18static_truth_tableILj11ELb0EEEE3_E10_M_destroyERSt9_Any_dataSt17integral_constantIbLb1EE(ptr noundef nonnull align 8 dereferenceable(16) %21)
  br label %22

22:                                               ; preds = %3, %20, %16, %11, %8
  ret i1 false
}

; Function Attrs: mustprogress nounwind uwtable
define linkonce_odr void @_ZNSt14_Function_base13_Base_managerIZN3acd21ac_decomposition_impl18find_decompositionERjjEUlRKN5kitty18static_truth_tableILj11ELb0EEEE3_E15_M_init_functorIRKS9_EEvRSt9_Any_dataOT_(ptr noundef nonnull align 8 dereferenceable(16) %0, ptr noundef nonnull align 8 dereferenceable(8) %1) #4 comdat align 2 {
  %3 = alloca ptr, align 8
  %4 = alloca ptr, align 8
  store ptr %0, ptr %3, align 8, !tbaa !183
  store ptr %1, ptr %4, align 8, !tbaa !167
  %5 = load ptr, ptr %3, align 8, !tbaa !183
  %6 = load ptr, ptr %4, align 8, !tbaa !167
  call void @_ZNSt14_Function_base13_Base_managerIZN3acd21ac_decomposition_impl18find_decompositionERjjEUlRKN5kitty18static_truth_tableILj11ELb0EEEE3_E9_M_createIRKS9_EEvRSt9_Any_dataOT_St17integral_constantIbLb1EE(ptr noundef nonnull align 8 dereferenceable(16) %5, ptr noundef nonnull align 8 dereferenceable(8) %6)
  ret void
}

; Function Attrs: mustprogress nounwind uwtable
define linkonce_odr void @_ZNSt14_Function_base13_Base_managerIZN3acd21ac_decomposition_impl18find_decompositionERjjEUlRKN5kitty18static_truth_tableILj11ELb0EEEE3_E10_M_destroyERSt9_Any_dataSt17integral_constantIbLb1EE(ptr noundef nonnull align 8 dereferenceable(16) %0) #4 comdat align 2 {
  %2 = alloca ptr, align 8
  store ptr %0, ptr %2, align 8, !tbaa !183
  %3 = load ptr, ptr %2, align 8, !tbaa !183
  %4 = call noundef nonnull align 8 dereferenceable(8) ptr @_ZNSt9_Any_data9_M_accessIZN3acd21ac_decomposition_impl18find_decompositionERjjEUlRKN5kitty18static_truth_tableILj11ELb0EEEE3_EERT_v(ptr noundef nonnull align 8 dereferenceable(16) %3) #3
  ret void
}

; Function Attrs: mustprogress nounwind uwtable
define linkonce_odr void @_ZNSt14_Function_base13_Base_managerIZN3acd21ac_decomposition_impl18find_decompositionERjjEUlRKN5kitty18static_truth_tableILj11ELb0EEEE3_E9_M_createIRKS9_EEvRSt9_Any_dataOT_St17integral_constantIbLb1EE(ptr noundef nonnull align 8 dereferenceable(16) %0, ptr noundef nonnull align 8 dereferenceable(8) %1) #4 comdat align 2 {
  %3 = alloca ptr, align 8
  %4 = alloca ptr, align 8
  store ptr %0, ptr %3, align 8, !tbaa !183
  store ptr %1, ptr %4, align 8, !tbaa !167
  %5 = load ptr, ptr %3, align 8, !tbaa !183
  %6 = call noundef ptr @_ZNSt9_Any_data9_M_accessEv(ptr noundef nonnull align 8 dereferenceable(16) %5) #3
  %7 = load ptr, ptr %4, align 8, !tbaa !167
  call void @llvm.memcpy.p0.p0.i64(ptr align 8 %6, ptr align 8 %7, i64 8, i1 false), !tbaa.struct !189
  ret void
}

; Function Attrs: mustprogress nounwind uwtable
define linkonce_odr noundef nonnull align 8 dereferenceable(8) ptr @_ZNSt9_Any_data9_M_accessIZN3acd21ac_decomposition_impl18find_decompositionERjjEUlRKN5kitty18static_truth_tableILj11ELb0EEEE3_EERT_v(ptr noundef nonnull align 8 dereferenceable(16) %0) #4 comdat align 2 {
  %2 = alloca ptr, align 8
  store ptr %0, ptr %2, align 8, !tbaa !183
  %3 = load ptr, ptr %2, align 8
  %4 = call noundef ptr @_ZNSt9_Any_data9_M_accessEv(ptr noundef nonnull align 8 dereferenceable(16) %3) #3
  ret ptr %4
}

; Function Attrs: mustprogress nounwind uwtable
define linkonce_odr noundef i32 @_ZNKSt8functionIFjRKN5kitty18static_truth_tableILj11ELb0EEEEEclES4_(ptr noundef nonnull align 8 dereferenceable(32) %0, ptr noundef nonnull align 8 dereferenceable(256) %1) #4 comdat align 2 {
  %3 = alloca ptr, align 8
  %4 = alloca ptr, align 8
  store ptr %0, ptr %3, align 8, !tbaa !169
  store ptr %1, ptr %4, align 8, !tbaa !90
  %5 = load ptr, ptr %3, align 8
  %6 = call noundef zeroext i1 @_ZNKSt14_Function_base8_M_emptyEv(ptr noundef nonnull align 8 dereferenceable(24) %5)
  br i1 %6, label %7, label %8

7:                                                ; preds = %2
  call void @_ZSt25__throw_bad_function_callv() #16
  unreachable

8:                                                ; preds = %2
  %9 = getelementptr inbounds nuw %"class.std::function", ptr %5, i32 0, i32 1
  %10 = load ptr, ptr %9, align 8, !tbaa !171
  %11 = getelementptr inbounds nuw %"class.std::_Function_base", ptr %5, i32 0, i32 0
  %12 = load ptr, ptr %4, align 8, !tbaa !90
  %13 = call noundef i32 %10(ptr noundef nonnull align 8 dereferenceable(16) %11, ptr noundef nonnull align 8 dereferenceable(256) %12)
  ret i32 %13
}

; Function Attrs: mustprogress nounwind uwtable
define linkonce_odr void @_ZSt10make_tupleIJRN5kitty18static_truth_tableILj11ELb0EEERSt5arrayIjLm11EERjEESt5tupleIJDpNSt25__strip_reference_wrapperINSt5decayIT_E4typeEE6__typeEEEDpOSB_(ptr dead_on_unwind noalias writable sret(%"class.std::tuple") align 8 %0, ptr noundef nonnull align 8 dereferenceable(256) %1, ptr noundef nonnull align 4 dereferenceable(44) %2, ptr noundef nonnull align 4 dereferenceable(4) %3) #4 comdat {
  %5 = alloca ptr, align 8
  %6 = alloca ptr, align 8
  %7 = alloca ptr, align 8
  %8 = alloca ptr, align 8
  store ptr %0, ptr %5, align 8
  store ptr %1, ptr %6, align 8, !tbaa !90
  store ptr %2, ptr %7, align 8, !tbaa !102
  store ptr %3, ptr %8, align 8, !tbaa !10
  %9 = load ptr, ptr %6, align 8, !tbaa !90
  %10 = load ptr, ptr %7, align 8, !tbaa !102
  %11 = load ptr, ptr %8, align 8, !tbaa !10
  call void @_ZNSt5tupleIJN5kitty18static_truth_tableILj11ELb0EEESt5arrayIjLm11EEjEEC2IJRS2_RS4_RjELb1ETnNSt9enable_ifIXclsr4_TCCIXT0_EEE29__is_implicitly_constructibleIDpT_EEEbE4typeELb1EEEDpOSB_(ptr noundef nonnull align 8 dereferenceable(304) %0, ptr noundef nonnull align 8 dereferenceable(256) %9, ptr noundef nonnull align 4 dereferenceable(44) %10, ptr noundef nonnull align 4 dereferenceable(4) %11) #3
  ret void
}

; Function Attrs: inlinehint mustprogress nounwind uwtable
define linkonce_odr void @_ZN3acd21ac_decomposition_impl28enumerate_iset_combinations2Ejj(ptr dead_on_unwind noalias writable sret(%"class.std::tuple") align 8 %0, ptr noundef nonnull align 8 dereferenceable(500) %1, i32 noundef %2, i32 noundef %3) #6 comdat align 2 {
  %5 = alloca ptr, align 8
  %6 = alloca ptr, align 8
  %7 = alloca i32, align 4
  %8 = alloca i32, align 4
  %9 = alloca %"struct.kitty::static_truth_table", align 8
  %10 = alloca %"struct.kitty::static_truth_table", align 8
  %11 = alloca i32, align 4
  %12 = alloca [16 x i32], align 16
  %13 = alloca [16 x i32], align 16
  %14 = alloca i32, align 4
  %15 = alloca %"struct.std::array.15", align 4
  %16 = alloca i32, align 4
  %17 = alloca i32, align 4
  %18 = alloca i32, align 4
  %19 = alloca i32, align 4
  store ptr %0, ptr %5, align 8
  store ptr %1, ptr %6, align 8, !tbaa !27
  store i32 %2, ptr %7, align 4, !tbaa !8
  store i32 %3, ptr %8, align 4, !tbaa !8
  %20 = load ptr, ptr %6, align 8
  call void @llvm.lifetime.start.p0(i64 256, ptr %9) #3
  %21 = getelementptr inbounds nuw %"class.acd::ac_decomposition_impl", ptr %20, i32 0, i32 2
  call void @llvm.memcpy.p0.p0.i64(ptr align 8 %9, ptr align 8 %21, i64 256, i1 false), !tbaa.struct !82
  call void @llvm.lifetime.start.p0(i64 256, ptr %10) #3
  call void @llvm.memcpy.p0.p0.i64(ptr align 8 %10, ptr align 8 %9, i64 256, i1 false), !tbaa.struct !82
  call void @llvm.lifetime.start.p0(i64 4, ptr %11) #3
  %22 = getelementptr inbounds nuw %"class.acd::ac_decomposition_impl", ptr %20, i32 0, i32 11
  %23 = getelementptr inbounds nuw %"struct.acd::ac_decomposition_params", ptr %22, i32 0, i32 0
  %24 = load i32, ptr %23, align 4, !tbaa !59
  %25 = load i32, ptr %7, align 4, !tbaa !8
  %26 = sub i32 %24, %25
  %27 = shl i32 1, %26
  %28 = add nsw i32 %27, 1
  store i32 %28, ptr %11, align 4, !tbaa !8
  call void @llvm.lifetime.start.p0(i64 64, ptr %12) #3
  call void @llvm.lifetime.start.p0(i64 64, ptr %13) #3
  call void @llvm.lifetime.start.p0(i64 4, ptr %14) #3
  store i32 0, ptr %14, align 4, !tbaa !8
  br label %29

29:                                               ; preds = %43, %4
  %30 = load i32, ptr %14, align 4, !tbaa !8
  %31 = getelementptr inbounds nuw %"class.acd::ac_decomposition_impl", ptr %20, i32 0, i32 10
  %32 = load i32, ptr %31, align 8, !tbaa !54
  %33 = icmp ult i32 %30, %32
  br i1 %33, label %35, label %34

34:                                               ; preds = %29
  call void @llvm.lifetime.end.p0(i64 4, ptr %14) #3
  br label %46

35:                                               ; preds = %29
  %36 = load i32, ptr %14, align 4, !tbaa !8
  %37 = load i32, ptr %14, align 4, !tbaa !8
  %38 = zext i32 %37 to i64
  %39 = getelementptr inbounds nuw [16 x i32], ptr %13, i64 0, i64 %38
  store i32 %36, ptr %39, align 4, !tbaa !8
  %40 = load i32, ptr %14, align 4, !tbaa !8
  %41 = zext i32 %40 to i64
  %42 = getelementptr inbounds nuw [16 x i32], ptr %12, i64 0, i64 %41
  store i32 %36, ptr %42, align 4, !tbaa !8
  br label %43

43:                                               ; preds = %35
  %44 = load i32, ptr %14, align 4, !tbaa !8
  %45 = add i32 %44, 1
  store i32 %45, ptr %14, align 4, !tbaa !8
  br label %29, !llvm.loop !224

46:                                               ; preds = %34
  call void @llvm.lifetime.start.p0(i64 44, ptr %15) #3
  br label %47

47:                                               ; preds = %80, %46
  call void @llvm.lifetime.start.p0(i64 4, ptr %16) #3
  %48 = load i32, ptr %7, align 4, !tbaa !8
  %49 = call noundef i32 @_ZN3acd21ac_decomposition_impl20column_multiplicity2ERKN5kitty18static_truth_tableILj11ELb0EEEj(ptr noundef nonnull align 8 dereferenceable(500) %20, ptr noundef nonnull align 8 dereferenceable(256) %9, i32 noundef %48)
  store i32 %49, ptr %16, align 4, !tbaa !8
  %50 = load i32, ptr %16, align 4, !tbaa !8
  %51 = icmp ule i32 %50, 2
  br i1 %51, label %52, label %76

52:                                               ; preds = %47
  call void @llvm.memcpy.p0.p0.i64(ptr align 8 %10, ptr align 8 %9, i64 256, i1 false), !tbaa.struct !82
  %53 = load i32, ptr %16, align 4, !tbaa !8
  store i32 %53, ptr %11, align 4, !tbaa !8
  call void @llvm.lifetime.start.p0(i64 4, ptr %17) #3
  store i32 0, ptr %17, align 4, !tbaa !8
  br label %54

54:                                               ; preds = %72, %52
  %55 = load i32, ptr %17, align 4, !tbaa !8
  %56 = getelementptr inbounds nuw %"class.acd::ac_decomposition_impl", ptr %20, i32 0, i32 10
  %57 = load i32, ptr %56, align 8, !tbaa !54
  %58 = icmp ult i32 %55, %57
  br i1 %58, label %60, label %59

59:                                               ; preds = %54
  call void @llvm.lifetime.end.p0(i64 4, ptr %17) #3
  br label %75

60:                                               ; preds = %54
  %61 = getelementptr inbounds nuw %"class.acd::ac_decomposition_impl", ptr %20, i32 0, i32 13
  %62 = load i32, ptr %17, align 4, !tbaa !8
  %63 = zext i32 %62 to i64
  %64 = getelementptr inbounds nuw [16 x i32], ptr %12, i64 0, i64 %63
  %65 = load i32, ptr %64, align 4, !tbaa !8
  %66 = zext i32 %65 to i64
  %67 = call noundef nonnull align 4 dereferenceable(4) ptr @_ZNSt5arrayIjLm11EEixEm(ptr noundef nonnull align 4 dereferenceable(44) %61, i64 noundef %66) #3
  %68 = load i32, ptr %67, align 4, !tbaa !8
  %69 = load i32, ptr %17, align 4, !tbaa !8
  %70 = zext i32 %69 to i64
  %71 = call noundef nonnull align 4 dereferenceable(4) ptr @_ZNSt5arrayIjLm11EEixEm(ptr noundef nonnull align 4 dereferenceable(44) %15, i64 noundef %70) #3
  store i32 %68, ptr %71, align 4, !tbaa !8
  br label %72

72:                                               ; preds = %60
  %73 = load i32, ptr %17, align 4, !tbaa !8
  %74 = add i32 %73, 1
  store i32 %74, ptr %17, align 4, !tbaa !8
  br label %54, !llvm.loop !225

75:                                               ; preds = %59
  call void @_ZSt10make_tupleIJRN5kitty18static_truth_tableILj11ELb0EEERSt5arrayIjLm11EERjEESt5tupleIJDpNSt25__strip_reference_wrapperINSt5decayIT_E4typeEE6__typeEEEDpOSB_(ptr dead_on_unwind writable sret(%"class.std::tuple") align 8 %0, ptr noundef nonnull align 8 dereferenceable(256) %10, ptr noundef nonnull align 4 dereferenceable(44) %15, ptr noundef nonnull align 4 dereferenceable(4) %11)
  store i32 1, ptr %18, align 4
  br label %77

76:                                               ; preds = %47
  store i32 0, ptr %18, align 4
  br label %77

77:                                               ; preds = %76, %75
  call void @llvm.lifetime.end.p0(i64 4, ptr %16) #3
  %78 = load i32, ptr %18, align 4
  switch i32 %78, label %87 [
    i32 0, label %79
  ]

79:                                               ; preds = %77
  br label %80

80:                                               ; preds = %79
  %81 = load i32, ptr %7, align 4, !tbaa !8
  %82 = load i32, ptr %8, align 4, !tbaa !8
  %83 = getelementptr inbounds [16 x i32], ptr %12, i64 0, i64 0
  %84 = getelementptr inbounds [16 x i32], ptr %13, i64 0, i64 0
  %85 = call noundef zeroext i1 @_ZN3acd21ac_decomposition_impl24combinations_offset_nextEjjPjS1_RN5kitty18static_truth_tableILj11ELb0EEE(ptr noundef nonnull align 8 dereferenceable(500) %20, i32 noundef %81, i32 noundef %82, ptr noundef %83, ptr noundef %84, ptr noundef nonnull align 8 dereferenceable(256) %9)
  br i1 %85, label %47, label %86, !llvm.loop !226

86:                                               ; preds = %80
  call void @llvm.lifetime.start.p0(i64 4, ptr %19) #3
  store i32 -1, ptr %19, align 4, !tbaa !8
  call void @_ZSt10make_tupleIJRN5kitty18static_truth_tableILj11ELb0EEERSt5arrayIjLm11EEjEESt5tupleIJDpNSt25__strip_reference_wrapperINSt5decayIT_E4typeEE6__typeEEEDpOSA_(ptr dead_on_unwind writable sret(%"class.std::tuple") align 8 %0, ptr noundef nonnull align 8 dereferenceable(256) %10, ptr noundef nonnull align 4 dereferenceable(44) %15, ptr noundef nonnull align 4 dereferenceable(4) %19)
  call void @llvm.lifetime.end.p0(i64 4, ptr %19) #3
  store i32 1, ptr %18, align 4
  br label %87

87:                                               ; preds = %86, %77
  call void @llvm.lifetime.end.p0(i64 44, ptr %15) #3
  call void @llvm.lifetime.end.p0(i64 64, ptr %13) #3
  call void @llvm.lifetime.end.p0(i64 64, ptr %12) #3
  call void @llvm.lifetime.end.p0(i64 4, ptr %11) #3
  call void @llvm.lifetime.end.p0(i64 256, ptr %10) #3
  call void @llvm.lifetime.end.p0(i64 256, ptr %9) #3
  ret void
}

; Function Attrs: inlinehint mustprogress nounwind uwtable
define linkonce_odr noundef zeroext i1 @_ZN3acd21ac_decomposition_impl24combinations_offset_nextEjjPjS1_RN5kitty18static_truth_tableILj11ELb0EEE(ptr noundef nonnull align 8 dereferenceable(500) %0, i32 noundef %1, i32 noundef %2, ptr noundef %3, ptr noundef %4, ptr noundef nonnull align 8 dereferenceable(256) %5) #6 comdat align 2 {
  %7 = alloca i1, align 1
  %8 = alloca ptr, align 8
  %9 = alloca i32, align 4
  %10 = alloca i32, align 4
  %11 = alloca ptr, align 8
  %12 = alloca ptr, align 8
  %13 = alloca ptr, align 8
  %14 = alloca i32, align 4
  %15 = alloca i32, align 4
  %16 = alloca i32, align 4
  %17 = alloca i32, align 4
  %18 = alloca i32, align 4
  store ptr %0, ptr %8, align 8, !tbaa !27
  store i32 %1, ptr %9, align 4, !tbaa !8
  store i32 %2, ptr %10, align 4, !tbaa !8
  store ptr %3, ptr %11, align 8, !tbaa !10
  store ptr %4, ptr %12, align 8, !tbaa !10
  store ptr %5, ptr %13, align 8, !tbaa !90
  %19 = load ptr, ptr %8, align 8
  call void @llvm.lifetime.start.p0(i64 4, ptr %14) #3
  %20 = load i32, ptr %9, align 4, !tbaa !8
  %21 = sub i32 %20, 1
  store i32 %21, ptr %14, align 4, !tbaa !8
  br label %22

