target datalayout = "e-m:e-p270:32:32-p271:32:32-p272:64:64-i64:64-i128:128-f80:128-n8:16:32:64-S128"
target triple = "x86_64-pc-linux-gnu"

%"class.Ttopt::TruthTableReo" = type { %"class.Ttopt::TruthTable", i8, %"class.std::vector.0", %"class.std::vector.15" }
%"class.Ttopt::TruthTable" = type { ptr, i32, i32, i32, i32, %"class.std::vector", %"class.std::vector.0", %"class.std::vector.0", %"class.std::vector.5", %"class.std::vector.10", %"class.std::vector.15", %"class.std::vector.15", %"class.std::vector.0" }
%"class.std::vector" = type { %"struct.std::_Vector_base" }
%"struct.std::_Vector_base" = type { %"struct.std::_Vector_base<unsigned long, std::allocator<unsigned long>>::_Vector_impl" }
%"struct.std::_Vector_base<unsigned long, std::allocator<unsigned long>>::_Vector_impl" = type { %"struct.std::_Vector_base<unsigned long, std::allocator<unsigned long>>::_Vector_impl_data" }
%"struct.std::_Vector_base<unsigned long, std::allocator<unsigned long>>::_Vector_impl_data" = type { ptr, ptr, ptr }
%"class.std::vector.5" = type { %"struct.std::_Vector_base.6" }
%"struct.std::_Vector_base.6" = type { %"struct.std::_Vector_base<int, std::allocator<int>>::_Vector_impl" }
%"struct.std::_Vector_base<int, std::allocator<int>>::_Vector_impl" = type { %"struct.std::_Vector_base<int, std::allocator<int>>::_Vector_impl_data" }
%"struct.std::_Vector_base<int, std::allocator<int>>::_Vector_impl_data" = type { ptr, ptr, ptr }
%"class.std::vector.10" = type { %"struct.std::_Vector_base.11" }
%"struct.std::_Vector_base.11" = type { %"struct.std::_Vector_base<std::vector<unsigned long>, std::allocator<std::vector<unsigned long>>>::_Vector_impl" }
%"struct.std::_Vector_base<std::vector<unsigned long>, std::allocator<std::vector<unsigned long>>>::_Vector_impl" = type { %"struct.std::_Vector_base<std::vector<unsigned long>, std::allocator<std::vector<unsigned long>>>::_Vector_impl_data" }
%"struct.std::_Vector_base<std::vector<unsigned long>, std::allocator<std::vector<unsigned long>>>::_Vector_impl_data" = type { ptr, ptr, ptr }
%"class.std::vector.0" = type { %"struct.std::_Vector_base.1" }
%"struct.std::_Vector_base.1" = type { %"struct.std::_Vector_base<std::vector<int>, std::allocator<std::vector<int>>>::_Vector_impl" }
%"struct.std::_Vector_base<std::vector<int>, std::allocator<std::vector<int>>>::_Vector_impl" = type { %"struct.std::_Vector_base<std::vector<int>, std::allocator<std::vector<int>>>::_Vector_impl_data" }
%"struct.std::_Vector_base<std::vector<int>, std::allocator<std::vector<int>>>::_Vector_impl_data" = type { ptr, ptr, ptr }
%"class.std::vector.15" = type { %"struct.std::_Vector_base.16" }
%"struct.std::_Vector_base.16" = type { %"struct.std::_Vector_base<std::vector<std::vector<int>>, std::allocator<std::vector<std::vector<int>>>>::_Vector_impl" }
%"struct.std::_Vector_base<std::vector<std::vector<int>>, std::allocator<std::vector<std::vector<int>>>>::_Vector_impl" = type { %"struct.std::_Vector_base<std::vector<std::vector<int>>, std::allocator<std::vector<std::vector<int>>>>::_Vector_impl_data" }
%"struct.std::_Vector_base<std::vector<std::vector<int>>, std::allocator<std::vector<std::vector<int>>>>::_Vector_impl_data" = type { ptr, ptr, ptr }
%struct.Gia_Man_t_ = type { ptr, ptr, i32, i32, i32, i32, ptr, ptr, i32, i32, i32, ptr, ptr, %struct.Vec_Int_t_, %struct.Vec_Int_t_, i32, i32, i32, %struct.Vec_Int_t_, ptr, ptr, ptr, i32, i32, i32, i32, ptr, ptr, ptr, ptr, ptr, i32, i32, ptr, i32, ptr, ptr, ptr, ptr, ptr, ptr, ptr, ptr, ptr, ptr, ptr, ptr, ptr, ptr, ptr, ptr, ptr, ptr, %struct.Vec_Int_t_, %struct.Vec_Int_t_, ptr, ptr, ptr, ptr, ptr, ptr, ptr, ptr, ptr, ptr, ptr, ptr, ptr, ptr, ptr, ptr, ptr, ptr, ptr, ptr, ptr, i32, float, float, ptr, ptr, i32, ptr, ptr, ptr, ptr, ptr, ptr, ptr, ptr, ptr, ptr, ptr, ptr, ptr, ptr, ptr, i64, i64, ptr, ptr, i32, i32, i32, i32, i32, i32, i32, i32, i32, i32, i32, i32, ptr, ptr, ptr, ptr, ptr, ptr, ptr, ptr, i32, i32, i32, ptr, i32, i32, ptr, ptr, ptr, ptr, ptr, ptr, i32, i32, ptr, %struct.Vec_Int_t_, %struct.Vec_Int_t_, %struct.Vec_Int_t_, ptr, ptr, ptr, i32, i32, i32, i32, ptr, ptr, ptr, ptr, ptr }
%struct.Vec_Int_t_ = type { i32, i32, ptr }
%struct.Gia_Obj_t_ = type <{ i64, i32 }>
%"class.std::allocator.7" = type { i8 }
%"class.__gnu_cxx::__normal_iterator.45" = type { ptr }
%"class.__gnu_cxx::__normal_iterator.44" = type { ptr }
%"class.__gnu_cxx::__normal_iterator.30" = type { ptr }
%"class.__gnu_cxx::__normal_iterator" = type { ptr }
%"class.std::allocator.2" = type { i8 }
%"class.Ttopt::TruthTableLevelTSM" = type { %"class.Ttopt::TruthTableCare" }
%"class.Ttopt::TruthTableCare" = type { %"class.Ttopt::TruthTableRewrite", %"class.std::vector", %"class.std::vector", %"class.std::vector", %"class.std::vector.20", %"class.std::vector.10", %"class.std::vector.25" }
%"class.Ttopt::TruthTableRewrite" = type { %"class.Ttopt::TruthTable" }
%"class.std::vector.20" = type { %"struct.std::_Vector_base.21" }
%"struct.std::_Vector_base.21" = type { %"struct.std::_Vector_base<std::vector<std::pair<int, int>>, std::allocator<std::vector<std::pair<int, int>>>>::_Vector_impl" }
%"struct.std::_Vector_base<std::vector<std::pair<int, int>>, std::allocator<std::vector<std::pair<int, int>>>>::_Vector_impl" = type { %"struct.std::_Vector_base<std::vector<std::pair<int, int>>, std::allocator<std::vector<std::pair<int, int>>>>::_Vector_impl_data" }
%"struct.std::_Vector_base<std::vector<std::pair<int, int>>, std::allocator<std::vector<std::pair<int, int>>>>::_Vector_impl_data" = type { ptr, ptr, ptr }
%"class.std::vector.25" = type { %"struct.std::_Vector_base.26" }
%"struct.std::_Vector_base.26" = type { %"struct.std::_Vector_base<std::vector<std::vector<std::pair<int, int>>>, std::allocator<std::vector<std::vector<std::pair<int, int>>>>>::_Vector_impl" }
%"struct.std::_Vector_base<std::vector<std::vector<std::pair<int, int>>>, std::allocator<std::vector<std::vector<std::pair<int, int>>>>>::_Vector_impl" = type { %"struct.std::_Vector_base<std::vector<std::vector<std::pair<int, int>>>, std::allocator<std::vector<std::vector<std::pair<int, int>>>>>::_Vector_impl_data" }
%"struct.std::_Vector_base<std::vector<std::vector<std::pair<int, int>>>, std::allocator<std::vector<std::vector<std::pair<int, int>>>>>::_Vector_impl_data" = type { ptr, ptr, ptr }
%struct.Vec_Wrd_t_ = type { i32, i32, ptr }
%"class.__gnu_cxx::__normal_iterator.31" = type { ptr }
%"class.__gnu_cxx::__normal_iterator.32" = type { ptr }
%"struct.__gnu_cxx::__ops::_Iter_equals_val" = type { ptr }
%struct.Hash_IntMan_t_ = type { ptr, ptr, i32 }
%struct.Hash_IntObj_t_ = type { i32, i32, i32, i32 }
%"class.std::vector.33" = type { %"struct.std::_Vector_base.34" }
%"struct.std::_Vector_base.34" = type { %"struct.std::_Vector_base<unsigned int, std::allocator<unsigned int>>::_Vector_impl" }
%"struct.std::_Vector_base<unsigned int, std::allocator<unsigned int>>::_Vector_impl" = type { %"struct.std::_Vector_base<unsigned int, std::allocator<unsigned int>>::_Vector_impl_data" }
%"struct.std::_Vector_base<unsigned int, std::allocator<unsigned int>>::_Vector_impl_data" = type { ptr, ptr, ptr }
%"class.std::allocator.35" = type { i8 }
%"struct.std::pair" = type { i32, i32 }
%"class.std::vector.38" = type { %"struct.std::_Vector_base.39" }
%"struct.std::_Vector_base.39" = type { %"struct.std::_Vector_base<std::pair<int, int>, std::allocator<std::pair<int, int>>>::_Vector_impl" }
%"struct.std::_Vector_base<std::pair<int, int>, std::allocator<std::pair<int, int>>>::_Vector_impl" = type { %"struct.std::_Vector_base<std::pair<int, int>, std::allocator<std::pair<int, int>>>::_Vector_impl_data" }
%"struct.std::_Vector_base<std::pair<int, int>, std::allocator<std::pair<int, int>>>::_Vector_impl_data" = type { ptr, ptr, ptr }
%"class.__gnu_cxx::__normal_iterator.43" = type { ptr }
%"class.std::move_iterator" = type { ptr }
%"class.__gnu_cxx::__normal_iterator.46" = type { ptr }
%"class.__gnu_cxx::__normal_iterator.47" = type { ptr }
%"class.std::allocator.40" = type { i8 }
%"class.__gnu_cxx::__normal_iterator.48" = type { ptr }
%"class.std::reverse_iterator" = type { %"class.__gnu_cxx::__normal_iterator.43" }
%"class.std::bitset" = type { %"struct.std::_Base_bitset" }
%"struct.std::_Base_bitset" = type { i64 }

$_ZN5Ttopt13TruthTableReoC2Eii = comdat any

$_ZNSt6vectorImSaImEEixEm = comdat any

$_ZN5Ttopt10TruthTable13RandomSiftReoEi = comdat any

$_ZN5Ttopt10TruthTableC2Eii = comdat any

$_ZNSt6vectorImSaImEEaSERKS1_ = comdat any

$_ZN5Ttopt10TruthTable3ReoESt6vectorIiSaIiEE = comdat any

$_ZNSt6vectorIiSaIiEEC2ERKS1_ = comdat any

$_ZNSt6vectorIiSaIiEED2Ev = comdat any

$_ZN5Ttopt10TruthTable14BDDGenerateAigEP10Gia_Man_t_P10Vec_Int_t_ = comdat any

$_ZN5Ttopt13TruthTableReoD2Ev = comdat any

$_ZN5Ttopt18TruthTableLevelTSMC2Eii = comdat any

$_ZN5Ttopt14TruthTableCare8OptimizeEv = comdat any

$_ZN5Ttopt14TruthTableCareD2Ev = comdat any

$_ZNSt6vectorIS_IiSaIiEESaIS1_EEC2Ev = comdat any

$_ZNSt6vectorIS_IS_IiSaIiEESaIS1_EESaIS3_EEC2Ev = comdat any

$_ZN5Ttopt13TruthTableReo4SaveEj = comdat any

$_ZN5Ttopt13TruthTableReo4LoadEj = comdat any

$_ZN5Ttopt13TruthTableReo11SaveIndicesEj = comdat any

$_ZN5Ttopt13TruthTableReo11LoadIndicesEj = comdat any

$_ZN5Ttopt10TruthTable11BDDBuildOneEii = comdat any

$_ZN5Ttopt13TruthTableReo15BDDBuildStartupEv = comdat any

$_ZN5Ttopt13TruthTableReo13BDDBuildLevelEi = comdat any

$_ZN5Ttopt13TruthTableReo8BDDBuildEv = comdat any

$_ZN5Ttopt13TruthTableReo10BDDRebuildEi = comdat any

$_ZN5Ttopt13TruthTableReo4SwapEi = comdat any

$_ZN5Ttopt13TruthTableReo7BDDSwapEi = comdat any

$_ZN5Ttopt13TruthTableReo14BDDGenerateAigEP10Gia_Man_t_P10Vec_Int_t_ = comdat any

$_ZNSt6vectorImSaImEEC2Ev = comdat any

$_ZNSt6vectorIiSaIiEEC2Ev = comdat any

$_ZNSt6vectorIS_ImSaImEESaIS1_EEC2Ev = comdat any

$_ZNSt6vectorImSaImEE6resizeEm = comdat any

$_ZNSt6vectorIiSaIiEE6resizeEm = comdat any

$_ZNSt6vectorIiSaIiEEixEm = comdat any

$_ZN5Ttopt10TruthTable4SaveEj = comdat any

$_ZN5Ttopt10TruthTable4LoadEj = comdat any

$_ZN5Ttopt10TruthTable11SaveIndicesEj = comdat any

$_ZN5Ttopt10TruthTable11LoadIndicesEj = comdat any

$_ZN5Ttopt10TruthTable15BDDBuildStartupEv = comdat any

$_ZN5Ttopt10TruthTable13BDDBuildLevelEi = comdat any

$_ZN5Ttopt10TruthTable8BDDBuildEv = comdat any

$_ZN5Ttopt10TruthTable10BDDRebuildEi = comdat any

$_ZN5Ttopt10TruthTable4SwapEi = comdat any

$_ZN5Ttopt10TruthTable7BDDSwapEi = comdat any

$_ZNSt12_Vector_baseImSaImEEC2Ev = comdat any

$_ZNSt12_Vector_baseImSaImEE12_Vector_implC2Ev = comdat any

$_ZNSaImEC2Ev = comdat any

$_ZNSt12_Vector_baseImSaImEE17_Vector_impl_dataC2Ev = comdat any

$_ZNSt15__new_allocatorImEC2Ev = comdat any

$_ZNSt12_Vector_baseIiSaIiEEC2Ev = comdat any

$_ZNSt12_Vector_baseIiSaIiEE12_Vector_implC2Ev = comdat any

$_ZNSt12_Vector_baseIiSaIiEE17_Vector_impl_dataC2Ev = comdat any

$_ZNSt15__new_allocatorIiEC2Ev = comdat any

$_ZNSt12_Vector_baseISt6vectorImSaImEESaIS2_EEC2Ev = comdat any

$_ZNSt12_Vector_baseISt6vectorImSaImEESaIS2_EE12_Vector_implC2Ev = comdat any

$_ZNSaISt6vectorImSaImEEEC2Ev = comdat any

$_ZNSt12_Vector_baseISt6vectorImSaImEESaIS2_EE17_Vector_impl_dataC2Ev = comdat any

$_ZNSt15__new_allocatorISt6vectorImSaImEEEC2Ev = comdat any

$_ZNKSt6vectorImSaImEE4sizeEv = comdat any

$_ZNSt6vectorImSaImEE17_M_default_appendEm = comdat any

$_ZNSt6vectorImSaImEE15_M_erase_at_endEPm = comdat any

$_ZNKSt6vectorImSaImEE8max_sizeEv = comdat any

$_ZSt27__uninitialized_default_n_aIPmmmET_S1_T0_RSaIT1_E = comdat any

$_ZNSt12_Vector_baseImSaImEE19_M_get_Tp_allocatorEv = comdat any

$_ZNKSt6vectorImSaImEE12_M_check_lenEmPKc = comdat any

$_ZNSt12_Vector_baseImSaImEE11_M_allocateEm = comdat any

$_ZNSt6vectorImSaImEE11_S_relocateEPmS2_S2_RS0_ = comdat any

$_ZNSt12_Vector_baseImSaImEE13_M_deallocateEPmm = comdat any

$_ZNSt6vectorImSaImEE11_S_max_sizeERKS0_ = comdat any

$_ZNKSt12_Vector_baseImSaImEE19_M_get_Tp_allocatorEv = comdat any

$_ZNSt16allocator_traitsISaImEE8max_sizeERKS0_ = comdat any

$_ZSt3minImERKT_S2_S2_ = comdat any

$_ZNKSt15__new_allocatorImE8max_sizeEv = comdat any

$_ZNKSt15__new_allocatorImE11_M_max_sizeEv = comdat any

$_ZSt25__uninitialized_default_nIPmmET_S1_T0_ = comdat any

$_ZNSt27__uninitialized_default_n_1ILb1EE18__uninit_default_nIPmmEET_S3_T0_ = comdat any

$_ZSt10_ConstructImJEEvPT_DpOT0_ = comdat any

$_ZSt6fill_nIPmmmET_S1_T0_RKT1_ = comdat any

$_ZSt10__fill_n_aIPmmmET_S1_T0_RKT1_St26random_access_iterator_tag = comdat any

$_ZSt17__size_to_integerm = comdat any

$_ZSt19__iterator_categoryIPmENSt15iterator_traitsIT_E17iterator_categoryERKS2_ = comdat any

$_ZSt8__fill_aIPmmEvT_S1_RKT0_ = comdat any

$_ZSt9__fill_a1IPmmEN9__gnu_cxx11__enable_ifIXsr11__is_scalarIT0_EE7__valueEvE6__typeET_S6_RKS3_ = comdat any

$_ZSt3maxImERKT_S2_S2_ = comdat any

$_ZNSt16allocator_traitsISaImEE8allocateERS0_m = comdat any

$_ZNSt15__new_allocatorImE8allocateEmPKv = comdat any

$_ZSt12__relocate_aIPmS0_SaImEET0_T_S3_S2_RT1_ = comdat any

$_ZSt14__relocate_a_1ImmENSt9enable_ifIXsr3std24__is_bitwise_relocatableIT_EE5valueEPS1_E4typeES2_S2_S2_RSaIT0_E = comdat any

$_ZSt12__niter_baseIPmET_S1_ = comdat any

$_ZNSt16allocator_traitsISaImEE10deallocateERS0_Pmm = comdat any

$_ZNSt15__new_allocatorImE10deallocateEPmm = comdat any

$_ZSt8_DestroyIPmmEvT_S1_RSaIT0_E = comdat any

$_ZSt8_DestroyIPmEvT_S1_ = comdat any

$_ZNSt12_Destroy_auxILb1EE9__destroyIPmEEvT_S3_ = comdat any

$_ZNKSt6vectorIiSaIiEE4sizeEv = comdat any

$_ZNSt6vectorIiSaIiEE17_M_default_appendEm = comdat any

$_ZNSt6vectorIiSaIiEE15_M_erase_at_endEPi = comdat any

$_ZNKSt6vectorIiSaIiEE8max_sizeEv = comdat any

$_ZSt27__uninitialized_default_n_aIPimiET_S1_T0_RSaIT1_E = comdat any

$_ZNSt12_Vector_baseIiSaIiEE19_M_get_Tp_allocatorEv = comdat any

$_ZNKSt6vectorIiSaIiEE12_M_check_lenEmPKc = comdat any

$_ZNSt12_Vector_baseIiSaIiEE11_M_allocateEm = comdat any

$_ZNSt6vectorIiSaIiEE11_S_relocateEPiS2_S2_RS0_ = comdat any

$_ZNSt12_Vector_baseIiSaIiEE13_M_deallocateEPim = comdat any

$_ZNSt6vectorIiSaIiEE11_S_max_sizeERKS0_ = comdat any

$_ZNKSt12_Vector_baseIiSaIiEE19_M_get_Tp_allocatorEv = comdat any

$_ZNSt16allocator_traitsISaIiEE8max_sizeERKS0_ = comdat any

$_ZNKSt15__new_allocatorIiE8max_sizeEv = comdat any

$_ZNKSt15__new_allocatorIiE11_M_max_sizeEv = comdat any

$_ZSt25__uninitialized_default_nIPimET_S1_T0_ = comdat any

$_ZNSt27__uninitialized_default_n_1ILb1EE18__uninit_default_nIPimEET_S3_T0_ = comdat any

$_ZSt10_ConstructIiJEEvPT_DpOT0_ = comdat any

$_ZSt6fill_nIPimiET_S1_T0_RKT1_ = comdat any

$_ZSt10__fill_n_aIPimiET_S1_T0_RKT1_St26random_access_iterator_tag = comdat any

$_ZSt19__iterator_categoryIPiENSt15iterator_traitsIT_E17iterator_categoryERKS2_ = comdat any

$_ZSt8__fill_aIPiiEvT_S1_RKT0_ = comdat any

$_ZSt9__fill_a1IPiiEN9__gnu_cxx11__enable_ifIXsr11__is_scalarIT0_EE7__valueEvE6__typeET_S6_RKS3_ = comdat any

$_ZNSt16allocator_traitsISaIiEE8allocateERS0_m = comdat any

$_ZNSt15__new_allocatorIiE8allocateEmPKv = comdat any

$_ZSt12__relocate_aIPiS0_SaIiEET0_T_S3_S2_RT1_ = comdat any

$_ZSt14__relocate_a_1IiiENSt9enable_ifIXsr3std24__is_bitwise_relocatableIT_EE5valueEPS1_E4typeES2_S2_S2_RSaIT0_E = comdat any

$_ZSt12__niter_baseIPiET_S1_ = comdat any

$_ZNSt16allocator_traitsISaIiEE10deallocateERS0_Pim = comdat any

$_ZNSt15__new_allocatorIiE10deallocateEPim = comdat any

$_ZSt8_DestroyIPiiEvT_S1_RSaIT0_E = comdat any

$_ZSt8_DestroyIPiEvT_S1_ = comdat any

$_ZNSt12_Destroy_auxILb1EE9__destroyIPiEEvT_S3_ = comdat any

$_ZNKSt6vectorIS_ImSaImEESaIS1_EE4sizeEv = comdat any

$_ZNSt6vectorIS_ImSaImEESaIS1_EE6resizeEm = comdat any

$_ZNSt6vectorIS_IiSaIiEESaIS1_EE6resizeEm = comdat any

$_ZNSt6vectorIS_ImSaImEESaIS1_EEixEm = comdat any

$_ZNSt6vectorIS_IiSaIiEESaIS1_EEixEm = comdat any

$_ZNSt6vectorIiSaIiEEaSERKS1_ = comdat any

$_ZNSt6vectorIS_ImSaImEESaIS1_EE17_M_default_appendEm = comdat any

$_ZNSt6vectorIS_ImSaImEESaIS1_EE15_M_erase_at_endEPS1_ = comdat any

$_ZNKSt6vectorIS_ImSaImEESaIS1_EE8max_sizeEv = comdat any

$_ZSt27__uninitialized_default_n_aIPSt6vectorImSaImEEmS2_ET_S4_T0_RSaIT1_E = comdat any

$_ZNSt12_Vector_baseISt6vectorImSaImEESaIS2_EE19_M_get_Tp_allocatorEv = comdat any

$_ZNKSt6vectorIS_ImSaImEESaIS1_EE12_M_check_lenEmPKc = comdat any

$_ZNSt12_Vector_baseISt6vectorImSaImEESaIS2_EE11_M_allocateEm = comdat any

$_ZNSt6vectorIS_ImSaImEESaIS1_EE11_S_relocateEPS1_S4_S4_RS2_ = comdat any

$_ZNSt12_Vector_baseISt6vectorImSaImEESaIS2_EE13_M_deallocateEPS2_m = comdat any

$_ZNSt6vectorIS_ImSaImEESaIS1_EE11_S_max_sizeERKS2_ = comdat any

$_ZNKSt12_Vector_baseISt6vectorImSaImEESaIS2_EE19_M_get_Tp_allocatorEv = comdat any

$_ZNSt16allocator_traitsISaISt6vectorImSaImEEEE8max_sizeERKS3_ = comdat any

$_ZNKSt15__new_allocatorISt6vectorImSaImEEE8max_sizeEv = comdat any

$_ZNKSt15__new_allocatorISt6vectorImSaImEEE11_M_max_sizeEv = comdat any

$_ZSt25__uninitialized_default_nIPSt6vectorImSaImEEmET_S4_T0_ = comdat any

$_ZNSt27__uninitialized_default_n_1ILb0EE18__uninit_default_nIPSt6vectorImSaImEEmEET_S6_T0_ = comdat any

$_ZSt10_ConstructISt6vectorImSaImEEJEEvPT_DpOT0_ = comdat any

$_ZNSt16allocator_traitsISaISt6vectorImSaImEEEE8allocateERS3_m = comdat any

$_ZNSt15__new_allocatorISt6vectorImSaImEEE8allocateEmPKv = comdat any

$_ZSt12__relocate_aIPSt6vectorImSaImEES3_SaIS2_EET0_T_S6_S5_RT1_ = comdat any

$_ZSt14__relocate_a_1IPSt6vectorImSaImEES3_SaIS2_EET0_T_S6_S5_RT1_ = comdat any

$_ZSt12__niter_baseIPSt6vectorImSaImEEET_S4_ = comdat any

$_ZSt19__relocate_object_aISt6vectorImSaImEES2_SaIS2_EEvPT_PT0_RT1_ = comdat any

$_ZNSt16allocator_traitsISaISt6vectorImSaImEEEE9constructIS2_JS2_EEEvRS3_PT_DpOT0_ = comdat any

$_ZNSt16allocator_traitsISaISt6vectorImSaImEEEE7destroyIS2_EEvRS3_PT_ = comdat any

$_ZNSt15__new_allocatorISt6vectorImSaImEEE9constructIS2_JS2_EEEvPT_DpOT0_ = comdat any

$_ZNSt6vectorImSaImEEC2EOS1_ = comdat any

$_ZNSt12_Vector_baseImSaImEEC2EOS1_ = comdat any

$_ZNSt12_Vector_baseImSaImEE12_Vector_implC2EOS2_ = comdat any

$_ZNSaImEC2ERKS_ = comdat any

$_ZNSt12_Vector_baseImSaImEE17_Vector_impl_dataC2EOS2_ = comdat any

$_ZNSt15__new_allocatorImEC2ERKS0_ = comdat any

$_ZNSt15__new_allocatorISt6vectorImSaImEEE7destroyIS2_EEvPT_ = comdat any

$_ZNSt6vectorImSaImEED2Ev = comdat any

$_ZNSt12_Vector_baseImSaImEED2Ev = comdat any

$_ZNSt15__new_allocatorImED2Ev = comdat any

$_ZNSt16allocator_traitsISaISt6vectorImSaImEEEE10deallocateERS3_PS2_m = comdat any

$_ZNSt15__new_allocatorISt6vectorImSaImEEE10deallocateEPS2_m = comdat any

$_ZSt8_DestroyIPSt6vectorImSaImEES2_EvT_S4_RSaIT0_E = comdat any

$_ZSt8_DestroyIPSt6vectorImSaImEEEvT_S4_ = comdat any

$_ZNSt12_Destroy_auxILb0EE9__destroyIPSt6vectorImSaImEEEEvT_S6_ = comdat any

$_ZSt8_DestroyISt6vectorImSaImEEEvPT_ = comdat any

$_ZNKSt6vectorIS_IiSaIiEESaIS1_EE4sizeEv = comdat any

$_ZNSt6vectorIS_IiSaIiEESaIS1_EE17_M_default_appendEm = comdat any

$_ZNSt6vectorIS_IiSaIiEESaIS1_EE15_M_erase_at_endEPS1_ = comdat any

$_ZNKSt6vectorIS_IiSaIiEESaIS1_EE8max_sizeEv = comdat any

$_ZSt27__uninitialized_default_n_aIPSt6vectorIiSaIiEEmS2_ET_S4_T0_RSaIT1_E = comdat any

$_ZNSt12_Vector_baseISt6vectorIiSaIiEESaIS2_EE19_M_get_Tp_allocatorEv = comdat any

$_ZNKSt6vectorIS_IiSaIiEESaIS1_EE12_M_check_lenEmPKc = comdat any

$_ZNSt12_Vector_baseISt6vectorIiSaIiEESaIS2_EE11_M_allocateEm = comdat any

$_ZNSt6vectorIS_IiSaIiEESaIS1_EE11_S_relocateEPS1_S4_S4_RS2_ = comdat any

$_ZNSt12_Vector_baseISt6vectorIiSaIiEESaIS2_EE13_M_deallocateEPS2_m = comdat any

$_ZNSt6vectorIS_IiSaIiEESaIS1_EE11_S_max_sizeERKS2_ = comdat any

$_ZNKSt12_Vector_baseISt6vectorIiSaIiEESaIS2_EE19_M_get_Tp_allocatorEv = comdat any

$_ZNSt16allocator_traitsISaISt6vectorIiSaIiEEEE8max_sizeERKS3_ = comdat any

$_ZNKSt15__new_allocatorISt6vectorIiSaIiEEE8max_sizeEv = comdat any

$_ZNKSt15__new_allocatorISt6vectorIiSaIiEEE11_M_max_sizeEv = comdat any

$_ZSt25__uninitialized_default_nIPSt6vectorIiSaIiEEmET_S4_T0_ = comdat any

$_ZNSt27__uninitialized_default_n_1ILb0EE18__uninit_default_nIPSt6vectorIiSaIiEEmEET_S6_T0_ = comdat any

$_ZSt10_ConstructISt6vectorIiSaIiEEJEEvPT_DpOT0_ = comdat any

$_ZNSt16allocator_traitsISaISt6vectorIiSaIiEEEE8allocateERS3_m = comdat any

$_ZNSt15__new_allocatorISt6vectorIiSaIiEEE8allocateEmPKv = comdat any

$_ZSt12__relocate_aIPSt6vectorIiSaIiEES3_SaIS2_EET0_T_S6_S5_RT1_ = comdat any

$_ZSt14__relocate_a_1IPSt6vectorIiSaIiEES3_SaIS2_EET0_T_S6_S5_RT1_ = comdat any

$_ZSt12__niter_baseIPSt6vectorIiSaIiEEET_S4_ = comdat any

$_ZSt19__relocate_object_aISt6vectorIiSaIiEES2_SaIS2_EEvPT_PT0_RT1_ = comdat any

$_ZNSt16allocator_traitsISaISt6vectorIiSaIiEEEE9constructIS2_JS2_EEEvRS3_PT_DpOT0_ = comdat any

$_ZNSt16allocator_traitsISaISt6vectorIiSaIiEEEE7destroyIS2_EEvRS3_PT_ = comdat any

$_ZNSt15__new_allocatorISt6vectorIiSaIiEEE9constructIS2_JS2_EEEvPT_DpOT0_ = comdat any

$_ZNSt6vectorIiSaIiEEC2EOS1_ = comdat any

$_ZNSt12_Vector_baseIiSaIiEEC2EOS1_ = comdat any

$_ZNSt12_Vector_baseIiSaIiEE12_Vector_implC2EOS2_ = comdat any

$_ZNSt12_Vector_baseIiSaIiEE17_Vector_impl_dataC2EOS2_ = comdat any

$_ZNSt15__new_allocatorIiEC2ERKS0_ = comdat any

$_ZNSt15__new_allocatorISt6vectorIiSaIiEEE7destroyIS2_EEvPT_ = comdat any

$_ZNSt16allocator_traitsISaISt6vectorIiSaIiEEEE10deallocateERS3_PS2_m = comdat any

$_ZNSt15__new_allocatorISt6vectorIiSaIiEEE10deallocateEPS2_m = comdat any

$_ZSt8_DestroyIPSt6vectorIiSaIiEES2_EvT_S4_RSaIT0_E = comdat any

$_ZSt8_DestroyIPSt6vectorIiSaIiEEEvT_S4_ = comdat any

$_ZNSt12_Destroy_auxILb0EE9__destroyIPSt6vectorIiSaIiEEEEvT_S6_ = comdat any

$_ZSt8_DestroyISt6vectorIiSaIiEEEvPT_ = comdat any

$_ZNKSt6vectorIiSaIiEE8capacityEv = comdat any

$_ZNSt6vectorIiSaIiEE20_M_allocate_and_copyIN9__gnu_cxx17__normal_iteratorIPKiS1_EEEEPimT_S9_ = comdat any

$_ZNKSt6vectorIiSaIiEE5beginEv = comdat any

$_ZNKSt6vectorIiSaIiEE3endEv = comdat any

$_ZSt8_DestroyIN9__gnu_cxx17__normal_iteratorIPiSt6vectorIiSaIiEEEEiEvT_S7_RSaIT0_E = comdat any

$_ZSt4copyIN9__gnu_cxx17__normal_iteratorIPKiSt6vectorIiSaIiEEEENS1_IPiS6_EEET0_T_SB_SA_ = comdat any

$_ZNSt6vectorIiSaIiEE5beginEv = comdat any

$_ZNSt6vectorIiSaIiEE3endEv = comdat any

$_ZSt4copyIPiS0_ET0_T_S2_S1_ = comdat any

$_ZSt22__uninitialized_copy_aIPiS0_iET0_T_S2_S1_RSaIT1_E = comdat any

$_ZSt22__uninitialized_copy_aIN9__gnu_cxx17__normal_iteratorIPKiSt6vectorIiSaIiEEEEPiiET0_T_SA_S9_RSaIT1_E = comdat any

$_ZSt18uninitialized_copyIN9__gnu_cxx17__normal_iteratorIPKiSt6vectorIiSaIiEEEEPiET0_T_SA_S9_ = comdat any

$_ZNSt20__uninitialized_copyILb1EE13__uninit_copyIN9__gnu_cxx17__normal_iteratorIPKiSt6vectorIiSaIiEEEEPiEET0_T_SC_SB_ = comdat any

$_ZSt4copyIN9__gnu_cxx17__normal_iteratorIPKiSt6vectorIiSaIiEEEEPiET0_T_SA_S9_ = comdat any

$_ZSt13__copy_move_aILb0EN9__gnu_cxx17__normal_iteratorIPKiSt6vectorIiSaIiEEEEPiET1_T0_SA_S9_ = comdat any

$_ZSt12__miter_baseIN9__gnu_cxx17__normal_iteratorIPKiSt6vectorIiSaIiEEEEET_S8_ = comdat any

$_ZSt12__niter_wrapIPiET_RKS1_S1_ = comdat any

$_ZSt14__copy_move_a1ILb0EPKiPiET1_T0_S4_S3_ = comdat any

$_ZSt12__niter_baseIPKiSt6vectorIiSaIiEEET_N9__gnu_cxx17__normal_iteratorIS5_T0_EE = comdat any

$_ZSt14__copy_move_a2ILb0EPKiPiET1_T0_S4_S3_ = comdat any

$_ZNSt11__copy_moveILb0ELb1ESt26random_access_iterator_tagE8__copy_mIiEEPT_PKS3_S6_S4_ = comdat any

$_ZNK9__gnu_cxx17__normal_iteratorIPKiSt6vectorIiSaIiEEE4baseEv = comdat any

$_ZN9__gnu_cxx17__normal_iteratorIPKiSt6vectorIiSaIiEEEC2ERKS2_ = comdat any

$_ZSt8_DestroyIN9__gnu_cxx17__normal_iteratorIPiSt6vectorIiSaIiEEEEEvT_S7_ = comdat any

$_ZNSt12_Destroy_auxILb1EE9__destroyIN9__gnu_cxx17__normal_iteratorIPiSt6vectorIiSaIiEEEEEEvT_S9_ = comdat any

$_ZSt13__copy_move_aILb0EN9__gnu_cxx17__normal_iteratorIPKiSt6vectorIiSaIiEEEENS1_IPiS6_EEET1_T0_SB_SA_ = comdat any

$_ZSt12__niter_wrapIN9__gnu_cxx17__normal_iteratorIPiSt6vectorIiSaIiEEEES2_ET_S7_T0_ = comdat any

$_ZSt12__niter_baseIPiSt6vectorIiSaIiEEET_N9__gnu_cxx17__normal_iteratorIS4_T0_EE = comdat any

$_ZNK9__gnu_cxx17__normal_iteratorIPiSt6vectorIiSaIiEEEplEl = comdat any

$_ZN9__gnu_cxx17__normal_iteratorIPiSt6vectorIiSaIiEEEC2ERKS1_ = comdat any

$_ZNK9__gnu_cxx17__normal_iteratorIPiSt6vectorIiSaIiEEE4baseEv = comdat any

$_ZSt13__copy_move_aILb0EPiS0_ET1_T0_S2_S1_ = comdat any

$_ZSt12__miter_baseIPiET_S1_ = comdat any

$_ZSt14__copy_move_a1ILb0EPiS0_ET1_T0_S2_S1_ = comdat any

$_ZSt14__copy_move_a2ILb0EPiS0_ET1_T0_S2_S1_ = comdat any

$_ZSt18uninitialized_copyIPiS0_ET0_T_S2_S1_ = comdat any

$_ZNSt20__uninitialized_copyILb1EE13__uninit_copyIPiS2_EET0_T_S4_S3_ = comdat any

$_ZNKSt6vectorIS_IS_IiSaIiEESaIS1_EESaIS3_EE4sizeEv = comdat any

$_ZNSt6vectorIS_IS_IiSaIiEESaIS1_EESaIS3_EE6resizeEm = comdat any

$_ZNSt6vectorIS_IS_IiSaIiEESaIS1_EESaIS3_EEixEm = comdat any

$_ZNSt6vectorIS_IiSaIiEESaIS1_EEaSERKS3_ = comdat any

$_ZNSt6vectorIS_IS_IiSaIiEESaIS1_EESaIS3_EE17_M_default_appendEm = comdat any

$_ZNSt6vectorIS_IS_IiSaIiEESaIS1_EESaIS3_EE15_M_erase_at_endEPS3_ = comdat any

$_ZNKSt6vectorIS_IS_IiSaIiEESaIS1_EESaIS3_EE8max_sizeEv = comdat any

$_ZSt27__uninitialized_default_n_aIPSt6vectorIS0_IiSaIiEESaIS2_EEmS4_ET_S6_T0_RSaIT1_E = comdat any

$_ZNSt12_Vector_baseISt6vectorIS0_IiSaIiEESaIS2_EESaIS4_EE19_M_get_Tp_allocatorEv = comdat any

$_ZNKSt6vectorIS_IS_IiSaIiEESaIS1_EESaIS3_EE12_M_check_lenEmPKc = comdat any

$_ZNSt12_Vector_baseISt6vectorIS0_IiSaIiEESaIS2_EESaIS4_EE11_M_allocateEm = comdat any

$_ZNSt6vectorIS_IS_IiSaIiEESaIS1_EESaIS3_EE11_S_relocateEPS3_S6_S6_RS4_ = comdat any

$_ZNSt12_Vector_baseISt6vectorIS0_IiSaIiEESaIS2_EESaIS4_EE13_M_deallocateEPS4_m = comdat any

$_ZNSt6vectorIS_IS_IiSaIiEESaIS1_EESaIS3_EE11_S_max_sizeERKS4_ = comdat any

$_ZNKSt12_Vector_baseISt6vectorIS0_IiSaIiEESaIS2_EESaIS4_EE19_M_get_Tp_allocatorEv = comdat any

$_ZNSt16allocator_traitsISaISt6vectorIS0_IiSaIiEESaIS2_EEEE8max_sizeERKS5_ = comdat any

$_ZNKSt15__new_allocatorISt6vectorIS0_IiSaIiEESaIS2_EEE8max_sizeEv = comdat any

$_ZNKSt15__new_allocatorISt6vectorIS0_IiSaIiEESaIS2_EEE11_M_max_sizeEv = comdat any

$_ZSt25__uninitialized_default_nIPSt6vectorIS0_IiSaIiEESaIS2_EEmET_S6_T0_ = comdat any

$_ZNSt27__uninitialized_default_n_1ILb0EE18__uninit_default_nIPSt6vectorIS2_IiSaIiEESaIS4_EEmEET_S8_T0_ = comdat any

$_ZSt10_ConstructISt6vectorIS0_IiSaIiEESaIS2_EEJEEvPT_DpOT0_ = comdat any

$_ZNSt16allocator_traitsISaISt6vectorIS0_IiSaIiEESaIS2_EEEE8allocateERS5_m = comdat any

$_ZNSt15__new_allocatorISt6vectorIS0_IiSaIiEESaIS2_EEE8allocateEmPKv = comdat any

$_ZSt12__relocate_aIPSt6vectorIS0_IiSaIiEESaIS2_EES5_SaIS4_EET0_T_S8_S7_RT1_ = comdat any

$_ZSt14__relocate_a_1IPSt6vectorIS0_IiSaIiEESaIS2_EES5_SaIS4_EET0_T_S8_S7_RT1_ = comdat any

$_ZSt12__niter_baseIPSt6vectorIS0_IiSaIiEESaIS2_EEET_S6_ = comdat any

$_ZSt19__relocate_object_aISt6vectorIS0_IiSaIiEESaIS2_EES4_SaIS4_EEvPT_PT0_RT1_ = comdat any

$_ZNSt16allocator_traitsISaISt6vectorIS0_IiSaIiEESaIS2_EEEE9constructIS4_JS4_EEEvRS5_PT_DpOT0_ = comdat any

$_ZNSt16allocator_traitsISaISt6vectorIS0_IiSaIiEESaIS2_EEEE7destroyIS4_EEvRS5_PT_ = comdat any

$_ZNSt15__new_allocatorISt6vectorIS0_IiSaIiEESaIS2_EEE9constructIS4_JS4_EEEvPT_DpOT0_ = comdat any

$_ZNSt6vectorIS_IiSaIiEESaIS1_EEC2EOS3_ = comdat any

$_ZNSt12_Vector_baseISt6vectorIiSaIiEESaIS2_EEC2EOS4_ = comdat any

$_ZNSt12_Vector_baseISt6vectorIiSaIiEESaIS2_EE12_Vector_implC2EOS5_ = comdat any

$_ZNSt12_Vector_baseISt6vectorIiSaIiEESaIS2_EE17_Vector_impl_dataC2EOS5_ = comdat any

$_ZNSt15__new_allocatorISt6vectorIiSaIiEEEC2ERKS3_ = comdat any

$_ZNSt15__new_allocatorISt6vectorIS0_IiSaIiEESaIS2_EEE7destroyIS4_EEvPT_ = comdat any

$_ZNSt6vectorIS_IiSaIiEESaIS1_EED2Ev = comdat any

$_ZNSt12_Vector_baseISt6vectorIiSaIiEESaIS2_EED2Ev = comdat any

$_ZNSt16allocator_traitsISaISt6vectorIS0_IiSaIiEESaIS2_EEEE10deallocateERS5_PS4_m = comdat any

$_ZNSt15__new_allocatorISt6vectorIS0_IiSaIiEESaIS2_EEE10deallocateEPS4_m = comdat any

$_ZSt8_DestroyIPSt6vectorIS0_IiSaIiEESaIS2_EES4_EvT_S6_RSaIT0_E = comdat any

$_ZSt8_DestroyIPSt6vectorIS0_IiSaIiEESaIS2_EEEvT_S6_ = comdat any

$_ZNSt12_Destroy_auxILb0EE9__destroyIPSt6vectorIS2_IiSaIiEESaIS4_EEEEvT_S8_ = comdat any

$_ZSt8_DestroyISt6vectorIS0_IiSaIiEESaIS2_EEEvPT_ = comdat any

$_ZNKSt6vectorIS_IiSaIiEESaIS1_EE8capacityEv = comdat any

$_ZNSt6vectorIS_IiSaIiEESaIS1_EE20_M_allocate_and_copyIN9__gnu_cxx17__normal_iteratorIPKS1_S3_EEEEPS1_mT_SB_ = comdat any

$_ZNKSt6vectorIS_IiSaIiEESaIS1_EE5beginEv = comdat any

$_ZNKSt6vectorIS_IiSaIiEESaIS1_EE3endEv = comdat any

$_ZSt8_DestroyIN9__gnu_cxx17__normal_iteratorIPSt6vectorIiSaIiEES2_IS4_SaIS4_EEEES4_EvT_S9_RSaIT0_E = comdat any

$_ZSt4copyIN9__gnu_cxx17__normal_iteratorIPKSt6vectorIiSaIiEES2_IS4_SaIS4_EEEENS1_IPS4_S8_EEET0_T_SD_SC_ = comdat any

$_ZNSt6vectorIS_IiSaIiEESaIS1_EE5beginEv = comdat any

$_ZNSt6vectorIS_IiSaIiEESaIS1_EE3endEv = comdat any

$_ZSt4copyIPSt6vectorIiSaIiEES3_ET0_T_S5_S4_ = comdat any

$_ZSt22__uninitialized_copy_aIPSt6vectorIiSaIiEES3_S2_ET0_T_S5_S4_RSaIT1_E = comdat any

$_ZSt22__uninitialized_copy_aIN9__gnu_cxx17__normal_iteratorIPKSt6vectorIiSaIiEES2_IS4_SaIS4_EEEEPS4_S4_ET0_T_SC_SB_RSaIT1_E = comdat any

$_ZSt18uninitialized_copyIN9__gnu_cxx17__normal_iteratorIPKSt6vectorIiSaIiEES2_IS4_SaIS4_EEEEPS4_ET0_T_SC_SB_ = comdat any

$_ZNSt20__uninitialized_copyILb0EE13__uninit_copyIN9__gnu_cxx17__normal_iteratorIPKSt6vectorIiSaIiEES4_IS6_SaIS6_EEEEPS6_EET0_T_SE_SD_ = comdat any

$_ZSt16__do_uninit_copyIN9__gnu_cxx17__normal_iteratorIPKSt6vectorIiSaIiEES2_IS4_SaIS4_EEEEPS4_ET0_T_SC_SB_ = comdat any

$_ZN9__gnu_cxxneIPKSt6vectorIiSaIiEES1_IS3_SaIS3_EEEEbRKNS_17__normal_iteratorIT_T0_EESD_ = comdat any

$_ZSt10_ConstructISt6vectorIiSaIiEEJRKS2_EEvPT_DpOT0_ = comdat any

$_ZNK9__gnu_cxx17__normal_iteratorIPKSt6vectorIiSaIiEES1_IS3_SaIS3_EEEdeEv = comdat any

$_ZN9__gnu_cxx17__normal_iteratorIPKSt6vectorIiSaIiEES1_IS3_SaIS3_EEEppEv = comdat any

$_ZNK9__gnu_cxx17__normal_iteratorIPKSt6vectorIiSaIiEES1_IS3_SaIS3_EEE4baseEv = comdat any

$_ZN9__gnu_cxx17__normal_iteratorIPKSt6vectorIiSaIiEES1_IS3_SaIS3_EEEC2ERKS5_ = comdat any

$_ZSt8_DestroyIN9__gnu_cxx17__normal_iteratorIPSt6vectorIiSaIiEES2_IS4_SaIS4_EEEEEvT_S9_ = comdat any

$_ZNSt12_Destroy_auxILb0EE9__destroyIN9__gnu_cxx17__normal_iteratorIPSt6vectorIiSaIiEES4_IS6_SaIS6_EEEEEEvT_SB_ = comdat any

$_ZN9__gnu_cxxneIPSt6vectorIiSaIiEES1_IS3_SaIS3_EEEEbRKNS_17__normal_iteratorIT_T0_EESC_ = comdat any

$_ZNK9__gnu_cxx17__normal_iteratorIPSt6vectorIiSaIiEES1_IS3_SaIS3_EEEdeEv = comdat any

$_ZN9__gnu_cxx17__normal_iteratorIPSt6vectorIiSaIiEES1_IS3_SaIS3_EEEppEv = comdat any

$_ZNK9__gnu_cxx17__normal_iteratorIPSt6vectorIiSaIiEES1_IS3_SaIS3_EEE4baseEv = comdat any

$_ZSt13__copy_move_aILb0EN9__gnu_cxx17__normal_iteratorIPKSt6vectorIiSaIiEES2_IS4_SaIS4_EEEENS1_IPS4_S8_EEET1_T0_SD_SC_ = comdat any

$_ZSt12__miter_baseIN9__gnu_cxx17__normal_iteratorIPKSt6vectorIiSaIiEES2_IS4_SaIS4_EEEEET_SA_ = comdat any

$_ZSt12__niter_wrapIN9__gnu_cxx17__normal_iteratorIPSt6vectorIiSaIiEES2_IS4_SaIS4_EEEES5_ET_S9_T0_ = comdat any

$_ZSt14__copy_move_a1ILb0EPKSt6vectorIiSaIiEEPS2_ET1_T0_S7_S6_ = comdat any

$_ZSt12__niter_baseIPKSt6vectorIiSaIiEES0_IS2_SaIS2_EEET_N9__gnu_cxx17__normal_iteratorIS7_T0_EE = comdat any

$_ZSt12__niter_baseIPSt6vectorIiSaIiEES0_IS2_SaIS2_EEET_N9__gnu_cxx17__normal_iteratorIS6_T0_EE = comdat any

$_ZNK9__gnu_cxx17__normal_iteratorIPSt6vectorIiSaIiEES1_IS3_SaIS3_EEEplEl = comdat any

$_ZN9__gnu_cxx17__normal_iteratorIPSt6vectorIiSaIiEES1_IS3_SaIS3_EEEC2ERKS4_ = comdat any

$_ZSt14__copy_move_a2ILb0EPKSt6vectorIiSaIiEEPS2_ET1_T0_S7_S6_ = comdat any

$_ZNSt11__copy_moveILb0ELb0ESt26random_access_iterator_tagE8__copy_mIPKSt6vectorIiSaIiEEPS5_EET0_T_SA_S9_ = comdat any

$_ZSt13__copy_move_aILb0EPSt6vectorIiSaIiEES3_ET1_T0_S5_S4_ = comdat any

$_ZSt12__miter_baseIPSt6vectorIiSaIiEEET_S4_ = comdat any

$_ZSt12__niter_wrapIPSt6vectorIiSaIiEEET_RKS4_S4_ = comdat any

$_ZSt14__copy_move_a1ILb0EPSt6vectorIiSaIiEES3_ET1_T0_S5_S4_ = comdat any

$_ZSt14__copy_move_a2ILb0EPSt6vectorIiSaIiEES3_ET1_T0_S5_S4_ = comdat any

$_ZNSt11__copy_moveILb0ELb0ESt26random_access_iterator_tagE8__copy_mIPSt6vectorIiSaIiEES6_EET0_T_S8_S7_ = comdat any

$_ZSt18uninitialized_copyIPSt6vectorIiSaIiEES3_ET0_T_S5_S4_ = comdat any

$_ZNSt20__uninitialized_copyILb0EE13__uninit_copyIPSt6vectorIiSaIiEES5_EET0_T_S7_S6_ = comdat any

$_ZSt16__do_uninit_copyIPSt6vectorIiSaIiEES3_ET0_T_S5_S4_ = comdat any

$_ZSt10_ConstructISt6vectorIiSaIiEEJRS2_EEvPT_DpOT0_ = comdat any

$_ZNSt6vectorIS_IiSaIiEESaIS1_EE5clearEv = comdat any

$_ZNSt6vectorIiSaIiEE9push_backERKi = comdat any

$_ZNSt16allocator_traitsISaIiEE9constructIiJRKiEEEvRS0_PT_DpOT0_ = comdat any

$_ZNSt6vectorIiSaIiEE17_M_realloc_insertIJRKiEEEvN9__gnu_cxx17__normal_iteratorIPiS1_EEDpOT_ = comdat any

$_ZNSt15__new_allocatorIiE9constructIiJRKiEEEvPT_DpOT0_ = comdat any

$_ZN9__gnu_cxxmiIPiSt6vectorIiSaIiEEEENS_17__normal_iteratorIT_T0_E15difference_typeERKS8_SB_ = comdat any

$_ZN5Ttopt10TruthTable12BDDNodeCountEv = comdat any

$_ZN5Ttopt10TruthTable17BDDNodeCountLevelEi = comdat any

$_ZNSt6vectorIiSaIiEE5clearEv = comdat any

$_ZN5Ttopt10TruthTable4IsEqEiiib = comdat any

$_ZN5Ttopt10TruthTable8GetValueEii = comdat any

$_ZSt4findIN9__gnu_cxx17__normal_iteratorIPiSt6vectorIiSaIiEEEEiET_S7_S7_RKT0_ = comdat any

$_ZSt4swapIiENSt9enable_ifIXsr6__and_ISt6__not_ISt15__is_tuple_likeIT_EESt21is_move_constructibleIS3_ESt18is_move_assignableIS3_EEE5valueEvE4typeERS3_SC_ = comdat any

$_ZNK9__gnu_cxx17__normal_iteratorIPiSt6vectorIiSaIiEEEdeEv = comdat any

$_ZSt4swapImENSt9enable_ifIXsr6__and_ISt6__not_ISt15__is_tuple_likeIT_EESt21is_move_constructibleIS3_ESt18is_move_assignableIS3_EEE5valueEvE4typeERS3_SC_ = comdat any

$_ZSt9__find_ifIN9__gnu_cxx17__normal_iteratorIPiSt6vectorIiSaIiEEEENS0_5__ops16_Iter_equals_valIKiEEET_SB_SB_T0_ = comdat any

$_ZN9__gnu_cxx5__ops17__iter_equals_valIKiEENS0_16_Iter_equals_valIT_EERS4_ = comdat any

$_ZSt9__find_ifIN9__gnu_cxx17__normal_iteratorIPiSt6vectorIiSaIiEEEENS0_5__ops16_Iter_equals_valIKiEEET_SB_SB_T0_St26random_access_iterator_tag = comdat any

$_ZSt19__iterator_categoryIN9__gnu_cxx17__normal_iteratorIPiSt6vectorIiSaIiEEEEENSt15iterator_traitsIT_E17iterator_categoryERKS8_ = comdat any

$_ZN9__gnu_cxx5__ops16_Iter_equals_valIKiEclINS_17__normal_iteratorIPiSt6vectorIiSaIiEEEEEEbT_ = comdat any

$_ZN9__gnu_cxx17__normal_iteratorIPiSt6vectorIiSaIiEEEppEv = comdat any

$_ZN9__gnu_cxx5__ops16_Iter_equals_valIKiEC2ERS2_ = comdat any

$_ZN5Ttopt10TruthTable9SwapIndexERii = comdat any

$_ZNSt12_Vector_baseISt6vectorIiSaIiEESaIS2_EEC2Ev = comdat any

$_ZNSt12_Vector_baseISt6vectorIiSaIiEESaIS2_EE12_Vector_implC2Ev = comdat any

$_ZNSt12_Vector_baseISt6vectorIiSaIiEESaIS2_EE17_Vector_impl_dataC2Ev = comdat any

$_ZNSt15__new_allocatorISt6vectorIiSaIiEEEC2Ev = comdat any

$_ZNSt12_Vector_baseISt6vectorIS0_IiSaIiEESaIS2_EESaIS4_EEC2Ev = comdat any

$_ZNSt12_Vector_baseISt6vectorIS0_IiSaIiEESaIS2_EESaIS4_EE12_Vector_implC2Ev = comdat any

$_ZNSaISt6vectorIS_IiSaIiEESaIS1_EEEC2Ev = comdat any

$_ZNSt12_Vector_baseISt6vectorIS0_IiSaIiEESaIS2_EESaIS4_EE17_Vector_impl_dataC2Ev = comdat any

$_ZNSt15__new_allocatorISt6vectorIS0_IiSaIiEESaIS2_EEEC2Ev = comdat any

$_ZN5Ttopt10TruthTable7BDDFindEii = comdat any

$_ZN5Ttopt13TruthTableReo13BDDRebuildOneEiiiiP14Hash_IntMan_t_RSt6vectorIiSaIiEE = comdat any

$_ZN5Ttopt10TruthTable7SiftReoEv = comdat any

$_ZNSaIiEC2Ev = comdat any

$_ZNSt6vectorIiSaIiEEC2EmRKS0_ = comdat any

$_ZNSaIjEC2Ev = comdat any

$_ZNSt6vectorIjSaIjEEC2EmRKS0_ = comdat any

$_ZNSt6vectorIjSaIjEEixEm = comdat any

$_ZNSt6vectorIjSaIjEED2Ev = comdat any

$_ZNSt15__new_allocatorIjEC2Ev = comdat any

$_ZNSt6vectorIjSaIjEE17_S_check_init_lenEmRKS0_ = comdat any

$_ZNSt12_Vector_baseIjSaIjEEC2EmRKS0_ = comdat any

$_ZNSt6vectorIjSaIjEE21_M_default_initializeEm = comdat any

$_ZNSt6vectorIjSaIjEE11_S_max_sizeERKS0_ = comdat any

$_ZNSaIjEC2ERKS_ = comdat any

$_ZNSt16allocator_traitsISaIjEE8max_sizeERKS0_ = comdat any

$_ZNKSt15__new_allocatorIjE8max_sizeEv = comdat any

$_ZNKSt15__new_allocatorIjE11_M_max_sizeEv = comdat any

$_ZNSt15__new_allocatorIjEC2ERKS0_ = comdat any

$_ZNSt12_Vector_baseIjSaIjEE12_Vector_implC2ERKS0_ = comdat any

$_ZNSt12_Vector_baseIjSaIjEE17_M_create_storageEm = comdat any

$_ZNSt12_Vector_baseIjSaIjEE17_Vector_impl_dataC2Ev = comdat any

$_ZNSt12_Vector_baseIjSaIjEE11_M_allocateEm = comdat any

$_ZNSt16allocator_traitsISaIjEE8allocateERS0_m = comdat any

$_ZNSt15__new_allocatorIjE8allocateEmPKv = comdat any

$_ZSt27__uninitialized_default_n_aIPjmjET_S1_T0_RSaIT1_E = comdat any

$_ZNSt12_Vector_baseIjSaIjEE19_M_get_Tp_allocatorEv = comdat any

$_ZSt25__uninitialized_default_nIPjmET_S1_T0_ = comdat any

$_ZNSt27__uninitialized_default_n_1ILb1EE18__uninit_default_nIPjmEET_S3_T0_ = comdat any

$_ZSt10_ConstructIjJEEvPT_DpOT0_ = comdat any

$_ZSt6fill_nIPjmjET_S1_T0_RKT1_ = comdat any

$_ZSt10__fill_n_aIPjmjET_S1_T0_RKT1_St26random_access_iterator_tag = comdat any

$_ZSt19__iterator_categoryIPjENSt15iterator_traitsIT_E17iterator_categoryERKS2_ = comdat any

$_ZSt8__fill_aIPjjEvT_S1_RKT0_ = comdat any

$_ZSt9__fill_a1IPjjEN9__gnu_cxx11__enable_ifIXsr11__is_scalarIT0_EE7__valueEvE6__typeET_S6_RKS3_ = comdat any

$_ZSt8_DestroyIPjjEvT_S1_RSaIT0_E = comdat any

$_ZNSt12_Vector_baseIjSaIjEED2Ev = comdat any

$_ZSt8_DestroyIPjEvT_S1_ = comdat any

$_ZNSt12_Destroy_auxILb1EE9__destroyIPjEEvT_S3_ = comdat any

$_ZNSt12_Vector_baseIjSaIjEE13_M_deallocateEPjm = comdat any

$_ZNSt15__new_allocatorIjED2Ev = comdat any

$_ZNSt16allocator_traitsISaIjEE10deallocateERS0_Pjm = comdat any

$_ZNSt15__new_allocatorIjE10deallocateEPjm = comdat any

$_ZNSt6vectorIiSaIiEE17_S_check_init_lenEmRKS0_ = comdat any

$_ZNSt12_Vector_baseIiSaIiEEC2EmRKS0_ = comdat any

$_ZNSt6vectorIiSaIiEE21_M_default_initializeEm = comdat any

$_ZNSaIiEC2ERKS_ = comdat any

$_ZNSt12_Vector_baseIiSaIiEE12_Vector_implC2ERKS0_ = comdat any

$_ZNSt12_Vector_baseIiSaIiEE17_M_create_storageEm = comdat any

$_ZNSaISt6vectorIiSaIiEEEC2Ev = comdat any

$_ZNSt6vectorIS_IiSaIiEESaIS1_EEC2EmRKS2_ = comdat any

$_ZNSt15__new_allocatorISt6vectorIiSaIiEEED2Ev = comdat any

$_ZN5Ttopt10TruthTable17BDDGenerateAigRecEP10Gia_Man_t_RKSt6vectorIiSaIiEERS3_IS5_SaIS5_EEii = comdat any

$_ZNSt6vectorIS_IiSaIiEESaIS1_EE17_S_check_init_lenEmRKS2_ = comdat any

$_ZNSt12_Vector_baseISt6vectorIiSaIiEESaIS2_EEC2EmRKS3_ = comdat any

$_ZNSt6vectorIS_IiSaIiEESaIS1_EE21_M_default_initializeEm = comdat any

$_ZNSaISt6vectorIiSaIiEEEC2ERKS2_ = comdat any

$_ZNSt12_Vector_baseISt6vectorIiSaIiEESaIS2_EE12_Vector_implC2ERKS3_ = comdat any

$_ZNSt12_Vector_baseISt6vectorIiSaIiEESaIS2_EE17_M_create_storageEm = comdat any

$_ZN5Ttopt10TruthTable5ImplyEiii = comdat any

$_ZNKSt6vectorIiSaIiEEixEm = comdat any

$_ZNSt6vectorIS_IS_IiSaIiEESaIS1_EESaIS3_EED2Ev = comdat any

$_ZNSt6vectorIS_ImSaImEESaIS1_EED2Ev = comdat any

$_ZNSt12_Vector_baseISt6vectorIS0_IiSaIiEESaIS2_EESaIS4_EED2Ev = comdat any

$_ZNSt15__new_allocatorISt6vectorIS0_IiSaIiEESaIS2_EEED2Ev = comdat any

$_ZNSt12_Vector_baseISt6vectorImSaImEESaIS2_EED2Ev = comdat any

$_ZNSt15__new_allocatorISt6vectorImSaImEEED2Ev = comdat any

$_ZN5Ttopt14TruthTableCareC2Eii = comdat any

$_ZN5Ttopt14TruthTableCare4SaveEj = comdat any

$_ZN5Ttopt14TruthTableCare4LoadEj = comdat any

$_ZN5Ttopt14TruthTableCare11SaveIndicesEj = comdat any

$_ZN5Ttopt14TruthTableCare11LoadIndicesEj = comdat any

$_ZN5Ttopt18TruthTableLevelTSM11BDDBuildOneEii = comdat any

$_ZN5Ttopt14TruthTableCare15BDDBuildStartupEv = comdat any

$_ZN5Ttopt18TruthTableLevelTSM8BDDBuildEv = comdat any

$_ZN5Ttopt18TruthTableLevelTSM10BDDRebuildEi = comdat any

$_ZN5Ttopt14TruthTableCare4SwapEi = comdat any

$_ZN5Ttopt14TruthTableCare7BDDSwapEi = comdat any

$_ZN5Ttopt18TruthTableLevelTSM17BDDRebuildByMergeEi = comdat any

$_ZN5Ttopt17TruthTableRewriteC2Eii = comdat any

$_ZNSt6vectorIS_ISt4pairIiiESaIS1_EESaIS3_EEC2Ev = comdat any

$_ZNSt6vectorIS_IS_ISt4pairIiiESaIS1_EESaIS3_EESaIS5_EEC2Ev = comdat any

$_ZN5Ttopt14TruthTableCare11BDDBuildOneEii = comdat any

$_ZN5Ttopt14TruthTableCare10BDDRebuildEi = comdat any

$_ZN5Ttopt14TruthTableCare17BDDRebuildByMergeEi = comdat any

$_ZNSt12_Vector_baseISt6vectorISt4pairIiiESaIS2_EESaIS4_EEC2Ev = comdat any

$_ZNSt12_Vector_baseISt6vectorISt4pairIiiESaIS2_EESaIS4_EE12_Vector_implC2Ev = comdat any

$_ZNSaISt6vectorISt4pairIiiESaIS1_EEEC2Ev = comdat any

$_ZNSt12_Vector_baseISt6vectorISt4pairIiiESaIS2_EESaIS4_EE17_Vector_impl_dataC2Ev = comdat any

$_ZNSt15__new_allocatorISt6vectorISt4pairIiiESaIS2_EEEC2Ev = comdat any

$_ZNSt12_Vector_baseISt6vectorIS0_ISt4pairIiiESaIS2_EESaIS4_EESaIS6_EEC2Ev = comdat any

$_ZNSt12_Vector_baseISt6vectorIS0_ISt4pairIiiESaIS2_EESaIS4_EESaIS6_EE12_Vector_implC2Ev = comdat any

$_ZNSaISt6vectorIS_ISt4pairIiiESaIS1_EESaIS3_EEEC2Ev = comdat any

$_ZNSt12_Vector_baseISt6vectorIS0_ISt4pairIiiESaIS2_EESaIS4_EESaIS6_EE17_Vector_impl_dataC2Ev = comdat any

$_ZNSt15__new_allocatorISt6vectorIS0_ISt4pairIiiESaIS2_EESaIS4_EEEC2Ev = comdat any

$_ZN5Ttopt14TruthTableCare5MergeEiiib = comdat any

$_ZN5Ttopt14TruthTableCare9MergeCareEiii = comdat any

$_ZNSt6vectorIS_ISt4pairIiiESaIS1_EESaIS3_EEixEm = comdat any

$_ZNSt6vectorISt4pairIiiESaIS1_EE9push_backEOS1_ = comdat any

$_ZSt9make_pairIiRiESt4pairINSt25__strip_reference_wrapperINSt5decayIT_E4typeEE6__typeENS2_INS3_IT0_E4typeEE6__typeEEOS4_OS9_ = comdat any

$_ZN5Ttopt14TruthTableCare7GetCareEii = comdat any

$_ZNSt6vectorISt4pairIiiESaIS1_EE12emplace_backIJS1_EEERS1_DpOT_ = comdat any

$_ZNSt16allocator_traitsISaISt4pairIiiEEE9constructIS1_JS1_EEEvRS2_PT_DpOT0_ = comdat any

$_ZNSt6vectorISt4pairIiiESaIS1_EE17_M_realloc_insertIJS1_EEEvN9__gnu_cxx17__normal_iteratorIPS1_S3_EEDpOT_ = comdat any

$_ZNSt6vectorISt4pairIiiESaIS1_EE3endEv = comdat any

$_ZNSt6vectorISt4pairIiiESaIS1_EE4backEv = comdat any

$_ZNSt15__new_allocatorISt4pairIiiEE9constructIS1_JS1_EEEvPT_DpOT0_ = comdat any

$_ZNKSt6vectorISt4pairIiiESaIS1_EE12_M_check_lenEmPKc = comdat any

$_ZN9__gnu_cxxmiIPSt4pairIiiESt6vectorIS2_SaIS2_EEEENS_17__normal_iteratorIT_T0_E15difference_typeERKSA_SD_ = comdat any

$_ZNSt6vectorISt4pairIiiESaIS1_EE5beginEv = comdat any

$_ZNSt12_Vector_baseISt4pairIiiESaIS1_EE11_M_allocateEm = comdat any

$_ZNSt6vectorISt4pairIiiESaIS1_EE11_S_relocateEPS1_S4_S4_RS2_ = comdat any

$_ZNK9__gnu_cxx17__normal_iteratorIPSt4pairIiiESt6vectorIS2_SaIS2_EEE4baseEv = comdat any

$_ZNSt12_Vector_baseISt4pairIiiESaIS1_EE19_M_get_Tp_allocatorEv = comdat any

$_ZNSt12_Vector_baseISt4pairIiiESaIS1_EE13_M_deallocateEPS1_m = comdat any

$_ZNKSt6vectorISt4pairIiiESaIS1_EE8max_sizeEv = comdat any

$_ZNKSt6vectorISt4pairIiiESaIS1_EE4sizeEv = comdat any

$_ZNSt6vectorISt4pairIiiESaIS1_EE11_S_max_sizeERKS2_ = comdat any

$_ZNKSt12_Vector_baseISt4pairIiiESaIS1_EE19_M_get_Tp_allocatorEv = comdat any

$_ZNSt16allocator_traitsISaISt4pairIiiEEE8max_sizeERKS2_ = comdat any

$_ZNKSt15__new_allocatorISt4pairIiiEE8max_sizeEv = comdat any

$_ZNKSt15__new_allocatorISt4pairIiiEE11_M_max_sizeEv = comdat any

$_ZN9__gnu_cxx17__normal_iteratorIPSt4pairIiiESt6vectorIS2_SaIS2_EEEC2ERKS3_ = comdat any

$_ZNSt16allocator_traitsISaISt4pairIiiEEE8allocateERS2_m = comdat any

$_ZNSt15__new_allocatorISt4pairIiiEE8allocateEmPKv = comdat any

$_ZSt12__relocate_aIPSt4pairIiiES2_SaIS1_EET0_T_S5_S4_RT1_ = comdat any

$_ZSt14__relocate_a_1IPSt4pairIiiES2_SaIS1_EET0_T_S5_S4_RT1_ = comdat any

$_ZSt12__niter_baseIPSt4pairIiiEET_S3_ = comdat any

$_ZSt19__relocate_object_aISt4pairIiiES1_SaIS1_EEvPT_PT0_RT1_ = comdat any

$_ZNSt16allocator_traitsISaISt4pairIiiEEE7destroyIS1_EEvRS2_PT_ = comdat any

$_ZNSt15__new_allocatorISt4pairIiiEE7destroyIS1_EEvPT_ = comdat any

$_ZNSt16allocator_traitsISaISt4pairIiiEEE10deallocateERS2_PS1_m = comdat any

$_ZNSt15__new_allocatorISt4pairIiiEE10deallocateEPS1_m = comdat any

$_ZNK9__gnu_cxx17__normal_iteratorIPSt4pairIiiESt6vectorIS2_SaIS2_EEEmiEl = comdat any

$_ZNK9__gnu_cxx17__normal_iteratorIPSt4pairIiiESt6vectorIS2_SaIS2_EEEdeEv = comdat any

$_ZNSt4pairIiiEC2IiRiTnNSt9enable_ifIXaaclsr5_PCCPE22_MoveConstructiblePairIT_T0_EEclsr5_PCCPE30_ImplicitlyMoveConvertiblePairIS4_S5_EEEbE4typeELb1EEEOS4_OS5_ = comdat any

$_ZN5Ttopt14TruthTableCare11RestoreCareEv = comdat any

$_ZNSt6vectorISt4pairIiiESaIS1_EE5clearEv = comdat any

$_ZN5Ttopt14TruthTableCare4IsDCEii = comdat any

$_ZNSt6vectorImSaImEE5clearEv = comdat any

$_ZNSt6vectorImSaImEE6insertIN9__gnu_cxx17__normal_iteratorIPmS1_EEvEES6_NS4_IPKmS1_EET_SA_ = comdat any

$_ZNSt6vectorImSaImEE3endEv = comdat any

$_ZN9__gnu_cxx17__normal_iteratorIPKmSt6vectorImSaImEEEC2IPmvEERKNS0_IT_S5_EE = comdat any

$_ZNSt6vectorImSaImEE5beginEv = comdat any

$_ZN9__gnu_cxxmiIPKmSt6vectorImSaImEEEENS_17__normal_iteratorIT_T0_E15difference_typeERKS9_SC_ = comdat any

$_ZNKSt6vectorImSaImEE6cbeginEv = comdat any

$_ZNSt6vectorImSaImEE18_M_insert_dispatchIN9__gnu_cxx17__normal_iteratorIPmS1_EEEEvS6_T_S7_St12__false_type = comdat any

$_ZNK9__gnu_cxx17__normal_iteratorIPmSt6vectorImSaImEEEplEl = comdat any

$_ZNK9__gnu_cxx17__normal_iteratorIPKmSt6vectorImSaImEEE4baseEv = comdat any

$_ZN9__gnu_cxx17__normal_iteratorIPKmSt6vectorImSaImEEEC2ERKS2_ = comdat any

$_ZNSt6vectorImSaImEE15_M_range_insertIN9__gnu_cxx17__normal_iteratorIPmS1_EEEEvS6_T_S7_St20forward_iterator_tag = comdat any

$_ZSt19__iterator_categoryIN9__gnu_cxx17__normal_iteratorIPmSt6vectorImSaImEEEEENSt15iterator_traitsIT_E17iterator_categoryERKS8_ = comdat any

$_ZN9__gnu_cxxneIPmSt6vectorImSaImEEEEbRKNS_17__normal_iteratorIT_T0_EESA_ = comdat any

$_ZSt8distanceIN9__gnu_cxx17__normal_iteratorIPmSt6vectorImSaImEEEEENSt15iterator_traitsIT_E15difference_typeES8_S8_ = comdat any

$_ZN9__gnu_cxxmiIPmSt6vectorImSaImEEEENS_17__normal_iteratorIT_T0_E15difference_typeERKS8_SB_ = comdat any

$_ZSt22__uninitialized_move_aIPmS0_SaImEET0_T_S3_S2_RT1_ = comdat any

$_ZSt13move_backwardIPmS0_ET0_T_S2_S1_ = comdat any

$_ZNK9__gnu_cxx17__normal_iteratorIPmSt6vectorImSaImEEE4baseEv = comdat any

$_ZSt4copyIN9__gnu_cxx17__normal_iteratorIPmSt6vectorImSaImEEEES6_ET0_T_S8_S7_ = comdat any

$_ZSt7advanceIN9__gnu_cxx17__normal_iteratorIPmSt6vectorImSaImEEEEmEvRT_T0_ = comdat any

$_ZSt22__uninitialized_copy_aIN9__gnu_cxx17__normal_iteratorIPmSt6vectorImSaImEEEES2_mET0_T_S8_S7_RSaIT1_E = comdat any

$_ZSt34__uninitialized_move_if_noexcept_aIPmS0_SaImEET0_T_S3_S2_RT1_ = comdat any

$_ZSt10__distanceIN9__gnu_cxx17__normal_iteratorIPmSt6vectorImSaImEEEEENSt15iterator_traitsIT_E15difference_typeES8_S8_St26random_access_iterator_tag = comdat any

$_ZSt22__uninitialized_copy_aISt13move_iteratorIPmES1_mET0_T_S4_S3_RSaIT1_E = comdat any

$_ZSt18make_move_iteratorIPmESt13move_iteratorIT_ES2_ = comdat any

$_ZSt18uninitialized_copyISt13move_iteratorIPmES1_ET0_T_S4_S3_ = comdat any

$_ZNSt20__uninitialized_copyILb1EE13__uninit_copyISt13move_iteratorIPmES3_EET0_T_S6_S5_ = comdat any

$_ZSt4copyISt13move_iteratorIPmES1_ET0_T_S4_S3_ = comdat any

$_ZSt13__copy_move_aILb1EPmS0_ET1_T0_S2_S1_ = comdat any

$_ZSt12__miter_baseIPmEDTcl12__miter_basecldtfp_4baseEEESt13move_iteratorIT_E = comdat any

$_ZSt12__niter_wrapIPmET_RKS1_S1_ = comdat any

$_ZSt14__copy_move_a1ILb1EPmS0_ET1_T0_S2_S1_ = comdat any

$_ZSt14__copy_move_a2ILb1EPmS0_ET1_T0_S2_S1_ = comdat any

$_ZNSt11__copy_moveILb1ELb1ESt26random_access_iterator_tagE8__copy_mImEEPT_PKS3_S6_S4_ = comdat any

$_ZSt12__miter_baseIPmET_S1_ = comdat any

$_ZNKSt13move_iteratorIPmE4baseEv = comdat any

$_ZNSt13move_iteratorIPmEC2ES0_ = comdat any

$_ZSt22__copy_move_backward_aILb1EPmS0_ET1_T0_S2_S1_ = comdat any

$_ZSt23__copy_move_backward_a1ILb1EPmS0_ET1_T0_S2_S1_ = comdat any

$_ZSt23__copy_move_backward_a2ILb1EPmS0_ET1_T0_S2_S1_ = comdat any

$_ZNSt20__copy_move_backwardILb1ELb1ESt26random_access_iterator_tagE13__copy_move_bImEEPT_PKS3_S6_S4_ = comdat any

$_ZSt13__copy_move_aILb0EN9__gnu_cxx17__normal_iteratorIPmSt6vectorImSaImEEEES6_ET1_T0_S8_S7_ = comdat any

$_ZSt12__miter_baseIN9__gnu_cxx17__normal_iteratorIPmSt6vectorImSaImEEEEET_S7_ = comdat any

$_ZSt12__niter_wrapIN9__gnu_cxx17__normal_iteratorIPmSt6vectorImSaImEEEES2_ET_S7_T0_ = comdat any

$_ZSt14__copy_move_a1ILb0EPmS0_ET1_T0_S2_S1_ = comdat any

$_ZSt12__niter_baseIPmSt6vectorImSaImEEET_N9__gnu_cxx17__normal_iteratorIS4_T0_EE = comdat any

$_ZSt14__copy_move_a2ILb0EPmS0_ET1_T0_S2_S1_ = comdat any

$_ZNSt11__copy_moveILb0ELb1ESt26random_access_iterator_tagE8__copy_mImEEPT_PKS3_S6_S4_ = comdat any

$_ZSt9__advanceIN9__gnu_cxx17__normal_iteratorIPmSt6vectorImSaImEEEElEvRT_T0_St26random_access_iterator_tag = comdat any

$_ZN9__gnu_cxx17__normal_iteratorIPmSt6vectorImSaImEEEppEv = comdat any

$_ZN9__gnu_cxx17__normal_iteratorIPmSt6vectorImSaImEEEmmEv = comdat any

$_ZN9__gnu_cxx17__normal_iteratorIPmSt6vectorImSaImEEEpLEl = comdat any

$_ZSt18uninitialized_copyIN9__gnu_cxx17__normal_iteratorIPmSt6vectorImSaImEEEES2_ET0_T_S8_S7_ = comdat any

$_ZNSt20__uninitialized_copyILb1EE13__uninit_copyIN9__gnu_cxx17__normal_iteratorIPmSt6vectorImSaImEEEES4_EET0_T_SA_S9_ = comdat any

$_ZSt4copyIN9__gnu_cxx17__normal_iteratorIPmSt6vectorImSaImEEEES2_ET0_T_S8_S7_ = comdat any

$_ZSt13__copy_move_aILb0EN9__gnu_cxx17__normal_iteratorIPmSt6vectorImSaImEEEES2_ET1_T0_S8_S7_ = comdat any

$_ZSt32__make_move_if_noexcept_iteratorImSt13move_iteratorIPmEET0_PT_ = comdat any

$_ZN9__gnu_cxx17__normal_iteratorIPmSt6vectorImSaImEEEC2ERKS1_ = comdat any

$_ZNSt6vectorISt4pairIiiESaIS1_EE15_M_erase_at_endEPS1_ = comdat any

$_ZSt8_DestroyIPSt4pairIiiES1_EvT_S3_RSaIT0_E = comdat any

$_ZSt8_DestroyIPSt4pairIiiEEvT_S3_ = comdat any

$_ZNSt12_Destroy_auxILb1EE9__destroyIPSt4pairIiiEEEvT_S5_ = comdat any

$_ZNSt6vectorISt4pairIiiESaIS1_EEixEm = comdat any

$_ZNKSt6vectorIS_IS_ISt4pairIiiESaIS1_EESaIS3_EESaIS5_EE4sizeEv = comdat any

$_ZNSt6vectorIS_IS_ISt4pairIiiESaIS1_EESaIS3_EESaIS5_EE6resizeEm = comdat any

$_ZNSt6vectorIS_IS_ISt4pairIiiESaIS1_EESaIS3_EESaIS5_EEixEm = comdat any

$_ZNSt6vectorIS_ISt4pairIiiESaIS1_EESaIS3_EEaSERKS5_ = comdat any

$_ZNSt6vectorIS_IS_ISt4pairIiiESaIS1_EESaIS3_EESaIS5_EE17_M_default_appendEm = comdat any

$_ZNSt6vectorIS_IS_ISt4pairIiiESaIS1_EESaIS3_EESaIS5_EE15_M_erase_at_endEPS5_ = comdat any

$_ZNKSt6vectorIS_IS_ISt4pairIiiESaIS1_EESaIS3_EESaIS5_EE8max_sizeEv = comdat any

$_ZSt27__uninitialized_default_n_aIPSt6vectorIS0_ISt4pairIiiESaIS2_EESaIS4_EEmS6_ET_S8_T0_RSaIT1_E = comdat any

$_ZNSt12_Vector_baseISt6vectorIS0_ISt4pairIiiESaIS2_EESaIS4_EESaIS6_EE19_M_get_Tp_allocatorEv = comdat any

$_ZNKSt6vectorIS_IS_ISt4pairIiiESaIS1_EESaIS3_EESaIS5_EE12_M_check_lenEmPKc = comdat any

$_ZNSt12_Vector_baseISt6vectorIS0_ISt4pairIiiESaIS2_EESaIS4_EESaIS6_EE11_M_allocateEm = comdat any

$_ZNSt6vectorIS_IS_ISt4pairIiiESaIS1_EESaIS3_EESaIS5_EE11_S_relocateEPS5_S8_S8_RS6_ = comdat any

$_ZNSt12_Vector_baseISt6vectorIS0_ISt4pairIiiESaIS2_EESaIS4_EESaIS6_EE13_M_deallocateEPS6_m = comdat any

$_ZNSt6vectorIS_IS_ISt4pairIiiESaIS1_EESaIS3_EESaIS5_EE11_S_max_sizeERKS6_ = comdat any

$_ZNKSt12_Vector_baseISt6vectorIS0_ISt4pairIiiESaIS2_EESaIS4_EESaIS6_EE19_M_get_Tp_allocatorEv = comdat any

$_ZNSt16allocator_traitsISaISt6vectorIS0_ISt4pairIiiESaIS2_EESaIS4_EEEE8max_sizeERKS7_ = comdat any

$_ZNKSt15__new_allocatorISt6vectorIS0_ISt4pairIiiESaIS2_EESaIS4_EEE8max_sizeEv = comdat any

$_ZNKSt15__new_allocatorISt6vectorIS0_ISt4pairIiiESaIS2_EESaIS4_EEE11_M_max_sizeEv = comdat any

$_ZSt25__uninitialized_default_nIPSt6vectorIS0_ISt4pairIiiESaIS2_EESaIS4_EEmET_S8_T0_ = comdat any

$_ZNSt27__uninitialized_default_n_1ILb0EE18__uninit_default_nIPSt6vectorIS2_ISt4pairIiiESaIS4_EESaIS6_EEmEET_SA_T0_ = comdat any

$_ZSt10_ConstructISt6vectorIS0_ISt4pairIiiESaIS2_EESaIS4_EEJEEvPT_DpOT0_ = comdat any

$_ZNSt16allocator_traitsISaISt6vectorIS0_ISt4pairIiiESaIS2_EESaIS4_EEEE8allocateERS7_m = comdat any

$_ZNSt15__new_allocatorISt6vectorIS0_ISt4pairIiiESaIS2_EESaIS4_EEE8allocateEmPKv = comdat any

$_ZSt12__relocate_aIPSt6vectorIS0_ISt4pairIiiESaIS2_EESaIS4_EES7_SaIS6_EET0_T_SA_S9_RT1_ = comdat any

$_ZSt14__relocate_a_1IPSt6vectorIS0_ISt4pairIiiESaIS2_EESaIS4_EES7_SaIS6_EET0_T_SA_S9_RT1_ = comdat any

$_ZSt12__niter_baseIPSt6vectorIS0_ISt4pairIiiESaIS2_EESaIS4_EEET_S8_ = comdat any

$_ZSt19__relocate_object_aISt6vectorIS0_ISt4pairIiiESaIS2_EESaIS4_EES6_SaIS6_EEvPT_PT0_RT1_ = comdat any

$_ZNSt16allocator_traitsISaISt6vectorIS0_ISt4pairIiiESaIS2_EESaIS4_EEEE9constructIS6_JS6_EEEvRS7_PT_DpOT0_ = comdat any

$_ZNSt16allocator_traitsISaISt6vectorIS0_ISt4pairIiiESaIS2_EESaIS4_EEEE7destroyIS6_EEvRS7_PT_ = comdat any

$_ZNSt15__new_allocatorISt6vectorIS0_ISt4pairIiiESaIS2_EESaIS4_EEE9constructIS6_JS6_EEEvPT_DpOT0_ = comdat any

$_ZNSt6vectorIS_ISt4pairIiiESaIS1_EESaIS3_EEC2EOS5_ = comdat any

$_ZNSt12_Vector_baseISt6vectorISt4pairIiiESaIS2_EESaIS4_EEC2EOS6_ = comdat any

$_ZNSt12_Vector_baseISt6vectorISt4pairIiiESaIS2_EESaIS4_EE12_Vector_implC2EOS7_ = comdat any

$_ZNSaISt6vectorISt4pairIiiESaIS1_EEEC2ERKS4_ = comdat any

$_ZNSt12_Vector_baseISt6vectorISt4pairIiiESaIS2_EESaIS4_EE17_Vector_impl_dataC2EOS7_ = comdat any

$_ZNSt15__new_allocatorISt6vectorISt4pairIiiESaIS2_EEEC2ERKS5_ = comdat any

$_ZNSt15__new_allocatorISt6vectorIS0_ISt4pairIiiESaIS2_EESaIS4_EEE7destroyIS6_EEvPT_ = comdat any

$_ZNSt6vectorIS_ISt4pairIiiESaIS1_EESaIS3_EED2Ev = comdat any

$_ZSt8_DestroyIPSt6vectorISt4pairIiiESaIS2_EES4_EvT_S6_RSaIT0_E = comdat any

$_ZNSt12_Vector_baseISt6vectorISt4pairIiiESaIS2_EESaIS4_EE19_M_get_Tp_allocatorEv = comdat any

$_ZNSt12_Vector_baseISt6vectorISt4pairIiiESaIS2_EESaIS4_EED2Ev = comdat any

$_ZSt8_DestroyIPSt6vectorISt4pairIiiESaIS2_EEEvT_S6_ = comdat any

$_ZNSt12_Destroy_auxILb0EE9__destroyIPSt6vectorISt4pairIiiESaIS4_EEEEvT_S8_ = comdat any

$_ZSt8_DestroyISt6vectorISt4pairIiiESaIS2_EEEvPT_ = comdat any

$_ZNSt6vectorISt4pairIiiESaIS1_EED2Ev = comdat any

$_ZNSt12_Vector_baseISt4pairIiiESaIS1_EED2Ev = comdat any

$_ZNSt12_Vector_baseISt6vectorISt4pairIiiESaIS2_EESaIS4_EE13_M_deallocateEPS4_m = comdat any

$_ZNSt15__new_allocatorISt6vectorISt4pairIiiESaIS2_EEED2Ev = comdat any

$_ZNSt16allocator_traitsISaISt6vectorISt4pairIiiESaIS2_EEEE10deallocateERS5_PS4_m = comdat any

$_ZNSt15__new_allocatorISt6vectorISt4pairIiiESaIS2_EEE10deallocateEPS4_m = comdat any

$_ZNSt16allocator_traitsISaISt6vectorIS0_ISt4pairIiiESaIS2_EESaIS4_EEEE10deallocateERS7_PS6_m = comdat any

$_ZNSt15__new_allocatorISt6vectorIS0_ISt4pairIiiESaIS2_EESaIS4_EEE10deallocateEPS6_m = comdat any

$_ZSt8_DestroyIPSt6vectorIS0_ISt4pairIiiESaIS2_EESaIS4_EES6_EvT_S8_RSaIT0_E = comdat any

$_ZSt8_DestroyIPSt6vectorIS0_ISt4pairIiiESaIS2_EESaIS4_EEEvT_S8_ = comdat any

$_ZNSt12_Destroy_auxILb0EE9__destroyIPSt6vectorIS2_ISt4pairIiiESaIS4_EESaIS6_EEEEvT_SA_ = comdat any

$_ZSt8_DestroyISt6vectorIS0_ISt4pairIiiESaIS2_EESaIS4_EEEvPT_ = comdat any

$_ZNKSt6vectorIS_ISt4pairIiiESaIS1_EESaIS3_EE4sizeEv = comdat any

$_ZNKSt6vectorIS_ISt4pairIiiESaIS1_EESaIS3_EE8capacityEv = comdat any

$_ZNSt6vectorIS_ISt4pairIiiESaIS1_EESaIS3_EE20_M_allocate_and_copyIN9__gnu_cxx17__normal_iteratorIPKS3_S5_EEEEPS3_mT_SD_ = comdat any

$_ZNKSt6vectorIS_ISt4pairIiiESaIS1_EESaIS3_EE5beginEv = comdat any

$_ZNKSt6vectorIS_ISt4pairIiiESaIS1_EESaIS3_EE3endEv = comdat any

$_ZSt8_DestroyIN9__gnu_cxx17__normal_iteratorIPSt6vectorISt4pairIiiESaIS4_EES2_IS6_SaIS6_EEEES6_EvT_SB_RSaIT0_E = comdat any

$_ZSt4copyIN9__gnu_cxx17__normal_iteratorIPKSt6vectorISt4pairIiiESaIS4_EES2_IS6_SaIS6_EEEENS1_IPS6_SA_EEET0_T_SF_SE_ = comdat any

$_ZNSt6vectorIS_ISt4pairIiiESaIS1_EESaIS3_EE5beginEv = comdat any

$_ZNSt6vectorIS_ISt4pairIiiESaIS1_EESaIS3_EE3endEv = comdat any

$_ZSt4copyIPSt6vectorISt4pairIiiESaIS2_EES5_ET0_T_S7_S6_ = comdat any

$_ZSt22__uninitialized_copy_aIPSt6vectorISt4pairIiiESaIS2_EES5_S4_ET0_T_S7_S6_RSaIT1_E = comdat any

$_ZNSt12_Vector_baseISt6vectorISt4pairIiiESaIS2_EESaIS4_EE11_M_allocateEm = comdat any

$_ZSt22__uninitialized_copy_aIN9__gnu_cxx17__normal_iteratorIPKSt6vectorISt4pairIiiESaIS4_EES2_IS6_SaIS6_EEEEPS6_S6_ET0_T_SE_SD_RSaIT1_E = comdat any

$_ZNSt16allocator_traitsISaISt6vectorISt4pairIiiESaIS2_EEEE8allocateERS5_m = comdat any

$_ZNSt15__new_allocatorISt6vectorISt4pairIiiESaIS2_EEE8allocateEmPKv = comdat any

$_ZNKSt15__new_allocatorISt6vectorISt4pairIiiESaIS2_EEE11_M_max_sizeEv = comdat any

$_ZSt18uninitialized_copyIN9__gnu_cxx17__normal_iteratorIPKSt6vectorISt4pairIiiESaIS4_EES2_IS6_SaIS6_EEEEPS6_ET0_T_SE_SD_ = comdat any

$_ZNSt20__uninitialized_copyILb0EE13__uninit_copyIN9__gnu_cxx17__normal_iteratorIPKSt6vectorISt4pairIiiESaIS6_EES4_IS8_SaIS8_EEEEPS8_EET0_T_SG_SF_ = comdat any

$_ZSt16__do_uninit_copyIN9__gnu_cxx17__normal_iteratorIPKSt6vectorISt4pairIiiESaIS4_EES2_IS6_SaIS6_EEEEPS6_ET0_T_SE_SD_ = comdat any

$_ZN9__gnu_cxxneIPKSt6vectorISt4pairIiiESaIS3_EES1_IS5_SaIS5_EEEEbRKNS_17__normal_iteratorIT_T0_EESF_ = comdat any

$_ZSt10_ConstructISt6vectorISt4pairIiiESaIS2_EEJRKS4_EEvPT_DpOT0_ = comdat any

$_ZNK9__gnu_cxx17__normal_iteratorIPKSt6vectorISt4pairIiiESaIS3_EES1_IS5_SaIS5_EEEdeEv = comdat any

$_ZN9__gnu_cxx17__normal_iteratorIPKSt6vectorISt4pairIiiESaIS3_EES1_IS5_SaIS5_EEEppEv = comdat any

$_ZNK9__gnu_cxx17__normal_iteratorIPKSt6vectorISt4pairIiiESaIS3_EES1_IS5_SaIS5_EEE4baseEv = comdat any

$_ZNSt6vectorISt4pairIiiESaIS1_EEC2ERKS3_ = comdat any

$_ZN9__gnu_cxx14__alloc_traitsISaISt4pairIiiEES2_E17_S_select_on_copyERKS3_ = comdat any

$_ZNSt12_Vector_baseISt4pairIiiESaIS1_EEC2EmRKS2_ = comdat any

$_ZNSt15__new_allocatorISt4pairIiiEED2Ev = comdat any

$_ZSt22__uninitialized_copy_aIN9__gnu_cxx17__normal_iteratorIPKSt4pairIiiESt6vectorIS3_SaIS3_EEEEPS3_S3_ET0_T_SC_SB_RSaIT1_E = comdat any

$_ZNKSt6vectorISt4pairIiiESaIS1_EE5beginEv = comdat any

$_ZNKSt6vectorISt4pairIiiESaIS1_EE3endEv = comdat any

$_ZNSt16allocator_traitsISaISt4pairIiiEEE37select_on_container_copy_constructionERKS2_ = comdat any

$_ZNSaISt4pairIiiEEC2ERKS1_ = comdat any

$_ZNSt15__new_allocatorISt4pairIiiEEC2ERKS2_ = comdat any

$_ZNSt12_Vector_baseISt4pairIiiESaIS1_EE12_Vector_implC2ERKS2_ = comdat any

$_ZNSt12_Vector_baseISt4pairIiiESaIS1_EE17_M_create_storageEm = comdat any

$_ZNSt12_Vector_baseISt4pairIiiESaIS1_EE17_Vector_impl_dataC2Ev = comdat any

$_ZSt18uninitialized_copyIN9__gnu_cxx17__normal_iteratorIPKSt4pairIiiESt6vectorIS3_SaIS3_EEEEPS3_ET0_T_SC_SB_ = comdat any

$_ZNSt20__uninitialized_copyILb0EE13__uninit_copyIN9__gnu_cxx17__normal_iteratorIPKSt4pairIiiESt6vectorIS5_SaIS5_EEEEPS5_EET0_T_SE_SD_ = comdat any

$_ZSt16__do_uninit_copyIN9__gnu_cxx17__normal_iteratorIPKSt4pairIiiESt6vectorIS3_SaIS3_EEEEPS3_ET0_T_SC_SB_ = comdat any

$_ZN9__gnu_cxxneIPKSt4pairIiiESt6vectorIS2_SaIS2_EEEEbRKNS_17__normal_iteratorIT_T0_EESD_ = comdat any

$_ZSt10_ConstructISt4pairIiiEJRKS1_EEvPT_DpOT0_ = comdat any

$_ZNK9__gnu_cxx17__normal_iteratorIPKSt4pairIiiESt6vectorIS2_SaIS2_EEEdeEv = comdat any

$_ZN9__gnu_cxx17__normal_iteratorIPKSt4pairIiiESt6vectorIS2_SaIS2_EEEppEv = comdat any

$_ZNK9__gnu_cxx17__normal_iteratorIPKSt4pairIiiESt6vectorIS2_SaIS2_EEE4baseEv = comdat any

$_ZN9__gnu_cxx17__normal_iteratorIPKSt4pairIiiESt6vectorIS2_SaIS2_EEEC2ERKS4_ = comdat any

$_ZN9__gnu_cxx17__normal_iteratorIPKSt6vectorISt4pairIiiESaIS3_EES1_IS5_SaIS5_EEEC2ERKS7_ = comdat any

$_ZSt8_DestroyIN9__gnu_cxx17__normal_iteratorIPSt6vectorISt4pairIiiESaIS4_EES2_IS6_SaIS6_EEEEEvT_SB_ = comdat any

$_ZNSt12_Destroy_auxILb0EE9__destroyIN9__gnu_cxx17__normal_iteratorIPSt6vectorISt4pairIiiESaIS6_EES4_IS8_SaIS8_EEEEEEvT_SD_ = comdat any

$_ZN9__gnu_cxxneIPSt6vectorISt4pairIiiESaIS3_EES1_IS5_SaIS5_EEEEbRKNS_17__normal_iteratorIT_T0_EESE_ = comdat any

$_ZNK9__gnu_cxx17__normal_iteratorIPSt6vectorISt4pairIiiESaIS3_EES1_IS5_SaIS5_EEEdeEv = comdat any

$_ZN9__gnu_cxx17__normal_iteratorIPSt6vectorISt4pairIiiESaIS3_EES1_IS5_SaIS5_EEEppEv = comdat any

$_ZNK9__gnu_cxx17__normal_iteratorIPSt6vectorISt4pairIiiESaIS3_EES1_IS5_SaIS5_EEE4baseEv = comdat any

$_ZSt13__copy_move_aILb0EN9__gnu_cxx17__normal_iteratorIPKSt6vectorISt4pairIiiESaIS4_EES2_IS6_SaIS6_EEEENS1_IPS6_SA_EEET1_T0_SF_SE_ = comdat any

$_ZSt12__miter_baseIN9__gnu_cxx17__normal_iteratorIPKSt6vectorISt4pairIiiESaIS4_EES2_IS6_SaIS6_EEEEET_SC_ = comdat any

$_ZSt12__niter_wrapIN9__gnu_cxx17__normal_iteratorIPSt6vectorISt4pairIiiESaIS4_EES2_IS6_SaIS6_EEEES7_ET_SB_T0_ = comdat any

$_ZSt14__copy_move_a1ILb0EPKSt6vectorISt4pairIiiESaIS2_EEPS4_ET1_T0_S9_S8_ = comdat any

$_ZSt12__niter_baseIPKSt6vectorISt4pairIiiESaIS2_EES0_IS4_SaIS4_EEET_N9__gnu_cxx17__normal_iteratorIS9_T0_EE = comdat any

$_ZSt12__niter_baseIPSt6vectorISt4pairIiiESaIS2_EES0_IS4_SaIS4_EEET_N9__gnu_cxx17__normal_iteratorIS8_T0_EE = comdat any

$_ZNK9__gnu_cxx17__normal_iteratorIPSt6vectorISt4pairIiiESaIS3_EES1_IS5_SaIS5_EEEplEl = comdat any

$_ZN9__gnu_cxx17__normal_iteratorIPSt6vectorISt4pairIiiESaIS3_EES1_IS5_SaIS5_EEEC2ERKS6_ = comdat any

$_ZSt14__copy_move_a2ILb0EPKSt6vectorISt4pairIiiESaIS2_EEPS4_ET1_T0_S9_S8_ = comdat any

$_ZNSt11__copy_moveILb0ELb0ESt26random_access_iterator_tagE8__copy_mIPKSt6vectorISt4pairIiiESaIS5_EEPS7_EET0_T_SC_SB_ = comdat any

$_ZNSt6vectorISt4pairIiiESaIS1_EEaSERKS3_ = comdat any

$_ZNKSt6vectorISt4pairIiiESaIS1_EE8capacityEv = comdat any

$_ZNSt6vectorISt4pairIiiESaIS1_EE20_M_allocate_and_copyIN9__gnu_cxx17__normal_iteratorIPKS1_S3_EEEEPS1_mT_SB_ = comdat any

$_ZSt8_DestroyIN9__gnu_cxx17__normal_iteratorIPSt4pairIiiESt6vectorIS3_SaIS3_EEEES3_EvT_S9_RSaIT0_E = comdat any

$_ZSt4copyIN9__gnu_cxx17__normal_iteratorIPKSt4pairIiiESt6vectorIS3_SaIS3_EEEENS1_IPS3_S8_EEET0_T_SD_SC_ = comdat any

$_ZSt4copyIPSt4pairIiiES2_ET0_T_S4_S3_ = comdat any

$_ZSt22__uninitialized_copy_aIPSt4pairIiiES2_S1_ET0_T_S4_S3_RSaIT1_E = comdat any

$_ZSt8_DestroyIN9__gnu_cxx17__normal_iteratorIPSt4pairIiiESt6vectorIS3_SaIS3_EEEEEvT_S9_ = comdat any

$_ZNSt12_Destroy_auxILb1EE9__destroyIN9__gnu_cxx17__normal_iteratorIPSt4pairIiiESt6vectorIS5_SaIS5_EEEEEEvT_SB_ = comdat any

$_ZSt13__copy_move_aILb0EN9__gnu_cxx17__normal_iteratorIPKSt4pairIiiESt6vectorIS3_SaIS3_EEEENS1_IPS3_S8_EEET1_T0_SD_SC_ = comdat any

$_ZSt12__miter_baseIN9__gnu_cxx17__normal_iteratorIPKSt4pairIiiESt6vectorIS3_SaIS3_EEEEET_SA_ = comdat any

$_ZSt12__niter_wrapIN9__gnu_cxx17__normal_iteratorIPSt4pairIiiESt6vectorIS3_SaIS3_EEEES4_ET_S9_T0_ = comdat any

$_ZSt14__copy_move_a1ILb0EPKSt4pairIiiEPS1_ET1_T0_S6_S5_ = comdat any

$_ZSt12__niter_baseIPKSt4pairIiiESt6vectorIS1_SaIS1_EEET_N9__gnu_cxx17__normal_iteratorIS7_T0_EE = comdat any

$_ZSt12__niter_baseIPSt4pairIiiESt6vectorIS1_SaIS1_EEET_N9__gnu_cxx17__normal_iteratorIS6_T0_EE = comdat any

$_ZNK9__gnu_cxx17__normal_iteratorIPSt4pairIiiESt6vectorIS2_SaIS2_EEEplEl = comdat any

$_ZSt14__copy_move_a2ILb0EPKSt4pairIiiEPS1_ET1_T0_S6_S5_ = comdat any

$_ZNSt11__copy_moveILb0ELb0ESt26random_access_iterator_tagE8__copy_mIPKSt4pairIiiEPS4_EET0_T_S9_S8_ = comdat any

$_ZNSt4pairIiiEaSERKS0_ = comdat any

$_ZSt13__copy_move_aILb0EPSt4pairIiiES2_ET1_T0_S4_S3_ = comdat any

$_ZSt12__miter_baseIPSt4pairIiiEET_S3_ = comdat any

$_ZSt12__niter_wrapIPSt4pairIiiEET_RKS3_S3_ = comdat any

$_ZSt14__copy_move_a1ILb0EPSt4pairIiiES2_ET1_T0_S4_S3_ = comdat any

$_ZSt14__copy_move_a2ILb0EPSt4pairIiiES2_ET1_T0_S4_S3_ = comdat any

$_ZNSt11__copy_moveILb0ELb0ESt26random_access_iterator_tagE8__copy_mIPSt4pairIiiES5_EET0_T_S7_S6_ = comdat any

$_ZSt18uninitialized_copyIPSt4pairIiiES2_ET0_T_S4_S3_ = comdat any

$_ZNSt20__uninitialized_copyILb0EE13__uninit_copyIPSt4pairIiiES4_EET0_T_S6_S5_ = comdat any

$_ZSt16__do_uninit_copyIPSt4pairIiiES2_ET0_T_S4_S3_ = comdat any

$_ZSt10_ConstructISt4pairIiiEJRS1_EEvPT_DpOT0_ = comdat any

$_ZSt13__copy_move_aILb0EPSt6vectorISt4pairIiiESaIS2_EES5_ET1_T0_S7_S6_ = comdat any

$_ZSt12__miter_baseIPSt6vectorISt4pairIiiESaIS2_EEET_S6_ = comdat any

$_ZSt12__niter_wrapIPSt6vectorISt4pairIiiESaIS2_EEET_RKS6_S6_ = comdat any

$_ZSt14__copy_move_a1ILb0EPSt6vectorISt4pairIiiESaIS2_EES5_ET1_T0_S7_S6_ = comdat any

$_ZSt12__niter_baseIPSt6vectorISt4pairIiiESaIS2_EEET_S6_ = comdat any

$_ZSt14__copy_move_a2ILb0EPSt6vectorISt4pairIiiESaIS2_EES5_ET1_T0_S7_S6_ = comdat any

$_ZNSt11__copy_moveILb0ELb0ESt26random_access_iterator_tagE8__copy_mIPSt6vectorISt4pairIiiESaIS5_EES8_EET0_T_SA_S9_ = comdat any

$_ZSt18uninitialized_copyIPSt6vectorISt4pairIiiESaIS2_EES5_ET0_T_S7_S6_ = comdat any

$_ZNSt20__uninitialized_copyILb0EE13__uninit_copyIPSt6vectorISt4pairIiiESaIS4_EES7_EET0_T_S9_S8_ = comdat any

$_ZSt16__do_uninit_copyIPSt6vectorISt4pairIiiESaIS2_EES5_ET0_T_S7_S6_ = comdat any

$_ZSt10_ConstructISt6vectorISt4pairIiiESaIS2_EEJRS4_EEvPT_DpOT0_ = comdat any

$_ZN5Ttopt18TruthTableLevelTSM10BDDFindTSMEii = comdat any

$_ZN5Ttopt14TruthTableCare14CopyFuncMaskedEiiib = comdat any

$_ZSt9make_pairIRiS0_ESt4pairINSt25__strip_reference_wrapperINSt5decayIT_E4typeEE6__typeENS2_INS3_IT0_E4typeEE6__typeEEOS4_OS9_ = comdat any

$_ZN5Ttopt17TruthTableRewrite8SetValueEiim = comdat any

$_ZNSt4pairIiiEC2IRiS2_TnNSt9enable_ifIXaaclsr5_PCCPE22_MoveConstructiblePairIT_T0_EEclsr5_PCCPE30_ImplicitlyMoveConvertiblePairIS4_S5_EEEbE4typeELb1EEEOS4_OS5_ = comdat any

$_ZNSt6vectorIS_ISt4pairIiiESaIS1_EESaIS3_EE5clearEv = comdat any

$_ZNSt6vectorIS_ISt4pairIiiESaIS1_EESaIS3_EE6resizeEm = comdat any

$_ZNSt6vectorIS_ISt4pairIiiESaIS1_EESaIS3_EE15_M_erase_at_endEPS3_ = comdat any

$_ZNSt6vectorIS_ISt4pairIiiESaIS1_EESaIS3_EE17_M_default_appendEm = comdat any

$_ZNKSt6vectorIS_ISt4pairIiiESaIS1_EESaIS3_EE8max_sizeEv = comdat any

$_ZSt27__uninitialized_default_n_aIPSt6vectorISt4pairIiiESaIS2_EEmS4_ET_S6_T0_RSaIT1_E = comdat any

$_ZNKSt6vectorIS_ISt4pairIiiESaIS1_EESaIS3_EE12_M_check_lenEmPKc = comdat any

$_ZNSt6vectorIS_ISt4pairIiiESaIS1_EESaIS3_EE11_S_relocateEPS3_S6_S6_RS4_ = comdat any

$_ZNSt6vectorIS_ISt4pairIiiESaIS1_EESaIS3_EE11_S_max_sizeERKS4_ = comdat any

$_ZNKSt12_Vector_baseISt6vectorISt4pairIiiESaIS2_EESaIS4_EE19_M_get_Tp_allocatorEv = comdat any

$_ZNSt16allocator_traitsISaISt6vectorISt4pairIiiESaIS2_EEEE8max_sizeERKS5_ = comdat any

$_ZNKSt15__new_allocatorISt6vectorISt4pairIiiESaIS2_EEE8max_sizeEv = comdat any

$_ZSt25__uninitialized_default_nIPSt6vectorISt4pairIiiESaIS2_EEmET_S6_T0_ = comdat any

$_ZNSt27__uninitialized_default_n_1ILb0EE18__uninit_default_nIPSt6vectorISt4pairIiiESaIS4_EEmEET_S8_T0_ = comdat any

$_ZSt10_ConstructISt6vectorISt4pairIiiESaIS2_EEJEEvPT_DpOT0_ = comdat any

$_ZNSt6vectorISt4pairIiiESaIS1_EEC2Ev = comdat any

$_ZNSt12_Vector_baseISt4pairIiiESaIS1_EEC2Ev = comdat any

$_ZNSt12_Vector_baseISt4pairIiiESaIS1_EE12_Vector_implC2Ev = comdat any

$_ZNSaISt4pairIiiEEC2Ev = comdat any

$_ZNSt15__new_allocatorISt4pairIiiEEC2Ev = comdat any

$_ZSt12__relocate_aIPSt6vectorISt4pairIiiESaIS2_EES5_SaIS4_EET0_T_S8_S7_RT1_ = comdat any

$_ZSt14__relocate_a_1IPSt6vectorISt4pairIiiESaIS2_EES5_SaIS4_EET0_T_S8_S7_RT1_ = comdat any

$_ZSt19__relocate_object_aISt6vectorISt4pairIiiESaIS2_EES4_SaIS4_EEvPT_PT0_RT1_ = comdat any

$_ZNSt16allocator_traitsISaISt6vectorISt4pairIiiESaIS2_EEEE9constructIS4_JS4_EEEvRS5_PT_DpOT0_ = comdat any

$_ZNSt16allocator_traitsISaISt6vectorISt4pairIiiESaIS2_EEEE7destroyIS4_EEvRS5_PT_ = comdat any

$_ZNSt15__new_allocatorISt6vectorISt4pairIiiESaIS2_EEE9constructIS4_JS4_EEEvPT_DpOT0_ = comdat any

$_ZNSt6vectorISt4pairIiiESaIS1_EEC2EOS3_ = comdat any

$_ZNSt12_Vector_baseISt4pairIiiESaIS1_EEC2EOS3_ = comdat any

$_ZNSt12_Vector_baseISt4pairIiiESaIS1_EE12_Vector_implC2EOS4_ = comdat any

$_ZNSt12_Vector_baseISt4pairIiiESaIS1_EE17_Vector_impl_dataC2EOS4_ = comdat any

$_ZNSt15__new_allocatorISt6vectorISt4pairIiiESaIS2_EEE7destroyIS4_EEvPT_ = comdat any

$_ZN5Ttopt14TruthTableCare19OptimizationStartupEv = comdat any

$_ZN5Ttopt14TruthTableCare13CompleteMergeEv = comdat any

$_ZN5Ttopt17TruthTableRewrite15ShiftToMajorityEii = comdat any

$_ZNSt6bitsetILm64EEC2Ey = comdat any

$_ZNKSt6bitsetILm64EE5countEv = comdat any

$_ZN5Ttopt17TruthTableRewrite8CopyFuncEiiib = comdat any

$_ZNSt13_Sanitize_valILm64ELb0EE18_S_do_sanitize_valEy = comdat any

$_ZNSt12_Base_bitsetILm1EEC2Ey = comdat any

$_ZNKSt12_Base_bitsetILm1EE11_M_do_countEv = comdat any

$_ZNSt6vectorISt4pairIiiESaIS1_EE6rbeginEv = comdat any

$_ZStneIN9__gnu_cxx17__normal_iteratorIPSt4pairIiiESt6vectorIS3_SaIS3_EEEEEbRKSt16reverse_iteratorIT_ESD_ = comdat any

$_ZNSt6vectorISt4pairIiiESaIS1_EE4rendEv = comdat any

$_ZNKSt16reverse_iteratorIN9__gnu_cxx17__normal_iteratorIPSt4pairIiiESt6vectorIS3_SaIS3_EEEEEdeEv = comdat any

$_ZNSt16reverse_iteratorIN9__gnu_cxx17__normal_iteratorIPSt4pairIiiESt6vectorIS3_SaIS3_EEEEEppEi = comdat any

$_ZNSt16reverse_iteratorIN9__gnu_cxx17__normal_iteratorIPSt4pairIiiESt6vectorIS3_SaIS3_EEEEEC2ES8_ = comdat any

$_ZSteqIN9__gnu_cxx17__normal_iteratorIPSt4pairIiiESt6vectorIS3_SaIS3_EEEEEbRKSt16reverse_iteratorIT_ESD_ = comdat any

$_ZN9__gnu_cxxeqIPSt4pairIiiESt6vectorIS2_SaIS2_EEEEbRKNS_17__normal_iteratorIT_T0_EESC_ = comdat any

$_ZNKSt16reverse_iteratorIN9__gnu_cxx17__normal_iteratorIPSt4pairIiiESt6vectorIS3_SaIS3_EEEEE4baseEv = comdat any

$_ZN9__gnu_cxx17__normal_iteratorIPSt4pairIiiESt6vectorIS2_SaIS2_EEEmmEv = comdat any

$_ZNSt16reverse_iteratorIN9__gnu_cxx17__normal_iteratorIPSt4pairIiiESt6vectorIS3_SaIS3_EEEEEC2ERKS9_ = comdat any

$_ZNSt6vectorIS_IS_ISt4pairIiiESaIS1_EESaIS3_EESaIS5_EED2Ev = comdat any

$_ZN5Ttopt10TruthTableD2Ev = comdat any

$_ZNSt12_Vector_baseISt6vectorIS0_ISt4pairIiiESaIS2_EESaIS4_EESaIS6_EED2Ev = comdat any

$_ZNSt15__new_allocatorISt6vectorIS0_ISt4pairIiiESaIS2_EESaIS4_EEED2Ev = comdat any

$_ZNSt12_Vector_baseIiSaIiEED2Ev = comdat any

$_ZNSt15__new_allocatorIiED2Ev = comdat any

$_ZNKSt6vectorImSaImEE8capacityEv = comdat any

$_ZNSt6vectorImSaImEE20_M_allocate_and_copyIN9__gnu_cxx17__normal_iteratorIPKmS1_EEEEPmmT_S9_ = comdat any

$_ZNKSt6vectorImSaImEE5beginEv = comdat any

$_ZNKSt6vectorImSaImEE3endEv = comdat any

$_ZSt8_DestroyIN9__gnu_cxx17__normal_iteratorIPmSt6vectorImSaImEEEEmEvT_S7_RSaIT0_E = comdat any

$_ZSt4copyIN9__gnu_cxx17__normal_iteratorIPKmSt6vectorImSaImEEEENS1_IPmS6_EEET0_T_SB_SA_ = comdat any

$_ZSt4copyIPmS0_ET0_T_S2_S1_ = comdat any

$_ZSt22__uninitialized_copy_aIPmS0_mET0_T_S2_S1_RSaIT1_E = comdat any

$_ZSt22__uninitialized_copy_aIN9__gnu_cxx17__normal_iteratorIPKmSt6vectorImSaImEEEEPmmET0_T_SA_S9_RSaIT1_E = comdat any

$_ZSt18uninitialized_copyIN9__gnu_cxx17__normal_iteratorIPKmSt6vectorImSaImEEEEPmET0_T_SA_S9_ = comdat any

$_ZNSt20__uninitialized_copyILb1EE13__uninit_copyIN9__gnu_cxx17__normal_iteratorIPKmSt6vectorImSaImEEEEPmEET0_T_SC_SB_ = comdat any

$_ZSt4copyIN9__gnu_cxx17__normal_iteratorIPKmSt6vectorImSaImEEEEPmET0_T_SA_S9_ = comdat any

$_ZSt13__copy_move_aILb0EN9__gnu_cxx17__normal_iteratorIPKmSt6vectorImSaImEEEEPmET1_T0_SA_S9_ = comdat any

$_ZSt12__miter_baseIN9__gnu_cxx17__normal_iteratorIPKmSt6vectorImSaImEEEEET_S8_ = comdat any

$_ZSt14__copy_move_a1ILb0EPKmPmET1_T0_S4_S3_ = comdat any

$_ZSt12__niter_baseIPKmSt6vectorImSaImEEET_N9__gnu_cxx17__normal_iteratorIS5_T0_EE = comdat any

$_ZSt14__copy_move_a2ILb0EPKmPmET1_T0_S4_S3_ = comdat any

$_ZSt8_DestroyIN9__gnu_cxx17__normal_iteratorIPmSt6vectorImSaImEEEEEvT_S7_ = comdat any

$_ZNSt12_Destroy_auxILb1EE9__destroyIN9__gnu_cxx17__normal_iteratorIPmSt6vectorImSaImEEEEEEvT_S9_ = comdat any

$_ZSt13__copy_move_aILb0EN9__gnu_cxx17__normal_iteratorIPKmSt6vectorImSaImEEEENS1_IPmS6_EEET1_T0_SB_SA_ = comdat any

$_ZSt13__copy_move_aILb0EPmS0_ET1_T0_S2_S1_ = comdat any

$_ZSt18uninitialized_copyIPmS0_ET0_T_S2_S1_ = comdat any

$_ZNSt20__uninitialized_copyILb1EE13__uninit_copyIPmS2_EET0_T_S4_S3_ = comdat any

$_ZN9__gnu_cxx14__alloc_traitsISaIiEiE17_S_select_on_copyERKS1_ = comdat any

$_ZNSt16allocator_traitsISaIiEE37select_on_container_copy_constructionERKS0_ = comdat any

$_ZTVN5Ttopt13TruthTableReoE = comdat any

$_ZTIN5Ttopt13TruthTableReoE = comdat any

$_ZTSN5Ttopt13TruthTableReoE = comdat any

$_ZTIN5Ttopt10TruthTableE = comdat any

$_ZTSN5Ttopt10TruthTableE = comdat any

$_ZTVN5Ttopt10TruthTableE = comdat any

$_ZTVN5Ttopt18TruthTableLevelTSME = comdat any

$_ZTIN5Ttopt18TruthTableLevelTSME = comdat any

$_ZTSN5Ttopt18TruthTableLevelTSME = comdat any

$_ZTIN5Ttopt14TruthTableCareE = comdat any

$_ZTSN5Ttopt14TruthTableCareE = comdat any

$_ZTIN5Ttopt17TruthTableRewriteE = comdat any

$_ZTSN5Ttopt17TruthTableRewriteE = comdat any

$_ZTVN5Ttopt14TruthTableCareE = comdat any

$_ZTVN5Ttopt17TruthTableRewriteE = comdat any

@_ZN5Ttopt10TruthTable2wwE = constant i32 64, align 4
@_ZN5Ttopt10TruthTable3lwwE = constant i32 6, align 4
@_ZN5Ttopt10TruthTable4onesE = constant [7 x i64] [i64 1, i64 3, i64 15, i64 255, i64 65535, i64 4294967295, i64 -1], align 16
@_ZN5Ttopt10TruthTable8swapmaskE = constant [5 x i64] [i64 2459565876494606882, i64 868082074056920076, i64 67555025218437360, i64 280375465148160, i64 4294901760], align 16
@.str = private unnamed_addr constant [66 x i8] c"Hard limit on the number of nodes (2^29) is reached. Quitting...\0A\00", align 1
@.str.1 = private unnamed_addr constant [41 x i8] c"Extending GIA object storage: %d -> %d.\0A\00", align 1
@_ZTVN5Ttopt13TruthTableReoE = linkonce_odr unnamed_addr constant { [14 x ptr] } { [14 x ptr] [ptr null, ptr @_ZTIN5Ttopt13TruthTableReoE, ptr @_ZN5Ttopt13TruthTableReo4SaveEj, ptr @_ZN5Ttopt13TruthTableReo4LoadEj, ptr @_ZN5Ttopt13TruthTableReo11SaveIndicesEj, ptr @_ZN5Ttopt13TruthTableReo11LoadIndicesEj, ptr @_ZN5Ttopt10TruthTable11BDDBuildOneEii, ptr @_ZN5Ttopt13TruthTableReo15BDDBuildStartupEv, ptr @_ZN5Ttopt13TruthTableReo13BDDBuildLevelEi, ptr @_ZN5Ttopt13TruthTableReo8BDDBuildEv, ptr @_ZN5Ttopt13TruthTableReo10BDDRebuildEi, ptr @_ZN5Ttopt13TruthTableReo4SwapEi, ptr @_ZN5Ttopt13TruthTableReo7BDDSwapEi, ptr @_ZN5Ttopt13TruthTableReo14BDDGenerateAigEP10Gia_Man_t_P10Vec_Int_t_] }, comdat, align 8
@_ZTIN5Ttopt13TruthTableReoE = linkonce_odr constant { ptr, ptr, ptr } { ptr getelementptr inbounds (ptr, ptr @_ZTVN10__cxxabiv120__si_class_type_infoE, i64 2), ptr @_ZTSN5Ttopt13TruthTableReoE, ptr @_ZTIN5Ttopt10TruthTableE }, comdat, align 8
@_ZTVN10__cxxabiv120__si_class_type_infoE = external global [0 x ptr]
@_ZTSN5Ttopt13TruthTableReoE = linkonce_odr constant [24 x i8] c"N5Ttopt13TruthTableReoE\00", comdat, align 1
@_ZTIN5Ttopt10TruthTableE = linkonce_odr constant { ptr, ptr } { ptr getelementptr inbounds (ptr, ptr @_ZTVN10__cxxabiv117__class_type_infoE, i64 2), ptr @_ZTSN5Ttopt10TruthTableE }, comdat, align 8
@_ZTVN10__cxxabiv117__class_type_infoE = external global [0 x ptr]
@_ZTSN5Ttopt10TruthTableE = linkonce_odr constant [21 x i8] c"N5Ttopt10TruthTableE\00", comdat, align 1
@_ZTVN5Ttopt10TruthTableE = linkonce_odr unnamed_addr constant { [14 x ptr] } { [14 x ptr] [ptr null, ptr @_ZTIN5Ttopt10TruthTableE, ptr @_ZN5Ttopt10TruthTable4SaveEj, ptr @_ZN5Ttopt10TruthTable4LoadEj, ptr @_ZN5Ttopt10TruthTable11SaveIndicesEj, ptr @_ZN5Ttopt10TruthTable11LoadIndicesEj, ptr @_ZN5Ttopt10TruthTable11BDDBuildOneEii, ptr @_ZN5Ttopt10TruthTable15BDDBuildStartupEv, ptr @_ZN5Ttopt10TruthTable13BDDBuildLevelEi, ptr @_ZN5Ttopt10TruthTable8BDDBuildEv, ptr @_ZN5Ttopt10TruthTable10BDDRebuildEi, ptr @_ZN5Ttopt10TruthTable4SwapEi, ptr @_ZN5Ttopt10TruthTable7BDDSwapEi, ptr @_ZN5Ttopt10TruthTable14BDDGenerateAigEP10Gia_Man_t_P10Vec_Int_t_] }, comdat, align 8
@.str.2 = private unnamed_addr constant [26 x i8] c"vector::_M_default_append\00", align 1
@.str.3 = private unnamed_addr constant [26 x i8] c"vector::_M_realloc_insert\00", align 1
@.str.4 = private unnamed_addr constant [49 x i8] c"cannot create std::vector larger than max_size()\00", align 1
@.str.5 = private unnamed_addr constant [3 x i8] c"rb\00", align 1
@.str.6 = private unnamed_addr constant [36 x i8] c"Cannot open file \22%s\22 for reading.\0A\00", align 1
@.str.7 = private unnamed_addr constant [26 x i8] c"The input file is empty.\0A\00", align 1
@.str.8 = private unnamed_addr constant [88 x i8] c"Cannot read file with simulation data that is not aligned at 8 bytes (remainder = %d).\0A\00", align 1
@.str.9 = private unnamed_addr constant [31 x i8] c"Error reading data from file.\0A\00", align 1
@.str.10 = private unnamed_addr constant [50 x i8] c"Read %d words of simulation data from file \22%s\22.\0A\00", align 1
@_ZTVN5Ttopt18TruthTableLevelTSME = linkonce_odr unnamed_addr constant { [16 x ptr] } { [16 x ptr] [ptr null, ptr @_ZTIN5Ttopt18TruthTableLevelTSME, ptr @_ZN5Ttopt14TruthTableCare4SaveEj, ptr @_ZN5Ttopt14TruthTableCare4LoadEj, ptr @_ZN5Ttopt14TruthTableCare11SaveIndicesEj, ptr @_ZN5Ttopt14TruthTableCare11LoadIndicesEj, ptr @_ZN5Ttopt18TruthTableLevelTSM11BDDBuildOneEii, ptr @_ZN5Ttopt14TruthTableCare15BDDBuildStartupEv, ptr @_ZN5Ttopt10TruthTable13BDDBuildLevelEi, ptr @_ZN5Ttopt18TruthTableLevelTSM8BDDBuildEv, ptr @_ZN5Ttopt18TruthTableLevelTSM10BDDRebuildEi, ptr @_ZN5Ttopt14TruthTableCare4SwapEi, ptr @_ZN5Ttopt14TruthTableCare7BDDSwapEi, ptr @_ZN5Ttopt10TruthTable14BDDGenerateAigEP10Gia_Man_t_P10Vec_Int_t_, ptr @_ZN5Ttopt18TruthTableLevelTSM17BDDRebuildByMergeEi, ptr @_ZN5Ttopt14TruthTableCare8OptimizeEv] }, comdat, align 8
@_ZTIN5Ttopt18TruthTableLevelTSME = linkonce_odr constant { ptr, ptr, ptr } { ptr getelementptr inbounds (ptr, ptr @_ZTVN10__cxxabiv120__si_class_type_infoE, i64 2), ptr @_ZTSN5Ttopt18TruthTableLevelTSME, ptr @_ZTIN5Ttopt14TruthTableCareE }, comdat, align 8
@_ZTSN5Ttopt18TruthTableLevelTSME = linkonce_odr constant [29 x i8] c"N5Ttopt18TruthTableLevelTSME\00", comdat, align 1
@_ZTIN5Ttopt14TruthTableCareE = linkonce_odr constant { ptr, ptr, ptr } { ptr getelementptr inbounds (ptr, ptr @_ZTVN10__cxxabiv120__si_class_type_infoE, i64 2), ptr @_ZTSN5Ttopt14TruthTableCareE, ptr @_ZTIN5Ttopt17TruthTableRewriteE }, comdat, align 8
@_ZTSN5Ttopt14TruthTableCareE = linkonce_odr constant [25 x i8] c"N5Ttopt14TruthTableCareE\00", comdat, align 1
@_ZTIN5Ttopt17TruthTableRewriteE = linkonce_odr constant { ptr, ptr, ptr } { ptr getelementptr inbounds (ptr, ptr @_ZTVN10__cxxabiv120__si_class_type_infoE, i64 2), ptr @_ZTSN5Ttopt17TruthTableRewriteE, ptr @_ZTIN5Ttopt10TruthTableE }, comdat, align 8
@_ZTSN5Ttopt17TruthTableRewriteE = linkonce_odr constant [28 x i8] c"N5Ttopt17TruthTableRewriteE\00", comdat, align 1
@_ZTVN5Ttopt14TruthTableCareE = linkonce_odr unnamed_addr constant { [16 x ptr] } { [16 x ptr] [ptr null, ptr @_ZTIN5Ttopt14TruthTableCareE, ptr @_ZN5Ttopt14TruthTableCare4SaveEj, ptr @_ZN5Ttopt14TruthTableCare4LoadEj, ptr @_ZN5Ttopt14TruthTableCare11SaveIndicesEj, ptr @_ZN5Ttopt14TruthTableCare11LoadIndicesEj, ptr @_ZN5Ttopt14TruthTableCare11BDDBuildOneEii, ptr @_ZN5Ttopt14TruthTableCare15BDDBuildStartupEv, ptr @_ZN5Ttopt10TruthTable13BDDBuildLevelEi, ptr @_ZN5Ttopt10TruthTable8BDDBuildEv, ptr @_ZN5Ttopt14TruthTableCare10BDDRebuildEi, ptr @_ZN5Ttopt14TruthTableCare4SwapEi, ptr @_ZN5Ttopt14TruthTableCare7BDDSwapEi, ptr @_ZN5Ttopt10TruthTable14BDDGenerateAigEP10Gia_Man_t_P10Vec_Int_t_, ptr @_ZN5Ttopt14TruthTableCare17BDDRebuildByMergeEi, ptr @_ZN5Ttopt14TruthTableCare8OptimizeEv] }, comdat, align 8
@_ZTVN5Ttopt17TruthTableRewriteE = linkonce_odr unnamed_addr constant { [14 x ptr] } { [14 x ptr] [ptr null, ptr @_ZTIN5Ttopt17TruthTableRewriteE, ptr @_ZN5Ttopt10TruthTable4SaveEj, ptr @_ZN5Ttopt10TruthTable4LoadEj, ptr @_ZN5Ttopt10TruthTable11SaveIndicesEj, ptr @_ZN5Ttopt10TruthTable11LoadIndicesEj, ptr @_ZN5Ttopt10TruthTable11BDDBuildOneEii, ptr @_ZN5Ttopt10TruthTable15BDDBuildStartupEv, ptr @_ZN5Ttopt10TruthTable13BDDBuildLevelEi, ptr @_ZN5Ttopt10TruthTable8BDDBuildEv, ptr @_ZN5Ttopt10TruthTable10BDDRebuildEi, ptr @_ZN5Ttopt10TruthTable4SwapEi, ptr @_ZN5Ttopt10TruthTable7BDDSwapEi, ptr @_ZN5Ttopt10TruthTable14BDDGenerateAigEP10Gia_Man_t_P10Vec_Int_t_] }, comdat, align 8
@.str.11 = private unnamed_addr constant [24 x i8] c"vector::_M_range_insert\00", align 1

; Function Attrs: mustprogress nounwind uwtable
define ptr @Gia_ManTtopt(ptr noundef %0, i32 noundef %1, i32 noundef %2, i32 noundef %3) #0 {
  %5 = alloca ptr, align 8
  %6 = alloca i32, align 4
  %7 = alloca i32, align 4
  %8 = alloca i32, align 4
  %9 = alloca ptr, align 8
  %10 = alloca ptr, align 8
  %11 = alloca ptr, align 8
  %12 = alloca i64, align 8
  %13 = alloca ptr, align 8
  %14 = alloca i32, align 4
  %15 = alloca i32, align 4
  %16 = alloca i32, align 4
  %17 = alloca i32, align 4
  %18 = alloca %"class.Ttopt::TruthTableReo", align 8
  %19 = alloca %"class.Ttopt::TruthTable", align 8
  %20 = alloca %"class.std::vector.5", align 8
  store ptr %0, ptr %5, align 8, !tbaa !3
  store i32 %1, ptr %6, align 4, !tbaa !8
  store i32 %2, ptr %7, align 4, !tbaa !8
  store i32 %3, ptr %8, align 4, !tbaa !8
  call void @llvm.lifetime.start.p0(i64 8, ptr %9) #18
  call void @llvm.lifetime.start.p0(i64 8, ptr %10) #18
  call void @llvm.lifetime.start.p0(i64 8, ptr %11) #18
  call void @llvm.lifetime.start.p0(i64 8, ptr %12) #18
  call void @llvm.lifetime.start.p0(i64 8, ptr %13) #18
  call void @llvm.lifetime.start.p0(i64 4, ptr %14) #18
  call void @llvm.lifetime.start.p0(i64 4, ptr %15) #18
  call void @llvm.lifetime.start.p0(i64 4, ptr %16) #18
  call void @llvm.lifetime.start.p0(i64 4, ptr %17) #18
  %21 = load ptr, ptr %5, align 8, !tbaa !3
  %22 = call i32 @Gia_ManLevelNum(ptr noundef %21)
  %23 = load ptr, ptr %5, align 8, !tbaa !3
  %24 = call noundef i32 @_ZL13Gia_ManObjNumP10Gia_Man_t_(ptr noundef %23)
  %25 = call ptr @Gia_ManStart(i32 noundef %24)
  store ptr %25, ptr %9, align 8, !tbaa !3
  %26 = load ptr, ptr %5, align 8, !tbaa !3
  %27 = getelementptr inbounds nuw %struct.Gia_Man_t_, ptr %26, i32 0, i32 0
  %28 = load ptr, ptr %27, align 8, !tbaa !10
  %29 = call noundef ptr @_ZL14Abc_UtilStrsavPc(ptr noundef %28)
  %30 = load ptr, ptr %9, align 8, !tbaa !3
  %31 = getelementptr inbounds nuw %struct.Gia_Man_t_, ptr %30, i32 0, i32 0
  store ptr %29, ptr %31, align 8, !tbaa !10
  %32 = load ptr, ptr %5, align 8, !tbaa !3
  %33 = getelementptr inbounds nuw %struct.Gia_Man_t_, ptr %32, i32 0, i32 1
  %34 = load ptr, ptr %33, align 8, !tbaa !30
  %35 = call noundef ptr @_ZL14Abc_UtilStrsavPc(ptr noundef %34)
  %36 = load ptr, ptr %9, align 8, !tbaa !3
  %37 = getelementptr inbounds nuw %struct.Gia_Man_t_, ptr %36, i32 0, i32 1
  store ptr %35, ptr %37, align 8, !tbaa !30
  store i32 0, ptr %16, align 4, !tbaa !8
  br label %38

38:                                               ; preds = %55, %4
  %39 = load i32, ptr %16, align 4, !tbaa !8
  %40 = load ptr, ptr %5, align 8, !tbaa !3
  %41 = getelementptr inbounds nuw %struct.Gia_Man_t_, ptr %40, i32 0, i32 11
  %42 = load ptr, ptr %41, align 8, !tbaa !31
  %43 = call noundef i32 @_ZL11Vec_IntSizeP10Vec_Int_t_(ptr noundef %42)
  %44 = icmp slt i32 %39, %43
  br i1 %44, label %45, label %50

45:                                               ; preds = %38
  %46 = load ptr, ptr %5, align 8, !tbaa !3
  %47 = load i32, ptr %16, align 4, !tbaa !8
  %48 = call noundef ptr @_ZL9Gia_ManCiP10Gia_Man_t_i(ptr noundef %46, i32 noundef %47)
  store ptr %48, ptr %10, align 8, !tbaa !32
  %49 = icmp ne ptr %48, null
  br label %50

50:                                               ; preds = %45, %38
  %51 = phi i1 [ false, %38 ], [ %49, %45 ]
  br i1 %51, label %52, label %58

52:                                               ; preds = %50
  %53 = load ptr, ptr %9, align 8, !tbaa !3
  %54 = call noundef i32 @_ZL15Gia_ManAppendCiP10Gia_Man_t_(ptr noundef %53)
  br label %55

55:                                               ; preds = %52
  %56 = load i32, ptr %16, align 4, !tbaa !8
  %57 = add nsw i32 %56, 1
  store i32 %57, ptr %16, align 4, !tbaa !8
  br label %38, !llvm.loop !33

58:                                               ; preds = %50
  %59 = load ptr, ptr %5, align 8, !tbaa !3
  %60 = load i32, ptr %6, align 4, !tbaa !8
  call void @Gia_ObjComputeTruthTableStart(ptr noundef %59, i32 noundef %60)
  %61 = load ptr, ptr %9, align 8, !tbaa !3
  call void @Gia_ManHashStart(ptr noundef %61)
  store i32 0, ptr %15, align 4, !tbaa !8
  br label %62

62:                                               ; preds = %183, %58
  %63 = load i32, ptr %15, align 4, !tbaa !8
  %64 = load ptr, ptr %5, align 8, !tbaa !3
  %65 = call noundef i32 @_ZL12Gia_ManCoNumP10Gia_Man_t_(ptr noundef %64)
  %66 = icmp slt i32 %63, %65
  br i1 %66, label %67, label %187

67:                                               ; preds = %62
  %68 = load ptr, ptr %5, align 8, !tbaa !3
  %69 = load i32, ptr %15, align 4, !tbaa !8
  %70 = load i32, ptr %7, align 4, !tbaa !8
  %71 = call ptr @Gia_ManCollectSuppNew(ptr noundef %68, i32 noundef %69, i32 noundef %70)
  store ptr %71, ptr %11, align 8, !tbaa !35
  %72 = load ptr, ptr %11, align 8, !tbaa !35
  %73 = call noundef i32 @_ZL11Vec_IntSizeP10Vec_Int_t_(ptr noundef %72)
  store i32 %73, ptr %17, align 4, !tbaa !8
  call void @llvm.lifetime.start.p0(i64 272, ptr %18) #18
  %74 = load i32, ptr %17, align 4, !tbaa !8
  %75 = load i32, ptr %7, align 4, !tbaa !8
  call void @_ZN5Ttopt13TruthTableReoC2Eii(ptr noundef nonnull align 8 dereferenceable(272) %18, i32 noundef %74, i32 noundef %75)
  store i32 0, ptr %16, align 4, !tbaa !8
  br label %76

76:                                               ; preds = %168, %67
  %77 = load i32, ptr %16, align 4, !tbaa !8
  %78 = load i32, ptr %7, align 4, !tbaa !8
  %79 = icmp slt i32 %77, %78
  br i1 %79, label %80, label %171

80:                                               ; preds = %76
  %81 = load ptr, ptr %5, align 8, !tbaa !3
  %82 = load i32, ptr %15, align 4, !tbaa !8
  %83 = load i32, ptr %16, align 4, !tbaa !8
  %84 = add nsw i32 %82, %83
  %85 = call noundef ptr @_ZL9Gia_ManCoP10Gia_Man_t_i(ptr noundef %81, i32 noundef %84)
  store ptr %85, ptr %10, align 8, !tbaa !32
  %86 = load ptr, ptr %5, align 8, !tbaa !3
  %87 = load ptr, ptr %10, align 8, !tbaa !32
  %88 = call noundef ptr @_ZL13Gia_ObjFanin0P10Gia_Obj_t_(ptr noundef %87)
  %89 = load ptr, ptr %11, align 8, !tbaa !35
  %90 = call ptr @Gia_ObjComputeTruthTableCut(ptr noundef %86, ptr noundef %88, ptr noundef %89)
  store ptr %90, ptr %13, align 8, !tbaa !36
  %91 = load i32, ptr %17, align 4, !tbaa !8
  %92 = icmp sge i32 %91, 6
  br i1 %92, label %93, label %131

93:                                               ; preds = %80
  store i32 0, ptr %14, align 4, !tbaa !8
  br label %94

94:                                               ; preds = %127, %93
  %95 = load i32, ptr %14, align 4, !tbaa !8
  %96 = getelementptr inbounds nuw %"class.Ttopt::TruthTable", ptr %18, i32 0, i32 2
  %97 = load i32, ptr %96, align 4, !tbaa !38
  %98 = icmp slt i32 %95, %97
  br i1 %98, label %99, label %130

99:                                               ; preds = %94
  %100 = load ptr, ptr %10, align 8, !tbaa !32
  %101 = call noundef i32 @_ZL14Gia_ObjFaninC0P10Gia_Obj_t_(ptr noundef %100)
  %102 = icmp ne i32 %101, 0
  br i1 %102, label %103, label %110

103:                                              ; preds = %99
  %104 = load ptr, ptr %13, align 8, !tbaa !36
  %105 = load i32, ptr %14, align 4, !tbaa !8
  %106 = sext i32 %105 to i64
  %107 = getelementptr inbounds i64, ptr %104, i64 %106
  %108 = load i64, ptr %107, align 8, !tbaa !63
  %109 = xor i64 %108, -1
  br label %116

110:                                              ; preds = %99
  %111 = load ptr, ptr %13, align 8, !tbaa !36
  %112 = load i32, ptr %14, align 4, !tbaa !8
  %113 = sext i32 %112 to i64
  %114 = getelementptr inbounds i64, ptr %111, i64 %113
  %115 = load i64, ptr %114, align 8, !tbaa !63
  br label %116

116:                                              ; preds = %110, %103
  %117 = phi i64 [ %109, %103 ], [ %115, %110 ]
  %118 = getelementptr inbounds nuw %"class.Ttopt::TruthTable", ptr %18, i32 0, i32 5
  %119 = load i32, ptr %14, align 4, !tbaa !8
  %120 = getelementptr inbounds nuw %"class.Ttopt::TruthTable", ptr %18, i32 0, i32 2
  %121 = load i32, ptr %120, align 4, !tbaa !38
  %122 = load i32, ptr %16, align 4, !tbaa !8
  %123 = mul nsw i32 %121, %122
  %124 = add nsw i32 %119, %123
  %125 = sext i32 %124 to i64
  %126 = call noundef nonnull align 8 dereferenceable(8) ptr @_ZNSt6vectorImSaImEEixEm(ptr noundef nonnull align 8 dereferenceable(24) %118, i64 noundef %125) #18
  store i64 %117, ptr %126, align 8, !tbaa !63
  br label %127

127:                                              ; preds = %116
  %128 = load i32, ptr %14, align 4, !tbaa !8
  %129 = add nsw i32 %128, 1
  store i32 %129, ptr %14, align 4, !tbaa !8
  br label %94, !llvm.loop !64

130:                                              ; preds = %94
  br label %167

131:                                              ; preds = %80
  %132 = load i32, ptr %16, align 4, !tbaa !8
  %133 = load i32, ptr %17, align 4, !tbaa !8
  %134 = shl i32 1, %133
  %135 = mul nsw i32 %132, %134
  store i32 %135, ptr %14, align 4, !tbaa !8
  %136 = load ptr, ptr %10, align 8, !tbaa !32
  %137 = call noundef i32 @_ZL14Gia_ObjFaninC0P10Gia_Obj_t_(ptr noundef %136)
  %138 = icmp ne i32 %137, 0
  br i1 %138, label %139, label %144

139:                                              ; preds = %131
  %140 = load ptr, ptr %13, align 8, !tbaa !36
  %141 = getelementptr inbounds i64, ptr %140, i64 0
  %142 = load i64, ptr %141, align 8, !tbaa !63
  %143 = xor i64 %142, -1
  br label %148

144:                                              ; preds = %131
  %145 = load ptr, ptr %13, align 8, !tbaa !36
  %146 = getelementptr inbounds i64, ptr %145, i64 0
  %147 = load i64, ptr %146, align 8, !tbaa !63
  br label %148

148:                                              ; preds = %144, %139
  %149 = phi i64 [ %143, %139 ], [ %147, %144 ]
  %150 = load i32, ptr %17, align 4, !tbaa !8
  %151 = sext i32 %150 to i64
  %152 = getelementptr inbounds [7 x i64], ptr @_ZN5Ttopt10TruthTable4onesE, i64 0, i64 %151
  %153 = load i64, ptr %152, align 8, !tbaa !63
  %154 = and i64 %149, %153
  store i64 %154, ptr %12, align 8, !tbaa !63
  %155 = load i64, ptr %12, align 8, !tbaa !63
  %156 = load i32, ptr %14, align 4, !tbaa !8
  %157 = srem i32 %156, 64
  %158 = zext i32 %157 to i64
  %159 = shl i64 %155, %158
  %160 = getelementptr inbounds nuw %"class.Ttopt::TruthTable", ptr %18, i32 0, i32 5
  %161 = load i32, ptr %14, align 4, !tbaa !8
  %162 = sdiv i32 %161, 64
  %163 = sext i32 %162 to i64
  %164 = call noundef nonnull align 8 dereferenceable(8) ptr @_ZNSt6vectorImSaImEEixEm(ptr noundef nonnull align 8 dereferenceable(24) %160, i64 noundef %163) #18
  %165 = load i64, ptr %164, align 8, !tbaa !63
  %166 = or i64 %165, %159
  store i64 %166, ptr %164, align 8, !tbaa !63
  br label %167

167:                                              ; preds = %148, %130
  br label %168

168:                                              ; preds = %167
  %169 = load i32, ptr %16, align 4, !tbaa !8
  %170 = add nsw i32 %169, 1
  store i32 %170, ptr %16, align 4, !tbaa !8
  br label %76, !llvm.loop !65

171:                                              ; preds = %76
  %172 = load i32, ptr %8, align 4, !tbaa !8
  %173 = call noundef i32 @_ZN5Ttopt10TruthTable13RandomSiftReoEi(ptr noundef nonnull align 8 dereferenceable(216) %18, i32 noundef %172)
  call void @llvm.lifetime.start.p0(i64 216, ptr %19) #18
  %174 = load i32, ptr %17, align 4, !tbaa !8
  %175 = load i32, ptr %7, align 4, !tbaa !8
  call void @_ZN5Ttopt10TruthTableC2Eii(ptr noundef nonnull align 8 dereferenceable(216) %19, i32 noundef %174, i32 noundef %175)
  %176 = getelementptr inbounds nuw %"class.Ttopt::TruthTable", ptr %18, i32 0, i32 5
  %177 = getelementptr inbounds nuw %"class.Ttopt::TruthTable", ptr %19, i32 0, i32 5
  %178 = call noundef nonnull align 8 dereferenceable(24) ptr @_ZNSt6vectorImSaImEEaSERKS1_(ptr noundef nonnull align 8 dereferenceable(24) %177, ptr noundef nonnull align 8 dereferenceable(24) %176)
  %179 = getelementptr inbounds nuw %"class.Ttopt::TruthTable", ptr %18, i32 0, i32 8
  call void @_ZNSt6vectorIiSaIiEEC2ERKS1_(ptr noundef nonnull align 8 dereferenceable(24) %20, ptr noundef nonnull align 8 dereferenceable(24) %179)
  call void @_ZN5Ttopt10TruthTable3ReoESt6vectorIiSaIiEE(ptr noundef nonnull align 8 dereferenceable(216) %19, ptr noundef %20)
  call void @_ZNSt6vectorIiSaIiEED2Ev(ptr noundef nonnull align 8 dereferenceable(24) %20) #18
  %180 = load ptr, ptr %9, align 8, !tbaa !3
  %181 = load ptr, ptr %11, align 8, !tbaa !35
  call void @_ZN5Ttopt10TruthTable14BDDGenerateAigEP10Gia_Man_t_P10Vec_Int_t_(ptr noundef nonnull align 8 dereferenceable(216) %19, ptr noundef %180, ptr noundef %181)
  %182 = load ptr, ptr %11, align 8, !tbaa !35
  call void @_ZL11Vec_IntFreeP10Vec_Int_t_(ptr noundef %182)
  call void @_ZN5Ttopt10TruthTableD2Ev(ptr noundef nonnull align 8 dereferenceable(216) %19) #18
  call void @llvm.lifetime.end.p0(i64 216, ptr %19) #18
  call void @_ZN5Ttopt13TruthTableReoD2Ev(ptr noundef nonnull align 8 dereferenceable(272) %18) #18
  call void @llvm.lifetime.end.p0(i64 272, ptr %18) #18
  br label %183

183:                                              ; preds = %171
  %184 = load i32, ptr %7, align 4, !tbaa !8
  %185 = load i32, ptr %15, align 4, !tbaa !8
  %186 = add nsw i32 %185, %184
  store i32 %186, ptr %15, align 4, !tbaa !8
  br label %62, !llvm.loop !66

187:                                              ; preds = %62
  %188 = load ptr, ptr %5, align 8, !tbaa !3
  call void @Gia_ObjComputeTruthTableStop(ptr noundef %188)
  %189 = load ptr, ptr %9, align 8, !tbaa !3
  call void @Gia_ManHashStop(ptr noundef %189)
  %190 = load ptr, ptr %9, align 8, !tbaa !3
  %191 = load ptr, ptr %5, align 8, !tbaa !3
  %192 = call noundef i32 @_ZL13Gia_ManRegNumP10Gia_Man_t_(ptr noundef %191)
  call void @Gia_ManSetRegNum(ptr noundef %190, i32 noundef %192)
  %193 = load ptr, ptr %9, align 8, !tbaa !3
  call void @llvm.lifetime.end.p0(i64 4, ptr %17) #18
  call void @llvm.lifetime.end.p0(i64 4, ptr %16) #18
  call void @llvm.lifetime.end.p0(i64 4, ptr %15) #18
  call void @llvm.lifetime.end.p0(i64 4, ptr %14) #18
  call void @llvm.lifetime.end.p0(i64 8, ptr %13) #18
  call void @llvm.lifetime.end.p0(i64 8, ptr %12) #18
  call void @llvm.lifetime.end.p0(i64 8, ptr %11) #18
  call void @llvm.lifetime.end.p0(i64 8, ptr %10) #18
  call void @llvm.lifetime.end.p0(i64 8, ptr %9) #18
  ret ptr %193
}

; Function Attrs: nocallback nofree nosync nounwind willreturn memory(argmem: readwrite)
declare void @llvm.lifetime.start.p0(i64 immarg, ptr captures(none)) #1

declare i32 @Gia_ManLevelNum(ptr noundef) #2

declare ptr @Gia_ManStart(i32 noundef) #2

; Function Attrs: inlinehint mustprogress nounwind uwtable
define internal noundef i32 @_ZL13Gia_ManObjNumP10Gia_Man_t_(ptr noundef %0) #3 {
  %2 = alloca ptr, align 8
  store ptr %0, ptr %2, align 8, !tbaa !3
  %3 = load ptr, ptr %2, align 8, !tbaa !3
  %4 = getelementptr inbounds nuw %struct.Gia_Man_t_, ptr %3, i32 0, i32 4
  %5 = load i32, ptr %4, align 8, !tbaa !67
  ret i32 %5
}

; Function Attrs: inlinehint mustprogress nounwind uwtable
define internal noundef ptr @_ZL14Abc_UtilStrsavPc(ptr noundef %0) #3 {
  %2 = alloca ptr, align 8
  store ptr %0, ptr %2, align 8, !tbaa !68
  %3 = load ptr, ptr %2, align 8, !tbaa !68
  %4 = icmp ne ptr %3, null
  br i1 %4, label %5, label %13

5:                                                ; preds = %1
  %6 = load ptr, ptr %2, align 8, !tbaa !68
  %7 = call i64 @strlen(ptr noundef %6) #19
  %8 = add i64 %7, 1
  %9 = mul i64 1, %8
  %10 = call noalias ptr @malloc(i64 noundef %9) #20
  %11 = load ptr, ptr %2, align 8, !tbaa !68
  %12 = call ptr @strcpy(ptr noundef %10, ptr noundef %11) #18
  br label %14

13:                                               ; preds = %1
  br label %14

14:                                               ; preds = %13, %5
  %15 = phi ptr [ %12, %5 ], [ null, %13 ]
  ret ptr %15
}

; Function Attrs: inlinehint mustprogress nounwind uwtable
define internal noundef i32 @_ZL11Vec_IntSizeP10Vec_Int_t_(ptr noundef %0) #3 {
  %2 = alloca ptr, align 8
  store ptr %0, ptr %2, align 8, !tbaa !35
  %3 = load ptr, ptr %2, align 8, !tbaa !35
  %4 = getelementptr inbounds nuw %struct.Vec_Int_t_, ptr %3, i32 0, i32 1
  %5 = load i32, ptr %4, align 4, !tbaa !69
  ret i32 %5
}

; Function Attrs: inlinehint mustprogress nounwind uwtable
define internal noundef ptr @_ZL9Gia_ManCiP10Gia_Man_t_i(ptr noundef %0, i32 noundef %1) #3 {
  %3 = alloca ptr, align 8
  %4 = alloca i32, align 4
  store ptr %0, ptr %3, align 8, !tbaa !3
  store i32 %1, ptr %4, align 4, !tbaa !8
  %5 = load ptr, ptr %3, align 8, !tbaa !3
  %6 = load ptr, ptr %3, align 8, !tbaa !3
  %7 = getelementptr inbounds nuw %struct.Gia_Man_t_, ptr %6, i32 0, i32 11
  %8 = load ptr, ptr %7, align 8, !tbaa !31
  %9 = load i32, ptr %4, align 4, !tbaa !8
  %10 = call noundef i32 @_ZL12Vec_IntEntryP10Vec_Int_t_i(ptr noundef %8, i32 noundef %9)
  %11 = call noundef ptr @_ZL10Gia_ManObjP10Gia_Man_t_i(ptr noundef %5, i32 noundef %10)
  ret ptr %11
}

; Function Attrs: inlinehint mustprogress nounwind uwtable
define internal noundef i32 @_ZL15Gia_ManAppendCiP10Gia_Man_t_(ptr noundef %0) #3 {
  %2 = alloca ptr, align 8
  %3 = alloca ptr, align 8
  store ptr %0, ptr %2, align 8, !tbaa !3
  call void @llvm.lifetime.start.p0(i64 8, ptr %3) #18
  %4 = load ptr, ptr %2, align 8, !tbaa !3
  %5 = call noundef ptr @_ZL16Gia_ManAppendObjP10Gia_Man_t_(ptr noundef %4)
  store ptr %5, ptr %3, align 8, !tbaa !32
  %6 = load ptr, ptr %3, align 8, !tbaa !32
  %7 = load i64, ptr %6, align 4
  %8 = and i64 %7, -2147483649
  %9 = or i64 %8, 2147483648
  store i64 %9, ptr %6, align 4
  %10 = load ptr, ptr %3, align 8, !tbaa !32
  %11 = load i64, ptr %10, align 4
  %12 = and i64 %11, -536870912
  %13 = or i64 %12, 536870911
  store i64 %13, ptr %10, align 4
  %14 = load ptr, ptr %2, align 8, !tbaa !3
  %15 = getelementptr inbounds nuw %struct.Gia_Man_t_, ptr %14, i32 0, i32 11
  %16 = load ptr, ptr %15, align 8, !tbaa !31
  %17 = call noundef i32 @_ZL11Vec_IntSizeP10Vec_Int_t_(ptr noundef %16)
  %18 = load ptr, ptr %3, align 8, !tbaa !32
  %19 = zext i32 %17 to i64
  %20 = load i64, ptr %18, align 4
  %21 = and i64 %19, 536870911
  %22 = shl i64 %21, 32
  %23 = and i64 %20, -2305843004918726657
  %24 = or i64 %23, %22
  store i64 %24, ptr %18, align 4
  %25 = load ptr, ptr %2, align 8, !tbaa !3
  %26 = getelementptr inbounds nuw %struct.Gia_Man_t_, ptr %25, i32 0, i32 11
  %27 = load ptr, ptr %26, align 8, !tbaa !31
  %28 = load ptr, ptr %2, align 8, !tbaa !3
  %29 = load ptr, ptr %3, align 8, !tbaa !32
  %30 = call noundef i32 @_ZL9Gia_ObjIdP10Gia_Man_t_P10Gia_Obj_t_(ptr noundef %28, ptr noundef %29)
  call void @_ZL11Vec_IntPushP10Vec_Int_t_i(ptr noundef %27, i32 noundef %30)
  %31 = load ptr, ptr %2, align 8, !tbaa !3
  %32 = load ptr, ptr %3, align 8, !tbaa !32
  %33 = call noundef i32 @_ZL9Gia_ObjIdP10Gia_Man_t_P10Gia_Obj_t_(ptr noundef %31, ptr noundef %32)
  %34 = shl i32 %33, 1
  call void @llvm.lifetime.end.p0(i64 8, ptr %3) #18
  ret i32 %34
}

declare void @Gia_ObjComputeTruthTableStart(ptr noundef, i32 noundef) #2

declare void @Gia_ManHashStart(ptr noundef) #2

; Function Attrs: inlinehint mustprogress nounwind uwtable
define internal noundef i32 @_ZL12Gia_ManCoNumP10Gia_Man_t_(ptr noundef %0) #3 {
  %2 = alloca ptr, align 8
  store ptr %0, ptr %2, align 8, !tbaa !3
  %3 = load ptr, ptr %2, align 8, !tbaa !3
  %4 = getelementptr inbounds nuw %struct.Gia_Man_t_, ptr %3, i32 0, i32 12
  %5 = load ptr, ptr %4, align 8, !tbaa !70
  %6 = call noundef i32 @_ZL11Vec_IntSizeP10Vec_Int_t_(ptr noundef %5)
  ret i32 %6
}

declare ptr @Gia_ManCollectSuppNew(ptr noundef, i32 noundef, i32 noundef) #2

; Function Attrs: mustprogress nounwind uwtable
define linkonce_odr void @_ZN5Ttopt13TruthTableReoC2Eii(ptr noundef nonnull align 8 dereferenceable(272) %0, i32 noundef %1, i32 noundef %2) unnamed_addr #0 comdat align 2 {
  %4 = alloca ptr, align 8
  %5 = alloca i32, align 4
  %6 = alloca i32, align 4
  store ptr %0, ptr %4, align 8, !tbaa !71
  store i32 %1, ptr %5, align 4, !tbaa !8
  store i32 %2, ptr %6, align 4, !tbaa !8
  %7 = load ptr, ptr %4, align 8
  %8 = load i32, ptr %5, align 4, !tbaa !8
  %9 = load i32, ptr %6, align 4, !tbaa !8
  call void @_ZN5Ttopt10TruthTableC2Eii(ptr noundef nonnull align 8 dereferenceable(216) %7, i32 noundef %8, i32 noundef %9)
  store ptr getelementptr inbounds inrange(-16, 96) ({ [14 x ptr] }, ptr @_ZTVN5Ttopt13TruthTableReoE, i32 0, i32 0, i32 2), ptr %7, align 8, !tbaa !73
  %10 = getelementptr inbounds nuw %"class.Ttopt::TruthTableReo", ptr %7, i32 0, i32 2
  call void @_ZNSt6vectorIS_IiSaIiEESaIS1_EEC2Ev(ptr noundef nonnull align 8 dereferenceable(24) %10) #18
  %11 = getelementptr inbounds nuw %"class.Ttopt::TruthTableReo", ptr %7, i32 0, i32 3
  call void @_ZNSt6vectorIS_IS_IiSaIiEESaIS1_EESaIS3_EEC2Ev(ptr noundef nonnull align 8 dereferenceable(24) %11) #18
  %12 = getelementptr inbounds nuw %"class.Ttopt::TruthTableReo", ptr %7, i32 0, i32 1
  store i8 0, ptr %12, align 8, !tbaa !75
  ret void
}

; Function Attrs: inlinehint mustprogress nounwind uwtable
define internal noundef ptr @_ZL9Gia_ManCoP10Gia_Man_t_i(ptr noundef %0, i32 noundef %1) #3 {
  %3 = alloca ptr, align 8
  %4 = alloca i32, align 4
  store ptr %0, ptr %3, align 8, !tbaa !3
  store i32 %1, ptr %4, align 4, !tbaa !8
  %5 = load ptr, ptr %3, align 8, !tbaa !3
  %6 = load ptr, ptr %3, align 8, !tbaa !3
  %7 = getelementptr inbounds nuw %struct.Gia_Man_t_, ptr %6, i32 0, i32 12
  %8 = load ptr, ptr %7, align 8, !tbaa !70
  %9 = load i32, ptr %4, align 4, !tbaa !8
  %10 = call noundef i32 @_ZL12Vec_IntEntryP10Vec_Int_t_i(ptr noundef %8, i32 noundef %9)
  %11 = call noundef ptr @_ZL10Gia_ManObjP10Gia_Man_t_i(ptr noundef %5, i32 noundef %10)
  ret ptr %11
}

declare ptr @Gia_ObjComputeTruthTableCut(ptr noundef, ptr noundef, ptr noundef) #2

; Function Attrs: inlinehint mustprogress nounwind uwtable
define internal noundef ptr @_ZL13Gia_ObjFanin0P10Gia_Obj_t_(ptr noundef %0) #3 {
  %2 = alloca ptr, align 8
  store ptr %0, ptr %2, align 8, !tbaa !32
  %3 = load ptr, ptr %2, align 8, !tbaa !32
  %4 = load ptr, ptr %2, align 8, !tbaa !32
  %5 = load i64, ptr %4, align 4
  %6 = and i64 %5, 536870911
  %7 = trunc i64 %6 to i32
  %8 = sext i32 %7 to i64
  %9 = sub i64 0, %8
  %10 = getelementptr inbounds %struct.Gia_Obj_t_, ptr %3, i64 %9
  ret ptr %10
}

; Function Attrs: inlinehint mustprogress nounwind uwtable
define internal noundef i32 @_ZL14Gia_ObjFaninC0P10Gia_Obj_t_(ptr noundef %0) #3 {
  %2 = alloca ptr, align 8
  store ptr %0, ptr %2, align 8, !tbaa !32
  %3 = load ptr, ptr %2, align 8, !tbaa !32
  %4 = load i64, ptr %3, align 4
  %5 = lshr i64 %4, 29
  %6 = and i64 %5, 1
  %7 = trunc i64 %6 to i32
  ret i32 %7
}

; Function Attrs: mustprogress nounwind uwtable
define linkonce_odr noundef nonnull align 8 dereferenceable(8) ptr @_ZNSt6vectorImSaImEEixEm(ptr noundef nonnull align 8 dereferenceable(24) %0, i64 noundef %1) #0 comdat align 2 {
  %3 = alloca ptr, align 8
  %4 = alloca i64, align 8
  store ptr %0, ptr %3, align 8, !tbaa !78
  store i64 %1, ptr %4, align 8, !tbaa !63
  %5 = load ptr, ptr %3, align 8
  %6 = getelementptr inbounds nuw %"struct.std::_Vector_base", ptr %5, i32 0, i32 0
  %7 = getelementptr inbounds nuw %"struct.std::_Vector_base<unsigned long, std::allocator<unsigned long>>::_Vector_impl_data", ptr %6, i32 0, i32 0
  %8 = load ptr, ptr %7, align 8, !tbaa !79
  %9 = load i64, ptr %4, align 8, !tbaa !63
  %10 = getelementptr inbounds nuw i64, ptr %8, i64 %9
  ret ptr %10
}

; Function Attrs: mustprogress nounwind uwtable
define linkonce_odr noundef i32 @_ZN5Ttopt10TruthTable13RandomSiftReoEi(ptr noundef nonnull align 8 dereferenceable(216) %0, i32 noundef %1) #0 comdat align 2 {
  %3 = alloca ptr, align 8
  %4 = alloca i32, align 4
  %5 = alloca i32, align 4
  %6 = alloca i32, align 4
  %7 = alloca %"class.std::vector.5", align 8
  %8 = alloca %"class.std::allocator.7", align 1
  %9 = alloca i32, align 4
  %10 = alloca i32, align 4
  %11 = alloca %"class.std::vector.5", align 8
  %12 = alloca i32, align 4
  store ptr %0, ptr %3, align 8, !tbaa !80
  store i32 %1, ptr %4, align 4, !tbaa !8
  %13 = load ptr, ptr %3, align 8
  call void @llvm.lifetime.start.p0(i64 4, ptr %5) #18
  %14 = call noundef i32 @_ZN5Ttopt10TruthTable7SiftReoEv(ptr noundef nonnull align 8 dereferenceable(216) %13)
  store i32 %14, ptr %5, align 4, !tbaa !8
  %15 = load ptr, ptr %13, align 8, !tbaa !73
  %16 = getelementptr inbounds ptr, ptr %15, i64 0
  %17 = load ptr, ptr %16, align 8
  call void %17(ptr noundef nonnull align 8 dereferenceable(216) %13, i32 noundef 2)
  call void @llvm.lifetime.start.p0(i64 4, ptr %6) #18
  store i32 0, ptr %6, align 4, !tbaa !8
  br label %18

18:                                               ; preds = %71, %2
  %19 = load i32, ptr %6, align 4, !tbaa !8
  %20 = load i32, ptr %4, align 4, !tbaa !8
  %21 = icmp slt i32 %19, %20
  br i1 %21, label %23, label %22

22:                                               ; preds = %18
  call void @llvm.lifetime.end.p0(i64 4, ptr %6) #18
  br label %74

23:                                               ; preds = %18
  call void @llvm.lifetime.start.p0(i64 24, ptr %7) #18
  %24 = getelementptr inbounds nuw %"class.Ttopt::TruthTable", ptr %13, i32 0, i32 1
  %25 = load i32, ptr %24, align 8, !tbaa !82
  %26 = sext i32 %25 to i64
  call void @llvm.lifetime.start.p0(i64 1, ptr %8) #18
  call void @_ZNSaIiEC2Ev(ptr noundef nonnull align 1 dereferenceable(1) %8) #18
  call void @_ZNSt6vectorIiSaIiEEC2EmRKS0_(ptr noundef nonnull align 8 dereferenceable(24) %7, i64 noundef %26, ptr noundef nonnull align 1 dereferenceable(1) %8)
  call void @_ZNSt15__new_allocatorIiED2Ev(ptr noundef nonnull align 1 dereferenceable(1) %8) #18
  call void @llvm.lifetime.end.p0(i64 1, ptr %8) #18
  call void @llvm.lifetime.start.p0(i64 4, ptr %9) #18
  store i32 0, ptr %9, align 4, !tbaa !8
  br label %27

27:                                               ; preds = %37, %23
  %28 = load i32, ptr %9, align 4, !tbaa !8
  %29 = getelementptr inbounds nuw %"class.Ttopt::TruthTable", ptr %13, i32 0, i32 1
  %30 = load i32, ptr %29, align 8, !tbaa !82
  %31 = icmp slt i32 %28, %30
  br i1 %31, label %32, label %40

32:                                               ; preds = %27
  %33 = load i32, ptr %9, align 4, !tbaa !8
  %34 = load i32, ptr %9, align 4, !tbaa !8
  %35 = sext i32 %34 to i64
  %36 = call noundef nonnull align 4 dereferenceable(4) ptr @_ZNSt6vectorIiSaIiEEixEm(ptr noundef nonnull align 8 dereferenceable(24) %7, i64 noundef %35) #18
  store i32 %33, ptr %36, align 4, !tbaa !8
  br label %37

37:                                               ; preds = %32
  %38 = load i32, ptr %9, align 4, !tbaa !8
  %39 = add nsw i32 %38, 1
  store i32 %39, ptr %9, align 4, !tbaa !8
  br label %27, !llvm.loop !83

40:                                               ; preds = %27
  %41 = getelementptr inbounds nuw %"class.Ttopt::TruthTable", ptr %13, i32 0, i32 1
  %42 = load i32, ptr %41, align 8, !tbaa !82
  %43 = sub nsw i32 %42, 1
  store i32 %43, ptr %9, align 4, !tbaa !8
  br label %44

44:                                               ; preds = %57, %40
  %45 = load i32, ptr %9, align 4, !tbaa !8
  %46 = icmp sgt i32 %45, 0
  br i1 %46, label %47, label %60

47:                                               ; preds = %44
  call void @llvm.lifetime.start.p0(i64 4, ptr %10) #18
  %48 = call i32 @rand() #18
  %49 = load i32, ptr %9, align 4, !tbaa !8
  %50 = srem i32 %48, %49
  store i32 %50, ptr %10, align 4, !tbaa !8
  %51 = load i32, ptr %9, align 4, !tbaa !8
  %52 = sext i32 %51 to i64
  %53 = call noundef nonnull align 4 dereferenceable(4) ptr @_ZNSt6vectorIiSaIiEEixEm(ptr noundef nonnull align 8 dereferenceable(24) %7, i64 noundef %52) #18
  %54 = load i32, ptr %10, align 4, !tbaa !8
  %55 = sext i32 %54 to i64
  %56 = call noundef nonnull align 4 dereferenceable(4) ptr @_ZNSt6vectorIiSaIiEEixEm(ptr noundef nonnull align 8 dereferenceable(24) %7, i64 noundef %55) #18
  call void @_ZSt4swapIiENSt9enable_ifIXsr6__and_ISt6__not_ISt15__is_tuple_likeIT_EESt21is_move_constructibleIS3_ESt18is_move_assignableIS3_EEE5valueEvE4typeERS3_SC_(ptr noundef nonnull align 4 dereferenceable(4) %53, ptr noundef nonnull align 4 dereferenceable(4) %56) #18
  call void @llvm.lifetime.end.p0(i64 4, ptr %10) #18
  br label %57

57:                                               ; preds = %47
  %58 = load i32, ptr %9, align 4, !tbaa !8
  %59 = add nsw i32 %58, -1
  store i32 %59, ptr %9, align 4, !tbaa !8
  br label %44, !llvm.loop !84

60:                                               ; preds = %44
  call void @_ZNSt6vectorIiSaIiEEC2ERKS1_(ptr noundef nonnull align 8 dereferenceable(24) %11, ptr noundef nonnull align 8 dereferenceable(24) %7)
  call void @_ZN5Ttopt10TruthTable3ReoESt6vectorIiSaIiEE(ptr noundef nonnull align 8 dereferenceable(216) %13, ptr noundef %11)
  call void @_ZNSt6vectorIiSaIiEED2Ev(ptr noundef nonnull align 8 dereferenceable(24) %11) #18
  call void @llvm.lifetime.start.p0(i64 4, ptr %12) #18
  %61 = call noundef i32 @_ZN5Ttopt10TruthTable7SiftReoEv(ptr noundef nonnull align 8 dereferenceable(216) %13)
  store i32 %61, ptr %12, align 4, !tbaa !8
  %62 = load i32, ptr %5, align 4, !tbaa !8
  %63 = load i32, ptr %12, align 4, !tbaa !8
  %64 = icmp sgt i32 %62, %63
  br i1 %64, label %65, label %70

65:                                               ; preds = %60
  %66 = load i32, ptr %12, align 4, !tbaa !8
  store i32 %66, ptr %5, align 4, !tbaa !8
  %67 = load ptr, ptr %13, align 8, !tbaa !73
  %68 = getelementptr inbounds ptr, ptr %67, i64 0
  %69 = load ptr, ptr %68, align 8
  call void %69(ptr noundef nonnull align 8 dereferenceable(216) %13, i32 noundef 2)
  br label %70

70:                                               ; preds = %65, %60
  call void @llvm.lifetime.end.p0(i64 4, ptr %12) #18
  call void @llvm.lifetime.end.p0(i64 4, ptr %9) #18
  call void @_ZNSt6vectorIiSaIiEED2Ev(ptr noundef nonnull align 8 dereferenceable(24) %7) #18
  call void @llvm.lifetime.end.p0(i64 24, ptr %7) #18
  br label %71

71:                                               ; preds = %70
  %72 = load i32, ptr %6, align 4, !tbaa !8
  %73 = add nsw i32 %72, 1
  store i32 %73, ptr %6, align 4, !tbaa !8
  br label %18, !llvm.loop !85

74:                                               ; preds = %22
  %75 = load ptr, ptr %13, align 8, !tbaa !73
  %76 = getelementptr inbounds ptr, ptr %75, i64 1
  %77 = load ptr, ptr %76, align 8
  call void %77(ptr noundef nonnull align 8 dereferenceable(216) %13, i32 noundef 2)
  %78 = load i32, ptr %5, align 4, !tbaa !8
  call void @llvm.lifetime.end.p0(i64 4, ptr %5) #18
  ret i32 %78
}

; Function Attrs: mustprogress nounwind uwtable
define linkonce_odr void @_ZN5Ttopt10TruthTableC2Eii(ptr noundef nonnull align 8 dereferenceable(216) %0, i32 noundef %1, i32 noundef %2) unnamed_addr #0 comdat align 2 {
  %4 = alloca ptr, align 8
  %5 = alloca i32, align 4
  %6 = alloca i32, align 4
  %7 = alloca i32, align 4
  store ptr %0, ptr %4, align 8, !tbaa !80
  store i32 %1, ptr %5, align 4, !tbaa !8
  store i32 %2, ptr %6, align 4, !tbaa !8
  %8 = load ptr, ptr %4, align 8
  store ptr getelementptr inbounds inrange(-16, 96) ({ [14 x ptr] }, ptr @_ZTVN5Ttopt10TruthTableE, i32 0, i32 0, i32 2), ptr %8, align 8, !tbaa !73
  %9 = getelementptr inbounds nuw %"class.Ttopt::TruthTable", ptr %8, i32 0, i32 1
  %10 = load i32, ptr %5, align 4, !tbaa !8
  store i32 %10, ptr %9, align 8, !tbaa !82
  %11 = getelementptr inbounds nuw %"class.Ttopt::TruthTable", ptr %8, i32 0, i32 4
  %12 = load i32, ptr %6, align 4, !tbaa !8
  store i32 %12, ptr %11, align 4, !tbaa !86
  %13 = getelementptr inbounds nuw %"class.Ttopt::TruthTable", ptr %8, i32 0, i32 5
  call void @_ZNSt6vectorImSaImEEC2Ev(ptr noundef nonnull align 8 dereferenceable(24) %13) #18
  %14 = getelementptr inbounds nuw %"class.Ttopt::TruthTable", ptr %8, i32 0, i32 6
  call void @_ZNSt6vectorIS_IiSaIiEESaIS1_EEC2Ev(ptr noundef nonnull align 8 dereferenceable(24) %14) #18
  %15 = getelementptr inbounds nuw %"class.Ttopt::TruthTable", ptr %8, i32 0, i32 7
  call void @_ZNSt6vectorIS_IiSaIiEESaIS1_EEC2Ev(ptr noundef nonnull align 8 dereferenceable(24) %15) #18
  %16 = getelementptr inbounds nuw %"class.Ttopt::TruthTable", ptr %8, i32 0, i32 8
  call void @_ZNSt6vectorIiSaIiEEC2Ev(ptr noundef nonnull align 8 dereferenceable(24) %16) #18
  %17 = getelementptr inbounds nuw %"class.Ttopt::TruthTable", ptr %8, i32 0, i32 9
  call void @_ZNSt6vectorIS_ImSaImEESaIS1_EEC2Ev(ptr noundef nonnull align 8 dereferenceable(24) %17) #18
  %18 = getelementptr inbounds nuw %"class.Ttopt::TruthTable", ptr %8, i32 0, i32 10
  call void @_ZNSt6vectorIS_IS_IiSaIiEESaIS1_EESaIS3_EEC2Ev(ptr noundef nonnull align 8 dereferenceable(24) %18) #18
  %19 = getelementptr inbounds nuw %"class.Ttopt::TruthTable", ptr %8, i32 0, i32 11
  call void @_ZNSt6vectorIS_IS_IiSaIiEESaIS1_EESaIS3_EEC2Ev(ptr noundef nonnull align 8 dereferenceable(24) %19) #18
  %20 = getelementptr inbounds nuw %"class.Ttopt::TruthTable", ptr %8, i32 0, i32 12
  call void @_ZNSt6vectorIS_IiSaIiEESaIS1_EEC2Ev(ptr noundef nonnull align 8 dereferenceable(24) %20) #18
  call void @srand(i32 noundef 2748) #18
  %21 = load i32, ptr %5, align 4, !tbaa !8
  %22 = icmp sge i32 %21, 6
  br i1 %22, label %23, label %37

23:                                               ; preds = %3
  %24 = load i32, ptr %5, align 4, !tbaa !8
  %25 = sub nsw i32 %24, 6
  %26 = shl i32 1, %25
  %27 = getelementptr inbounds nuw %"class.Ttopt::TruthTable", ptr %8, i32 0, i32 2
  store i32 %26, ptr %27, align 4, !tbaa !38
  %28 = getelementptr inbounds nuw %"class.Ttopt::TruthTable", ptr %8, i32 0, i32 2
  %29 = load i32, ptr %28, align 4, !tbaa !38
  %30 = load i32, ptr %6, align 4, !tbaa !8
  %31 = mul nsw i32 %29, %30
  %32 = getelementptr inbounds nuw %"class.Ttopt::TruthTable", ptr %8, i32 0, i32 3
  store i32 %31, ptr %32, align 8, !tbaa !87
  %33 = getelementptr inbounds nuw %"class.Ttopt::TruthTable", ptr %8, i32 0, i32 5
  %34 = getelementptr inbounds nuw %"class.Ttopt::TruthTable", ptr %8, i32 0, i32 3
  %35 = load i32, ptr %34, align 8, !tbaa !87
  %36 = sext i32 %35 to i64
  call void @_ZNSt6vectorImSaImEE6resizeEm(ptr noundef nonnull align 8 dereferenceable(24) %33, i64 noundef %36)
  br label %51

37:                                               ; preds = %3
  %38 = getelementptr inbounds nuw %"class.Ttopt::TruthTable", ptr %8, i32 0, i32 2
  store i32 0, ptr %38, align 4, !tbaa !38
  %39 = load i32, ptr %5, align 4, !tbaa !8
  %40 = shl i32 1, %39
  %41 = load i32, ptr %6, align 4, !tbaa !8
  %42 = mul nsw i32 %40, %41
  %43 = add nsw i32 %42, 64
  %44 = sub nsw i32 %43, 1
  %45 = sdiv i32 %44, 64
  %46 = getelementptr inbounds nuw %"class.Ttopt::TruthTable", ptr %8, i32 0, i32 3
  store i32 %45, ptr %46, align 8, !tbaa !87
  %47 = getelementptr inbounds nuw %"class.Ttopt::TruthTable", ptr %8, i32 0, i32 5
  %48 = getelementptr inbounds nuw %"class.Ttopt::TruthTable", ptr %8, i32 0, i32 3
  %49 = load i32, ptr %48, align 8, !tbaa !87
  %50 = sext i32 %49 to i64
  call void @_ZNSt6vectorImSaImEE6resizeEm(ptr noundef nonnull align 8 dereferenceable(24) %47, i64 noundef %50)
  br label %51

51:                                               ; preds = %37, %23
  %52 = getelementptr inbounds nuw %"class.Ttopt::TruthTable", ptr %8, i32 0, i32 8
  %53 = load i32, ptr %5, align 4, !tbaa !8
  %54 = sext i32 %53 to i64
  call void @_ZNSt6vectorIiSaIiEE6resizeEm(ptr noundef nonnull align 8 dereferenceable(24) %52, i64 noundef %54)
  call void @llvm.lifetime.start.p0(i64 4, ptr %7) #18
  store i32 0, ptr %7, align 4, !tbaa !8
  br label %55

55:                                               ; preds = %66, %51
  %56 = load i32, ptr %7, align 4, !tbaa !8
  %57 = load i32, ptr %5, align 4, !tbaa !8
  %58 = icmp slt i32 %56, %57
  br i1 %58, label %60, label %59

59:                                               ; preds = %55
  call void @llvm.lifetime.end.p0(i64 4, ptr %7) #18
  br label %69

60:                                               ; preds = %55
  %61 = load i32, ptr %7, align 4, !tbaa !8
  %62 = getelementptr inbounds nuw %"class.Ttopt::TruthTable", ptr %8, i32 0, i32 8
  %63 = load i32, ptr %7, align 4, !tbaa !8
  %64 = sext i32 %63 to i64
  %65 = call noundef nonnull align 4 dereferenceable(4) ptr @_ZNSt6vectorIiSaIiEEixEm(ptr noundef nonnull align 8 dereferenceable(24) %62, i64 noundef %64) #18
  store i32 %61, ptr %65, align 4, !tbaa !8
  br label %66

66:                                               ; preds = %60
  %67 = load i32, ptr %7, align 4, !tbaa !8
  %68 = add nsw i32 %67, 1
  store i32 %68, ptr %7, align 4, !tbaa !8
  br label %55, !llvm.loop !88

69:                                               ; preds = %59
  ret void
}

; Function Attrs: mustprogress nounwind uwtable
define linkonce_odr noundef nonnull align 8 dereferenceable(24) ptr @_ZNSt6vectorImSaImEEaSERKS1_(ptr noundef nonnull align 8 dereferenceable(24) %0, ptr noundef nonnull align 8 dereferenceable(24) %1) #0 comdat align 2 {
  %3 = alloca ptr, align 8
  %4 = alloca ptr, align 8
  %5 = alloca i64, align 8
  %6 = alloca ptr, align 8
  %7 = alloca %"class.__gnu_cxx::__normal_iterator.45", align 8
  %8 = alloca %"class.__gnu_cxx::__normal_iterator.45", align 8
  %9 = alloca %"class.__gnu_cxx::__normal_iterator.44", align 8
  %10 = alloca %"class.__gnu_cxx::__normal_iterator.45", align 8
  %11 = alloca %"class.__gnu_cxx::__normal_iterator.45", align 8
  %12 = alloca %"class.__gnu_cxx::__normal_iterator.44", align 8
  %13 = alloca %"class.__gnu_cxx::__normal_iterator.44", align 8
  store ptr %0, ptr %3, align 8, !tbaa !78
  store ptr %1, ptr %4, align 8, !tbaa !78
  %14 = load ptr, ptr %3, align 8
  %15 = load ptr, ptr %4, align 8, !tbaa !78
  %16 = icmp ne ptr %15, %14
  br i1 %16, label %17, label %133

17:                                               ; preds = %2
  call void @llvm.lifetime.start.p0(i64 8, ptr %5) #18
  %18 = load ptr, ptr %4, align 8, !tbaa !78
  %19 = call noundef i64 @_ZNKSt6vectorImSaImEE4sizeEv(ptr noundef nonnull align 8 dereferenceable(24) %18) #18
  store i64 %19, ptr %5, align 8, !tbaa !63
  %20 = load i64, ptr %5, align 8, !tbaa !63
  %21 = call noundef i64 @_ZNKSt6vectorImSaImEE8capacityEv(ptr noundef nonnull align 8 dereferenceable(24) %14) #18
  %22 = icmp ugt i64 %20, %21
  br i1 %22, label %23, label %66

23:                                               ; preds = %17
  call void @llvm.lifetime.start.p0(i64 8, ptr %6) #18
  %24 = load i64, ptr %5, align 8, !tbaa !63
  %25 = load ptr, ptr %4, align 8, !tbaa !78
  %26 = call ptr @_ZNKSt6vectorImSaImEE5beginEv(ptr noundef nonnull align 8 dereferenceable(24) %25) #18
  %27 = getelementptr inbounds nuw %"class.__gnu_cxx::__normal_iterator.45", ptr %7, i32 0, i32 0
  store ptr %26, ptr %27, align 8
  %28 = load ptr, ptr %4, align 8, !tbaa !78
  %29 = call ptr @_ZNKSt6vectorImSaImEE3endEv(ptr noundef nonnull align 8 dereferenceable(24) %28) #18
  %30 = getelementptr inbounds nuw %"class.__gnu_cxx::__normal_iterator.45", ptr %8, i32 0, i32 0
  store ptr %29, ptr %30, align 8
  %31 = getelementptr inbounds nuw %"class.__gnu_cxx::__normal_iterator.45", ptr %7, i32 0, i32 0
  %32 = load ptr, ptr %31, align 8
  %33 = getelementptr inbounds nuw %"class.__gnu_cxx::__normal_iterator.45", ptr %8, i32 0, i32 0
  %34 = load ptr, ptr %33, align 8
  %35 = call noundef ptr @_ZNSt6vectorImSaImEE20_M_allocate_and_copyIN9__gnu_cxx17__normal_iteratorIPKmS1_EEEEPmmT_S9_(ptr noundef nonnull align 8 dereferenceable(24) %14, i64 noundef %24, ptr %32, ptr %34)
  store ptr %35, ptr %6, align 8, !tbaa !36
  %36 = getelementptr inbounds nuw %"struct.std::_Vector_base", ptr %14, i32 0, i32 0
  %37 = getelementptr inbounds nuw %"struct.std::_Vector_base<unsigned long, std::allocator<unsigned long>>::_Vector_impl_data", ptr %36, i32 0, i32 0
  %38 = load ptr, ptr %37, align 8, !tbaa !79
  %39 = getelementptr inbounds nuw %"struct.std::_Vector_base", ptr %14, i32 0, i32 0
  %40 = getelementptr inbounds nuw %"struct.std::_Vector_base<unsigned long, std::allocator<unsigned long>>::_Vector_impl_data", ptr %39, i32 0, i32 1
  %41 = load ptr, ptr %40, align 8, !tbaa !89
  %42 = call noundef nonnull align 1 dereferenceable(1) ptr @_ZNSt12_Vector_baseImSaImEE19_M_get_Tp_allocatorEv(ptr noundef nonnull align 8 dereferenceable(24) %14) #18
  call void @_ZSt8_DestroyIPmmEvT_S1_RSaIT0_E(ptr noundef %38, ptr noundef %41, ptr noundef nonnull align 1 dereferenceable(1) %42)
  %43 = getelementptr inbounds nuw %"struct.std::_Vector_base", ptr %14, i32 0, i32 0
  %44 = getelementptr inbounds nuw %"struct.std::_Vector_base<unsigned long, std::allocator<unsigned long>>::_Vector_impl_data", ptr %43, i32 0, i32 0
  %45 = load ptr, ptr %44, align 8, !tbaa !79
  %46 = getelementptr inbounds nuw %"struct.std::_Vector_base", ptr %14, i32 0, i32 0
  %47 = getelementptr inbounds nuw %"struct.std::_Vector_base<unsigned long, std::allocator<unsigned long>>::_Vector_impl_data", ptr %46, i32 0, i32 2
  %48 = load ptr, ptr %47, align 8, !tbaa !90
  %49 = getelementptr inbounds nuw %"struct.std::_Vector_base", ptr %14, i32 0, i32 0
  %50 = getelementptr inbounds nuw %"struct.std::_Vector_base<unsigned long, std::allocator<unsigned long>>::_Vector_impl_data", ptr %49, i32 0, i32 0
  %51 = load ptr, ptr %50, align 8, !tbaa !79
  %52 = ptrtoint ptr %48 to i64
  %53 = ptrtoint ptr %51 to i64
  %54 = sub i64 %52, %53
  %55 = sdiv exact i64 %54, 8
  call void @_ZNSt12_Vector_baseImSaImEE13_M_deallocateEPmm(ptr noundef nonnull align 8 dereferenceable(24) %14, ptr noundef %45, i64 noundef %55)
  %56 = load ptr, ptr %6, align 8, !tbaa !36
  %57 = getelementptr inbounds nuw %"struct.std::_Vector_base", ptr %14, i32 0, i32 0
  %58 = getelementptr inbounds nuw %"struct.std::_Vector_base<unsigned long, std::allocator<unsigned long>>::_Vector_impl_data", ptr %57, i32 0, i32 0
  store ptr %56, ptr %58, align 8, !tbaa !79
  %59 = getelementptr inbounds nuw %"struct.std::_Vector_base", ptr %14, i32 0, i32 0
  %60 = getelementptr inbounds nuw %"struct.std::_Vector_base<unsigned long, std::allocator<unsigned long>>::_Vector_impl_data", ptr %59, i32 0, i32 0
  %61 = load ptr, ptr %60, align 8, !tbaa !79
  %62 = load i64, ptr %5, align 8, !tbaa !63
  %63 = getelementptr inbounds nuw i64, ptr %61, i64 %62
  %64 = getelementptr inbounds nuw %"struct.std::_Vector_base", ptr %14, i32 0, i32 0
  %65 = getelementptr inbounds nuw %"struct.std::_Vector_base<unsigned long, std::allocator<unsigned long>>::_Vector_impl_data", ptr %64, i32 0, i32 2
  store ptr %63, ptr %65, align 8, !tbaa !90
  call void @llvm.lifetime.end.p0(i64 8, ptr %6) #18
  br label %125

66:                                               ; preds = %17
  %67 = call noundef i64 @_ZNKSt6vectorImSaImEE4sizeEv(ptr noundef nonnull align 8 dereferenceable(24) %14) #18
  %68 = load i64, ptr %5, align 8, !tbaa !63
  %69 = icmp uge i64 %67, %68
  br i1 %69, label %70, label %94

70:                                               ; preds = %66
  %71 = load ptr, ptr %4, align 8, !tbaa !78
  %72 = call ptr @_ZNKSt6vectorImSaImEE5beginEv(ptr noundef nonnull align 8 dereferenceable(24) %71) #18
  %73 = getelementptr inbounds nuw %"class.__gnu_cxx::__normal_iterator.45", ptr %10, i32 0, i32 0
  store ptr %72, ptr %73, align 8
  %74 = load ptr, ptr %4, align 8, !tbaa !78
  %75 = call ptr @_ZNKSt6vectorImSaImEE3endEv(ptr noundef nonnull align 8 dereferenceable(24) %74) #18
  %76 = getelementptr inbounds nuw %"class.__gnu_cxx::__normal_iterator.45", ptr %11, i32 0, i32 0
  store ptr %75, ptr %76, align 8
  %77 = call ptr @_ZNSt6vectorImSaImEE5beginEv(ptr noundef nonnull align 8 dereferenceable(24) %14) #18
  %78 = getelementptr inbounds nuw %"class.__gnu_cxx::__normal_iterator.44", ptr %12, i32 0, i32 0
  store ptr %77, ptr %78, align 8
  %79 = getelementptr inbounds nuw %"class.__gnu_cxx::__normal_iterator.45", ptr %10, i32 0, i32 0
  %80 = load ptr, ptr %79, align 8
  %81 = getelementptr inbounds nuw %"class.__gnu_cxx::__normal_iterator.45", ptr %11, i32 0, i32 0
  %82 = load ptr, ptr %81, align 8
  %83 = getelementptr inbounds nuw %"class.__gnu_cxx::__normal_iterator.44", ptr %12, i32 0, i32 0
  %84 = load ptr, ptr %83, align 8
  %85 = call ptr @_ZSt4copyIN9__gnu_cxx17__normal_iteratorIPKmSt6vectorImSaImEEEENS1_IPmS6_EEET0_T_SB_SA_(ptr %80, ptr %82, ptr %84)
  %86 = getelementptr inbounds nuw %"class.__gnu_cxx::__normal_iterator.44", ptr %9, i32 0, i32 0
  store ptr %85, ptr %86, align 8
  %87 = call ptr @_ZNSt6vectorImSaImEE3endEv(ptr noundef nonnull align 8 dereferenceable(24) %14) #18
  %88 = getelementptr inbounds nuw %"class.__gnu_cxx::__normal_iterator.44", ptr %13, i32 0, i32 0
  store ptr %87, ptr %88, align 8
  %89 = call noundef nonnull align 1 dereferenceable(1) ptr @_ZNSt12_Vector_baseImSaImEE19_M_get_Tp_allocatorEv(ptr noundef nonnull align 8 dereferenceable(24) %14) #18
  %90 = getelementptr inbounds nuw %"class.__gnu_cxx::__normal_iterator.44", ptr %9, i32 0, i32 0
  %91 = load ptr, ptr %90, align 8
  %92 = getelementptr inbounds nuw %"class.__gnu_cxx::__normal_iterator.44", ptr %13, i32 0, i32 0
  %93 = load ptr, ptr %92, align 8
  call void @_ZSt8_DestroyIN9__gnu_cxx17__normal_iteratorIPmSt6vectorImSaImEEEEmEvT_S7_RSaIT0_E(ptr %91, ptr %93, ptr noundef nonnull align 1 dereferenceable(1) %89)
  br label %124

94:                                               ; preds = %66
  %95 = load ptr, ptr %4, align 8, !tbaa !78
  %96 = getelementptr inbounds nuw %"struct.std::_Vector_base", ptr %95, i32 0, i32 0
  %97 = getelementptr inbounds nuw %"struct.std::_Vector_base<unsigned long, std::allocator<unsigned long>>::_Vector_impl_data", ptr %96, i32 0, i32 0
  %98 = load ptr, ptr %97, align 8, !tbaa !79
  %99 = load ptr, ptr %4, align 8, !tbaa !78
  %100 = getelementptr inbounds nuw %"struct.std::_Vector_base", ptr %99, i32 0, i32 0
  %101 = getelementptr inbounds nuw %"struct.std::_Vector_base<unsigned long, std::allocator<unsigned long>>::_Vector_impl_data", ptr %100, i32 0, i32 0
  %102 = load ptr, ptr %101, align 8, !tbaa !79
  %103 = call noundef i64 @_ZNKSt6vectorImSaImEE4sizeEv(ptr noundef nonnull align 8 dereferenceable(24) %14) #18
  %104 = getelementptr inbounds nuw i64, ptr %102, i64 %103
  %105 = getelementptr inbounds nuw %"struct.std::_Vector_base", ptr %14, i32 0, i32 0
  %106 = getelementptr inbounds nuw %"struct.std::_Vector_base<unsigned long, std::allocator<unsigned long>>::_Vector_impl_data", ptr %105, i32 0, i32 0
  %107 = load ptr, ptr %106, align 8, !tbaa !79
  %108 = call noundef ptr @_ZSt4copyIPmS0_ET0_T_S2_S1_(ptr noundef %98, ptr noundef %104, ptr noundef %107)
  %109 = load ptr, ptr %4, align 8, !tbaa !78
  %110 = getelementptr inbounds nuw %"struct.std::_Vector_base", ptr %109, i32 0, i32 0
  %111 = getelementptr inbounds nuw %"struct.std::_Vector_base<unsigned long, std::allocator<unsigned long>>::_Vector_impl_data", ptr %110, i32 0, i32 0
  %112 = load ptr, ptr %111, align 8, !tbaa !79
  %113 = call noundef i64 @_ZNKSt6vectorImSaImEE4sizeEv(ptr noundef nonnull align 8 dereferenceable(24) %14) #18
  %114 = getelementptr inbounds nuw i64, ptr %112, i64 %113
  %115 = load ptr, ptr %4, align 8, !tbaa !78
  %116 = getelementptr inbounds nuw %"struct.std::_Vector_base", ptr %115, i32 0, i32 0
  %117 = getelementptr inbounds nuw %"struct.std::_Vector_base<unsigned long, std::allocator<unsigned long>>::_Vector_impl_data", ptr %116, i32 0, i32 1
  %118 = load ptr, ptr %117, align 8, !tbaa !89
  %119 = getelementptr inbounds nuw %"struct.std::_Vector_base", ptr %14, i32 0, i32 0
  %120 = getelementptr inbounds nuw %"struct.std::_Vector_base<unsigned long, std::allocator<unsigned long>>::_Vector_impl_data", ptr %119, i32 0, i32 1
  %121 = load ptr, ptr %120, align 8, !tbaa !89
  %122 = call noundef nonnull align 1 dereferenceable(1) ptr @_ZNSt12_Vector_baseImSaImEE19_M_get_Tp_allocatorEv(ptr noundef nonnull align 8 dereferenceable(24) %14) #18
  %123 = call noundef ptr @_ZSt22__uninitialized_copy_aIPmS0_mET0_T_S2_S1_RSaIT1_E(ptr noundef %114, ptr noundef %118, ptr noundef %121, ptr noundef nonnull align 1 dereferenceable(1) %122)
  br label %124

124:                                              ; preds = %94, %70
  br label %125

125:                                              ; preds = %124, %23
  %126 = getelementptr inbounds nuw %"struct.std::_Vector_base", ptr %14, i32 0, i32 0
  %127 = getelementptr inbounds nuw %"struct.std::_Vector_base<unsigned long, std::allocator<unsigned long>>::_Vector_impl_data", ptr %126, i32 0, i32 0
  %128 = load ptr, ptr %127, align 8, !tbaa !79
  %129 = load i64, ptr %5, align 8, !tbaa !63
  %130 = getelementptr inbounds nuw i64, ptr %128, i64 %129
  %131 = getelementptr inbounds nuw %"struct.std::_Vector_base", ptr %14, i32 0, i32 0
  %132 = getelementptr inbounds nuw %"struct.std::_Vector_base<unsigned long, std::allocator<unsigned long>>::_Vector_impl_data", ptr %131, i32 0, i32 1
  store ptr %130, ptr %132, align 8, !tbaa !89
  call void @llvm.lifetime.end.p0(i64 8, ptr %5) #18
  br label %133

133:                                              ; preds = %125, %2
  ret ptr %14
}

; Function Attrs: mustprogress nounwind uwtable
define linkonce_odr void @_ZN5Ttopt10TruthTable3ReoESt6vectorIiSaIiEE(ptr noundef nonnull align 8 dereferenceable(216) %0, ptr noundef %1) #0 comdat align 2 {
  %3 = alloca ptr, align 8
  %4 = alloca ptr, align 8
  %5 = alloca i32, align 4
  %6 = alloca i32, align 4
  %7 = alloca i32, align 4
  %8 = alloca %"class.__gnu_cxx::__normal_iterator.30", align 8
  %9 = alloca %"class.__gnu_cxx::__normal_iterator.30", align 8
  %10 = alloca %"class.__gnu_cxx::__normal_iterator.30", align 8
  %11 = alloca %"class.__gnu_cxx::__normal_iterator.30", align 8
  %12 = alloca i32, align 4
  %13 = alloca i32, align 4
  %14 = alloca i32, align 4
  store ptr %0, ptr %3, align 8, !tbaa !80
  store ptr %1, ptr %4, align 8, !tbaa !91
  %15 = load ptr, ptr %3, align 8
  call void @llvm.lifetime.start.p0(i64 4, ptr %5) #18
  store i32 0, ptr %5, align 4, !tbaa !8
  br label %16

16:                                               ; preds = %84, %2
  %17 = load i32, ptr %5, align 4, !tbaa !8
  %18 = getelementptr inbounds nuw %"class.Ttopt::TruthTable", ptr %15, i32 0, i32 1
  %19 = load i32, ptr %18, align 8, !tbaa !82
  %20 = icmp slt i32 %17, %19
  br i1 %20, label %22, label %21

21:                                               ; preds = %16
  store i32 2, ptr %6, align 4
  call void @llvm.lifetime.end.p0(i64 4, ptr %5) #18
  br label %87

22:                                               ; preds = %16
  call void @llvm.lifetime.start.p0(i64 4, ptr %7) #18
  call void @llvm.lifetime.start.p0(i64 8, ptr %8) #18
  %23 = call ptr @_ZNSt6vectorIiSaIiEE5beginEv(ptr noundef nonnull align 8 dereferenceable(24) %1) #18
  %24 = getelementptr inbounds nuw %"class.__gnu_cxx::__normal_iterator.30", ptr %9, i32 0, i32 0
  store ptr %23, ptr %24, align 8
  %25 = call ptr @_ZNSt6vectorIiSaIiEE3endEv(ptr noundef nonnull align 8 dereferenceable(24) %1) #18
  %26 = getelementptr inbounds nuw %"class.__gnu_cxx::__normal_iterator.30", ptr %10, i32 0, i32 0
  store ptr %25, ptr %26, align 8
  %27 = getelementptr inbounds nuw %"class.__gnu_cxx::__normal_iterator.30", ptr %9, i32 0, i32 0
  %28 = load ptr, ptr %27, align 8
  %29 = getelementptr inbounds nuw %"class.__gnu_cxx::__normal_iterator.30", ptr %10, i32 0, i32 0
  %30 = load ptr, ptr %29, align 8
  %31 = call ptr @_ZSt4findIN9__gnu_cxx17__normal_iteratorIPiSt6vectorIiSaIiEEEEiET_S7_S7_RKT0_(ptr %28, ptr %30, ptr noundef nonnull align 4 dereferenceable(4) %5)
  %32 = getelementptr inbounds nuw %"class.__gnu_cxx::__normal_iterator.30", ptr %8, i32 0, i32 0
  store ptr %31, ptr %32, align 8
  call void @llvm.lifetime.start.p0(i64 8, ptr %11) #18
  %33 = call ptr @_ZNSt6vectorIiSaIiEE5beginEv(ptr noundef nonnull align 8 dereferenceable(24) %1) #18
  %34 = getelementptr inbounds nuw %"class.__gnu_cxx::__normal_iterator.30", ptr %11, i32 0, i32 0
  store ptr %33, ptr %34, align 8
  %35 = call noundef i64 @_ZN9__gnu_cxxmiIPiSt6vectorIiSaIiEEEENS_17__normal_iteratorIT_T0_E15difference_typeERKS8_SB_(ptr noundef nonnull align 8 dereferenceable(8) %8, ptr noundef nonnull align 8 dereferenceable(8) %11) #18
  %36 = trunc i64 %35 to i32
  call void @llvm.lifetime.end.p0(i64 8, ptr %11) #18
  call void @llvm.lifetime.end.p0(i64 8, ptr %8) #18
  store i32 %36, ptr %7, align 4, !tbaa !8
  call void @llvm.lifetime.start.p0(i64 4, ptr %12) #18
  %37 = getelementptr inbounds nuw %"class.Ttopt::TruthTable", ptr %15, i32 0, i32 8
  %38 = load i32, ptr %7, align 4, !tbaa !8
  %39 = sext i32 %38 to i64
  %40 = call noundef nonnull align 4 dereferenceable(4) ptr @_ZNSt6vectorIiSaIiEEixEm(ptr noundef nonnull align 8 dereferenceable(24) %37, i64 noundef %39) #18
  %41 = load i32, ptr %40, align 4, !tbaa !8
  store i32 %41, ptr %12, align 4, !tbaa !8
  %42 = load i32, ptr %12, align 4, !tbaa !8
  %43 = load i32, ptr %5, align 4, !tbaa !8
  %44 = icmp slt i32 %42, %43
  br i1 %44, label %45, label %61

45:                                               ; preds = %22
  call void @llvm.lifetime.start.p0(i64 4, ptr %13) #18
  %46 = load i32, ptr %12, align 4, !tbaa !8
  store i32 %46, ptr %13, align 4, !tbaa !8
  br label %47

47:                                               ; preds = %57, %45
  %48 = load i32, ptr %13, align 4, !tbaa !8
  %49 = load i32, ptr %5, align 4, !tbaa !8
  %50 = icmp slt i32 %48, %49
  br i1 %50, label %52, label %51

51:                                               ; preds = %47
  store i32 5, ptr %6, align 4
  call void @llvm.lifetime.end.p0(i64 4, ptr %13) #18
  br label %60

52:                                               ; preds = %47
  %53 = load i32, ptr %13, align 4, !tbaa !8
  %54 = load ptr, ptr %15, align 8, !tbaa !73
  %55 = getelementptr inbounds ptr, ptr %54, i64 9
  %56 = load ptr, ptr %55, align 8
  call void %56(ptr noundef nonnull align 8 dereferenceable(216) %15, i32 noundef %53)
  br label %57

57:                                               ; preds = %52
  %58 = load i32, ptr %13, align 4, !tbaa !8
  %59 = add nsw i32 %58, 1
  store i32 %59, ptr %13, align 4, !tbaa !8
  br label %47, !llvm.loop !92

60:                                               ; preds = %51
  br label %83

61:                                               ; preds = %22
  %62 = load i32, ptr %12, align 4, !tbaa !8
  %63 = load i32, ptr %5, align 4, !tbaa !8
  %64 = icmp sgt i32 %62, %63
  br i1 %64, label %65, label %82

65:                                               ; preds = %61
  call void @llvm.lifetime.start.p0(i64 4, ptr %14) #18
  %66 = load i32, ptr %12, align 4, !tbaa !8
  %67 = sub nsw i32 %66, 1
  store i32 %67, ptr %14, align 4, !tbaa !8
  br label %68

68:                                               ; preds = %78, %65
  %69 = load i32, ptr %14, align 4, !tbaa !8
  %70 = load i32, ptr %5, align 4, !tbaa !8
  %71 = icmp sge i32 %69, %70
  br i1 %71, label %73, label %72

72:                                               ; preds = %68
  store i32 8, ptr %6, align 4
  call void @llvm.lifetime.end.p0(i64 4, ptr %14) #18
  br label %81

73:                                               ; preds = %68
  %74 = load i32, ptr %14, align 4, !tbaa !8
  %75 = load ptr, ptr %15, align 8, !tbaa !73
  %76 = getelementptr inbounds ptr, ptr %75, i64 9
  %77 = load ptr, ptr %76, align 8
  call void %77(ptr noundef nonnull align 8 dereferenceable(216) %15, i32 noundef %74)
  br label %78

78:                                               ; preds = %73
  %79 = load i32, ptr %14, align 4, !tbaa !8
  %80 = add nsw i32 %79, -1
  store i32 %80, ptr %14, align 4, !tbaa !8
  br label %68, !llvm.loop !93

81:                                               ; preds = %72
  br label %82

82:                                               ; preds = %81, %61
  br label %83

83:                                               ; preds = %82, %60
  call void @llvm.lifetime.end.p0(i64 4, ptr %12) #18
  call void @llvm.lifetime.end.p0(i64 4, ptr %7) #18
  br label %84

84:                                               ; preds = %83
  %85 = load i32, ptr %5, align 4, !tbaa !8
  %86 = add nsw i32 %85, 1
  store i32 %86, ptr %5, align 4, !tbaa !8
  br label %16, !llvm.loop !94

87:                                               ; preds = %21
  ret void
}

; Function Attrs: mustprogress nounwind uwtable
define linkonce_odr void @_ZNSt6vectorIiSaIiEEC2ERKS1_(ptr noundef nonnull align 8 dereferenceable(24) %0, ptr noundef nonnull align 8 dereferenceable(24) %1) unnamed_addr #0 comdat align 2 {
  %3 = alloca ptr, align 8
  %4 = alloca ptr, align 8
  %5 = alloca %"class.std::allocator.7", align 1
  %6 = alloca %"class.__gnu_cxx::__normal_iterator", align 8
  %7 = alloca %"class.__gnu_cxx::__normal_iterator", align 8
  store ptr %0, ptr %3, align 8, !tbaa !91
  store ptr %1, ptr %4, align 8, !tbaa !91
  %8 = load ptr, ptr %3, align 8
  %9 = load ptr, ptr %4, align 8, !tbaa !91
  %10 = call noundef i64 @_ZNKSt6vectorIiSaIiEE4sizeEv(ptr noundef nonnull align 8 dereferenceable(24) %9) #18
  call void @llvm.lifetime.start.p0(i64 1, ptr %5) #18
  %11 = load ptr, ptr %4, align 8, !tbaa !91
  %12 = call noundef nonnull align 1 dereferenceable(1) ptr @_ZNKSt12_Vector_baseIiSaIiEE19_M_get_Tp_allocatorEv(ptr noundef nonnull align 8 dereferenceable(24) %11) #18
  call void @_ZN9__gnu_cxx14__alloc_traitsISaIiEiE17_S_select_on_copyERKS1_(ptr dead_on_unwind writable sret(%"class.std::allocator.7") align 1 %5, ptr noundef nonnull align 1 dereferenceable(1) %12)
  call void @_ZNSt12_Vector_baseIiSaIiEEC2EmRKS0_(ptr noundef nonnull align 8 dereferenceable(24) %8, i64 noundef %10, ptr noundef nonnull align 1 dereferenceable(1) %5)
  call void @_ZNSt15__new_allocatorIiED2Ev(ptr noundef nonnull align 1 dereferenceable(1) %5) #18
  call void @llvm.lifetime.end.p0(i64 1, ptr %5) #18
  %13 = load ptr, ptr %4, align 8, !tbaa !91
  %14 = call ptr @_ZNKSt6vectorIiSaIiEE5beginEv(ptr noundef nonnull align 8 dereferenceable(24) %13) #18
  %15 = getelementptr inbounds nuw %"class.__gnu_cxx::__normal_iterator", ptr %6, i32 0, i32 0
  store ptr %14, ptr %15, align 8
  %16 = load ptr, ptr %4, align 8, !tbaa !91
  %17 = call ptr @_ZNKSt6vectorIiSaIiEE3endEv(ptr noundef nonnull align 8 dereferenceable(24) %16) #18
  %18 = getelementptr inbounds nuw %"class.__gnu_cxx::__normal_iterator", ptr %7, i32 0, i32 0
  store ptr %17, ptr %18, align 8
  %19 = getelementptr inbounds nuw %"struct.std::_Vector_base.6", ptr %8, i32 0, i32 0
  %20 = getelementptr inbounds nuw %"struct.std::_Vector_base<int, std::allocator<int>>::_Vector_impl_data", ptr %19, i32 0, i32 0
  %21 = load ptr, ptr %20, align 8, !tbaa !95
  %22 = call noundef nonnull align 1 dereferenceable(1) ptr @_ZNSt12_Vector_baseIiSaIiEE19_M_get_Tp_allocatorEv(ptr noundef nonnull align 8 dereferenceable(24) %8) #18
  %23 = getelementptr inbounds nuw %"class.__gnu_cxx::__normal_iterator", ptr %6, i32 0, i32 0
  %24 = load ptr, ptr %23, align 8
  %25 = getelementptr inbounds nuw %"class.__gnu_cxx::__normal_iterator", ptr %7, i32 0, i32 0
  %26 = load ptr, ptr %25, align 8
  %27 = call noundef ptr @_ZSt22__uninitialized_copy_aIN9__gnu_cxx17__normal_iteratorIPKiSt6vectorIiSaIiEEEEPiiET0_T_SA_S9_RSaIT1_E(ptr %24, ptr %26, ptr noundef %21, ptr noundef nonnull align 1 dereferenceable(1) %22)
  %28 = getelementptr inbounds nuw %"struct.std::_Vector_base.6", ptr %8, i32 0, i32 0
  %29 = getelementptr inbounds nuw %"struct.std::_Vector_base<int, std::allocator<int>>::_Vector_impl_data", ptr %28, i32 0, i32 1
  store ptr %27, ptr %29, align 8, !tbaa !96
  ret void
}

; Function Attrs: mustprogress nounwind uwtable
define linkonce_odr void @_ZNSt6vectorIiSaIiEED2Ev(ptr noundef nonnull align 8 dereferenceable(24) %0) unnamed_addr #0 comdat align 2 {
  %2 = alloca ptr, align 8
  store ptr %0, ptr %2, align 8, !tbaa !91
  %3 = load ptr, ptr %2, align 8
  %4 = getelementptr inbounds nuw %"struct.std::_Vector_base.6", ptr %3, i32 0, i32 0
  %5 = getelementptr inbounds nuw %"struct.std::_Vector_base<int, std::allocator<int>>::_Vector_impl_data", ptr %4, i32 0, i32 0
  %6 = load ptr, ptr %5, align 8, !tbaa !95
  %7 = getelementptr inbounds nuw %"struct.std::_Vector_base.6", ptr %3, i32 0, i32 0
  %8 = getelementptr inbounds nuw %"struct.std::_Vector_base<int, std::allocator<int>>::_Vector_impl_data", ptr %7, i32 0, i32 1
  %9 = load ptr, ptr %8, align 8, !tbaa !96
  %10 = call noundef nonnull align 1 dereferenceable(1) ptr @_ZNSt12_Vector_baseIiSaIiEE19_M_get_Tp_allocatorEv(ptr noundef nonnull align 8 dereferenceable(24) %3) #18
  call void @_ZSt8_DestroyIPiiEvT_S1_RSaIT0_E(ptr noundef %6, ptr noundef %9, ptr noundef nonnull align 1 dereferenceable(1) %10)
  call void @_ZNSt12_Vector_baseIiSaIiEED2Ev(ptr noundef nonnull align 8 dereferenceable(24) %3) #18
  ret void
}

; Function Attrs: mustprogress nounwind uwtable
define linkonce_odr void @_ZN5Ttopt10TruthTable14BDDGenerateAigEP10Gia_Man_t_P10Vec_Int_t_(ptr noundef nonnull align 8 dereferenceable(216) %0, ptr noundef %1, ptr noundef %2) unnamed_addr #0 comdat align 2 {
  %4 = alloca ptr, align 8
  %5 = alloca ptr, align 8
  %6 = alloca ptr, align 8
  %7 = alloca %"class.std::vector.0", align 8
  %8 = alloca %"class.std::allocator.2", align 1
  %9 = alloca %"class.std::vector.5", align 8
  %10 = alloca %"class.std::allocator.7", align 1
  %11 = alloca i32, align 4
  %12 = alloca i32, align 4
  store ptr %0, ptr %4, align 8, !tbaa !80
  store ptr %1, ptr %5, align 8, !tbaa !3
  store ptr %2, ptr %6, align 8, !tbaa !35
  %13 = load ptr, ptr %4, align 8
  %14 = getelementptr inbounds nuw %"class.Ttopt::TruthTable", ptr %13, i32 0, i32 6
  call void @_ZNSt6vectorIS_IiSaIiEESaIS1_EE5clearEv(ptr noundef nonnull align 8 dereferenceable(24) %14) #18
  %15 = getelementptr inbounds nuw %"class.Ttopt::TruthTable", ptr %13, i32 0, i32 6
  %16 = getelementptr inbounds nuw %"class.Ttopt::TruthTable", ptr %13, i32 0, i32 1
  %17 = load i32, ptr %16, align 8, !tbaa !82
  %18 = sext i32 %17 to i64
  call void @_ZNSt6vectorIS_IiSaIiEESaIS1_EE6resizeEm(ptr noundef nonnull align 8 dereferenceable(24) %15, i64 noundef %18)
  call void @llvm.lifetime.start.p0(i64 24, ptr %7) #18
  %19 = getelementptr inbounds nuw %"class.Ttopt::TruthTable", ptr %13, i32 0, i32 1
  %20 = load i32, ptr %19, align 8, !tbaa !82
  %21 = sext i32 %20 to i64
  call void @llvm.lifetime.start.p0(i64 1, ptr %8) #18
  call void @_ZNSaISt6vectorIiSaIiEEEC2Ev(ptr noundef nonnull align 1 dereferenceable(1) %8) #18
  call void @_ZNSt6vectorIS_IiSaIiEESaIS1_EEC2EmRKS2_(ptr noundef nonnull align 8 dereferenceable(24) %7, i64 noundef %21, ptr noundef nonnull align 1 dereferenceable(1) %8)
  call void @_ZNSt15__new_allocatorISt6vectorIiSaIiEEED2Ev(ptr noundef nonnull align 1 dereferenceable(1) %8) #18
  call void @llvm.lifetime.end.p0(i64 1, ptr %8) #18
  call void @llvm.lifetime.start.p0(i64 24, ptr %9) #18
  %22 = getelementptr inbounds nuw %"class.Ttopt::TruthTable", ptr %13, i32 0, i32 1
  %23 = load i32, ptr %22, align 8, !tbaa !82
  %24 = sext i32 %23 to i64
  call void @llvm.lifetime.start.p0(i64 1, ptr %10) #18
  call void @_ZNSaIiEC2Ev(ptr noundef nonnull align 1 dereferenceable(1) %10) #18
  call void @_ZNSt6vectorIiSaIiEEC2EmRKS0_(ptr noundef nonnull align 8 dereferenceable(24) %9, i64 noundef %24, ptr noundef nonnull align 1 dereferenceable(1) %10)
  call void @_ZNSt15__new_allocatorIiED2Ev(ptr noundef nonnull align 1 dereferenceable(1) %10) #18
  call void @llvm.lifetime.end.p0(i64 1, ptr %10) #18
  call void @llvm.lifetime.start.p0(i64 4, ptr %11) #18
  store i32 0, ptr %11, align 4, !tbaa !8
  br label %25

25:                                               ; preds = %46, %3
  %26 = load i32, ptr %11, align 4, !tbaa !8
  %27 = getelementptr inbounds nuw %"class.Ttopt::TruthTable", ptr %13, i32 0, i32 1
  %28 = load i32, ptr %27, align 8, !tbaa !82
  %29 = icmp slt i32 %26, %28
  br i1 %29, label %30, label %49

30:                                               ; preds = %25
  %31 = load ptr, ptr %6, align 8, !tbaa !35
  %32 = getelementptr inbounds nuw %"class.Ttopt::TruthTable", ptr %13, i32 0, i32 1
  %33 = load i32, ptr %32, align 8, !tbaa !82
  %34 = load i32, ptr %11, align 4, !tbaa !8
  %35 = sub nsw i32 %33, %34
  %36 = sub nsw i32 %35, 1
  %37 = call noundef i32 @_ZL12Vec_IntEntryP10Vec_Int_t_i(ptr noundef %31, i32 noundef %36)
  %38 = shl i32 %37, 1
  %39 = getelementptr inbounds nuw %"class.Ttopt::TruthTable", ptr %13, i32 0, i32 8
  %40 = load i32, ptr %11, align 4, !tbaa !8
  %41 = sext i32 %40 to i64
  %42 = call noundef nonnull align 4 dereferenceable(4) ptr @_ZNSt6vectorIiSaIiEEixEm(ptr noundef nonnull align 8 dereferenceable(24) %39, i64 noundef %41) #18
  %43 = load i32, ptr %42, align 4, !tbaa !8
  %44 = sext i32 %43 to i64
  %45 = call noundef nonnull align 4 dereferenceable(4) ptr @_ZNSt6vectorIiSaIiEEixEm(ptr noundef nonnull align 8 dereferenceable(24) %9, i64 noundef %44) #18
  store i32 %38, ptr %45, align 4, !tbaa !8
  br label %46

46:                                               ; preds = %30
  %47 = load i32, ptr %11, align 4, !tbaa !8
  %48 = add nsw i32 %47, 1
  store i32 %48, ptr %11, align 4, !tbaa !8
  br label %25, !llvm.loop !97

49:                                               ; preds = %25
  store i32 0, ptr %11, align 4, !tbaa !8
  br label %50

50:                                               ; preds = %62, %49
  %51 = load i32, ptr %11, align 4, !tbaa !8
  %52 = getelementptr inbounds nuw %"class.Ttopt::TruthTable", ptr %13, i32 0, i32 4
  %53 = load i32, ptr %52, align 4, !tbaa !86
  %54 = icmp slt i32 %51, %53
  br i1 %54, label %55, label %65

55:                                               ; preds = %50
  call void @llvm.lifetime.start.p0(i64 4, ptr %12) #18
  %56 = load ptr, ptr %5, align 8, !tbaa !3
  %57 = load i32, ptr %11, align 4, !tbaa !8
  %58 = call noundef i32 @_ZN5Ttopt10TruthTable17BDDGenerateAigRecEP10Gia_Man_t_RKSt6vectorIiSaIiEERS3_IS5_SaIS5_EEii(ptr noundef nonnull align 8 dereferenceable(216) %13, ptr noundef %56, ptr noundef nonnull align 8 dereferenceable(24) %9, ptr noundef nonnull align 8 dereferenceable(24) %7, i32 noundef %57, i32 noundef 0)
  store i32 %58, ptr %12, align 4, !tbaa !8
  %59 = load ptr, ptr %5, align 8, !tbaa !3
  %60 = load i32, ptr %12, align 4, !tbaa !8
  %61 = call noundef i32 @_ZL15Gia_ManAppendCoP10Gia_Man_t_i(ptr noundef %59, i32 noundef %60)
  call void @llvm.lifetime.end.p0(i64 4, ptr %12) #18
  br label %62

62:                                               ; preds = %55
  %63 = load i32, ptr %11, align 4, !tbaa !8
  %64 = add nsw i32 %63, 1
  store i32 %64, ptr %11, align 4, !tbaa !8
  br label %50, !llvm.loop !98

65:                                               ; preds = %50
  call void @llvm.lifetime.end.p0(i64 4, ptr %11) #18
  call void @_ZNSt6vectorIiSaIiEED2Ev(ptr noundef nonnull align 8 dereferenceable(24) %9) #18
  call void @llvm.lifetime.end.p0(i64 24, ptr %9) #18
  call void @_ZNSt6vectorIS_IiSaIiEESaIS1_EED2Ev(ptr noundef nonnull align 8 dereferenceable(24) %7) #18
  call void @llvm.lifetime.end.p0(i64 24, ptr %7) #18
  ret void
}

; Function Attrs: inlinehint mustprogress nounwind uwtable
define internal void @_ZL11Vec_IntFreeP10Vec_Int_t_(ptr noundef %0) #3 {
  %2 = alloca ptr, align 8
  store ptr %0, ptr %2, align 8, !tbaa !35
  %3 = load ptr, ptr %2, align 8, !tbaa !35
  %4 = getelementptr inbounds nuw %struct.Vec_Int_t_, ptr %3, i32 0, i32 2
  %5 = load ptr, ptr %4, align 8, !tbaa !99
  %6 = icmp ne ptr %5, null
  br i1 %6, label %7, label %13

7:                                                ; preds = %1
  %8 = load ptr, ptr %2, align 8, !tbaa !35
  %9 = getelementptr inbounds nuw %struct.Vec_Int_t_, ptr %8, i32 0, i32 2
  %10 = load ptr, ptr %9, align 8, !tbaa !99
  call void @free(ptr noundef %10) #18
  %11 = load ptr, ptr %2, align 8, !tbaa !35
  %12 = getelementptr inbounds nuw %struct.Vec_Int_t_, ptr %11, i32 0, i32 2
  store ptr null, ptr %12, align 8, !tbaa !99
  br label %14

13:                                               ; preds = %1
  br label %14

14:                                               ; preds = %13, %7
  %15 = load ptr, ptr %2, align 8, !tbaa !35
  %16 = icmp ne ptr %15, null
  br i1 %16, label %17, label %19

17:                                               ; preds = %14
  %18 = load ptr, ptr %2, align 8, !tbaa !35
  call void @free(ptr noundef %18) #18
  store ptr null, ptr %2, align 8, !tbaa !35
  br label %20

19:                                               ; preds = %14
  br label %20

20:                                               ; preds = %19, %17
  ret void
}

; Function Attrs: nocallback nofree nosync nounwind willreturn memory(argmem: readwrite)
declare void @llvm.lifetime.end.p0(i64 immarg, ptr captures(none)) #1

; Function Attrs: inlinehint mustprogress nounwind uwtable
define linkonce_odr void @_ZN5Ttopt13TruthTableReoD2Ev(ptr noundef nonnull align 8 dereferenceable(272) %0) unnamed_addr #3 comdat align 2 {
  %2 = alloca ptr, align 8
  store ptr %0, ptr %2, align 8, !tbaa !71
  %3 = load ptr, ptr %2, align 8
  store ptr getelementptr inbounds inrange(-16, 96) ({ [14 x ptr] }, ptr @_ZTVN5Ttopt13TruthTableReoE, i32 0, i32 0, i32 2), ptr %3, align 8, !tbaa !73
  %4 = getelementptr inbounds nuw %"class.Ttopt::TruthTableReo", ptr %3, i32 0, i32 3
  call void @_ZNSt6vectorIS_IS_IiSaIiEESaIS1_EESaIS3_EED2Ev(ptr noundef nonnull align 8 dereferenceable(24) %4) #18
  %5 = getelementptr inbounds nuw %"class.Ttopt::TruthTableReo", ptr %3, i32 0, i32 2
  call void @_ZNSt6vectorIS_IiSaIiEESaIS1_EED2Ev(ptr noundef nonnull align 8 dereferenceable(24) %5) #18
  call void @_ZN5Ttopt10TruthTableD2Ev(ptr noundef nonnull align 8 dereferenceable(216) %3) #18
  ret void
}

declare void @Gia_ObjComputeTruthTableStop(ptr noundef) #2

declare void @Gia_ManHashStop(ptr noundef) #2

declare void @Gia_ManSetRegNum(ptr noundef, i32 noundef) #2

; Function Attrs: inlinehint mustprogress nounwind uwtable
define internal noundef i32 @_ZL13Gia_ManRegNumP10Gia_Man_t_(ptr noundef %0) #3 {
  %2 = alloca ptr, align 8
  store ptr %0, ptr %2, align 8, !tbaa !3
  %3 = load ptr, ptr %2, align 8, !tbaa !3
  %4 = getelementptr inbounds nuw %struct.Gia_Man_t_, ptr %3, i32 0, i32 2
  %5 = load i32, ptr %4, align 8, !tbaa !100
  ret i32 %5
}

; Function Attrs: mustprogress nounwind uwtable
define ptr @Gia_ManTtoptCare(ptr noundef %0, i32 noundef %1, i32 noundef %2, i32 noundef %3, ptr noundef %4, i32 noundef %5) #0 {
  %7 = alloca ptr, align 8
  %8 = alloca i32, align 4
  %9 = alloca i32, align 4
  %10 = alloca i32, align 4
  %11 = alloca ptr, align 8
  %12 = alloca i32, align 4
  %13 = alloca i32, align 4
  %14 = alloca ptr, align 8
  %15 = alloca ptr, align 8
  %16 = alloca ptr, align 8
  %17 = alloca i64, align 8
  %18 = alloca ptr, align 8
  %19 = alloca ptr, align 8
  %20 = alloca i32, align 4
  %21 = alloca i32, align 4
  %22 = alloca i32, align 4
  %23 = alloca i32, align 4
  %24 = alloca ptr, align 8
  %25 = alloca %"class.Ttopt::TruthTableLevelTSM", align 8
  store ptr %0, ptr %7, align 8, !tbaa !3
  store i32 %1, ptr %8, align 4, !tbaa !8
  store i32 %2, ptr %9, align 4, !tbaa !8
  store i32 %3, ptr %10, align 4, !tbaa !8
  store ptr %4, ptr %11, align 8, !tbaa !68
  store i32 %5, ptr %12, align 4, !tbaa !8
  call void @llvm.lifetime.start.p0(i64 4, ptr %13) #18
  store i32 0, ptr %13, align 4, !tbaa !8
  call void @llvm.lifetime.start.p0(i64 8, ptr %14) #18
  call void @llvm.lifetime.start.p0(i64 8, ptr %15) #18
  call void @llvm.lifetime.start.p0(i64 8, ptr %16) #18
  call void @llvm.lifetime.start.p0(i64 8, ptr %17) #18
  call void @llvm.lifetime.start.p0(i64 8, ptr %18) #18
  call void @llvm.lifetime.start.p0(i64 8, ptr %19) #18
  call void @llvm.lifetime.start.p0(i64 4, ptr %20) #18
  call void @llvm.lifetime.start.p0(i64 4, ptr %21) #18
  call void @llvm.lifetime.start.p0(i64 4, ptr %22) #18
  call void @llvm.lifetime.start.p0(i64 4, ptr %23) #18
  call void @llvm.lifetime.start.p0(i64 8, ptr %24) #18
  %26 = load ptr, ptr %11, align 8, !tbaa !68
  %27 = load i32, ptr %13, align 4, !tbaa !8
  %28 = call noundef ptr @_ZL14Vec_WrdReadBinPci(ptr noundef %26, i32 noundef %27)
  store ptr %28, ptr %24, align 8, !tbaa !101
  %29 = load ptr, ptr %7, align 8, !tbaa !3
  %30 = call i32 @Gia_ManLevelNum(ptr noundef %29)
  %31 = load ptr, ptr %7, align 8, !tbaa !3
  %32 = call noundef i32 @_ZL13Gia_ManObjNumP10Gia_Man_t_(ptr noundef %31)
  %33 = call ptr @Gia_ManStart(i32 noundef %32)
  store ptr %33, ptr %14, align 8, !tbaa !3
  %34 = load ptr, ptr %7, align 8, !tbaa !3
  %35 = getelementptr inbounds nuw %struct.Gia_Man_t_, ptr %34, i32 0, i32 0
  %36 = load ptr, ptr %35, align 8, !tbaa !10
  %37 = call noundef ptr @_ZL14Abc_UtilStrsavPc(ptr noundef %36)
  %38 = load ptr, ptr %14, align 8, !tbaa !3
  %39 = getelementptr inbounds nuw %struct.Gia_Man_t_, ptr %38, i32 0, i32 0
  store ptr %37, ptr %39, align 8, !tbaa !10
  %40 = load ptr, ptr %7, align 8, !tbaa !3
  %41 = getelementptr inbounds nuw %struct.Gia_Man_t_, ptr %40, i32 0, i32 1
  %42 = load ptr, ptr %41, align 8, !tbaa !30
  %43 = call noundef ptr @_ZL14Abc_UtilStrsavPc(ptr noundef %42)
  %44 = load ptr, ptr %14, align 8, !tbaa !3
  %45 = getelementptr inbounds nuw %struct.Gia_Man_t_, ptr %44, i32 0, i32 1
  store ptr %43, ptr %45, align 8, !tbaa !30
  store i32 0, ptr %22, align 4, !tbaa !8
  br label %46

46:                                               ; preds = %63, %6
  %47 = load i32, ptr %22, align 4, !tbaa !8
  %48 = load ptr, ptr %7, align 8, !tbaa !3
  %49 = getelementptr inbounds nuw %struct.Gia_Man_t_, ptr %48, i32 0, i32 11
  %50 = load ptr, ptr %49, align 8, !tbaa !31
  %51 = call noundef i32 @_ZL11Vec_IntSizeP10Vec_Int_t_(ptr noundef %50)
  %52 = icmp slt i32 %47, %51
  br i1 %52, label %53, label %58

53:                                               ; preds = %46
  %54 = load ptr, ptr %7, align 8, !tbaa !3
  %55 = load i32, ptr %22, align 4, !tbaa !8
  %56 = call noundef ptr @_ZL9Gia_ManCiP10Gia_Man_t_i(ptr noundef %54, i32 noundef %55)
  store ptr %56, ptr %15, align 8, !tbaa !32
  %57 = icmp ne ptr %56, null
  br label %58

58:                                               ; preds = %53, %46
  %59 = phi i1 [ false, %46 ], [ %57, %53 ]
  br i1 %59, label %60, label %66

60:                                               ; preds = %58
  %61 = load ptr, ptr %14, align 8, !tbaa !3
  %62 = call noundef i32 @_ZL15Gia_ManAppendCiP10Gia_Man_t_(ptr noundef %61)
  br label %63

63:                                               ; preds = %60
  %64 = load i32, ptr %22, align 4, !tbaa !8
  %65 = add nsw i32 %64, 1
  store i32 %65, ptr %22, align 4, !tbaa !8
  br label %46, !llvm.loop !102

66:                                               ; preds = %58
  %67 = load ptr, ptr %7, align 8, !tbaa !3
  %68 = load i32, ptr %8, align 4, !tbaa !8
  call void @Gia_ObjComputeTruthTableStart(ptr noundef %67, i32 noundef %68)
  %69 = load ptr, ptr %14, align 8, !tbaa !3
  call void @Gia_ManHashStart(ptr noundef %69)
  store i32 0, ptr %21, align 4, !tbaa !8
  br label %70

70:                                               ; preds = %255, %66
  %71 = load i32, ptr %21, align 4, !tbaa !8
  %72 = load ptr, ptr %7, align 8, !tbaa !3
  %73 = call noundef i32 @_ZL12Gia_ManCoNumP10Gia_Man_t_(ptr noundef %72)
  %74 = icmp slt i32 %71, %73
  br i1 %74, label %75, label %259

75:                                               ; preds = %70
  %76 = load ptr, ptr %7, align 8, !tbaa !3
  %77 = load i32, ptr %21, align 4, !tbaa !8
  %78 = load i32, ptr %9, align 4, !tbaa !8
  %79 = call ptr @Gia_ManCollectSuppNew(ptr noundef %76, i32 noundef %77, i32 noundef %78)
  store ptr %79, ptr %16, align 8, !tbaa !35
  %80 = load ptr, ptr %16, align 8, !tbaa !35
  %81 = call noundef i32 @_ZL11Vec_IntSizeP10Vec_Int_t_(ptr noundef %80)
  store i32 %81, ptr %23, align 4, !tbaa !8
  %82 = load i32, ptr %23, align 4, !tbaa !8
  %83 = icmp eq i32 %82, 0
  br i1 %83, label %84, label %112

84:                                               ; preds = %75
  store i32 0, ptr %22, align 4, !tbaa !8
  br label %85

85:                                               ; preds = %107, %84
  %86 = load i32, ptr %22, align 4, !tbaa !8
  %87 = load i32, ptr %9, align 4, !tbaa !8
  %88 = icmp slt i32 %86, %87
  br i1 %88, label %89, label %110

89:                                               ; preds = %85
  %90 = load ptr, ptr %7, align 8, !tbaa !3
  %91 = load i32, ptr %21, align 4, !tbaa !8
  %92 = load i32, ptr %22, align 4, !tbaa !8
  %93 = add nsw i32 %91, %92
  %94 = call noundef ptr @_ZL9Gia_ManCoP10Gia_Man_t_i(ptr noundef %90, i32 noundef %93)
  store ptr %94, ptr %15, align 8, !tbaa !32
  %95 = load ptr, ptr %7, align 8, !tbaa !3
  %96 = load ptr, ptr %15, align 8, !tbaa !32
  %97 = call noundef ptr @_ZL13Gia_ObjFanin0P10Gia_Obj_t_(ptr noundef %96)
  %98 = load ptr, ptr %16, align 8, !tbaa !35
  %99 = call ptr @Gia_ObjComputeTruthTableCut(ptr noundef %95, ptr noundef %97, ptr noundef %98)
  store ptr %99, ptr %18, align 8, !tbaa !36
  %100 = load ptr, ptr %14, align 8, !tbaa !3
  %101 = load ptr, ptr %18, align 8, !tbaa !36
  %102 = getelementptr inbounds i64, ptr %101, i64 0
  %103 = load i64, ptr %102, align 8, !tbaa !63
  %104 = and i64 %103, 1
  %105 = trunc i64 %104 to i32
  %106 = call noundef i32 @_ZL15Gia_ManAppendCoP10Gia_Man_t_i(ptr noundef %100, i32 noundef %105)
  br label %107

107:                                              ; preds = %89
  %108 = load i32, ptr %22, align 4, !tbaa !8
  %109 = add nsw i32 %108, 1
  store i32 %109, ptr %22, align 4, !tbaa !8
  br label %85, !llvm.loop !103

110:                                              ; preds = %85
  %111 = load ptr, ptr %16, align 8, !tbaa !35
  call void @_ZL11Vec_IntFreeP10Vec_Int_t_(ptr noundef %111)
  br label %255

112:                                              ; preds = %75
  call void @llvm.lifetime.start.p0(i64 360, ptr %25) #18
  %113 = load i32, ptr %23, align 4, !tbaa !8
  %114 = load i32, ptr %9, align 4, !tbaa !8
  call void @_ZN5Ttopt18TruthTableLevelTSMC2Eii(ptr noundef nonnull align 8 dereferenceable(360) %25, i32 noundef %113, i32 noundef %114)
  store i32 0, ptr %22, align 4, !tbaa !8
  br label %115

115:                                              ; preds = %207, %112
  %116 = load i32, ptr %22, align 4, !tbaa !8
  %117 = load i32, ptr %9, align 4, !tbaa !8
  %118 = icmp slt i32 %116, %117
  br i1 %118, label %119, label %210

119:                                              ; preds = %115
  %120 = load ptr, ptr %7, align 8, !tbaa !3
  %121 = load i32, ptr %21, align 4, !tbaa !8
  %122 = load i32, ptr %22, align 4, !tbaa !8
  %123 = add nsw i32 %121, %122
  %124 = call noundef ptr @_ZL9Gia_ManCoP10Gia_Man_t_i(ptr noundef %120, i32 noundef %123)
  store ptr %124, ptr %15, align 8, !tbaa !32
  %125 = load ptr, ptr %7, align 8, !tbaa !3
  %126 = load ptr, ptr %15, align 8, !tbaa !32
  %127 = call noundef ptr @_ZL13Gia_ObjFanin0P10Gia_Obj_t_(ptr noundef %126)
  %128 = load ptr, ptr %16, align 8, !tbaa !35
  %129 = call ptr @Gia_ObjComputeTruthTableCut(ptr noundef %125, ptr noundef %127, ptr noundef %128)
  store ptr %129, ptr %18, align 8, !tbaa !36
  %130 = load i32, ptr %23, align 4, !tbaa !8
  %131 = icmp sge i32 %130, 6
  br i1 %131, label %132, label %170

132:                                              ; preds = %119
  store i32 0, ptr %20, align 4, !tbaa !8
  br label %133

133:                                              ; preds = %166, %132
  %134 = load i32, ptr %20, align 4, !tbaa !8
  %135 = getelementptr inbounds nuw %"class.Ttopt::TruthTable", ptr %25, i32 0, i32 2
  %136 = load i32, ptr %135, align 4, !tbaa !38
  %137 = icmp slt i32 %134, %136
  br i1 %137, label %138, label %169

138:                                              ; preds = %133
  %139 = load ptr, ptr %15, align 8, !tbaa !32
  %140 = call noundef i32 @_ZL14Gia_ObjFaninC0P10Gia_Obj_t_(ptr noundef %139)
  %141 = icmp ne i32 %140, 0
  br i1 %141, label %142, label %149

142:                                              ; preds = %138
  %143 = load ptr, ptr %18, align 8, !tbaa !36
  %144 = load i32, ptr %20, align 4, !tbaa !8
  %145 = sext i32 %144 to i64
  %146 = getelementptr inbounds i64, ptr %143, i64 %145
  %147 = load i64, ptr %146, align 8, !tbaa !63
  %148 = xor i64 %147, -1
  br label %155

149:                                              ; preds = %138
  %150 = load ptr, ptr %18, align 8, !tbaa !36
  %151 = load i32, ptr %20, align 4, !tbaa !8
  %152 = sext i32 %151 to i64
  %153 = getelementptr inbounds i64, ptr %150, i64 %152
  %154 = load i64, ptr %153, align 8, !tbaa !63
  br label %155

155:                                              ; preds = %149, %142
  %156 = phi i64 [ %148, %142 ], [ %154, %149 ]
  %157 = getelementptr inbounds nuw %"class.Ttopt::TruthTable", ptr %25, i32 0, i32 5
  %158 = load i32, ptr %20, align 4, !tbaa !8
  %159 = getelementptr inbounds nuw %"class.Ttopt::TruthTable", ptr %25, i32 0, i32 2
  %160 = load i32, ptr %159, align 4, !tbaa !38
  %161 = load i32, ptr %22, align 4, !tbaa !8
  %162 = mul nsw i32 %160, %161
  %163 = add nsw i32 %158, %162
  %164 = sext i32 %163 to i64
  %165 = call noundef nonnull align 8 dereferenceable(8) ptr @_ZNSt6vectorImSaImEEixEm(ptr noundef nonnull align 8 dereferenceable(24) %157, i64 noundef %164) #18
  store i64 %156, ptr %165, align 8, !tbaa !63
  br label %166

166:                                              ; preds = %155
  %167 = load i32, ptr %20, align 4, !tbaa !8
  %168 = add nsw i32 %167, 1
  store i32 %168, ptr %20, align 4, !tbaa !8
  br label %133, !llvm.loop !104

169:                                              ; preds = %133
  br label %206

170:                                              ; preds = %119
  %171 = load i32, ptr %22, align 4, !tbaa !8
  %172 = load i32, ptr %23, align 4, !tbaa !8
  %173 = shl i32 1, %172
  %174 = mul nsw i32 %171, %173
  store i32 %174, ptr %20, align 4, !tbaa !8
  %175 = load ptr, ptr %15, align 8, !tbaa !32
  %176 = call noundef i32 @_ZL14Gia_ObjFaninC0P10Gia_Obj_t_(ptr noundef %175)
  %177 = icmp ne i32 %176, 0
  br i1 %177, label %178, label %183

178:                                              ; preds = %170
  %179 = load ptr, ptr %18, align 8, !tbaa !36
  %180 = getelementptr inbounds i64, ptr %179, i64 0
  %181 = load i64, ptr %180, align 8, !tbaa !63
  %182 = xor i64 %181, -1
  br label %187

183:                                              ; preds = %170
  %184 = load ptr, ptr %18, align 8, !tbaa !36
  %185 = getelementptr inbounds i64, ptr %184, i64 0
  %186 = load i64, ptr %185, align 8, !tbaa !63
  br label %187

187:                                              ; preds = %183, %178
  %188 = phi i64 [ %182, %178 ], [ %186, %183 ]
  %189 = load i32, ptr %23, align 4, !tbaa !8
  %190 = sext i32 %189 to i64
  %191 = getelementptr inbounds [7 x i64], ptr @_ZN5Ttopt10TruthTable4onesE, i64 0, i64 %190
  %192 = load i64, ptr %191, align 8, !tbaa !63
  %193 = and i64 %188, %192
  store i64 %193, ptr %17, align 8, !tbaa !63
  %194 = load i64, ptr %17, align 8, !tbaa !63
  %195 = load i32, ptr %20, align 4, !tbaa !8
  %196 = srem i32 %195, 64
  %197 = zext i32 %196 to i64
  %198 = shl i64 %194, %197
  %199 = getelementptr inbounds nuw %"class.Ttopt::TruthTable", ptr %25, i32 0, i32 5
  %200 = load i32, ptr %20, align 4, !tbaa !8
  %201 = sdiv i32 %200, 64
  %202 = sext i32 %201 to i64
  %203 = call noundef nonnull align 8 dereferenceable(8) ptr @_ZNSt6vectorImSaImEEixEm(ptr noundef nonnull align 8 dereferenceable(24) %199, i64 noundef %202) #18
  %204 = load i64, ptr %203, align 8, !tbaa !63
  %205 = or i64 %204, %198
  store i64 %205, ptr %203, align 8, !tbaa !63
  br label %206

206:                                              ; preds = %187, %169
  br label %207

207:                                              ; preds = %206
  %208 = load i32, ptr %22, align 4, !tbaa !8
  %209 = add nsw i32 %208, 1
  store i32 %209, ptr %22, align 4, !tbaa !8
  br label %115, !llvm.loop !105

210:                                              ; preds = %115
  %211 = load ptr, ptr %16, align 8, !tbaa !35
  %212 = call noundef i32 @_ZL11Vec_IntSizeP10Vec_Int_t_(ptr noundef %211)
  %213 = shl i32 1, %212
  store i32 %213, ptr %20, align 4, !tbaa !8
  %214 = load ptr, ptr %7, align 8, !tbaa !3
  %215 = load ptr, ptr %24, align 8, !tbaa !101
  %216 = load ptr, ptr %16, align 8, !tbaa !35
  %217 = load i32, ptr %12, align 4, !tbaa !8
  %218 = load i32, ptr %13, align 4, !tbaa !8
  %219 = call ptr @Gia_ManCountFraction(ptr noundef %214, ptr noundef %215, ptr noundef %216, i32 noundef %217, i32 noundef %218, ptr noundef %20)
  store ptr %219, ptr %19, align 8, !tbaa !36
  %220 = load ptr, ptr %19, align 8, !tbaa !36
  %221 = getelementptr inbounds i64, ptr %220, i64 0
  %222 = load i64, ptr %221, align 8, !tbaa !63
  %223 = getelementptr inbounds nuw %"class.Ttopt::TruthTableCare", ptr %25, i32 0, i32 3
  %224 = call noundef nonnull align 8 dereferenceable(8) ptr @_ZNSt6vectorImSaImEEixEm(ptr noundef nonnull align 8 dereferenceable(24) %223, i64 noundef 0) #18
  store i64 %222, ptr %224, align 8, !tbaa !63
  store i32 1, ptr %20, align 4, !tbaa !8
  br label %225

225:                                              ; preds = %240, %210
  %226 = load i32, ptr %20, align 4, !tbaa !8
  %227 = getelementptr inbounds nuw %"class.Ttopt::TruthTable", ptr %25, i32 0, i32 2
  %228 = load i32, ptr %227, align 4, !tbaa !38
  %229 = icmp slt i32 %226, %228
  br i1 %229, label %230, label %243

230:                                              ; preds = %225
  %231 = load ptr, ptr %19, align 8, !tbaa !36
  %232 = load i32, ptr %20, align 4, !tbaa !8
  %233 = sext i32 %232 to i64
  %234 = getelementptr inbounds i64, ptr %231, i64 %233
  %235 = load i64, ptr %234, align 8, !tbaa !63
  %236 = getelementptr inbounds nuw %"class.Ttopt::TruthTableCare", ptr %25, i32 0, i32 3
  %237 = load i32, ptr %20, align 4, !tbaa !8
  %238 = sext i32 %237 to i64
  %239 = call noundef nonnull align 8 dereferenceable(8) ptr @_ZNSt6vectorImSaImEEixEm(ptr noundef nonnull align 8 dereferenceable(24) %236, i64 noundef %238) #18
  store i64 %235, ptr %239, align 8, !tbaa !63
  br label %240

240:                                              ; preds = %230
  %241 = load i32, ptr %20, align 4, !tbaa !8
  %242 = add nsw i32 %241, 1
  store i32 %242, ptr %20, align 4, !tbaa !8
  br label %225, !llvm.loop !106

243:                                              ; preds = %225
  %244 = load ptr, ptr %19, align 8, !tbaa !36
  %245 = icmp ne ptr %244, null
  br i1 %245, label %246, label %248

246:                                              ; preds = %243
  %247 = load ptr, ptr %19, align 8, !tbaa !36
  call void @free(ptr noundef %247) #18
  store ptr null, ptr %19, align 8, !tbaa !36
  br label %249

248:                                              ; preds = %243
  br label %249

249:                                              ; preds = %248, %246
  %250 = load i32, ptr %10, align 4, !tbaa !8
  %251 = call noundef i32 @_ZN5Ttopt10TruthTable13RandomSiftReoEi(ptr noundef nonnull align 8 dereferenceable(216) %25, i32 noundef %250)
  call void @_ZN5Ttopt14TruthTableCare8OptimizeEv(ptr noundef nonnull align 8 dereferenceable(360) %25)
  %252 = load ptr, ptr %14, align 8, !tbaa !3
  %253 = load ptr, ptr %16, align 8, !tbaa !35
  call void @_ZN5Ttopt10TruthTable14BDDGenerateAigEP10Gia_Man_t_P10Vec_Int_t_(ptr noundef nonnull align 8 dereferenceable(216) %25, ptr noundef %252, ptr noundef %253)
  %254 = load ptr, ptr %16, align 8, !tbaa !35
  call void @_ZL11Vec_IntFreeP10Vec_Int_t_(ptr noundef %254)
  call void @_ZN5Ttopt14TruthTableCareD2Ev(ptr noundef nonnull align 8 dereferenceable(360) %25) #18
  call void @llvm.lifetime.end.p0(i64 360, ptr %25) #18
  br label %255

255:                                              ; preds = %249, %110
  %256 = load i32, ptr %9, align 4, !tbaa !8
  %257 = load i32, ptr %21, align 4, !tbaa !8
  %258 = add nsw i32 %257, %256
  store i32 %258, ptr %21, align 4, !tbaa !8
  br label %70, !llvm.loop !107

259:                                              ; preds = %70
  %260 = load ptr, ptr %7, align 8, !tbaa !3
  call void @Gia_ObjComputeTruthTableStop(ptr noundef %260)
  %261 = load ptr, ptr %14, align 8, !tbaa !3
  call void @Gia_ManHashStop(ptr noundef %261)
  %262 = load ptr, ptr %14, align 8, !tbaa !3
  %263 = load ptr, ptr %7, align 8, !tbaa !3
  %264 = call noundef i32 @_ZL13Gia_ManRegNumP10Gia_Man_t_(ptr noundef %263)
  call void @Gia_ManSetRegNum(ptr noundef %262, i32 noundef %264)
  call void @_ZL12Vec_WrdFreePPP10Vec_Wrd_t_(ptr noundef %24)
  %265 = load ptr, ptr %14, align 8, !tbaa !3
  call void @llvm.lifetime.end.p0(i64 8, ptr %24) #18
  call void @llvm.lifetime.end.p0(i64 4, ptr %23) #18
  call void @llvm.lifetime.end.p0(i64 4, ptr %22) #18
  call void @llvm.lifetime.end.p0(i64 4, ptr %21) #18
  call void @llvm.lifetime.end.p0(i64 4, ptr %20) #18
  call void @llvm.lifetime.end.p0(i64 8, ptr %19) #18
  call void @llvm.lifetime.end.p0(i64 8, ptr %18) #18
  call void @llvm.lifetime.end.p0(i64 8, ptr %17) #18
  call void @llvm.lifetime.end.p0(i64 8, ptr %16) #18
  call void @llvm.lifetime.end.p0(i64 8, ptr %15) #18
  call void @llvm.lifetime.end.p0(i64 8, ptr %14) #18
  call void @llvm.lifetime.end.p0(i64 4, ptr %13) #18
  ret ptr %265
}

; Function Attrs: inlinehint mustprogress nounwind uwtable
define internal noundef ptr @_ZL14Vec_WrdReadBinPci(ptr noundef %0, i32 noundef %1) #3 {
  %3 = alloca ptr, align 8
  %4 = alloca ptr, align 8
  %5 = alloca i32, align 4
  %6 = alloca ptr, align 8
  %7 = alloca i32, align 4
  %8 = alloca i32, align 4
  %9 = alloca ptr, align 8
  %10 = alloca i32, align 4
  store ptr %0, ptr %4, align 8, !tbaa !68
  store i32 %1, ptr %5, align 4, !tbaa !8
  call void @llvm.lifetime.start.p0(i64 8, ptr %6) #18
  store ptr null, ptr %6, align 8, !tbaa !101
  call void @llvm.lifetime.start.p0(i64 4, ptr %7) #18
  call void @llvm.lifetime.start.p0(i64 4, ptr %8) #18
  call void @llvm.lifetime.start.p0(i64 8, ptr %9) #18
  %11 = load ptr, ptr %4, align 8, !tbaa !68
  %12 = call noalias ptr @fopen(ptr noundef %11, ptr noundef @.str.5)
  store ptr %12, ptr %9, align 8, !tbaa !108
  %13 = load ptr, ptr %9, align 8, !tbaa !108
  %14 = icmp eq ptr %13, null
  br i1 %14, label %15, label %18

15:                                               ; preds = %2
  %16 = load ptr, ptr %4, align 8, !tbaa !68
  %17 = call i32 (ptr, ...) @printf(ptr noundef @.str.6, ptr noundef %16)
  store ptr null, ptr %3, align 8
  store i32 1, ptr %10, align 4
  br label %69

18:                                               ; preds = %2
  %19 = load ptr, ptr %9, align 8, !tbaa !108
  %20 = call i32 @fseek(ptr noundef %19, i64 noundef 0, i32 noundef 2)
  %21 = load ptr, ptr %9, align 8, !tbaa !108
  %22 = call i64 @ftell(ptr noundef %21)
  %23 = trunc i64 %22 to i32
  store i32 %23, ptr %7, align 4, !tbaa !8
  %24 = load i32, ptr %7, align 4, !tbaa !8
  %25 = icmp eq i32 %24, 0
  br i1 %25, label %26, label %30

26:                                               ; preds = %18
  %27 = call i32 (ptr, ...) @printf(ptr noundef @.str.7)
  %28 = load ptr, ptr %9, align 8, !tbaa !108
  %29 = call i32 @fclose(ptr noundef %28)
  store ptr null, ptr %3, align 8
  store i32 1, ptr %10, align 4
  br label %69

30:                                               ; preds = %18
  %31 = load i32, ptr %7, align 4, !tbaa !8
  %32 = srem i32 %31, 8
  %33 = icmp sgt i32 %32, 0
  br i1 %33, label %34, label %40

34:                                               ; preds = %30
  %35 = load i32, ptr %7, align 4, !tbaa !8
  %36 = srem i32 %35, 8
  %37 = call i32 (ptr, ...) @printf(ptr noundef @.str.8, i32 noundef %36)
  %38 = load ptr, ptr %9, align 8, !tbaa !108
  %39 = call i32 @fclose(ptr noundef %38)
  store ptr null, ptr %3, align 8
  store i32 1, ptr %10, align 4
  br label %69

40:                                               ; preds = %30
  %41 = load ptr, ptr %9, align 8, !tbaa !108
  call void @rewind(ptr noundef %41)
  %42 = load i32, ptr %7, align 4, !tbaa !8
  %43 = sdiv i32 %42, 8
  %44 = call noundef ptr @_ZL12Vec_WrdStarti(i32 noundef %43)
  store ptr %44, ptr %6, align 8, !tbaa !101
  %45 = load ptr, ptr %6, align 8, !tbaa !101
  %46 = call noundef ptr @_ZL12Vec_WrdArrayP10Vec_Wrd_t_(ptr noundef %45)
  %47 = load i32, ptr %7, align 4, !tbaa !8
  %48 = sext i32 %47 to i64
  %49 = load ptr, ptr %9, align 8, !tbaa !108
  %50 = call i64 @fread(ptr noundef %46, i64 noundef 1, i64 noundef %48, ptr noundef %49)
  %51 = trunc i64 %50 to i32
  store i32 %51, ptr %8, align 4, !tbaa !8
  %52 = load ptr, ptr %9, align 8, !tbaa !108
  %53 = call i32 @fclose(ptr noundef %52)
  %54 = load i32, ptr %8, align 4, !tbaa !8
  %55 = load i32, ptr %7, align 4, !tbaa !8
  %56 = icmp ne i32 %54, %55
  br i1 %56, label %57, label %59

57:                                               ; preds = %40
  %58 = call i32 (ptr, ...) @printf(ptr noundef @.str.9)
  br label %59

59:                                               ; preds = %57, %40
  %60 = load i32, ptr %5, align 4, !tbaa !8
  %61 = icmp ne i32 %60, 0
  br i1 %61, label %62, label %67

62:                                               ; preds = %59
  %63 = load i32, ptr %7, align 4, !tbaa !8
  %64 = sdiv i32 %63, 8
  %65 = load ptr, ptr %4, align 8, !tbaa !68
  %66 = call i32 (ptr, ...) @printf(ptr noundef @.str.10, i32 noundef %64, ptr noundef %65)
  br label %67

67:                                               ; preds = %62, %59
  %68 = load ptr, ptr %6, align 8, !tbaa !101
  store ptr %68, ptr %3, align 8
  store i32 1, ptr %10, align 4
  br label %69

69:                                               ; preds = %67, %34, %26, %15
  call void @llvm.lifetime.end.p0(i64 8, ptr %9) #18
  call void @llvm.lifetime.end.p0(i64 4, ptr %8) #18
  call void @llvm.lifetime.end.p0(i64 4, ptr %7) #18
  call void @llvm.lifetime.end.p0(i64 8, ptr %6) #18
  %70 = load ptr, ptr %3, align 8
  ret ptr %70
}

; Function Attrs: inlinehint mustprogress nounwind uwtable
define internal noundef i32 @_ZL15Gia_ManAppendCoP10Gia_Man_t_i(ptr noundef %0, i32 noundef %1) #3 {
  %3 = alloca ptr, align 8
  %4 = alloca i32, align 4
  %5 = alloca ptr, align 8
  store ptr %0, ptr %3, align 8, !tbaa !3
  store i32 %1, ptr %4, align 4, !tbaa !8
  call void @llvm.lifetime.start.p0(i64 8, ptr %5) #18
  %6 = load ptr, ptr %3, align 8, !tbaa !3
  %7 = call noundef ptr @_ZL16Gia_ManAppendObjP10Gia_Man_t_(ptr noundef %6)
  store ptr %7, ptr %5, align 8, !tbaa !32
  %8 = load ptr, ptr %5, align 8, !tbaa !32
  %9 = load i64, ptr %8, align 4
  %10 = and i64 %9, -2147483649
  %11 = or i64 %10, 2147483648
  store i64 %11, ptr %8, align 4
  %12 = load ptr, ptr %3, align 8, !tbaa !3
  %13 = load ptr, ptr %5, align 8, !tbaa !32
  %14 = call noundef i32 @_ZL9Gia_ObjIdP10Gia_Man_t_P10Gia_Obj_t_(ptr noundef %12, ptr noundef %13)
  %15 = load i32, ptr %4, align 4, !tbaa !8
  %16 = call noundef i32 @_ZL11Abc_Lit2Vari(i32 noundef %15)
  %17 = sub nsw i32 %14, %16
  %18 = load ptr, ptr %5, align 8, !tbaa !32
  %19 = zext i32 %17 to i64
  %20 = load i64, ptr %18, align 4
  %21 = and i64 %19, 536870911
  %22 = and i64 %20, -536870912
  %23 = or i64 %22, %21
  store i64 %23, ptr %18, align 4
  %24 = load i32, ptr %4, align 4, !tbaa !8
  %25 = call noundef i32 @_ZL14Abc_LitIsCompli(i32 noundef %24)
  %26 = load ptr, ptr %5, align 8, !tbaa !32
  %27 = zext i32 %25 to i64
  %28 = load i64, ptr %26, align 4
  %29 = and i64 %27, 1
  %30 = shl i64 %29, 29
  %31 = and i64 %28, -536870913
  %32 = or i64 %31, %30
  store i64 %32, ptr %26, align 4
  %33 = load ptr, ptr %3, align 8, !tbaa !3
  %34 = getelementptr inbounds nuw %struct.Gia_Man_t_, ptr %33, i32 0, i32 12
  %35 = load ptr, ptr %34, align 8, !tbaa !70
  %36 = call noundef i32 @_ZL11Vec_IntSizeP10Vec_Int_t_(ptr noundef %35)
  %37 = load ptr, ptr %5, align 8, !tbaa !32
  %38 = zext i32 %36 to i64
  %39 = load i64, ptr %37, align 4
  %40 = and i64 %38, 536870911
  %41 = shl i64 %40, 32
  %42 = and i64 %39, -2305843004918726657
  %43 = or i64 %42, %41
  store i64 %43, ptr %37, align 4
  %44 = load ptr, ptr %3, align 8, !tbaa !3
  %45 = getelementptr inbounds nuw %struct.Gia_Man_t_, ptr %44, i32 0, i32 12
  %46 = load ptr, ptr %45, align 8, !tbaa !70
  %47 = load ptr, ptr %3, align 8, !tbaa !3
  %48 = load ptr, ptr %5, align 8, !tbaa !32
  %49 = call noundef i32 @_ZL9Gia_ObjIdP10Gia_Man_t_P10Gia_Obj_t_(ptr noundef %47, ptr noundef %48)
  call void @_ZL11Vec_IntPushP10Vec_Int_t_i(ptr noundef %46, i32 noundef %49)
  %50 = load ptr, ptr %3, align 8, !tbaa !3
  %51 = getelementptr inbounds nuw %struct.Gia_Man_t_, ptr %50, i32 0, i32 33
  %52 = load ptr, ptr %51, align 8, !tbaa !110
  %53 = icmp ne ptr %52, null
  br i1 %53, label %54, label %59

54:                                               ; preds = %2
  %55 = load ptr, ptr %3, align 8, !tbaa !3
  %56 = load ptr, ptr %5, align 8, !tbaa !32
  %57 = call noundef ptr @_ZL13Gia_ObjFanin0P10Gia_Obj_t_(ptr noundef %56)
  %58 = load ptr, ptr %5, align 8, !tbaa !32
  call void @Gia_ObjAddFanout(ptr noundef %55, ptr noundef %57, ptr noundef %58)
  br label %59

59:                                               ; preds = %54, %2
  %60 = load ptr, ptr %3, align 8, !tbaa !3
  %61 = load ptr, ptr %5, align 8, !tbaa !32
  %62 = call noundef i32 @_ZL9Gia_ObjIdP10Gia_Man_t_P10Gia_Obj_t_(ptr noundef %60, ptr noundef %61)
  %63 = shl i32 %62, 1
  call void @llvm.lifetime.end.p0(i64 8, ptr %5) #18
  ret i32 %63
}

; Function Attrs: mustprogress nounwind uwtable
define linkonce_odr void @_ZN5Ttopt18TruthTableLevelTSMC2Eii(ptr noundef nonnull align 8 dereferenceable(360) %0, i32 noundef %1, i32 noundef %2) unnamed_addr #0 comdat align 2 {
  %4 = alloca ptr, align 8
  %5 = alloca i32, align 4
  %6 = alloca i32, align 4
  store ptr %0, ptr %4, align 8, !tbaa !111
  store i32 %1, ptr %5, align 4, !tbaa !8
  store i32 %2, ptr %6, align 4, !tbaa !8
  %7 = load ptr, ptr %4, align 8
  %8 = load i32, ptr %5, align 4, !tbaa !8
  %9 = load i32, ptr %6, align 4, !tbaa !8
  call void @_ZN5Ttopt14TruthTableCareC2Eii(ptr noundef nonnull align 8 dereferenceable(360) %7, i32 noundef %8, i32 noundef %9)
  store ptr getelementptr inbounds inrange(-16, 112) ({ [16 x ptr] }, ptr @_ZTVN5Ttopt18TruthTableLevelTSME, i32 0, i32 0, i32 2), ptr %7, align 8, !tbaa !73
  ret void
}

declare ptr @Gia_ManCountFraction(ptr noundef, ptr noundef, ptr noundef, i32 noundef, i32 noundef, ptr noundef) #2

; Function Attrs: nounwind
declare void @free(ptr noundef) #4

; Function Attrs: mustprogress nounwind uwtable
define linkonce_odr void @_ZN5Ttopt14TruthTableCare8OptimizeEv(ptr noundef nonnull align 8 dereferenceable(360) %0) unnamed_addr #0 comdat align 2 {
  %2 = alloca ptr, align 8
  %3 = alloca i32, align 4
  %4 = alloca i32, align 4
  %5 = alloca i32, align 4
  %6 = alloca i32, align 4
  store ptr %0, ptr %2, align 8, !tbaa !113
  %7 = load ptr, ptr %2, align 8
  call void @_ZN5Ttopt14TruthTableCare19OptimizationStartupEv(ptr noundef nonnull align 8 dereferenceable(360) %7)
  call void @llvm.lifetime.start.p0(i64 4, ptr %3) #18
  store i32 1, ptr %3, align 4, !tbaa !8
  br label %8

8:                                                ; preds = %55, %1
  %9 = load i32, ptr %3, align 4, !tbaa !8
  %10 = getelementptr inbounds nuw %"class.Ttopt::TruthTable", ptr %7, i32 0, i32 1
  %11 = load i32, ptr %10, align 8, !tbaa !82
  %12 = icmp slt i32 %9, %11
  br i1 %12, label %14, label %13

13:                                               ; preds = %8
  store i32 2, ptr %4, align 4
  call void @llvm.lifetime.end.p0(i64 4, ptr %3) #18
  br label %58

14:                                               ; preds = %8
  call void @llvm.lifetime.start.p0(i64 4, ptr %5) #18
  store i32 0, ptr %5, align 4, !tbaa !8
  br label %15

15:                                               ; preds = %51, %14
  %16 = load i32, ptr %5, align 4, !tbaa !8
  %17 = zext i32 %16 to i64
  %18 = getelementptr inbounds nuw %"class.Ttopt::TruthTable", ptr %7, i32 0, i32 6
  %19 = load i32, ptr %3, align 4, !tbaa !8
  %20 = sub nsw i32 %19, 1
  %21 = sext i32 %20 to i64
  %22 = call noundef nonnull align 8 dereferenceable(24) ptr @_ZNSt6vectorIS_IiSaIiEESaIS1_EEixEm(ptr noundef nonnull align 8 dereferenceable(24) %18, i64 noundef %21) #18
  %23 = call noundef i64 @_ZNKSt6vectorIiSaIiEE4sizeEv(ptr noundef nonnull align 8 dereferenceable(24) %22) #18
  %24 = icmp ult i64 %17, %23
  br i1 %24, label %26, label %25

25:                                               ; preds = %15
  store i32 5, ptr %4, align 4
  call void @llvm.lifetime.end.p0(i64 4, ptr %5) #18
  br label %54

26:                                               ; preds = %15
  call void @llvm.lifetime.start.p0(i64 4, ptr %6) #18
  %27 = getelementptr inbounds nuw %"class.Ttopt::TruthTable", ptr %7, i32 0, i32 6
  %28 = load i32, ptr %3, align 4, !tbaa !8
  %29 = sub nsw i32 %28, 1
  %30 = sext i32 %29 to i64
  %31 = call noundef nonnull align 8 dereferenceable(24) ptr @_ZNSt6vectorIS_IiSaIiEESaIS1_EEixEm(ptr noundef nonnull align 8 dereferenceable(24) %27, i64 noundef %30) #18
  %32 = load i32, ptr %5, align 4, !tbaa !8
  %33 = zext i32 %32 to i64
  %34 = call noundef nonnull align 4 dereferenceable(4) ptr @_ZNSt6vectorIiSaIiEEixEm(ptr noundef nonnull align 8 dereferenceable(24) %31, i64 noundef %33) #18
  %35 = load i32, ptr %34, align 4, !tbaa !8
  store i32 %35, ptr %6, align 4, !tbaa !8
  %36 = load i32, ptr %6, align 4, !tbaa !8
  %37 = shl i32 %36, 1
  %38 = load i32, ptr %3, align 4, !tbaa !8
  %39 = load ptr, ptr %7, align 8, !tbaa !73
  %40 = getelementptr inbounds ptr, ptr %39, i64 4
  %41 = load ptr, ptr %40, align 8
  %42 = call noundef i32 %41(ptr noundef nonnull align 8 dereferenceable(360) %7, i32 noundef %37, i32 noundef %38)
  %43 = load i32, ptr %6, align 4, !tbaa !8
  %44 = shl i32 %43, 1
  %45 = xor i32 %44, 1
  %46 = load i32, ptr %3, align 4, !tbaa !8
  %47 = load ptr, ptr %7, align 8, !tbaa !73
  %48 = getelementptr inbounds ptr, ptr %47, i64 4
  %49 = load ptr, ptr %48, align 8
  %50 = call noundef i32 %49(ptr noundef nonnull align 8 dereferenceable(360) %7, i32 noundef %45, i32 noundef %46)
  call void @llvm.lifetime.end.p0(i64 4, ptr %6) #18
  br label %51

51:                                               ; preds = %26
  %52 = load i32, ptr %5, align 4, !tbaa !8
  %53 = add i32 %52, 1
  store i32 %53, ptr %5, align 4, !tbaa !8
  br label %15, !llvm.loop !115

54:                                               ; preds = %25
  br label %55

55:                                               ; preds = %54
  %56 = load i32, ptr %3, align 4, !tbaa !8
  %57 = add nsw i32 %56, 1
  store i32 %57, ptr %3, align 4, !tbaa !8
  br label %8, !llvm.loop !116

58:                                               ; preds = %13
  call void @_ZN5Ttopt14TruthTableCare13CompleteMergeEv(ptr noundef nonnull align 8 dereferenceable(360) %7)
  ret void
}

; Function Attrs: inlinehint mustprogress nounwind uwtable
define linkonce_odr void @_ZN5Ttopt14TruthTableCareD2Ev(ptr noundef nonnull align 8 dereferenceable(360) %0) unnamed_addr #3 comdat align 2 {
  %2 = alloca ptr, align 8
  store ptr %0, ptr %2, align 8, !tbaa !113
  %3 = load ptr, ptr %2, align 8
  store ptr getelementptr inbounds inrange(-16, 112) ({ [16 x ptr] }, ptr @_ZTVN5Ttopt14TruthTableCareE, i32 0, i32 0, i32 2), ptr %3, align 8, !tbaa !73
  %4 = getelementptr inbounds nuw %"class.Ttopt::TruthTableCare", ptr %3, i32 0, i32 6
  call void @_ZNSt6vectorIS_IS_ISt4pairIiiESaIS1_EESaIS3_EESaIS5_EED2Ev(ptr noundef nonnull align 8 dereferenceable(24) %4) #18
  %5 = getelementptr inbounds nuw %"class.Ttopt::TruthTableCare", ptr %3, i32 0, i32 5
  call void @_ZNSt6vectorIS_ImSaImEESaIS1_EED2Ev(ptr noundef nonnull align 8 dereferenceable(24) %5) #18
  %6 = getelementptr inbounds nuw %"class.Ttopt::TruthTableCare", ptr %3, i32 0, i32 4
  call void @_ZNSt6vectorIS_ISt4pairIiiESaIS1_EESaIS3_EED2Ev(ptr noundef nonnull align 8 dereferenceable(24) %6) #18
  %7 = getelementptr inbounds nuw %"class.Ttopt::TruthTableCare", ptr %3, i32 0, i32 3
  call void @_ZNSt6vectorImSaImEED2Ev(ptr noundef nonnull align 8 dereferenceable(24) %7) #18
  %8 = getelementptr inbounds nuw %"class.Ttopt::TruthTableCare", ptr %3, i32 0, i32 2
  call void @_ZNSt6vectorImSaImEED2Ev(ptr noundef nonnull align 8 dereferenceable(24) %8) #18
  %9 = getelementptr inbounds nuw %"class.Ttopt::TruthTableCare", ptr %3, i32 0, i32 1
  call void @_ZNSt6vectorImSaImEED2Ev(ptr noundef nonnull align 8 dereferenceable(24) %9) #18
  call void @_ZN5Ttopt10TruthTableD2Ev(ptr noundef nonnull align 8 dereferenceable(216) %3) #18
  ret void
}

; Function Attrs: inlinehint mustprogress nounwind uwtable
define internal void @_ZL12Vec_WrdFreePPP10Vec_Wrd_t_(ptr noundef %0) #3 {
  %2 = alloca ptr, align 8
  store ptr %0, ptr %2, align 8, !tbaa !117
  %3 = load ptr, ptr %2, align 8, !tbaa !117
  %4 = load ptr, ptr %3, align 8, !tbaa !101
  %5 = icmp eq ptr %4, null
  br i1 %5, label %6, label %7

6:                                                ; preds = %1
  br label %32

7:                                                ; preds = %1
  %8 = load ptr, ptr %2, align 8, !tbaa !117
  %9 = load ptr, ptr %8, align 8, !tbaa !101
  %10 = getelementptr inbounds nuw %struct.Vec_Wrd_t_, ptr %9, i32 0, i32 2
  %11 = load ptr, ptr %10, align 8, !tbaa !119
  %12 = icmp ne ptr %11, null
  br i1 %12, label %13, label %21

13:                                               ; preds = %7
  %14 = load ptr, ptr %2, align 8, !tbaa !117
  %15 = load ptr, ptr %14, align 8, !tbaa !101
  %16 = getelementptr inbounds nuw %struct.Vec_Wrd_t_, ptr %15, i32 0, i32 2
  %17 = load ptr, ptr %16, align 8, !tbaa !119
  call void @free(ptr noundef %17) #18
  %18 = load ptr, ptr %2, align 8, !tbaa !117
  %19 = load ptr, ptr %18, align 8, !tbaa !101
  %20 = getelementptr inbounds nuw %struct.Vec_Wrd_t_, ptr %19, i32 0, i32 2
  store ptr null, ptr %20, align 8, !tbaa !119
  br label %22

21:                                               ; preds = %7
  br label %22

22:                                               ; preds = %21, %13
  %23 = load ptr, ptr %2, align 8, !tbaa !117
  %24 = load ptr, ptr %23, align 8, !tbaa !101
  %25 = icmp ne ptr %24, null
  br i1 %25, label %26, label %30

26:                                               ; preds = %22
  %27 = load ptr, ptr %2, align 8, !tbaa !117
  %28 = load ptr, ptr %27, align 8, !tbaa !101
  call void @free(ptr noundef %28) #18
  %29 = load ptr, ptr %2, align 8, !tbaa !117
  store ptr null, ptr %29, align 8, !tbaa !101
  br label %31

30:                                               ; preds = %22
  br label %31

31:                                               ; preds = %30, %26
  br label %32

32:                                               ; preds = %31, %6
  ret void
}

; Function Attrs: nounwind
declare ptr @strcpy(ptr noundef, ptr noundef) #4

; Function Attrs: nounwind allocsize(0)
declare noalias ptr @malloc(i64 noundef) #5

; Function Attrs: nounwind willreturn memory(read)
declare i64 @strlen(ptr noundef) #6

; Function Attrs: inlinehint mustprogress nounwind uwtable
define internal noundef ptr @_ZL10Gia_ManObjP10Gia_Man_t_i(ptr noundef %0, i32 noundef %1) #3 {
  %3 = alloca ptr, align 8
  %4 = alloca i32, align 4
  store ptr %0, ptr %3, align 8, !tbaa !3
  store i32 %1, ptr %4, align 4, !tbaa !8
  %5 = load ptr, ptr %3, align 8, !tbaa !3
  %6 = getelementptr inbounds nuw %struct.Gia_Man_t_, ptr %5, i32 0, i32 6
  %7 = load ptr, ptr %6, align 8, !tbaa !121
  %8 = load i32, ptr %4, align 4, !tbaa !8
  %9 = sext i32 %8 to i64
  %10 = getelementptr inbounds %struct.Gia_Obj_t_, ptr %7, i64 %9
  ret ptr %10
}

; Function Attrs: inlinehint mustprogress nounwind uwtable
define internal noundef i32 @_ZL12Vec_IntEntryP10Vec_Int_t_i(ptr noundef %0, i32 noundef %1) #3 {
  %3 = alloca ptr, align 8
  %4 = alloca i32, align 4
  store ptr %0, ptr %3, align 8, !tbaa !35
  store i32 %1, ptr %4, align 4, !tbaa !8
  %5 = load ptr, ptr %3, align 8, !tbaa !35
  %6 = getelementptr inbounds nuw %struct.Vec_Int_t_, ptr %5, i32 0, i32 2
  %7 = load ptr, ptr %6, align 8, !tbaa !99
  %8 = load i32, ptr %4, align 4, !tbaa !8
  %9 = sext i32 %8 to i64
  %10 = getelementptr inbounds i32, ptr %7, i64 %9
  %11 = load i32, ptr %10, align 4, !tbaa !8
  ret i32 %11
}

; Function Attrs: inlinehint mustprogress nounwind uwtable
define internal noundef ptr @_ZL16Gia_ManAppendObjP10Gia_Man_t_(ptr noundef %0) #3 {
  %2 = alloca ptr, align 8
  %3 = alloca i32, align 4
  store ptr %0, ptr %2, align 8, !tbaa !3
  %4 = load ptr, ptr %2, align 8, !tbaa !3
  %5 = getelementptr inbounds nuw %struct.Gia_Man_t_, ptr %4, i32 0, i32 4
  %6 = load i32, ptr %5, align 8, !tbaa !67
  %7 = load ptr, ptr %2, align 8, !tbaa !3
  %8 = getelementptr inbounds nuw %struct.Gia_Man_t_, ptr %7, i32 0, i32 5
  %9 = load i32, ptr %8, align 4, !tbaa !122
  %10 = icmp eq i32 %6, %9
  br i1 %10, label %11, label %116

11:                                               ; preds = %1
  call void @llvm.lifetime.start.p0(i64 4, ptr %3) #18
  %12 = load ptr, ptr %2, align 8, !tbaa !3
  %13 = getelementptr inbounds nuw %struct.Gia_Man_t_, ptr %12, i32 0, i32 5
  %14 = load i32, ptr %13, align 4, !tbaa !122
  %15 = mul nsw i32 2, %14
  %16 = call noundef i32 @_ZL10Abc_MinIntii(i32 noundef %15, i32 noundef 536870912)
  store i32 %16, ptr %3, align 4, !tbaa !8
  %17 = load ptr, ptr %2, align 8, !tbaa !3
  %18 = getelementptr inbounds nuw %struct.Gia_Man_t_, ptr %17, i32 0, i32 4
  %19 = load i32, ptr %18, align 8, !tbaa !67
  %20 = icmp eq i32 %19, 536870912
  br i1 %20, label %21, label %23

21:                                               ; preds = %11
  %22 = call i32 (ptr, ...) @printf(ptr noundef @.str)
  call void @exit(i32 noundef 1) #21
  unreachable

23:                                               ; preds = %11
  %24 = load ptr, ptr %2, align 8, !tbaa !3
  %25 = getelementptr inbounds nuw %struct.Gia_Man_t_, ptr %24, i32 0, i32 104
  %26 = load i32, ptr %25, align 4, !tbaa !123
  %27 = icmp ne i32 %26, 0
  br i1 %27, label %28, label %34

28:                                               ; preds = %23
  %29 = load ptr, ptr %2, align 8, !tbaa !3
  %30 = getelementptr inbounds nuw %struct.Gia_Man_t_, ptr %29, i32 0, i32 5
  %31 = load i32, ptr %30, align 4, !tbaa !122
  %32 = load i32, ptr %3, align 4, !tbaa !8
  %33 = call i32 (ptr, ...) @printf(ptr noundef @.str.1, i32 noundef %31, i32 noundef %32)
  br label %34

34:                                               ; preds = %28, %23
  %35 = load ptr, ptr %2, align 8, !tbaa !3
  %36 = getelementptr inbounds nuw %struct.Gia_Man_t_, ptr %35, i32 0, i32 6
  %37 = load ptr, ptr %36, align 8, !tbaa !121
  %38 = icmp ne ptr %37, null
  br i1 %38, label %39, label %47

39:                                               ; preds = %34
  %40 = load ptr, ptr %2, align 8, !tbaa !3
  %41 = getelementptr inbounds nuw %struct.Gia_Man_t_, ptr %40, i32 0, i32 6
  %42 = load ptr, ptr %41, align 8, !tbaa !121
  %43 = load i32, ptr %3, align 4, !tbaa !8
  %44 = sext i32 %43 to i64
  %45 = mul i64 12, %44
  %46 = call ptr @realloc(ptr noundef %42, i64 noundef %45) #22
  br label %52

47:                                               ; preds = %34
  %48 = load i32, ptr %3, align 4, !tbaa !8
  %49 = sext i32 %48 to i64
  %50 = mul i64 12, %49
  %51 = call noalias ptr @malloc(i64 noundef %50) #20
  br label %52

52:                                               ; preds = %47, %39
  %53 = phi ptr [ %46, %39 ], [ %51, %47 ]
  %54 = load ptr, ptr %2, align 8, !tbaa !3
  %55 = getelementptr inbounds nuw %struct.Gia_Man_t_, ptr %54, i32 0, i32 6
  store ptr %53, ptr %55, align 8, !tbaa !121
  %56 = load ptr, ptr %2, align 8, !tbaa !3
  %57 = getelementptr inbounds nuw %struct.Gia_Man_t_, ptr %56, i32 0, i32 6
  %58 = load ptr, ptr %57, align 8, !tbaa !121
  %59 = load ptr, ptr %2, align 8, !tbaa !3
  %60 = getelementptr inbounds nuw %struct.Gia_Man_t_, ptr %59, i32 0, i32 5
  %61 = load i32, ptr %60, align 4, !tbaa !122
  %62 = sext i32 %61 to i64
  %63 = getelementptr inbounds %struct.Gia_Obj_t_, ptr %58, i64 %62
  %64 = load i32, ptr %3, align 4, !tbaa !8
  %65 = load ptr, ptr %2, align 8, !tbaa !3
  %66 = getelementptr inbounds nuw %struct.Gia_Man_t_, ptr %65, i32 0, i32 5
  %67 = load i32, ptr %66, align 4, !tbaa !122
  %68 = sub nsw i32 %64, %67
  %69 = sext i32 %68 to i64
  %70 = mul i64 12, %69
  call void @llvm.memset.p0.i64(ptr align 4 %63, i8 0, i64 %70, i1 false)
  %71 = load ptr, ptr %2, align 8, !tbaa !3
  %72 = getelementptr inbounds nuw %struct.Gia_Man_t_, ptr %71, i32 0, i32 7
  %73 = load ptr, ptr %72, align 8, !tbaa !124
  %74 = icmp ne ptr %73, null
  br i1 %74, label %75, label %112

75:                                               ; preds = %52
  %76 = load ptr, ptr %2, align 8, !tbaa !3
  %77 = getelementptr inbounds nuw %struct.Gia_Man_t_, ptr %76, i32 0, i32 7
  %78 = load ptr, ptr %77, align 8, !tbaa !124
  %79 = icmp ne ptr %78, null
  br i1 %79, label %80, label %88

80:                                               ; preds = %75
  %81 = load ptr, ptr %2, align 8, !tbaa !3
  %82 = getelementptr inbounds nuw %struct.Gia_Man_t_, ptr %81, i32 0, i32 7
  %83 = load ptr, ptr %82, align 8, !tbaa !124
  %84 = load i32, ptr %3, align 4, !tbaa !8
  %85 = sext i32 %84 to i64
  %86 = mul i64 4, %85
  %87 = call ptr @realloc(ptr noundef %83, i64 noundef %86) #22
  br label %93

88:                                               ; preds = %75
  %89 = load i32, ptr %3, align 4, !tbaa !8
  %90 = sext i32 %89 to i64
  %91 = mul i64 4, %90
  %92 = call noalias ptr @malloc(i64 noundef %91) #20
  br label %93

93:                                               ; preds = %88, %80
  %94 = phi ptr [ %87, %80 ], [ %92, %88 ]
  %95 = load ptr, ptr %2, align 8, !tbaa !3
  %96 = getelementptr inbounds nuw %struct.Gia_Man_t_, ptr %95, i32 0, i32 7
  store ptr %94, ptr %96, align 8, !tbaa !124
  %97 = load ptr, ptr %2, align 8, !tbaa !3
  %98 = getelementptr inbounds nuw %struct.Gia_Man_t_, ptr %97, i32 0, i32 7
  %99 = load ptr, ptr %98, align 8, !tbaa !124
  %100 = load ptr, ptr %2, align 8, !tbaa !3
  %101 = getelementptr inbounds nuw %struct.Gia_Man_t_, ptr %100, i32 0, i32 5
  %102 = load i32, ptr %101, align 4, !tbaa !122
  %103 = sext i32 %102 to i64
  %104 = getelementptr inbounds i32, ptr %99, i64 %103
  %105 = load i32, ptr %3, align 4, !tbaa !8
  %106 = load ptr, ptr %2, align 8, !tbaa !3
  %107 = getelementptr inbounds nuw %struct.Gia_Man_t_, ptr %106, i32 0, i32 5
  %108 = load i32, ptr %107, align 4, !tbaa !122
  %109 = sub nsw i32 %105, %108
  %110 = sext i32 %109 to i64
  %111 = mul i64 4, %110
  call void @llvm.memset.p0.i64(ptr align 4 %104, i8 0, i64 %111, i1 false)
  br label %112

112:                                              ; preds = %93, %52
  %113 = load i32, ptr %3, align 4, !tbaa !8
  %114 = load ptr, ptr %2, align 8, !tbaa !3
  %115 = getelementptr inbounds nuw %struct.Gia_Man_t_, ptr %114, i32 0, i32 5
  store i32 %113, ptr %115, align 4, !tbaa !122
  call void @llvm.lifetime.end.p0(i64 4, ptr %3) #18
  br label %116

116:                                              ; preds = %112, %1
  %117 = load ptr, ptr %2, align 8, !tbaa !3
  %118 = getelementptr inbounds nuw %struct.Gia_Man_t_, ptr %117, i32 0, i32 14
  %119 = call noundef i32 @_ZL11Vec_IntSizeP10Vec_Int_t_(ptr noundef %118)
  %120 = icmp ne i32 %119, 0
  br i1 %120, label %121, label %124

121:                                              ; preds = %116
  %122 = load ptr, ptr %2, align 8, !tbaa !3
  %123 = getelementptr inbounds nuw %struct.Gia_Man_t_, ptr %122, i32 0, i32 13
  call void @_ZL11Vec_IntPushP10Vec_Int_t_i(ptr noundef %123, i32 noundef 0)
  br label %124

124:                                              ; preds = %121, %116
  %125 = load ptr, ptr %2, align 8, !tbaa !3
  %126 = load ptr, ptr %2, align 8, !tbaa !3
  %127 = getelementptr inbounds nuw %struct.Gia_Man_t_, ptr %126, i32 0, i32 4
  %128 = load i32, ptr %127, align 8, !tbaa !67
  %129 = add nsw i32 %128, 1
  store i32 %129, ptr %127, align 8, !tbaa !67
  %130 = call noundef ptr @_ZL10Gia_ManObjP10Gia_Man_t_i(ptr noundef %125, i32 noundef %128)
  ret ptr %130
}

; Function Attrs: inlinehint mustprogress nounwind uwtable
define internal void @_ZL11Vec_IntPushP10Vec_Int_t_i(ptr noundef %0, i32 noundef %1) #3 {
  %3 = alloca ptr, align 8
  %4 = alloca i32, align 4
  store ptr %0, ptr %3, align 8, !tbaa !35
  store i32 %1, ptr %4, align 4, !tbaa !8
  %5 = load ptr, ptr %3, align 8, !tbaa !35
  %6 = getelementptr inbounds nuw %struct.Vec_Int_t_, ptr %5, i32 0, i32 1
  %7 = load i32, ptr %6, align 4, !tbaa !69
  %8 = load ptr, ptr %3, align 8, !tbaa !35
  %9 = getelementptr inbounds nuw %struct.Vec_Int_t_, ptr %8, i32 0, i32 0
  %10 = load i32, ptr %9, align 8, !tbaa !125
  %11 = icmp eq i32 %7, %10
  br i1 %11, label %12, label %26

12:                                               ; preds = %2
  %13 = load ptr, ptr %3, align 8, !tbaa !35
  %14 = getelementptr inbounds nuw %struct.Vec_Int_t_, ptr %13, i32 0, i32 0
  %15 = load i32, ptr %14, align 8, !tbaa !125
  %16 = icmp slt i32 %15, 16
  br i1 %16, label %17, label %19

17:                                               ; preds = %12
  %18 = load ptr, ptr %3, align 8, !tbaa !35
  call void @_ZL11Vec_IntGrowP10Vec_Int_t_i(ptr noundef %18, i32 noundef 16)
  br label %25

19:                                               ; preds = %12
  %20 = load ptr, ptr %3, align 8, !tbaa !35
  %21 = load ptr, ptr %3, align 8, !tbaa !35
  %22 = getelementptr inbounds nuw %struct.Vec_Int_t_, ptr %21, i32 0, i32 0
  %23 = load i32, ptr %22, align 8, !tbaa !125
  %24 = mul nsw i32 2, %23
  call void @_ZL11Vec_IntGrowP10Vec_Int_t_i(ptr noundef %20, i32 noundef %24)
  br label %25

25:                                               ; preds = %19, %17
  br label %26

26:                                               ; preds = %25, %2
  %27 = load i32, ptr %4, align 4, !tbaa !8
  %28 = load ptr, ptr %3, align 8, !tbaa !35
  %29 = getelementptr inbounds nuw %struct.Vec_Int_t_, ptr %28, i32 0, i32 2
  %30 = load ptr, ptr %29, align 8, !tbaa !99
  %31 = load ptr, ptr %3, align 8, !tbaa !35
  %32 = getelementptr inbounds nuw %struct.Vec_Int_t_, ptr %31, i32 0, i32 1
  %33 = load i32, ptr %32, align 4, !tbaa !69
  %34 = add nsw i32 %33, 1
  store i32 %34, ptr %32, align 4, !tbaa !69
  %35 = sext i32 %33 to i64
  %36 = getelementptr inbounds i32, ptr %30, i64 %35
  store i32 %27, ptr %36, align 4, !tbaa !8
  ret void
}

; Function Attrs: inlinehint mustprogress nounwind uwtable
define internal noundef i32 @_ZL9Gia_ObjIdP10Gia_Man_t_P10Gia_Obj_t_(ptr noundef %0, ptr noundef %1) #3 {
  %3 = alloca ptr, align 8
  %4 = alloca ptr, align 8
  store ptr %0, ptr %3, align 8, !tbaa !3
  store ptr %1, ptr %4, align 8, !tbaa !32
  %5 = load ptr, ptr %4, align 8, !tbaa !32
  %6 = load ptr, ptr %3, align 8, !tbaa !3
  %7 = getelementptr inbounds nuw %struct.Gia_Man_t_, ptr %6, i32 0, i32 6
  %8 = load ptr, ptr %7, align 8, !tbaa !121
  %9 = ptrtoint ptr %5 to i64
  %10 = ptrtoint ptr %8 to i64
  %11 = sub i64 %9, %10
  %12 = sdiv exact i64 %11, 12
  %13 = trunc i64 %12 to i32
  ret i32 %13
}

; Function Attrs: inlinehint mustprogress nounwind uwtable
define internal noundef i32 @_ZL10Abc_MinIntii(i32 noundef %0, i32 noundef %1) #3 {
  %3 = alloca i32, align 4
  %4 = alloca i32, align 4
  store i32 %0, ptr %3, align 4, !tbaa !8
  store i32 %1, ptr %4, align 4, !tbaa !8
  %5 = load i32, ptr %3, align 4, !tbaa !8
  %6 = load i32, ptr %4, align 4, !tbaa !8
  %7 = icmp slt i32 %5, %6
  br i1 %7, label %8, label %10

8:                                                ; preds = %2
  %9 = load i32, ptr %3, align 4, !tbaa !8
  br label %12

10:                                               ; preds = %2
  %11 = load i32, ptr %4, align 4, !tbaa !8
  br label %12

12:                                               ; preds = %10, %8
  %13 = phi i32 [ %9, %8 ], [ %11, %10 ]
  ret i32 %13
}

declare i32 @printf(ptr noundef, ...) #2

; Function Attrs: noreturn nounwind
declare void @exit(i32 noundef) #7

; Function Attrs: nounwind allocsize(1)
declare ptr @realloc(ptr noundef, i64 noundef) #8

; Function Attrs: nocallback nofree nounwind willreturn memory(argmem: write)
declare void @llvm.memset.p0.i64(ptr writeonly captures(none), i8, i64, i1 immarg) #9

; Function Attrs: inlinehint mustprogress nounwind uwtable
define internal void @_ZL11Vec_IntGrowP10Vec_Int_t_i(ptr noundef %0, i32 noundef %1) #3 {
  %3 = alloca ptr, align 8
  %4 = alloca i32, align 4
  store ptr %0, ptr %3, align 8, !tbaa !35
  store i32 %1, ptr %4, align 4, !tbaa !8
  %5 = load ptr, ptr %3, align 8, !tbaa !35
  %6 = getelementptr inbounds nuw %struct.Vec_Int_t_, ptr %5, i32 0, i32 0
  %7 = load i32, ptr %6, align 8, !tbaa !125
  %8 = load i32, ptr %4, align 4, !tbaa !8
  %9 = icmp sge i32 %7, %8
  br i1 %9, label %10, label %11

10:                                               ; preds = %2
  br label %36

11:                                               ; preds = %2
  %12 = load ptr, ptr %3, align 8, !tbaa !35
  %13 = getelementptr inbounds nuw %struct.Vec_Int_t_, ptr %12, i32 0, i32 2
  %14 = load ptr, ptr %13, align 8, !tbaa !99
  %15 = icmp ne ptr %14, null
  br i1 %15, label %16, label %24

16:                                               ; preds = %11
  %17 = load ptr, ptr %3, align 8, !tbaa !35
  %18 = getelementptr inbounds nuw %struct.Vec_Int_t_, ptr %17, i32 0, i32 2
  %19 = load ptr, ptr %18, align 8, !tbaa !99
  %20 = load i32, ptr %4, align 4, !tbaa !8
  %21 = sext i32 %20 to i64
  %22 = mul i64 4, %21
  %23 = call ptr @realloc(ptr noundef %19, i64 noundef %22) #22
  br label %29

24:                                               ; preds = %11
  %25 = load i32, ptr %4, align 4, !tbaa !8
  %26 = sext i32 %25 to i64
  %27 = mul i64 4, %26
  %28 = call noalias ptr @malloc(i64 noundef %27) #20
  br label %29

29:                                               ; preds = %24, %16
  %30 = phi ptr [ %23, %16 ], [ %28, %24 ]
  %31 = load ptr, ptr %3, align 8, !tbaa !35
  %32 = getelementptr inbounds nuw %struct.Vec_Int_t_, ptr %31, i32 0, i32 2
  store ptr %30, ptr %32, align 8, !tbaa !99
  %33 = load i32, ptr %4, align 4, !tbaa !8
  %34 = load ptr, ptr %3, align 8, !tbaa !35
  %35 = getelementptr inbounds nuw %struct.Vec_Int_t_, ptr %34, i32 0, i32 0
  store i32 %33, ptr %35, align 8, !tbaa !125
  br label %36

36:                                               ; preds = %29, %10
  ret void
}

; Function Attrs: mustprogress nounwind uwtable
define linkonce_odr void @_ZNSt6vectorIS_IiSaIiEESaIS1_EEC2Ev(ptr noundef nonnull align 8 dereferenceable(24) %0) unnamed_addr #0 comdat align 2 {
  %2 = alloca ptr, align 8
  store ptr %0, ptr %2, align 8, !tbaa !126
  %3 = load ptr, ptr %2, align 8
  call void @_ZNSt12_Vector_baseISt6vectorIiSaIiEESaIS2_EEC2Ev(ptr noundef nonnull align 8 dereferenceable(24) %3) #18
  ret void
}

; Function Attrs: mustprogress nounwind uwtable
define linkonce_odr void @_ZNSt6vectorIS_IS_IiSaIiEESaIS1_EESaIS3_EEC2Ev(ptr noundef nonnull align 8 dereferenceable(24) %0) unnamed_addr #0 comdat align 2 {
  %2 = alloca ptr, align 8
  store ptr %0, ptr %2, align 8, !tbaa !127
  %3 = load ptr, ptr %2, align 8
  call void @_ZNSt12_Vector_baseISt6vectorIS0_IiSaIiEESaIS2_EESaIS4_EEC2Ev(ptr noundef nonnull align 8 dereferenceable(24) %3) #18
  ret void
}

; Function Attrs: mustprogress nounwind uwtable
define linkonce_odr void @_ZN5Ttopt13TruthTableReo4SaveEj(ptr noundef nonnull align 8 dereferenceable(272) %0, i32 noundef %1) unnamed_addr #0 comdat align 2 {
  %3 = alloca ptr, align 8
  %4 = alloca i32, align 4
  store ptr %0, ptr %3, align 8, !tbaa !71
  store i32 %1, ptr %4, align 4, !tbaa !8
  %5 = load ptr, ptr %3, align 8
  %6 = getelementptr inbounds nuw %"class.Ttopt::TruthTable", ptr %5, i32 0, i32 12
  %7 = call noundef i64 @_ZNKSt6vectorIS_IiSaIiEESaIS1_EE4sizeEv(ptr noundef nonnull align 8 dereferenceable(24) %6) #18
  %8 = load i32, ptr %4, align 4, !tbaa !8
  %9 = add i32 %8, 1
  %10 = zext i32 %9 to i64
  %11 = icmp ult i64 %7, %10
  br i1 %11, label %12, label %17

12:                                               ; preds = %2
  %13 = getelementptr inbounds nuw %"class.Ttopt::TruthTable", ptr %5, i32 0, i32 12
  %14 = load i32, ptr %4, align 4, !tbaa !8
  %15 = add i32 %14, 1
  %16 = zext i32 %15 to i64
  call void @_ZNSt6vectorIS_IiSaIiEESaIS1_EE6resizeEm(ptr noundef nonnull align 8 dereferenceable(24) %13, i64 noundef %16)
  br label %17

17:                                               ; preds = %12, %2
  %18 = getelementptr inbounds nuw %"class.Ttopt::TruthTable", ptr %5, i32 0, i32 8
  %19 = getelementptr inbounds nuw %"class.Ttopt::TruthTable", ptr %5, i32 0, i32 12
  %20 = load i32, ptr %4, align 4, !tbaa !8
  %21 = zext i32 %20 to i64
  %22 = call noundef nonnull align 8 dereferenceable(24) ptr @_ZNSt6vectorIS_IiSaIiEESaIS1_EEixEm(ptr noundef nonnull align 8 dereferenceable(24) %19, i64 noundef %21) #18
  %23 = call noundef nonnull align 8 dereferenceable(24) ptr @_ZNSt6vectorIiSaIiEEaSERKS1_(ptr noundef nonnull align 8 dereferenceable(24) %22, ptr noundef nonnull align 8 dereferenceable(24) %18)
  ret void
}

; Function Attrs: mustprogress nounwind uwtable
define linkonce_odr void @_ZN5Ttopt13TruthTableReo4LoadEj(ptr noundef nonnull align 8 dereferenceable(272) %0, i32 noundef %1) unnamed_addr #0 comdat align 2 {
  %3 = alloca ptr, align 8
  %4 = alloca i32, align 4
  store ptr %0, ptr %3, align 8, !tbaa !71
  store i32 %1, ptr %4, align 4, !tbaa !8
  %5 = load ptr, ptr %3, align 8
  %6 = getelementptr inbounds nuw %"class.Ttopt::TruthTable", ptr %5, i32 0, i32 12
  %7 = load i32, ptr %4, align 4, !tbaa !8
  %8 = zext i32 %7 to i64
  %9 = call noundef nonnull align 8 dereferenceable(24) ptr @_ZNSt6vectorIS_IiSaIiEESaIS1_EEixEm(ptr noundef nonnull align 8 dereferenceable(24) %6, i64 noundef %8) #18
  %10 = getelementptr inbounds nuw %"class.Ttopt::TruthTable", ptr %5, i32 0, i32 8
  %11 = call noundef nonnull align 8 dereferenceable(24) ptr @_ZNSt6vectorIiSaIiEEaSERKS1_(ptr noundef nonnull align 8 dereferenceable(24) %10, ptr noundef nonnull align 8 dereferenceable(24) %9)
  ret void
}

; Function Attrs: mustprogress nounwind uwtable
define linkonce_odr void @_ZN5Ttopt13TruthTableReo11SaveIndicesEj(ptr noundef nonnull align 8 dereferenceable(272) %0, i32 noundef %1) unnamed_addr #0 comdat align 2 {
  %3 = alloca ptr, align 8
  %4 = alloca i32, align 4
  store ptr %0, ptr %3, align 8, !tbaa !71
  store i32 %1, ptr %4, align 4, !tbaa !8
  %5 = load ptr, ptr %3, align 8
  %6 = load i32, ptr %4, align 4, !tbaa !8
  call void @_ZN5Ttopt10TruthTable11SaveIndicesEj(ptr noundef nonnull align 8 dereferenceable(216) %5, i32 noundef %6)
  %7 = getelementptr inbounds nuw %"class.Ttopt::TruthTableReo", ptr %5, i32 0, i32 3
  %8 = call noundef i64 @_ZNKSt6vectorIS_IS_IiSaIiEESaIS1_EESaIS3_EE4sizeEv(ptr noundef nonnull align 8 dereferenceable(24) %7) #18
  %9 = load i32, ptr %4, align 4, !tbaa !8
  %10 = add i32 %9, 1
  %11 = zext i32 %10 to i64
  %12 = icmp ult i64 %8, %11
  br i1 %12, label %13, label %18

13:                                               ; preds = %2
  %14 = getelementptr inbounds nuw %"class.Ttopt::TruthTableReo", ptr %5, i32 0, i32 3
  %15 = load i32, ptr %4, align 4, !tbaa !8
  %16 = add i32 %15, 1
  %17 = zext i32 %16 to i64
  call void @_ZNSt6vectorIS_IS_IiSaIiEESaIS1_EESaIS3_EE6resizeEm(ptr noundef nonnull align 8 dereferenceable(24) %14, i64 noundef %17)
  br label %18

18:                                               ; preds = %13, %2
  %19 = getelementptr inbounds nuw %"class.Ttopt::TruthTableReo", ptr %5, i32 0, i32 2
  %20 = getelementptr inbounds nuw %"class.Ttopt::TruthTableReo", ptr %5, i32 0, i32 3
  %21 = load i32, ptr %4, align 4, !tbaa !8
  %22 = zext i32 %21 to i64
  %23 = call noundef nonnull align 8 dereferenceable(24) ptr @_ZNSt6vectorIS_IS_IiSaIiEESaIS1_EESaIS3_EEixEm(ptr noundef nonnull align 8 dereferenceable(24) %20, i64 noundef %22) #18
  %24 = call noundef nonnull align 8 dereferenceable(24) ptr @_ZNSt6vectorIS_IiSaIiEESaIS1_EEaSERKS3_(ptr noundef nonnull align 8 dereferenceable(24) %23, ptr noundef nonnull align 8 dereferenceable(24) %19)
  ret void
}

; Function Attrs: mustprogress nounwind uwtable
define linkonce_odr void @_ZN5Ttopt13TruthTableReo11LoadIndicesEj(ptr noundef nonnull align 8 dereferenceable(272) %0, i32 noundef %1) unnamed_addr #0 comdat align 2 {
  %3 = alloca ptr, align 8
  %4 = alloca i32, align 4
  store ptr %0, ptr %3, align 8, !tbaa !71
  store i32 %1, ptr %4, align 4, !tbaa !8
  %5 = load ptr, ptr %3, align 8
  %6 = load i32, ptr %4, align 4, !tbaa !8
  call void @_ZN5Ttopt10TruthTable11LoadIndicesEj(ptr noundef nonnull align 8 dereferenceable(216) %5, i32 noundef %6)
  %7 = getelementptr inbounds nuw %"class.Ttopt::TruthTableReo", ptr %5, i32 0, i32 3
  %8 = load i32, ptr %4, align 4, !tbaa !8
  %9 = zext i32 %8 to i64
  %10 = call noundef nonnull align 8 dereferenceable(24) ptr @_ZNSt6vectorIS_IS_IiSaIiEESaIS1_EESaIS3_EEixEm(ptr noundef nonnull align 8 dereferenceable(24) %7, i64 noundef %9) #18
  %11 = getelementptr inbounds nuw %"class.Ttopt::TruthTableReo", ptr %5, i32 0, i32 2
  %12 = call noundef nonnull align 8 dereferenceable(24) ptr @_ZNSt6vectorIS_IiSaIiEESaIS1_EEaSERKS3_(ptr noundef nonnull align 8 dereferenceable(24) %11, ptr noundef nonnull align 8 dereferenceable(24) %10)
  ret void
}

; Function Attrs: mustprogress nounwind uwtable
define linkonce_odr noundef i32 @_ZN5Ttopt10TruthTable11BDDBuildOneEii(ptr noundef nonnull align 8 dereferenceable(216) %0, i32 noundef %1, i32 noundef %2) unnamed_addr #0 comdat align 2 {
  %4 = alloca i32, align 4
  %5 = alloca ptr, align 8
  %6 = alloca i32, align 4
  %7 = alloca i32, align 4
  %8 = alloca i32, align 4
  %9 = alloca i32, align 4
  store ptr %0, ptr %5, align 8, !tbaa !80
  store i32 %1, ptr %6, align 4, !tbaa !8
  store i32 %2, ptr %7, align 4, !tbaa !8
  %10 = load ptr, ptr %5, align 8
  call void @llvm.lifetime.start.p0(i64 4, ptr %8) #18
  %11 = load i32, ptr %6, align 4, !tbaa !8
  %12 = load i32, ptr %7, align 4, !tbaa !8
  %13 = call noundef i32 @_ZN5Ttopt10TruthTable7BDDFindEii(ptr noundef nonnull align 8 dereferenceable(216) %10, i32 noundef %11, i32 noundef %12)
  store i32 %13, ptr %8, align 4, !tbaa !8
  %14 = load i32, ptr %8, align 4, !tbaa !8
  %15 = icmp sge i32 %14, -2
  br i1 %15, label %16, label %18

16:                                               ; preds = %3
  %17 = load i32, ptr %8, align 4, !tbaa !8
  store i32 %17, ptr %4, align 4
  store i32 1, ptr %9, align 4
  br label %31

18:                                               ; preds = %3
  %19 = getelementptr inbounds nuw %"class.Ttopt::TruthTable", ptr %10, i32 0, i32 6
  %20 = load i32, ptr %7, align 4, !tbaa !8
  %21 = sext i32 %20 to i64
  %22 = call noundef nonnull align 8 dereferenceable(24) ptr @_ZNSt6vectorIS_IiSaIiEESaIS1_EEixEm(ptr noundef nonnull align 8 dereferenceable(24) %19, i64 noundef %21) #18
  call void @_ZNSt6vectorIiSaIiEE9push_backERKi(ptr noundef nonnull align 8 dereferenceable(24) %22, ptr noundef nonnull align 4 dereferenceable(4) %6)
  %23 = getelementptr inbounds nuw %"class.Ttopt::TruthTable", ptr %10, i32 0, i32 6
  %24 = load i32, ptr %7, align 4, !tbaa !8
  %25 = sext i32 %24 to i64
  %26 = call noundef nonnull align 8 dereferenceable(24) ptr @_ZNSt6vectorIS_IiSaIiEESaIS1_EEixEm(ptr noundef nonnull align 8 dereferenceable(24) %23, i64 noundef %25) #18
  %27 = call noundef i64 @_ZNKSt6vectorIiSaIiEE4sizeEv(ptr noundef nonnull align 8 dereferenceable(24) %26) #18
  %28 = sub i64 %27, 1
  %29 = shl i64 %28, 1
  %30 = trunc i64 %29 to i32
  store i32 %30, ptr %4, align 4
  store i32 1, ptr %9, align 4
  br label %31

31:                                               ; preds = %18, %16
  call void @llvm.lifetime.end.p0(i64 4, ptr %8) #18
  %32 = load i32, ptr %4, align 4
  ret i32 %32
}

; Function Attrs: mustprogress nounwind uwtable
define linkonce_odr void @_ZN5Ttopt13TruthTableReo15BDDBuildStartupEv(ptr noundef nonnull align 8 dereferenceable(272) %0) unnamed_addr #0 comdat align 2 {
  %2 = alloca ptr, align 8
  store ptr %0, ptr %2, align 8, !tbaa !71
  %3 = load ptr, ptr %2, align 8
  %4 = getelementptr inbounds nuw %"class.Ttopt::TruthTableReo", ptr %3, i32 0, i32 2
  call void @_ZNSt6vectorIS_IiSaIiEESaIS1_EE5clearEv(ptr noundef nonnull align 8 dereferenceable(24) %4) #18
  %5 = getelementptr inbounds nuw %"class.Ttopt::TruthTableReo", ptr %3, i32 0, i32 2
  %6 = getelementptr inbounds nuw %"class.Ttopt::TruthTable", ptr %3, i32 0, i32 1
  %7 = load i32, ptr %6, align 8, !tbaa !82
  %8 = sext i32 %7 to i64
  call void @_ZNSt6vectorIS_IiSaIiEESaIS1_EE6resizeEm(ptr noundef nonnull align 8 dereferenceable(24) %5, i64 noundef %8)
  call void @_ZN5Ttopt10TruthTable15BDDBuildStartupEv(ptr noundef nonnull align 8 dereferenceable(216) %3)
  ret void
}

; Function Attrs: mustprogress nounwind uwtable
define linkonce_odr void @_ZN5Ttopt13TruthTableReo13BDDBuildLevelEi(ptr noundef nonnull align 8 dereferenceable(272) %0, i32 noundef %1) unnamed_addr #0 comdat align 2 {
  %3 = alloca ptr, align 8
  %4 = alloca i32, align 4
  %5 = alloca i32, align 4
  %6 = alloca i32, align 4
  %7 = alloca i32, align 4
  %8 = alloca i32, align 4
  store ptr %0, ptr %3, align 8, !tbaa !71
  store i32 %1, ptr %4, align 4, !tbaa !8
  %9 = load ptr, ptr %3, align 8
  call void @llvm.lifetime.start.p0(i64 4, ptr %5) #18
  store i32 0, ptr %5, align 4, !tbaa !8
  br label %10

10:                                               ; preds = %66, %2
  %11 = load i32, ptr %5, align 4, !tbaa !8
  %12 = zext i32 %11 to i64
  %13 = getelementptr inbounds nuw %"class.Ttopt::TruthTable", ptr %9, i32 0, i32 6
  %14 = load i32, ptr %4, align 4, !tbaa !8
  %15 = sub nsw i32 %14, 1
  %16 = sext i32 %15 to i64
  %17 = call noundef nonnull align 8 dereferenceable(24) ptr @_ZNSt6vectorIS_IiSaIiEESaIS1_EEixEm(ptr noundef nonnull align 8 dereferenceable(24) %13, i64 noundef %16) #18
  %18 = call noundef i64 @_ZNKSt6vectorIiSaIiEE4sizeEv(ptr noundef nonnull align 8 dereferenceable(24) %17) #18
  %19 = icmp ult i64 %12, %18
  br i1 %19, label %21, label %20

20:                                               ; preds = %10
  call void @llvm.lifetime.end.p0(i64 4, ptr %5) #18
  br label %69

21:                                               ; preds = %10
  call void @llvm.lifetime.start.p0(i64 4, ptr %6) #18
  %22 = getelementptr inbounds nuw %"class.Ttopt::TruthTable", ptr %9, i32 0, i32 6
  %23 = load i32, ptr %4, align 4, !tbaa !8
  %24 = sub nsw i32 %23, 1
  %25 = sext i32 %24 to i64
  %26 = call noundef nonnull align 8 dereferenceable(24) ptr @_ZNSt6vectorIS_IiSaIiEESaIS1_EEixEm(ptr noundef nonnull align 8 dereferenceable(24) %22, i64 noundef %25) #18
  %27 = load i32, ptr %5, align 4, !tbaa !8
  %28 = zext i32 %27 to i64
  %29 = call noundef nonnull align 4 dereferenceable(4) ptr @_ZNSt6vectorIiSaIiEEixEm(ptr noundef nonnull align 8 dereferenceable(24) %26, i64 noundef %28) #18
  %30 = load i32, ptr %29, align 4, !tbaa !8
  store i32 %30, ptr %6, align 4, !tbaa !8
  call void @llvm.lifetime.start.p0(i64 4, ptr %7) #18
  %31 = load i32, ptr %6, align 4, !tbaa !8
  %32 = shl i32 %31, 1
  %33 = load i32, ptr %4, align 4, !tbaa !8
  %34 = load ptr, ptr %9, align 8, !tbaa !73
  %35 = getelementptr inbounds ptr, ptr %34, i64 4
  %36 = load ptr, ptr %35, align 8
  %37 = call noundef i32 %36(ptr noundef nonnull align 8 dereferenceable(216) %9, i32 noundef %32, i32 noundef %33)
  store i32 %37, ptr %7, align 4, !tbaa !8
  call void @llvm.lifetime.start.p0(i64 4, ptr %8) #18
  %38 = load i32, ptr %6, align 4, !tbaa !8
  %39 = shl i32 %38, 1
  %40 = xor i32 %39, 1
  %41 = load i32, ptr %4, align 4, !tbaa !8
  %42 = load ptr, ptr %9, align 8, !tbaa !73
  %43 = getelementptr inbounds ptr, ptr %42, i64 4
  %44 = load ptr, ptr %43, align 8
  %45 = call noundef i32 %44(ptr noundef nonnull align 8 dereferenceable(216) %9, i32 noundef %40, i32 noundef %41)
  store i32 %45, ptr %8, align 4, !tbaa !8
  %46 = getelementptr inbounds nuw %"class.Ttopt::TruthTableReo", ptr %9, i32 0, i32 2
  %47 = load i32, ptr %4, align 4, !tbaa !8
  %48 = sub nsw i32 %47, 1
  %49 = sext i32 %48 to i64
  %50 = call noundef nonnull align 8 dereferenceable(24) ptr @_ZNSt6vectorIS_IiSaIiEESaIS1_EEixEm(ptr noundef nonnull align 8 dereferenceable(24) %46, i64 noundef %49) #18
  call void @_ZNSt6vectorIiSaIiEE9push_backERKi(ptr noundef nonnull align 8 dereferenceable(24) %50, ptr noundef nonnull align 4 dereferenceable(4) %7)
  %51 = getelementptr inbounds nuw %"class.Ttopt::TruthTableReo", ptr %9, i32 0, i32 2
  %52 = load i32, ptr %4, align 4, !tbaa !8
  %53 = sub nsw i32 %52, 1
  %54 = sext i32 %53 to i64
  %55 = call noundef nonnull align 8 dereferenceable(24) ptr @_ZNSt6vectorIS_IiSaIiEESaIS1_EEixEm(ptr noundef nonnull align 8 dereferenceable(24) %51, i64 noundef %54) #18
  call void @_ZNSt6vectorIiSaIiEE9push_backERKi(ptr noundef nonnull align 8 dereferenceable(24) %55, ptr noundef nonnull align 4 dereferenceable(4) %8)
  %56 = load i32, ptr %7, align 4, !tbaa !8
  %57 = load i32, ptr %8, align 4, !tbaa !8
  %58 = icmp eq i32 %56, %57
  br i1 %58, label %59, label %65

59:                                               ; preds = %21
  %60 = getelementptr inbounds nuw %"class.Ttopt::TruthTable", ptr %9, i32 0, i32 7
  %61 = load i32, ptr %4, align 4, !tbaa !8
  %62 = sub nsw i32 %61, 1
  %63 = sext i32 %62 to i64
  %64 = call noundef nonnull align 8 dereferenceable(24) ptr @_ZNSt6vectorIS_IiSaIiEESaIS1_EEixEm(ptr noundef nonnull align 8 dereferenceable(24) %60, i64 noundef %63) #18
  call void @_ZNSt6vectorIiSaIiEE9push_backERKi(ptr noundef nonnull align 8 dereferenceable(24) %64, ptr noundef nonnull align 4 dereferenceable(4) %6)
  br label %65

65:                                               ; preds = %59, %21
  call void @llvm.lifetime.end.p0(i64 4, ptr %8) #18
  call void @llvm.lifetime.end.p0(i64 4, ptr %7) #18
  call void @llvm.lifetime.end.p0(i64 4, ptr %6) #18
  br label %66

66:                                               ; preds = %65
  %67 = load i32, ptr %5, align 4, !tbaa !8
  %68 = add i32 %67, 1
  store i32 %68, ptr %5, align 4, !tbaa !8
  br label %10, !llvm.loop !129

69:                                               ; preds = %20
  ret void
}

; Function Attrs: mustprogress nounwind uwtable
define linkonce_odr noundef i32 @_ZN5Ttopt13TruthTableReo8BDDBuildEv(ptr noundef nonnull align 8 dereferenceable(272) %0) unnamed_addr #0 comdat align 2 {
  %2 = alloca i32, align 4
  %3 = alloca ptr, align 8
  %4 = alloca i32, align 4
  store ptr %0, ptr %3, align 8, !tbaa !71
  %5 = load ptr, ptr %3, align 8
  %6 = getelementptr inbounds nuw %"class.Ttopt::TruthTableReo", ptr %5, i32 0, i32 1
  %7 = load i8, ptr %6, align 8, !tbaa !75, !range !130, !noundef !131
  %8 = trunc i8 %7 to i1
  br i1 %8, label %9, label %11

9:                                                ; preds = %1
  %10 = call noundef i32 @_ZN5Ttopt10TruthTable12BDDNodeCountEv(ptr noundef nonnull align 8 dereferenceable(216) %5)
  store i32 %10, ptr %2, align 4
  br label %33

11:                                               ; preds = %1
  %12 = getelementptr inbounds nuw %"class.Ttopt::TruthTableReo", ptr %5, i32 0, i32 1
  store i8 1, ptr %12, align 8, !tbaa !75
  %13 = load ptr, ptr %5, align 8, !tbaa !73
  %14 = getelementptr inbounds ptr, ptr %13, i64 5
  %15 = load ptr, ptr %14, align 8
  call void %15(ptr noundef nonnull align 8 dereferenceable(272) %5)
  call void @llvm.lifetime.start.p0(i64 4, ptr %4) #18
  store i32 1, ptr %4, align 4, !tbaa !8
  br label %16

16:                                               ; preds = %28, %11
  %17 = load i32, ptr %4, align 4, !tbaa !8
  %18 = getelementptr inbounds nuw %"class.Ttopt::TruthTable", ptr %5, i32 0, i32 1
  %19 = load i32, ptr %18, align 8, !tbaa !82
  %20 = add nsw i32 %19, 1
  %21 = icmp slt i32 %17, %20
  br i1 %21, label %23, label %22

22:                                               ; preds = %16
  call void @llvm.lifetime.end.p0(i64 4, ptr %4) #18
  br label %31

23:                                               ; preds = %16
  %24 = load i32, ptr %4, align 4, !tbaa !8
  %25 = load ptr, ptr %5, align 8, !tbaa !73
  %26 = getelementptr inbounds ptr, ptr %25, i64 6
  %27 = load ptr, ptr %26, align 8
  call void %27(ptr noundef nonnull align 8 dereferenceable(272) %5, i32 noundef %24)
  br label %28

28:                                               ; preds = %23
  %29 = load i32, ptr %4, align 4, !tbaa !8
  %30 = add nsw i32 %29, 1
  store i32 %30, ptr %4, align 4, !tbaa !8
  br label %16, !llvm.loop !132

31:                                               ; preds = %22
  %32 = call noundef i32 @_ZN5Ttopt10TruthTable12BDDNodeCountEv(ptr noundef nonnull align 8 dereferenceable(216) %5)
  store i32 %32, ptr %2, align 4
  br label %33

33:                                               ; preds = %31, %9
  %34 = load i32, ptr %2, align 4
  ret i32 %34
}

; Function Attrs: mustprogress nounwind uwtable
define linkonce_odr noundef i32 @_ZN5Ttopt13TruthTableReo10BDDRebuildEi(ptr noundef nonnull align 8 dereferenceable(272) %0, i32 noundef %1) unnamed_addr #0 comdat align 2 {
  %3 = alloca ptr, align 8
  %4 = alloca i32, align 4
  %5 = alloca %"class.std::vector.5", align 8
  %6 = alloca %"class.std::vector.5", align 8
  %7 = alloca ptr, align 8
  %8 = alloca i32, align 4
  %9 = alloca i32, align 4
  %10 = alloca i32, align 4
  %11 = alloca i32, align 4
  %12 = alloca i8, align 1
  %13 = alloca i8, align 1
  %14 = alloca i32, align 4
  %15 = alloca i32, align 4
  %16 = alloca i32, align 4
  %17 = alloca i32, align 4
  %18 = alloca i32, align 4
  %19 = alloca i32, align 4
  store ptr %0, ptr %3, align 8, !tbaa !71
  store i32 %1, ptr %4, align 4, !tbaa !8
  %20 = load ptr, ptr %3, align 8
  %21 = getelementptr inbounds nuw %"class.Ttopt::TruthTable", ptr %20, i32 0, i32 7
  %22 = load i32, ptr %4, align 4, !tbaa !8
  %23 = sext i32 %22 to i64
  %24 = call noundef nonnull align 8 dereferenceable(24) ptr @_ZNSt6vectorIS_IiSaIiEESaIS1_EEixEm(ptr noundef nonnull align 8 dereferenceable(24) %21, i64 noundef %23) #18
  call void @_ZNSt6vectorIiSaIiEE5clearEv(ptr noundef nonnull align 8 dereferenceable(24) %24) #18
  %25 = getelementptr inbounds nuw %"class.Ttopt::TruthTable", ptr %20, i32 0, i32 7
  %26 = load i32, ptr %4, align 4, !tbaa !8
  %27 = add nsw i32 %26, 1
  %28 = sext i32 %27 to i64
  %29 = call noundef nonnull align 8 dereferenceable(24) ptr @_ZNSt6vectorIS_IiSaIiEESaIS1_EEixEm(ptr noundef nonnull align 8 dereferenceable(24) %25, i64 noundef %28) #18
  call void @_ZNSt6vectorIiSaIiEE5clearEv(ptr noundef nonnull align 8 dereferenceable(24) %29) #18
  call void @llvm.lifetime.start.p0(i64 24, ptr %5) #18
  call void @_ZNSt6vectorIiSaIiEEC2Ev(ptr noundef nonnull align 8 dereferenceable(24) %5) #18
  call void @llvm.lifetime.start.p0(i64 24, ptr %6) #18
  call void @_ZNSt6vectorIiSaIiEEC2Ev(ptr noundef nonnull align 8 dereferenceable(24) %6) #18
  call void @llvm.lifetime.start.p0(i64 8, ptr %7) #18
  %30 = getelementptr inbounds nuw %"class.Ttopt::TruthTable", ptr %20, i32 0, i32 6
  %31 = load i32, ptr %4, align 4, !tbaa !8
  %32 = add nsw i32 %31, 1
  %33 = sext i32 %32 to i64
  %34 = call noundef nonnull align 8 dereferenceable(24) ptr @_ZNSt6vectorIS_IiSaIiEESaIS1_EEixEm(ptr noundef nonnull align 8 dereferenceable(24) %30, i64 noundef %33) #18
  %35 = call noundef i64 @_ZNKSt6vectorIiSaIiEE4sizeEv(ptr noundef nonnull align 8 dereferenceable(24) %34) #18
  %36 = mul i64 2, %35
  %37 = trunc i64 %36 to i32
  %38 = call noundef ptr @_ZL16Hash_IntManStarti(i32 noundef %37)
  store ptr %38, ptr %7, align 8, !tbaa !133
  %39 = getelementptr inbounds nuw %"class.Ttopt::TruthTable", ptr %20, i32 0, i32 6
  %40 = load i32, ptr %4, align 4, !tbaa !8
  %41 = add nsw i32 %40, 1
  %42 = sext i32 %41 to i64
  %43 = call noundef nonnull align 8 dereferenceable(24) ptr @_ZNSt6vectorIS_IiSaIiEESaIS1_EEixEm(ptr noundef nonnull align 8 dereferenceable(24) %39, i64 noundef %42) #18
  call void @_ZNSt6vectorIiSaIiEE5clearEv(ptr noundef nonnull align 8 dereferenceable(24) %43) #18
  call void @llvm.lifetime.start.p0(i64 4, ptr %8) #18
  store i32 0, ptr %8, align 4, !tbaa !8
  br label %44

44:                                               ; preds = %227, %2
  %45 = load i32, ptr %8, align 4, !tbaa !8
  %46 = zext i32 %45 to i64
  %47 = getelementptr inbounds nuw %"class.Ttopt::TruthTable", ptr %20, i32 0, i32 6
  %48 = load i32, ptr %4, align 4, !tbaa !8
  %49 = sext i32 %48 to i64
  %50 = call noundef nonnull align 8 dereferenceable(24) ptr @_ZNSt6vectorIS_IiSaIiEESaIS1_EEixEm(ptr noundef nonnull align 8 dereferenceable(24) %47, i64 noundef %49) #18
  %51 = call noundef i64 @_ZNKSt6vectorIiSaIiEE4sizeEv(ptr noundef nonnull align 8 dereferenceable(24) %50) #18
  %52 = icmp ult i64 %46, %51
  br i1 %52, label %54, label %53

53:                                               ; preds = %44
  call void @llvm.lifetime.end.p0(i64 4, ptr %8) #18
  br label %230

54:                                               ; preds = %44
  call void @llvm.lifetime.start.p0(i64 4, ptr %9) #18
  %55 = getelementptr inbounds nuw %"class.Ttopt::TruthTable", ptr %20, i32 0, i32 6
  %56 = load i32, ptr %4, align 4, !tbaa !8
  %57 = sext i32 %56 to i64
  %58 = call noundef nonnull align 8 dereferenceable(24) ptr @_ZNSt6vectorIS_IiSaIiEESaIS1_EEixEm(ptr noundef nonnull align 8 dereferenceable(24) %55, i64 noundef %57) #18
  %59 = load i32, ptr %8, align 4, !tbaa !8
  %60 = zext i32 %59 to i64
  %61 = call noundef nonnull align 4 dereferenceable(4) ptr @_ZNSt6vectorIiSaIiEEixEm(ptr noundef nonnull align 8 dereferenceable(24) %58, i64 noundef %60) #18
  %62 = load i32, ptr %61, align 4, !tbaa !8
  store i32 %62, ptr %9, align 4, !tbaa !8
  call void @llvm.lifetime.start.p0(i64 4, ptr %10) #18
  %63 = getelementptr inbounds nuw %"class.Ttopt::TruthTableReo", ptr %20, i32 0, i32 2
  %64 = load i32, ptr %4, align 4, !tbaa !8
  %65 = sext i32 %64 to i64
  %66 = call noundef nonnull align 8 dereferenceable(24) ptr @_ZNSt6vectorIS_IiSaIiEESaIS1_EEixEm(ptr noundef nonnull align 8 dereferenceable(24) %63, i64 noundef %65) #18
  %67 = load i32, ptr %8, align 4, !tbaa !8
  %68 = load i32, ptr %8, align 4, !tbaa !8
  %69 = add i32 %67, %68
  %70 = zext i32 %69 to i64
  %71 = call noundef nonnull align 4 dereferenceable(4) ptr @_ZNSt6vectorIiSaIiEEixEm(ptr noundef nonnull align 8 dereferenceable(24) %66, i64 noundef %70) #18
  %72 = load i32, ptr %71, align 4, !tbaa !8
  %73 = ashr i32 %72, 1
  store i32 %73, ptr %10, align 4, !tbaa !8
  call void @llvm.lifetime.start.p0(i64 4, ptr %11) #18
  %74 = getelementptr inbounds nuw %"class.Ttopt::TruthTableReo", ptr %20, i32 0, i32 2
  %75 = load i32, ptr %4, align 4, !tbaa !8
  %76 = sext i32 %75 to i64
  %77 = call noundef nonnull align 8 dereferenceable(24) ptr @_ZNSt6vectorIS_IiSaIiEESaIS1_EEixEm(ptr noundef nonnull align 8 dereferenceable(24) %74, i64 noundef %76) #18
  %78 = load i32, ptr %8, align 4, !tbaa !8
  %79 = load i32, ptr %8, align 4, !tbaa !8
  %80 = add i32 %78, %79
  %81 = add i32 %80, 1
  %82 = zext i32 %81 to i64
  %83 = call noundef nonnull align 4 dereferenceable(4) ptr @_ZNSt6vectorIiSaIiEEixEm(ptr noundef nonnull align 8 dereferenceable(24) %77, i64 noundef %82) #18
  %84 = load i32, ptr %83, align 4, !tbaa !8
  %85 = ashr i32 %84, 1
  store i32 %85, ptr %11, align 4, !tbaa !8
  call void @llvm.lifetime.start.p0(i64 1, ptr %12) #18
  %86 = getelementptr inbounds nuw %"class.Ttopt::TruthTableReo", ptr %20, i32 0, i32 2
  %87 = load i32, ptr %4, align 4, !tbaa !8
  %88 = sext i32 %87 to i64
  %89 = call noundef nonnull align 8 dereferenceable(24) ptr @_ZNSt6vectorIS_IiSaIiEESaIS1_EEixEm(ptr noundef nonnull align 8 dereferenceable(24) %86, i64 noundef %88) #18
  %90 = load i32, ptr %8, align 4, !tbaa !8
  %91 = load i32, ptr %8, align 4, !tbaa !8
  %92 = add i32 %90, %91
  %93 = zext i32 %92 to i64
  %94 = call noundef nonnull align 4 dereferenceable(4) ptr @_ZNSt6vectorIiSaIiEEixEm(ptr noundef nonnull align 8 dereferenceable(24) %89, i64 noundef %93) #18
  %95 = load i32, ptr %94, align 4, !tbaa !8
  %96 = and i32 %95, 1
  %97 = icmp ne i32 %96, 0
  %98 = zext i1 %97 to i8
  store i8 %98, ptr %12, align 1, !tbaa !135
  call void @llvm.lifetime.start.p0(i64 1, ptr %13) #18
  %99 = getelementptr inbounds nuw %"class.Ttopt::TruthTableReo", ptr %20, i32 0, i32 2
  %100 = load i32, ptr %4, align 4, !tbaa !8
  %101 = sext i32 %100 to i64
  %102 = call noundef nonnull align 8 dereferenceable(24) ptr @_ZNSt6vectorIS_IiSaIiEESaIS1_EEixEm(ptr noundef nonnull align 8 dereferenceable(24) %99, i64 noundef %101) #18
  %103 = load i32, ptr %8, align 4, !tbaa !8
  %104 = load i32, ptr %8, align 4, !tbaa !8
  %105 = add i32 %103, %104
  %106 = add i32 %105, 1
  %107 = zext i32 %106 to i64
  %108 = call noundef nonnull align 4 dereferenceable(4) ptr @_ZNSt6vectorIiSaIiEEixEm(ptr noundef nonnull align 8 dereferenceable(24) %102, i64 noundef %107) #18
  %109 = load i32, ptr %108, align 4, !tbaa !8
  %110 = and i32 %109, 1
  %111 = icmp ne i32 %110, 0
  %112 = zext i1 %111 to i8
  store i8 %112, ptr %13, align 1, !tbaa !135
  call void @llvm.lifetime.start.p0(i64 4, ptr %14) #18
  call void @llvm.lifetime.start.p0(i64 4, ptr %15) #18
  call void @llvm.lifetime.start.p0(i64 4, ptr %16) #18
  call void @llvm.lifetime.start.p0(i64 4, ptr %17) #18
  %113 = load i32, ptr %10, align 4, !tbaa !8
  %114 = icmp slt i32 %113, 0
  br i1 %114, label %115, label %124

115:                                              ; preds = %54
  %116 = load i8, ptr %12, align 1, !tbaa !135, !range !130, !noundef !131
  %117 = trunc i8 %116 to i1
  %118 = zext i1 %117 to i32
  %119 = xor i32 -2, %118
  store i32 %119, ptr %14, align 4, !tbaa !8
  %120 = load i8, ptr %12, align 1, !tbaa !135, !range !130, !noundef !131
  %121 = trunc i8 %120 to i1
  %122 = zext i1 %121 to i32
  %123 = xor i32 -2, %122
  store i32 %123, ptr %15, align 4, !tbaa !8
  br label %156

124:                                              ; preds = %54
  %125 = getelementptr inbounds nuw %"class.Ttopt::TruthTableReo", ptr %20, i32 0, i32 2
  %126 = load i32, ptr %4, align 4, !tbaa !8
  %127 = add nsw i32 %126, 1
  %128 = sext i32 %127 to i64
  %129 = call noundef nonnull align 8 dereferenceable(24) ptr @_ZNSt6vectorIS_IiSaIiEESaIS1_EEixEm(ptr noundef nonnull align 8 dereferenceable(24) %125, i64 noundef %128) #18
  %130 = load i32, ptr %10, align 4, !tbaa !8
  %131 = load i32, ptr %10, align 4, !tbaa !8
  %132 = add nsw i32 %130, %131
  %133 = sext i32 %132 to i64
  %134 = call noundef nonnull align 4 dereferenceable(4) ptr @_ZNSt6vectorIiSaIiEEixEm(ptr noundef nonnull align 8 dereferenceable(24) %129, i64 noundef %133) #18
  %135 = load i32, ptr %134, align 4, !tbaa !8
  %136 = load i8, ptr %12, align 1, !tbaa !135, !range !130, !noundef !131
  %137 = trunc i8 %136 to i1
  %138 = zext i1 %137 to i32
  %139 = xor i32 %135, %138
  store i32 %139, ptr %14, align 4, !tbaa !8
  %140 = getelementptr inbounds nuw %"class.Ttopt::TruthTableReo", ptr %20, i32 0, i32 2
  %141 = load i32, ptr %4, align 4, !tbaa !8
  %142 = add nsw i32 %141, 1
  %143 = sext i32 %142 to i64
  %144 = call noundef nonnull align 8 dereferenceable(24) ptr @_ZNSt6vectorIS_IiSaIiEESaIS1_EEixEm(ptr noundef nonnull align 8 dereferenceable(24) %140, i64 noundef %143) #18
  %145 = load i32, ptr %10, align 4, !tbaa !8
  %146 = load i32, ptr %10, align 4, !tbaa !8
  %147 = add nsw i32 %145, %146
  %148 = add nsw i32 %147, 1
  %149 = sext i32 %148 to i64
  %150 = call noundef nonnull align 4 dereferenceable(4) ptr @_ZNSt6vectorIiSaIiEEixEm(ptr noundef nonnull align 8 dereferenceable(24) %144, i64 noundef %149) #18
  %151 = load i32, ptr %150, align 4, !tbaa !8
  %152 = load i8, ptr %12, align 1, !tbaa !135, !range !130, !noundef !131
  %153 = trunc i8 %152 to i1
  %154 = zext i1 %153 to i32
  %155 = xor i32 %151, %154
  store i32 %155, ptr %15, align 4, !tbaa !8
  br label %156

156:                                              ; preds = %124, %115
  %157 = load i32, ptr %11, align 4, !tbaa !8
  %158 = icmp slt i32 %157, 0
  br i1 %158, label %159, label %168

159:                                              ; preds = %156
  %160 = load i8, ptr %13, align 1, !tbaa !135, !range !130, !noundef !131
  %161 = trunc i8 %160 to i1
  %162 = zext i1 %161 to i32
  %163 = xor i32 -2, %162
  store i32 %163, ptr %16, align 4, !tbaa !8
  %164 = load i8, ptr %13, align 1, !tbaa !135, !range !130, !noundef !131
  %165 = trunc i8 %164 to i1
  %166 = zext i1 %165 to i32
  %167 = xor i32 -2, %166
  store i32 %167, ptr %17, align 4, !tbaa !8
  br label %200

168:                                              ; preds = %156
  %169 = getelementptr inbounds nuw %"class.Ttopt::TruthTableReo", ptr %20, i32 0, i32 2
  %170 = load i32, ptr %4, align 4, !tbaa !8
  %171 = add nsw i32 %170, 1
  %172 = sext i32 %171 to i64
  %173 = call noundef nonnull align 8 dereferenceable(24) ptr @_ZNSt6vectorIS_IiSaIiEESaIS1_EEixEm(ptr noundef nonnull align 8 dereferenceable(24) %169, i64 noundef %172) #18
  %174 = load i32, ptr %11, align 4, !tbaa !8
  %175 = load i32, ptr %11, align 4, !tbaa !8
  %176 = add nsw i32 %174, %175
  %177 = sext i32 %176 to i64
  %178 = call noundef nonnull align 4 dereferenceable(4) ptr @_ZNSt6vectorIiSaIiEEixEm(ptr noundef nonnull align 8 dereferenceable(24) %173, i64 noundef %177) #18
  %179 = load i32, ptr %178, align 4, !tbaa !8
  %180 = load i8, ptr %13, align 1, !tbaa !135, !range !130, !noundef !131
  %181 = trunc i8 %180 to i1
  %182 = zext i1 %181 to i32
  %183 = xor i32 %179, %182
  store i32 %183, ptr %16, align 4, !tbaa !8
  %184 = getelementptr inbounds nuw %"class.Ttopt::TruthTableReo", ptr %20, i32 0, i32 2
  %185 = load i32, ptr %4, align 4, !tbaa !8
  %186 = add nsw i32 %185, 1
  %187 = sext i32 %186 to i64
  %188 = call noundef nonnull align 8 dereferenceable(24) ptr @_ZNSt6vectorIS_IiSaIiEESaIS1_EEixEm(ptr noundef nonnull align 8 dereferenceable(24) %184, i64 noundef %187) #18
  %189 = load i32, ptr %11, align 4, !tbaa !8
  %190 = load i32, ptr %11, align 4, !tbaa !8
  %191 = add nsw i32 %189, %190
  %192 = add nsw i32 %191, 1
  %193 = sext i32 %192 to i64
  %194 = call noundef nonnull align 4 dereferenceable(4) ptr @_ZNSt6vectorIiSaIiEEixEm(ptr noundef nonnull align 8 dereferenceable(24) %188, i64 noundef %193) #18
  %195 = load i32, ptr %194, align 4, !tbaa !8
  %196 = load i8, ptr %13, align 1, !tbaa !135, !range !130, !noundef !131
  %197 = trunc i8 %196 to i1
  %198 = zext i1 %197 to i32
  %199 = xor i32 %195, %198
  store i32 %199, ptr %17, align 4, !tbaa !8
  br label %200

200:                                              ; preds = %168, %159
  call void @llvm.lifetime.start.p0(i64 4, ptr %18) #18
  %201 = load i32, ptr %9, align 4, !tbaa !8
  %202 = shl i32 %201, 1
  %203 = load i32, ptr %14, align 4, !tbaa !8
  %204 = load i32, ptr %16, align 4, !tbaa !8
  %205 = load i32, ptr %4, align 4, !tbaa !8
  %206 = add nsw i32 %205, 1
  %207 = load ptr, ptr %7, align 8, !tbaa !133
  %208 = call noundef i32 @_ZN5Ttopt13TruthTableReo13BDDRebuildOneEiiiiP14Hash_IntMan_t_RSt6vectorIiSaIiEE(ptr noundef nonnull align 8 dereferenceable(272) %20, i32 noundef %202, i32 noundef %203, i32 noundef %204, i32 noundef %206, ptr noundef %207, ptr noundef nonnull align 8 dereferenceable(24) %6)
  store i32 %208, ptr %18, align 4, !tbaa !8
  call void @llvm.lifetime.start.p0(i64 4, ptr %19) #18
  %209 = load i32, ptr %9, align 4, !tbaa !8
  %210 = shl i32 %209, 1
  %211 = xor i32 %210, 1
  %212 = load i32, ptr %15, align 4, !tbaa !8
  %213 = load i32, ptr %17, align 4, !tbaa !8
  %214 = load i32, ptr %4, align 4, !tbaa !8
  %215 = add nsw i32 %214, 1
  %216 = load ptr, ptr %7, align 8, !tbaa !133
  %217 = call noundef i32 @_ZN5Ttopt13TruthTableReo13BDDRebuildOneEiiiiP14Hash_IntMan_t_RSt6vectorIiSaIiEE(ptr noundef nonnull align 8 dereferenceable(272) %20, i32 noundef %211, i32 noundef %212, i32 noundef %213, i32 noundef %215, ptr noundef %216, ptr noundef nonnull align 8 dereferenceable(24) %6)
  store i32 %217, ptr %19, align 4, !tbaa !8
  call void @_ZNSt6vectorIiSaIiEE9push_backERKi(ptr noundef nonnull align 8 dereferenceable(24) %5, ptr noundef nonnull align 4 dereferenceable(4) %18)
  call void @_ZNSt6vectorIiSaIiEE9push_backERKi(ptr noundef nonnull align 8 dereferenceable(24) %5, ptr noundef nonnull align 4 dereferenceable(4) %19)
  %218 = load i32, ptr %18, align 4, !tbaa !8
  %219 = load i32, ptr %19, align 4, !tbaa !8
  %220 = icmp eq i32 %218, %219
  br i1 %220, label %221, label %226

221:                                              ; preds = %200
  %222 = getelementptr inbounds nuw %"class.Ttopt::TruthTable", ptr %20, i32 0, i32 7
  %223 = load i32, ptr %4, align 4, !tbaa !8
  %224 = sext i32 %223 to i64
  %225 = call noundef nonnull align 8 dereferenceable(24) ptr @_ZNSt6vectorIS_IiSaIiEESaIS1_EEixEm(ptr noundef nonnull align 8 dereferenceable(24) %222, i64 noundef %224) #18
  call void @_ZNSt6vectorIiSaIiEE9push_backERKi(ptr noundef nonnull align 8 dereferenceable(24) %225, ptr noundef nonnull align 4 dereferenceable(4) %9)
  br label %226

226:                                              ; preds = %221, %200
  call void @llvm.lifetime.end.p0(i64 4, ptr %19) #18
  call void @llvm.lifetime.end.p0(i64 4, ptr %18) #18
  call void @llvm.lifetime.end.p0(i64 4, ptr %17) #18
  call void @llvm.lifetime.end.p0(i64 4, ptr %16) #18
  call void @llvm.lifetime.end.p0(i64 4, ptr %15) #18
  call void @llvm.lifetime.end.p0(i64 4, ptr %14) #18
  call void @llvm.lifetime.end.p0(i64 1, ptr %13) #18
  call void @llvm.lifetime.end.p0(i64 1, ptr %12) #18
  call void @llvm.lifetime.end.p0(i64 4, ptr %11) #18
  call void @llvm.lifetime.end.p0(i64 4, ptr %10) #18
  call void @llvm.lifetime.end.p0(i64 4, ptr %9) #18
  br label %227

227:                                              ; preds = %226
  %228 = load i32, ptr %8, align 4, !tbaa !8
  %229 = add i32 %228, 1
  store i32 %229, ptr %8, align 4, !tbaa !8
  br label %44, !llvm.loop !136

230:                                              ; preds = %53
  %231 = load ptr, ptr %7, align 8, !tbaa !133
  call void @_ZL15Hash_IntManStopP14Hash_IntMan_t_(ptr noundef %231)
  %232 = getelementptr inbounds nuw %"class.Ttopt::TruthTableReo", ptr %20, i32 0, i32 2
  %233 = load i32, ptr %4, align 4, !tbaa !8
  %234 = sext i32 %233 to i64
  %235 = call noundef nonnull align 8 dereferenceable(24) ptr @_ZNSt6vectorIS_IiSaIiEESaIS1_EEixEm(ptr noundef nonnull align 8 dereferenceable(24) %232, i64 noundef %234) #18
  %236 = call noundef nonnull align 8 dereferenceable(24) ptr @_ZNSt6vectorIiSaIiEEaSERKS1_(ptr noundef nonnull align 8 dereferenceable(24) %235, ptr noundef nonnull align 8 dereferenceable(24) %5)
  %237 = getelementptr inbounds nuw %"class.Ttopt::TruthTableReo", ptr %20, i32 0, i32 2
  %238 = load i32, ptr %4, align 4, !tbaa !8
  %239 = add nsw i32 %238, 1
  %240 = sext i32 %239 to i64
  %241 = call noundef nonnull align 8 dereferenceable(24) ptr @_ZNSt6vectorIS_IiSaIiEESaIS1_EEixEm(ptr noundef nonnull align 8 dereferenceable(24) %237, i64 noundef %240) #18
  %242 = call noundef nonnull align 8 dereferenceable(24) ptr @_ZNSt6vectorIiSaIiEEaSERKS1_(ptr noundef nonnull align 8 dereferenceable(24) %241, ptr noundef nonnull align 8 dereferenceable(24) %6)
  %243 = call noundef i32 @_ZN5Ttopt10TruthTable12BDDNodeCountEv(ptr noundef nonnull align 8 dereferenceable(216) %20)
  call void @llvm.lifetime.end.p0(i64 8, ptr %7) #18
  call void @_ZNSt6vectorIiSaIiEED2Ev(ptr noundef nonnull align 8 dereferenceable(24) %6) #18
  call void @llvm.lifetime.end.p0(i64 24, ptr %6) #18
  call void @_ZNSt6vectorIiSaIiEED2Ev(ptr noundef nonnull align 8 dereferenceable(24) %5) #18
  call void @llvm.lifetime.end.p0(i64 24, ptr %5) #18
  ret i32 %243
}

; Function Attrs: mustprogress nounwind uwtable
define linkonce_odr void @_ZN5Ttopt13TruthTableReo4SwapEi(ptr noundef nonnull align 8 dereferenceable(272) %0, i32 noundef %1) unnamed_addr #0 comdat align 2 {
  %3 = alloca ptr, align 8
  %4 = alloca i32, align 4
  %5 = alloca %"class.__gnu_cxx::__normal_iterator.30", align 8
  %6 = alloca %"class.__gnu_cxx::__normal_iterator.30", align 8
  %7 = alloca %"class.__gnu_cxx::__normal_iterator.30", align 8
  %8 = alloca %"class.__gnu_cxx::__normal_iterator.30", align 8
  %9 = alloca %"class.__gnu_cxx::__normal_iterator.30", align 8
  %10 = alloca %"class.__gnu_cxx::__normal_iterator.30", align 8
  %11 = alloca i32, align 4
  store ptr %0, ptr %3, align 8, !tbaa !71
  store i32 %1, ptr %4, align 4, !tbaa !8
  %12 = load ptr, ptr %3, align 8
  call void @llvm.lifetime.start.p0(i64 8, ptr %5) #18
  %13 = getelementptr inbounds nuw %"class.Ttopt::TruthTable", ptr %12, i32 0, i32 8
  %14 = call ptr @_ZNSt6vectorIiSaIiEE5beginEv(ptr noundef nonnull align 8 dereferenceable(24) %13) #18
  %15 = getelementptr inbounds nuw %"class.__gnu_cxx::__normal_iterator.30", ptr %6, i32 0, i32 0
  store ptr %14, ptr %15, align 8
  %16 = getelementptr inbounds nuw %"class.Ttopt::TruthTable", ptr %12, i32 0, i32 8
  %17 = call ptr @_ZNSt6vectorIiSaIiEE3endEv(ptr noundef nonnull align 8 dereferenceable(24) %16) #18
  %18 = getelementptr inbounds nuw %"class.__gnu_cxx::__normal_iterator.30", ptr %7, i32 0, i32 0
  store ptr %17, ptr %18, align 8
  %19 = getelementptr inbounds nuw %"class.__gnu_cxx::__normal_iterator.30", ptr %6, i32 0, i32 0
  %20 = load ptr, ptr %19, align 8
  %21 = getelementptr inbounds nuw %"class.__gnu_cxx::__normal_iterator.30", ptr %7, i32 0, i32 0
  %22 = load ptr, ptr %21, align 8
  %23 = call ptr @_ZSt4findIN9__gnu_cxx17__normal_iteratorIPiSt6vectorIiSaIiEEEEiET_S7_S7_RKT0_(ptr %20, ptr %22, ptr noundef nonnull align 4 dereferenceable(4) %4)
  %24 = getelementptr inbounds nuw %"class.__gnu_cxx::__normal_iterator.30", ptr %5, i32 0, i32 0
  store ptr %23, ptr %24, align 8
  call void @llvm.lifetime.start.p0(i64 8, ptr %8) #18
  %25 = getelementptr inbounds nuw %"class.Ttopt::TruthTable", ptr %12, i32 0, i32 8
  %26 = call ptr @_ZNSt6vectorIiSaIiEE5beginEv(ptr noundef nonnull align 8 dereferenceable(24) %25) #18
  %27 = getelementptr inbounds nuw %"class.__gnu_cxx::__normal_iterator.30", ptr %9, i32 0, i32 0
  store ptr %26, ptr %27, align 8
  %28 = getelementptr inbounds nuw %"class.Ttopt::TruthTable", ptr %12, i32 0, i32 8
  %29 = call ptr @_ZNSt6vectorIiSaIiEE3endEv(ptr noundef nonnull align 8 dereferenceable(24) %28) #18
  %30 = getelementptr inbounds nuw %"class.__gnu_cxx::__normal_iterator.30", ptr %10, i32 0, i32 0
  store ptr %29, ptr %30, align 8
  call void @llvm.lifetime.start.p0(i64 4, ptr %11) #18
  %31 = load i32, ptr %4, align 4, !tbaa !8
  %32 = add nsw i32 %31, 1
  store i32 %32, ptr %11, align 4, !tbaa !8
  %33 = getelementptr inbounds nuw %"class.__gnu_cxx::__normal_iterator.30", ptr %9, i32 0, i32 0
  %34 = load ptr, ptr %33, align 8
  %35 = getelementptr inbounds nuw %"class.__gnu_cxx::__normal_iterator.30", ptr %10, i32 0, i32 0
  %36 = load ptr, ptr %35, align 8
  %37 = call ptr @_ZSt4findIN9__gnu_cxx17__normal_iteratorIPiSt6vectorIiSaIiEEEEiET_S7_S7_RKT0_(ptr %34, ptr %36, ptr noundef nonnull align 4 dereferenceable(4) %11)
  %38 = getelementptr inbounds nuw %"class.__gnu_cxx::__normal_iterator.30", ptr %8, i32 0, i32 0
  store ptr %37, ptr %38, align 8
  call void @llvm.lifetime.end.p0(i64 4, ptr %11) #18
  %39 = call noundef nonnull align 4 dereferenceable(4) ptr @_ZNK9__gnu_cxx17__normal_iteratorIPiSt6vectorIiSaIiEEEdeEv(ptr noundef nonnull align 8 dereferenceable(8) %5) #18
  %40 = call noundef nonnull align 4 dereferenceable(4) ptr @_ZNK9__gnu_cxx17__normal_iteratorIPiSt6vectorIiSaIiEEEdeEv(ptr noundef nonnull align 8 dereferenceable(8) %8) #18
  call void @_ZSt4swapIiENSt9enable_ifIXsr6__and_ISt6__not_ISt15__is_tuple_likeIT_EESt21is_move_constructibleIS3_ESt18is_move_assignableIS3_EEE5valueEvE4typeERS3_SC_(ptr noundef nonnull align 4 dereferenceable(4) %39, ptr noundef nonnull align 4 dereferenceable(4) %40) #18
  %41 = load i32, ptr %4, align 4, !tbaa !8
  %42 = load ptr, ptr %12, align 8, !tbaa !73
  %43 = getelementptr inbounds ptr, ptr %42, i64 8
  %44 = load ptr, ptr %43, align 8
  %45 = call noundef i32 %44(ptr noundef nonnull align 8 dereferenceable(272) %12, i32 noundef %41)
  call void @llvm.lifetime.end.p0(i64 8, ptr %8) #18
  call void @llvm.lifetime.end.p0(i64 8, ptr %5) #18
  ret void
}

; Function Attrs: mustprogress nounwind uwtable
define linkonce_odr noundef i32 @_ZN5Ttopt13TruthTableReo7BDDSwapEi(ptr noundef nonnull align 8 dereferenceable(272) %0, i32 noundef %1) unnamed_addr #0 comdat align 2 {
  %3 = alloca ptr, align 8
  %4 = alloca i32, align 4
  store ptr %0, ptr %3, align 8, !tbaa !71
  store i32 %1, ptr %4, align 4, !tbaa !8
  %5 = load ptr, ptr %3, align 8
  %6 = load i32, ptr %4, align 4, !tbaa !8
  %7 = load ptr, ptr %5, align 8, !tbaa !73
  %8 = getelementptr inbounds ptr, ptr %7, i64 9
  %9 = load ptr, ptr %8, align 8
  call void %9(ptr noundef nonnull align 8 dereferenceable(272) %5, i32 noundef %6)
  %10 = call noundef i32 @_ZN5Ttopt10TruthTable12BDDNodeCountEv(ptr noundef nonnull align 8 dereferenceable(216) %5)
  ret i32 %10
}

; Function Attrs: mustprogress nounwind uwtable
define linkonce_odr void @_ZN5Ttopt13TruthTableReo14BDDGenerateAigEP10Gia_Man_t_P10Vec_Int_t_(ptr noundef nonnull align 8 dereferenceable(272) %0, ptr noundef %1, ptr noundef %2) unnamed_addr #0 comdat align 2 {
  %4 = alloca ptr, align 8
  %5 = alloca ptr, align 8
  %6 = alloca ptr, align 8
  store ptr %0, ptr %4, align 8, !tbaa !71
  store ptr %1, ptr %5, align 8, !tbaa !3
  store ptr %2, ptr %6, align 8, !tbaa !35
  call void @abort() #21
  unreachable
}

; Function Attrs: mustprogress nounwind uwtable
define linkonce_odr void @_ZNSt6vectorImSaImEEC2Ev(ptr noundef nonnull align 8 dereferenceable(24) %0) unnamed_addr #0 comdat align 2 {
  %2 = alloca ptr, align 8
  store ptr %0, ptr %2, align 8, !tbaa !78
  %3 = load ptr, ptr %2, align 8
  call void @_ZNSt12_Vector_baseImSaImEEC2Ev(ptr noundef nonnull align 8 dereferenceable(24) %3) #18
  ret void
}

; Function Attrs: mustprogress nounwind uwtable
define linkonce_odr void @_ZNSt6vectorIiSaIiEEC2Ev(ptr noundef nonnull align 8 dereferenceable(24) %0) unnamed_addr #0 comdat align 2 {
  %2 = alloca ptr, align 8
  store ptr %0, ptr %2, align 8, !tbaa !91
  %3 = load ptr, ptr %2, align 8
  call void @_ZNSt12_Vector_baseIiSaIiEEC2Ev(ptr noundef nonnull align 8 dereferenceable(24) %3) #18
  ret void
}

; Function Attrs: mustprogress nounwind uwtable
define linkonce_odr void @_ZNSt6vectorIS_ImSaImEESaIS1_EEC2Ev(ptr noundef nonnull align 8 dereferenceable(24) %0) unnamed_addr #0 comdat align 2 {
  %2 = alloca ptr, align 8
  store ptr %0, ptr %2, align 8, !tbaa !137
  %3 = load ptr, ptr %2, align 8
  call void @_ZNSt12_Vector_baseISt6vectorImSaImEESaIS2_EEC2Ev(ptr noundef nonnull align 8 dereferenceable(24) %3) #18
  ret void
}

; Function Attrs: nounwind
declare void @srand(i32 noundef) #4

; Function Attrs: mustprogress nounwind uwtable
define linkonce_odr void @_ZNSt6vectorImSaImEE6resizeEm(ptr noundef nonnull align 8 dereferenceable(24) %0, i64 noundef %1) #0 comdat align 2 {
  %3 = alloca ptr, align 8
  %4 = alloca i64, align 8
  store ptr %0, ptr %3, align 8, !tbaa !78
  store i64 %1, ptr %4, align 8, !tbaa !63
  %5 = load ptr, ptr %3, align 8
  %6 = load i64, ptr %4, align 8, !tbaa !63
  %7 = call noundef i64 @_ZNKSt6vectorImSaImEE4sizeEv(ptr noundef nonnull align 8 dereferenceable(24) %5) #18
  %8 = icmp ugt i64 %6, %7
  br i1 %8, label %9, label %13

9:                                                ; preds = %2
  %10 = load i64, ptr %4, align 8, !tbaa !63
  %11 = call noundef i64 @_ZNKSt6vectorImSaImEE4sizeEv(ptr noundef nonnull align 8 dereferenceable(24) %5) #18
  %12 = sub i64 %10, %11
  call void @_ZNSt6vectorImSaImEE17_M_default_appendEm(ptr noundef nonnull align 8 dereferenceable(24) %5, i64 noundef %12)
  br label %24

13:                                               ; preds = %2
  %14 = load i64, ptr %4, align 8, !tbaa !63
  %15 = call noundef i64 @_ZNKSt6vectorImSaImEE4sizeEv(ptr noundef nonnull align 8 dereferenceable(24) %5) #18
  %16 = icmp ult i64 %14, %15
  br i1 %16, label %17, label %23

17:                                               ; preds = %13
  %18 = getelementptr inbounds nuw %"struct.std::_Vector_base", ptr %5, i32 0, i32 0
  %19 = getelementptr inbounds nuw %"struct.std::_Vector_base<unsigned long, std::allocator<unsigned long>>::_Vector_impl_data", ptr %18, i32 0, i32 0
  %20 = load ptr, ptr %19, align 8, !tbaa !79
  %21 = load i64, ptr %4, align 8, !tbaa !63
  %22 = getelementptr inbounds nuw i64, ptr %20, i64 %21
  call void @_ZNSt6vectorImSaImEE15_M_erase_at_endEPm(ptr noundef nonnull align 8 dereferenceable(24) %5, ptr noundef %22) #18
  br label %23

23:                                               ; preds = %17, %13
  br label %24

24:                                               ; preds = %23, %9
  ret void
}

; Function Attrs: mustprogress nounwind uwtable
define linkonce_odr void @_ZNSt6vectorIiSaIiEE6resizeEm(ptr noundef nonnull align 8 dereferenceable(24) %0, i64 noundef %1) #0 comdat align 2 {
  %3 = alloca ptr, align 8
  %4 = alloca i64, align 8
  store ptr %0, ptr %3, align 8, !tbaa !91
  store i64 %1, ptr %4, align 8, !tbaa !63
  %5 = load ptr, ptr %3, align 8
  %6 = load i64, ptr %4, align 8, !tbaa !63
  %7 = call noundef i64 @_ZNKSt6vectorIiSaIiEE4sizeEv(ptr noundef nonnull align 8 dereferenceable(24) %5) #18
  %8 = icmp ugt i64 %6, %7
  br i1 %8, label %9, label %13

9:                                                ; preds = %2
  %10 = load i64, ptr %4, align 8, !tbaa !63
  %11 = call noundef i64 @_ZNKSt6vectorIiSaIiEE4sizeEv(ptr noundef nonnull align 8 dereferenceable(24) %5) #18
  %12 = sub i64 %10, %11
  call void @_ZNSt6vectorIiSaIiEE17_M_default_appendEm(ptr noundef nonnull align 8 dereferenceable(24) %5, i64 noundef %12)
  br label %24

13:                                               ; preds = %2
  %14 = load i64, ptr %4, align 8, !tbaa !63
  %15 = call noundef i64 @_ZNKSt6vectorIiSaIiEE4sizeEv(ptr noundef nonnull align 8 dereferenceable(24) %5) #18
  %16 = icmp ult i64 %14, %15
  br i1 %16, label %17, label %23

17:                                               ; preds = %13
  %18 = getelementptr inbounds nuw %"struct.std::_Vector_base.6", ptr %5, i32 0, i32 0
