target datalayout = "e-m:e-p270:32:32-p271:32:32-p272:64:64-i64:64-i128:128-f80:128-n8:16:32:64-S128"
target triple = "x86_64-pc-linux-gnu"

%"class.std::ios_base::Init" = type { i8 }
%"class.std::basic_ostream" = type { ptr, %"class.std::basic_ios" }
%"class.std::basic_ios" = type { %"class.std::ios_base", ptr, i8, i8, ptr, ptr, ptr, ptr }
%"class.std::ios_base" = type { ptr, i64, i64, i32, i32, i32, ptr, %"struct.std::ios_base::_Words", [8 x %"struct.std::ios_base::_Words"], i32, ptr, %"class.std::locale" }
%"struct.std::ios_base::_Words" = type { ptr, i64 }
%"class.std::locale" = type { ptr }
%"struct.NewBdd::Param" = type { i32, i32, i32, double, i32, i32, i32, i8, i32, i32, double, i8, i32, ptr }
%"class.Transduction::Transduction" = type { %"class.Transduction::ManUtil", i32, i32, i8, i32, i32, i32, %"class.std::vector", %"class.std::vector", %"class.std::__cxx11::list", %"class.std::vector.3", %"class.std::vector.3", %"class.std::vector", %"class.std::vector", %"class.std::vector.3", %"class.std::vector.8", %"class.std::vector.8", %"class.std::vector.13", %"class.std::vector.18", %"class.std::vector.18", %"class.std::vector.18", %"class.std::vector.8", i8, i64 }
%"class.Transduction::ManUtil" = type { ptr }
%"class.std::__cxx11::list" = type { %"class.std::__cxx11::_List_base" }
%"class.std::__cxx11::_List_base" = type { %"struct.std::__cxx11::_List_base<int, std::allocator<int>>::_List_impl" }
%"struct.std::__cxx11::_List_base<int, std::allocator<int>>::_List_impl" = type { %"struct.std::__detail::_List_node_header" }
%"struct.std::__detail::_List_node_header" = type { %"struct.std::__detail::_List_node_base", i64 }
%"struct.std::__detail::_List_node_base" = type { ptr, ptr }
%"class.std::vector" = type { %"struct.std::_Vector_base" }
%"struct.std::_Vector_base" = type { %"struct.std::_Vector_base<int, std::allocator<int>>::_Vector_impl" }
%"struct.std::_Vector_base<int, std::allocator<int>>::_Vector_impl" = type { %"struct.std::_Vector_base<int, std::allocator<int>>::_Vector_impl_data" }
%"struct.std::_Vector_base<int, std::allocator<int>>::_Vector_impl_data" = type { ptr, ptr, ptr }
%"class.std::vector.3" = type { %"struct.std::_Vector_base.4" }
%"struct.std::_Vector_base.4" = type { %"struct.std::_Vector_base<std::vector<int>, std::allocator<std::vector<int>>>::_Vector_impl" }
%"struct.std::_Vector_base<std::vector<int>, std::allocator<std::vector<int>>>::_Vector_impl" = type { %"struct.std::_Vector_base<std::vector<int>, std::allocator<std::vector<int>>>::_Vector_impl_data" }
%"struct.std::_Vector_base<std::vector<int>, std::allocator<std::vector<int>>>::_Vector_impl_data" = type { ptr, ptr, ptr }
%"class.std::vector.13" = type { %"struct.std::_Vector_base.14" }
%"struct.std::_Vector_base.14" = type { %"struct.std::_Vector_base<std::vector<unsigned int>, std::allocator<std::vector<unsigned int>>>::_Vector_impl" }
%"struct.std::_Vector_base<std::vector<unsigned int>, std::allocator<std::vector<unsigned int>>>::_Vector_impl" = type { %"struct.std::_Vector_base<std::vector<unsigned int>, std::allocator<std::vector<unsigned int>>>::_Vector_impl_data" }
%"struct.std::_Vector_base<std::vector<unsigned int>, std::allocator<std::vector<unsigned int>>>::_Vector_impl_data" = type { ptr, ptr, ptr }
%"class.std::vector.18" = type { %"struct.std::_Bvector_base" }
%"struct.std::_Bvector_base" = type { %"struct.std::_Bvector_base<std::allocator<bool>>::_Bvector_impl" }
%"struct.std::_Bvector_base<std::allocator<bool>>::_Bvector_impl" = type { %"struct.std::_Bvector_base<std::allocator<bool>>::_Bvector_impl_data" }
%"struct.std::_Bvector_base<std::allocator<bool>>::_Bvector_impl_data" = type { %"struct.std::_Bit_iterator", %"struct.std::_Bit_iterator", ptr }
%"struct.std::_Bit_iterator" = type { %"struct.std::_Bit_iterator_base.base", [4 x i8] }
%"struct.std::_Bit_iterator_base.base" = type <{ ptr, i32 }>
%"class.std::vector.8" = type { %"struct.std::_Vector_base.9" }
%"struct.std::_Vector_base.9" = type { %"struct.std::_Vector_base<unsigned int, std::allocator<unsigned int>>::_Vector_impl" }
%"struct.std::_Vector_base<unsigned int, std::allocator<unsigned int>>::_Vector_impl" = type { %"struct.std::_Vector_base<unsigned int, std::allocator<unsigned int>>::_Vector_impl_data" }
%"struct.std::_Vector_base<unsigned int, std::allocator<unsigned int>>::_Vector_impl_data" = type { ptr, ptr, ptr }
%"class.std::__cxx11::basic_string" = type { %"struct.std::__cxx11::basic_string<char>::_Alloc_hider", i64, %union.anon }
%"struct.std::__cxx11::basic_string<char>::_Alloc_hider" = type { ptr }
%union.anon = type { i64, [8 x i8] }
%"class.std::allocator.34" = type { i8 }
%"struct.std::_List_const_iterator" = type { ptr }
%"class.Transduction::TransductionBackup" = type { %"class.Transduction::ManUtil", i32, i32, %"class.std::__cxx11::list", %"class.std::vector.3", %"class.std::vector.3", %"class.std::vector", %"class.std::vector", %"class.std::vector.3", %"class.std::vector.8", %"class.std::vector.8", %"class.std::vector.13", %"class.std::vector.18", %"class.std::vector.18", %"class.std::vector.18" }
%"class.std::reverse_iterator" = type { %"struct.std::_List_iterator" }
%"struct.std::_List_iterator" = type { ptr }
%"class.std::__cxx11::basic_stringstream" = type { %"class.std::basic_iostream.base", %"class.std::__cxx11::basic_stringbuf", %"class.std::basic_ios" }
%"class.std::basic_iostream.base" = type { %"class.std::basic_istream.base", %"class.std::basic_ostream.base" }
%"class.std::basic_istream.base" = type { ptr, i64 }
%"class.std::basic_ostream.base" = type { ptr }
%"class.std::__cxx11::basic_stringbuf" = type { %"class.std::basic_streambuf", i32, %"class.std::__cxx11::basic_string" }
%"class.std::basic_streambuf" = type { ptr, ptr, ptr, ptr, ptr, ptr, ptr, %"class.std::locale" }
%"struct.std::_Setw" = type { i32 }
%"class.std::allocator.45" = type { i8 }
%"struct.std::_Bit_reference" = type { ptr, i64 }
%"class.std::allocator" = type { i8 }
%"struct.NewTt::Param" = type { i32, i32, i32, i8, i32, i32, ptr }
%"class.Transduction::Transduction.22" = type { %"class.Transduction::ManUtil.23", i32, i32, i8, i32, i32, i32, %"class.std::vector", %"class.std::vector", %"class.std::__cxx11::list", %"class.std::vector.3", %"class.std::vector.3", %"class.std::vector", %"class.std::vector", %"class.std::vector.3", %"class.std::vector.8", %"class.std::vector.8", %"class.std::vector.13", %"class.std::vector.18", %"class.std::vector.18", %"class.std::vector.18", %"class.std::vector.8", i8, i64 }
%"class.Transduction::ManUtil.23" = type { ptr }
%"class.Transduction::TransductionBackup.59" = type { %"class.Transduction::ManUtil.23", i32, i32, %"class.std::__cxx11::list", %"class.std::vector.3", %"class.std::vector.3", %"class.std::vector", %"class.std::vector", %"class.std::vector.3", %"class.std::vector.8", %"class.std::vector.8", %"class.std::vector.13", %"class.std::vector.18", %"class.std::vector.18", %"class.std::vector.18" }
%"class.std::ctype" = type <{ %"class.std::locale::facet.base", [4 x i8], ptr, i8, [7 x i8], ptr, ptr, ptr, i8, [256 x i8], [256 x i8], i8, [6 x i8] }>
%"class.std::locale::facet.base" = type <{ ptr, i32 }>
%struct.timespec = type { i64, i64 }
%struct.Gia_Man_t_ = type { ptr, ptr, i32, i32, i32, i32, ptr, ptr, i32, i32, i32, ptr, ptr, %struct.Vec_Int_t_, %struct.Vec_Int_t_, i32, i32, i32, %struct.Vec_Int_t_, ptr, ptr, ptr, i32, i32, i32, i32, ptr, ptr, ptr, ptr, ptr, i32, i32, ptr, i32, ptr, ptr, ptr, ptr, ptr, ptr, ptr, ptr, ptr, ptr, ptr, ptr, ptr, ptr, ptr, ptr, ptr, ptr, %struct.Vec_Int_t_, %struct.Vec_Int_t_, ptr, ptr, ptr, ptr, ptr, ptr, ptr, ptr, ptr, ptr, ptr, ptr, ptr, ptr, ptr, ptr, ptr, ptr, ptr, ptr, ptr, i32, float, float, ptr, ptr, i32, ptr, ptr, ptr, ptr, ptr, ptr, ptr, ptr, ptr, ptr, ptr, ptr, ptr, ptr, ptr, i64, i64, ptr, ptr, i32, i32, i32, i32, i32, i32, i32, i32, i32, i32, i32, i32, ptr, ptr, ptr, ptr, ptr, ptr, ptr, ptr, i32, i32, i32, ptr, i32, i32, ptr, ptr, ptr, ptr, ptr, ptr, i32, i32, ptr, %struct.Vec_Int_t_, %struct.Vec_Int_t_, %struct.Vec_Int_t_, ptr, ptr, ptr, i32, i32, i32, i32, ptr, ptr, ptr, ptr, ptr }
%struct.Vec_Int_t_ = type { i32, i32, ptr }
%"class.NewBdd::Man" = type { i16, i32, i32, i32, i32, i32, i32, double, i8, i32, %"class.std::vector.24", %"class.std::vector.24", %"class.std::vector.24", %"class.std::vector.8", %"class.std::vector", %"class.std::vector.18", %"class.std::vector.24", %"class.std::vector.8", %"class.std::vector.29", %"class.std::vector.8", %"class.std::vector", %"class.std::vector", %"class.std::vector.3", ptr }
%"class.std::vector.24" = type { %"struct.std::_Vector_base.25" }
%"struct.std::_Vector_base.25" = type { %"struct.std::_Vector_base<unsigned short, std::allocator<unsigned short>>::_Vector_impl" }
%"struct.std::_Vector_base<unsigned short, std::allocator<unsigned short>>::_Vector_impl" = type { %"struct.std::_Vector_base<unsigned short, std::allocator<unsigned short>>::_Vector_impl_data" }
%"struct.std::_Vector_base<unsigned short, std::allocator<unsigned short>>::_Vector_impl_data" = type { ptr, ptr, ptr }
%"class.std::vector.29" = type { %"struct.std::_Vector_base.30" }
%"struct.std::_Vector_base.30" = type { %"struct.std::_Vector_base<double, std::allocator<double>>::_Vector_impl" }
%"struct.std::_Vector_base<double, std::allocator<double>>::_Vector_impl" = type { %"struct.std::_Vector_base<double, std::allocator<double>>::_Vector_impl_data" }
%"struct.std::_Vector_base<double, std::allocator<double>>::_Vector_impl_data" = type { ptr, ptr, ptr }
%"class.std::allocator.10" = type { i8 }
%"class.__gnu_cxx::__normal_iterator.41" = type { ptr }
%"struct.std::_Setprecision" = type { i32 }
%"struct.std::_Bit_iterator_base" = type <{ ptr, i32, [4 x i8] }>
%"struct.std::_Bit_const_iterator" = type { %"struct.std::_Bit_iterator_base.base", [4 x i8] }
%"class.NewBdd::Cache" = type { i32, i32, i32, i64, i64, i64, double, i32, %"class.std::vector.8" }
%"class.__gnu_cxx::__normal_iterator" = type { ptr }
%"class.__gnu_cxx::__normal_iterator.37" = type { ptr }
%struct.Gia_Obj_t_ = type <{ i64, i32 }>
%"class.std::basic_istream" = type { ptr, i64, %"class.std::basic_ios" }
%"class.__gnu_cxx::__normal_iterator.38" = type { ptr }
%"class.__gnu_cxx::__normal_iterator.39" = type { ptr }
%"class.__gnu_cxx::__normal_iterator.42" = type { ptr }
%"struct.__gnu_cxx::__ops::_Iter_equals_val" = type { ptr }
%"class.__gnu_cxx::__normal_iterator.40" = type { ptr }
%"struct.std::_List_node" = type <{ %"struct.std::__detail::_List_node_base", %"struct.__gnu_cxx::__aligned_membuf", [4 x i8] }>
%"struct.__gnu_cxx::__aligned_membuf" = type { [4 x i8] }
%"struct.std::__allocated_ptr" = type { ptr, ptr }
%"class.__gnu_cxx::__normal_iterator.43" = type { ptr }
%"class.std::allocator.26" = type { i8 }
%"struct.std::vector<unsigned int>::_Temporary_value" = type <{ ptr, %"union.std::vector<unsigned int>::_Temporary_value::_Storage", [4 x i8] }>
%"union.std::vector<unsigned int>::_Temporary_value::_Storage" = type { i32 }
%"class.std::move_iterator" = type { ptr }
%struct._Guard = type { ptr }
%"class.std::allocator.19" = type { i8 }
%"class.std::allocator.0" = type { i8 }
%"class.__gnu_cxx::__normal_iterator.48" = type { ptr }
%"class.__gnu_cxx::__normal_iterator.49" = type { ptr }
%"struct.std::vector<int>::_Temporary_value" = type <{ ptr, %"union.std::vector<int>::_Temporary_value::_Storage", [4 x i8] }>
%"union.std::vector<int>::_Temporary_value::_Storage" = type { i32 }
%"class.std::set" = type { %"class.std::_Rb_tree" }
%"class.std::_Rb_tree" = type { %"struct.std::_Rb_tree<int, int, std::_Identity<int>, std::less<int>>::_Rb_tree_impl" }
%"struct.std::_Rb_tree<int, int, std::_Identity<int>, std::less<int>>::_Rb_tree_impl" = type { [8 x i8], %"struct.std::_Rb_tree_header" }
%"struct.std::_Rb_tree_header" = type { %"struct.std::_Rb_tree_node_base", i64 }
%"struct.std::_Rb_tree_node_base" = type { i32, ptr, ptr, ptr }
%"struct.std::_Rb_tree_const_iterator" = type { ptr }
%"class.std::insert_iterator" = type { ptr, %"struct.std::_Rb_tree_const_iterator" }
%"struct.std::_Rb_tree<int, int, std::_Identity<int>, std::less<int>>::_Alloc_node" = type { ptr }
%"struct.std::_Rb_tree_iterator" = type { ptr }
%"struct.std::pair" = type { ptr, ptr }
%"struct.std::_Identity" = type { i8 }
%"struct.std::_Rb_tree_node" = type <{ %"struct.std::_Rb_tree_node_base", %"struct.__gnu_cxx::__aligned_membuf", [4 x i8] }>
%"struct.__gnu_cxx::__ops::_Iter_less_iter" = type { i8 }
%"struct.std::_Rb_tree<int, int, std::_Identity<int>, std::less<int>>::_Reuse_or_alloc_node" = type { ptr, ptr, ptr }
%"class.NewTt::Man" = type { i32, i32, i32, i32, i64, i64, %"class.std::vector.54", %"class.std::vector", %"class.std::vector.24", i32, i32 }
%"class.std::vector.54" = type { %"struct.std::_Vector_base.55" }
%"struct.std::_Vector_base.55" = type { %"struct.std::_Vector_base<unsigned long long, std::allocator<unsigned long long>>::_Vector_impl" }
%"struct.std::_Vector_base<unsigned long long, std::allocator<unsigned long long>>::_Vector_impl" = type { %"struct.std::_Vector_base<unsigned long long, std::allocator<unsigned long long>>::_Vector_impl_data" }
%"struct.std::_Vector_base<unsigned long long, std::allocator<unsigned long long>>::_Vector_impl_data" = type { ptr, ptr, ptr }
%"class.std::bitset" = type { %"struct.std::_Base_bitset" }
%"struct.std::_Base_bitset" = type { i64 }

$_ZN6NewBdd5ParamC2Ev = comdat any

$_ZN12Transduction12TransductionIN6NewBdd3ManENS1_5ParamEjLj4294967295EEC2EP10Gia_Man_t_ibiibS6_RS3_ = comdat any

$_ZNK12Transduction12TransductionIN6NewBdd3ManENS1_5ParamEjLj4294967295EE10CountWiresEv = comdat any

$_ZN12Transduction12TransductionIN6NewBdd3ManENS1_5ParamEjLj4294967295EE4MspfEv = comdat any

$_ZN12Transduction12TransductionIN6NewBdd3ManENS1_5ParamEjLj4294967295EE4CspfEv = comdat any

$_ZN12Transduction12TransductionIN6NewBdd3ManENS1_5ParamEjLj4294967295EE5ResubEb = comdat any

$_ZN12Transduction12TransductionIN6NewBdd3ManENS1_5ParamEjLj4294967295EE9ResubMonoEb = comdat any

$_ZN12Transduction12TransductionIN6NewBdd3ManENS1_5ParamEjLj4294967295EE11ResubSharedEb = comdat any

$_ZN12Transduction12TransductionIN6NewBdd3ManENS1_5ParamEjLj4294967295EE11RepeatResubEbb = comdat any

$_ZN12Transduction12TransductionIN6NewBdd3ManENS1_5ParamEjLj4294967295EE11RepeatInnerEbb = comdat any

$_ZN12Transduction12TransductionIN6NewBdd3ManENS1_5ParamEjLj4294967295EE11RepeatOuterEbbb = comdat any

$_ZN12Transduction12TransductionIN6NewBdd3ManENS1_5ParamEjLj4294967295EE9RepeatAllEbbbbb = comdat any

$_ZNK12Transduction12TransductionIN6NewBdd3ManENS1_5ParamEjLj4294967295EE11GenerateAigEv = comdat any

$_ZN12Transduction12TransductionIN6NewBdd3ManENS1_5ParamEjLj4294967295EED2Ev = comdat any

$_ZN5NewTt5ParamC2Ev = comdat any

$_ZN12Transduction12TransductionIN5NewTt3ManENS1_5ParamEjLj4294967295EEC2EP10Gia_Man_t_ibiibS6_RS3_ = comdat any

$_ZNK12Transduction12TransductionIN5NewTt3ManENS1_5ParamEjLj4294967295EE10CountWiresEv = comdat any

$_ZN12Transduction12TransductionIN5NewTt3ManENS1_5ParamEjLj4294967295EE4MspfEv = comdat any

$_ZN12Transduction12TransductionIN5NewTt3ManENS1_5ParamEjLj4294967295EE4CspfEv = comdat any

$_ZN12Transduction12TransductionIN5NewTt3ManENS1_5ParamEjLj4294967295EE5ResubEb = comdat any

$_ZN12Transduction12TransductionIN5NewTt3ManENS1_5ParamEjLj4294967295EE9ResubMonoEb = comdat any

$_ZN12Transduction12TransductionIN5NewTt3ManENS1_5ParamEjLj4294967295EE11ResubSharedEb = comdat any

$_ZN12Transduction12TransductionIN5NewTt3ManENS1_5ParamEjLj4294967295EE11RepeatResubEbb = comdat any

$_ZN12Transduction12TransductionIN5NewTt3ManENS1_5ParamEjLj4294967295EE11RepeatInnerEbb = comdat any

$_ZN12Transduction12TransductionIN5NewTt3ManENS1_5ParamEjLj4294967295EE11RepeatOuterEbbb = comdat any

$_ZN12Transduction12TransductionIN5NewTt3ManENS1_5ParamEjLj4294967295EE9RepeatAllEbbbbb = comdat any

$_ZNK12Transduction12TransductionIN5NewTt3ManENS1_5ParamEjLj4294967295EE11GenerateAigEv = comdat any

$_ZN12Transduction12TransductionIN5NewTt3ManENS1_5ParamEjLj4294967295EED2Ev = comdat any

$_ZNSt14numeric_limitsIiE3maxEv = comdat any

$_ZNSt11char_traitsIcE6lengthEPKc = comdat any

$_ZStorSt12_Ios_IostateS_ = comdat any

$_ZSt13__check_facetISt5ctypeIcEERKT_PS3_ = comdat any

$_ZNKSt5ctypeIcE5widenEc = comdat any

$_ZNSt6vectorIiSaIiEEC2Ev = comdat any

$_ZNSt7__cxx114listIiSaIiEEC2Ev = comdat any

$_ZNSt6vectorIS_IiSaIiEESaIS1_EEC2Ev = comdat any

$_ZNSt6vectorIjSaIjEEC2Ev = comdat any

$_ZNSt6vectorIS_IjSaIjEESaIS1_EEC2Ev = comdat any

$_ZNSt6vectorIbSaIbEEC2Ev = comdat any

$_ZN6NewBdd3ManC2EiNS_5ParamE = comdat any

$_ZN12Transduction12TransductionIN6NewBdd3ManENS1_5ParamEjLj4294967295EE9ImportAigEP10Gia_Man_t_ = comdat any

$_ZNK12Transduction7ManUtilIN6NewBdd3ManEjLj4294967295EE6UpdateERjj = comdat any

$_ZNSt6vectorIjSaIjEEixEm = comdat any

$_ZNK6NewBdd3Man6Const0Ev = comdat any

$_ZNKSt6vectorIiSaIiEE4sizeEv = comdat any

$_ZNK6NewBdd3Man6IthVarEt = comdat any

$_ZN12Transduction12TransductionIN6NewBdd3ManENS1_5ParamEjLj4294967295EE5BuildEb = comdat any

$_ZN6NewBdd3Man7ReorderEv = comdat any

$_ZN6NewBdd3Man10TurnOffReoEv = comdat any

$_ZN12Transduction12TransductionIN6NewBdd3ManENS1_5ParamEjLj4294967295EE7Aig2BddEP10Gia_Man_t_RSt6vectorIjSaIjEE = comdat any

$_ZNKSt6vectorIjSaIjEE4sizeEv = comdat any

$_ZNSt6vectorIS_IjSaIjEESaIS1_EEixEm = comdat any

$_ZNSt6vectorIiSaIiEEixEm = comdat any

$_ZNSt6vectorIjSaIjEED2Ev = comdat any

$_ZN12Transduction12TransductionIN6NewBdd3ManENS1_5ParamEjLj4294967295EE18RemoveConstOutputsEv = comdat any

$_ZNSt6vectorIjSaIjEE6resizeEmRKj = comdat any

$_ZNK12Transduction12TransductionIN6NewBdd3ManENS1_5ParamEjLj4294967295EE5LitFiEii = comdat any

$_ZN12Transduction12TransductionIN6NewBdd3ManENS1_5ParamEjLj4294967295EE10ShufflePisEi = comdat any

$_ZN12Transduction12TransductionIN6NewBdd3ManENS1_5ParamEjLj4294967295EE12ComputeLevelEv = comdat any

$_ZNK12Transduction12TransductionIN6NewBdd3ManENS1_5ParamEjLj4294967295EE10PrintStatsENSt7__cxx1112basic_stringIcSt11char_traitsIcESaIcEEEbi = comdat any

$_ZNSt7__cxx1112basic_stringIcSt11char_traitsIcESaIcEEC2IS3_EEPKcRKS3_ = comdat any

$_ZNSt15__new_allocatorIcED2Ev = comdat any

$_ZNSt12_Vector_baseIiSaIiEEC2Ev = comdat any

$_ZNSt12_Vector_baseIiSaIiEE12_Vector_implC2Ev = comdat any

$_ZNSt12_Vector_baseIiSaIiEE17_Vector_impl_dataC2Ev = comdat any

$_ZNSt15__new_allocatorIiEC2Ev = comdat any

$_ZNSt7__cxx1110_List_baseIiSaIiEEC2Ev = comdat any

$_ZNSt7__cxx1110_List_baseIiSaIiEE10_List_implC2Ev = comdat any

$_ZNSaISt10_List_nodeIiEEC2Ev = comdat any

$_ZNSt8__detail17_List_node_headerC2Ev = comdat any

$_ZNSt15__new_allocatorISt10_List_nodeIiEEC2Ev = comdat any

$_ZNSt8__detail17_List_node_header7_M_initEv = comdat any

$_ZNSt12_Vector_baseISt6vectorIiSaIiEESaIS2_EEC2Ev = comdat any

$_ZNSt12_Vector_baseISt6vectorIiSaIiEESaIS2_EE12_Vector_implC2Ev = comdat any

$_ZNSaISt6vectorIiSaIiEEEC2Ev = comdat any

$_ZNSt12_Vector_baseISt6vectorIiSaIiEESaIS2_EE17_Vector_impl_dataC2Ev = comdat any

$_ZNSt15__new_allocatorISt6vectorIiSaIiEEEC2Ev = comdat any

$_ZNSt12_Vector_baseIjSaIjEEC2Ev = comdat any

$_ZNSt12_Vector_baseIjSaIjEE12_Vector_implC2Ev = comdat any

$_ZNSt12_Vector_baseIjSaIjEE17_Vector_impl_dataC2Ev = comdat any

$_ZNSt15__new_allocatorIjEC2Ev = comdat any

$_ZNSt12_Vector_baseISt6vectorIjSaIjEESaIS2_EEC2Ev = comdat any

$_ZNSt12_Vector_baseISt6vectorIjSaIjEESaIS2_EE12_Vector_implC2Ev = comdat any

$_ZNSaISt6vectorIjSaIjEEEC2Ev = comdat any

$_ZNSt12_Vector_baseISt6vectorIjSaIjEESaIS2_EE17_Vector_impl_dataC2Ev = comdat any

$_ZNSt15__new_allocatorISt6vectorIjSaIjEEEC2Ev = comdat any

$_ZNSt13_Bvector_baseISaIbEEC2Ev = comdat any

$_ZNSt13_Bvector_baseISaIbEE13_Bvector_implC2Ev = comdat any

$_ZNSaImEC2Ev = comdat any

$_ZNSt15__new_allocatorImEC2Ev = comdat any

$_ZNSt13_Bit_iteratorC2Ev = comdat any

$_ZNSt18_Bit_iterator_baseC2EPmj = comdat any

$_ZNSt6vectorItSaItEEC2Ev = comdat any

$_ZNSt6vectorIdSaIdEEC2Ev = comdat any

$_ZNSt6vectorItSaItEE6resizeEm = comdat any

$_ZNSt6vectorIjSaIjEE6resizeEm = comdat any

$_ZNSt6vectorIiSaIiEE6resizeEm = comdat any

$_ZNSt6vectorIbSaIbEE6resizeEmb = comdat any

$_ZNSt6vectorIS_IiSaIiEESaIS1_EE6resizeEm = comdat any

$_ZNSt6vectorIS_IiSaIiEESaIS1_EEixEm = comdat any

$_ZNSt6vectorIdSaIdEE6resizeEm = comdat any

$_ZN6NewBdd5CacheC2Eiii = comdat any

$_ZNSt6vectorItSaItEEixEm = comdat any

$_ZN6NewBdd3Man15UniqueCreateIntEtjj = comdat any

$_ZNSt12_Vector_baseItSaItEEC2Ev = comdat any

$_ZNSt12_Vector_baseItSaItEE12_Vector_implC2Ev = comdat any

$_ZNSt12_Vector_baseItSaItEE17_Vector_impl_dataC2Ev = comdat any

$_ZNSt15__new_allocatorItEC2Ev = comdat any

$_ZNSt12_Vector_baseIdSaIdEEC2Ev = comdat any

$_ZNSt12_Vector_baseIdSaIdEE12_Vector_implC2Ev = comdat any

$_ZNSaIdEC2Ev = comdat any

$_ZNSt12_Vector_baseIdSaIdEE17_Vector_impl_dataC2Ev = comdat any

$_ZNSt15__new_allocatorIdEC2Ev = comdat any

$_ZNSt14numeric_limitsItE3maxEv = comdat any

$_ZNKSt6vectorItSaItEE4sizeEv = comdat any

$_ZNSt6vectorItSaItEE17_M_default_appendEm = comdat any

$_ZNSt6vectorItSaItEE15_M_erase_at_endEPt = comdat any

$_ZNKSt6vectorItSaItEE8max_sizeEv = comdat any

$_ZSt27__uninitialized_default_n_aIPtmtET_S1_T0_RSaIT1_E = comdat any

$_ZNSt12_Vector_baseItSaItEE19_M_get_Tp_allocatorEv = comdat any

$_ZNKSt6vectorItSaItEE12_M_check_lenEmPKc = comdat any

$_ZNSt12_Vector_baseItSaItEE11_M_allocateEm = comdat any

$_ZNSt6vectorItSaItEE11_S_relocateEPtS2_S2_RS0_ = comdat any

$_ZNSt12_Vector_baseItSaItEE13_M_deallocateEPtm = comdat any

$_ZNSt6vectorItSaItEE11_S_max_sizeERKS0_ = comdat any

$_ZNKSt12_Vector_baseItSaItEE19_M_get_Tp_allocatorEv = comdat any

$_ZNSt16allocator_traitsISaItEE8max_sizeERKS0_ = comdat any

$_ZSt3minImERKT_S2_S2_ = comdat any

$_ZNKSt15__new_allocatorItE8max_sizeEv = comdat any

$_ZNKSt15__new_allocatorItE11_M_max_sizeEv = comdat any

$_ZSt25__uninitialized_default_nIPtmET_S1_T0_ = comdat any

$_ZNSt27__uninitialized_default_n_1ILb1EE18__uninit_default_nIPtmEET_S3_T0_ = comdat any

$_ZSt10_ConstructItJEEvPT_DpOT0_ = comdat any

$_ZSt6fill_nIPtmtET_S1_T0_RKT1_ = comdat any

$_ZSt10__fill_n_aIPtmtET_S1_T0_RKT1_St26random_access_iterator_tag = comdat any

$_ZSt17__size_to_integerm = comdat any

$_ZSt19__iterator_categoryIPtENSt15iterator_traitsIT_E17iterator_categoryERKS2_ = comdat any

$_ZSt8__fill_aIPttEvT_S1_RKT0_ = comdat any

$_ZSt9__fill_a1IPttEN9__gnu_cxx11__enable_ifIXsr11__is_scalarIT0_EE7__valueEvE6__typeET_S6_RKS3_ = comdat any

$_ZSt3maxImERKT_S2_S2_ = comdat any

$_ZNSt16allocator_traitsISaItEE8allocateERS0_m = comdat any

$_ZNSt15__new_allocatorItE8allocateEmPKv = comdat any

$_ZSt12__relocate_aIPtS0_SaItEET0_T_S3_S2_RT1_ = comdat any

$_ZSt14__relocate_a_1IttENSt9enable_ifIXsr3std24__is_bitwise_relocatableIT_EE5valueEPS1_E4typeES2_S2_S2_RSaIT0_E = comdat any

$_ZSt12__niter_baseIPtET_S1_ = comdat any

$_ZNSt16allocator_traitsISaItEE10deallocateERS0_Ptm = comdat any

$_ZNSt15__new_allocatorItE10deallocateEPtm = comdat any

$_ZSt8_DestroyIPttEvT_S1_RSaIT0_E = comdat any

$_ZSt8_DestroyIPtEvT_S1_ = comdat any

$_ZNSt12_Destroy_auxILb1EE9__destroyIPtEEvT_S3_ = comdat any

$_ZNSt6vectorIjSaIjEE17_M_default_appendEm = comdat any

$_ZNSt6vectorIjSaIjEE15_M_erase_at_endEPj = comdat any

$_ZNKSt6vectorIjSaIjEE8max_sizeEv = comdat any

$_ZSt27__uninitialized_default_n_aIPjmjET_S1_T0_RSaIT1_E = comdat any

$_ZNSt12_Vector_baseIjSaIjEE19_M_get_Tp_allocatorEv = comdat any

$_ZNKSt6vectorIjSaIjEE12_M_check_lenEmPKc = comdat any

$_ZNSt12_Vector_baseIjSaIjEE11_M_allocateEm = comdat any

$_ZNSt6vectorIjSaIjEE11_S_relocateEPjS2_S2_RS0_ = comdat any

$_ZNSt12_Vector_baseIjSaIjEE13_M_deallocateEPjm = comdat any

$_ZNSt6vectorIjSaIjEE11_S_max_sizeERKS0_ = comdat any

$_ZNKSt12_Vector_baseIjSaIjEE19_M_get_Tp_allocatorEv = comdat any

$_ZNSt16allocator_traitsISaIjEE8max_sizeERKS0_ = comdat any

$_ZNKSt15__new_allocatorIjE8max_sizeEv = comdat any

$_ZNKSt15__new_allocatorIjE11_M_max_sizeEv = comdat any

$_ZSt25__uninitialized_default_nIPjmET_S1_T0_ = comdat any

$_ZNSt27__uninitialized_default_n_1ILb1EE18__uninit_default_nIPjmEET_S3_T0_ = comdat any

$_ZSt10_ConstructIjJEEvPT_DpOT0_ = comdat any

$_ZSt6fill_nIPjmjET_S1_T0_RKT1_ = comdat any

$_ZSt10__fill_n_aIPjmjET_S1_T0_RKT1_St26random_access_iterator_tag = comdat any

$_ZSt19__iterator_categoryIPjENSt15iterator_traitsIT_E17iterator_categoryERKS2_ = comdat any

$_ZSt8__fill_aIPjjEvT_S1_RKT0_ = comdat any

$_ZSt9__fill_a1IPjjEN9__gnu_cxx11__enable_ifIXsr11__is_scalarIT0_EE7__valueEvE6__typeET_S6_RKS3_ = comdat any

$_ZNSt16allocator_traitsISaIjEE8allocateERS0_m = comdat any

$_ZNSt15__new_allocatorIjE8allocateEmPKv = comdat any

$_ZSt12__relocate_aIPjS0_SaIjEET0_T_S3_S2_RT1_ = comdat any

$_ZSt14__relocate_a_1IjjENSt9enable_ifIXsr3std24__is_bitwise_relocatableIT_EE5valueEPS1_E4typeES2_S2_S2_RSaIT0_E = comdat any

$_ZSt12__niter_baseIPjET_S1_ = comdat any

$_ZNSt16allocator_traitsISaIjEE10deallocateERS0_Pjm = comdat any

$_ZNSt15__new_allocatorIjE10deallocateEPjm = comdat any

$_ZSt8_DestroyIPjjEvT_S1_RSaIT0_E = comdat any

$_ZSt8_DestroyIPjEvT_S1_ = comdat any

$_ZNSt12_Destroy_auxILb1EE9__destroyIPjEEvT_S3_ = comdat any

$_ZNSt6vectorIiSaIiEE17_M_default_appendEm = comdat any

$_ZNSt6vectorIiSaIiEE15_M_erase_at_endEPi = comdat any

$_ZNKSt6vectorIiSaIiEE8max_sizeEv = comdat any

$_ZSt27__uninitialized_default_n_aIPimiET_S1_T0_RSaIT1_E = comdat any

$_ZNSt12_Vector_baseIiSaIiEE19_M_get_Tp_allocatorEv = comdat any

$_ZNKSt6vectorIiSaIiEE12_M_check_lenEmPKc = comdat any

$_ZNSt12_Vector_baseIiSaIiEE11_M_allocateEm = comdat any

$_ZNSt6vectorIiSaIiEE11_S_relocateEPiS2_S2_RS0_ = comdat any

$_ZNSt12_Vector_baseIiSaIiEE13_M_deallocateEPim = comdat any

$_ZNSt6vectorIiSaIiEE11_S_max_sizeERKS0_ = comdat any

$_ZNKSt12_Vector_baseIiSaIiEE19_M_get_Tp_allocatorEv = comdat any

$_ZNSt16allocator_traitsISaIiEE8max_sizeERKS0_ = comdat any

$_ZNKSt15__new_allocatorIiE8max_sizeEv = comdat any

$_ZNKSt15__new_allocatorIiE11_M_max_sizeEv = comdat any

$_ZSt25__uninitialized_default_nIPimET_S1_T0_ = comdat any

$_ZNSt27__uninitialized_default_n_1ILb1EE18__uninit_default_nIPimEET_S3_T0_ = comdat any

$_ZSt10_ConstructIiJEEvPT_DpOT0_ = comdat any

$_ZSt6fill_nIPimiET_S1_T0_RKT1_ = comdat any

$_ZSt10__fill_n_aIPimiET_S1_T0_RKT1_St26random_access_iterator_tag = comdat any

$_ZSt19__iterator_categoryIPiENSt15iterator_traitsIT_E17iterator_categoryERKS2_ = comdat any

$_ZSt8__fill_aIPiiEvT_S1_RKT0_ = comdat any

$_ZSt9__fill_a1IPiiEN9__gnu_cxx11__enable_ifIXsr11__is_scalarIT0_EE7__valueEvE6__typeET_S6_RKS3_ = comdat any

$_ZNSt16allocator_traitsISaIiEE8allocateERS0_m = comdat any

$_ZNSt15__new_allocatorIiE8allocateEmPKv = comdat any

$_ZSt12__relocate_aIPiS0_SaIiEET0_T_S3_S2_RT1_ = comdat any

$_ZSt14__relocate_a_1IiiENSt9enable_ifIXsr3std24__is_bitwise_relocatableIT_EE5valueEPS1_E4typeES2_S2_S2_RSaIT0_E = comdat any

$_ZSt12__niter_baseIPiET_S1_ = comdat any

$_ZNSt16allocator_traitsISaIiEE10deallocateERS0_Pim = comdat any

$_ZNSt15__new_allocatorIiE10deallocateEPim = comdat any

$_ZSt8_DestroyIPiiEvT_S1_RSaIT0_E = comdat any

$_ZSt8_DestroyIPiEvT_S1_ = comdat any

$_ZNSt12_Destroy_auxILb1EE9__destroyIPiEEvT_S3_ = comdat any

$_ZNKSt6vectorIbSaIbEE4sizeEv = comdat any

$_ZNSt6vectorIbSaIbEE15_M_erase_at_endESt13_Bit_iterator = comdat any

$_ZStplRKSt13_Bit_iteratorl = comdat any

$_ZNSt6vectorIbSaIbEE5beginEv = comdat any

$_ZNSt6vectorIbSaIbEE6insertESt19_Bit_const_iteratormRKb = comdat any

$_ZNSt6vectorIbSaIbEE3endEv = comdat any

$_ZNSt19_Bit_const_iteratorC2ERKSt13_Bit_iterator = comdat any

$_ZStmiRKSt18_Bit_iterator_baseS1_ = comdat any

$_ZNKSt6vectorIbSaIbEE3endEv = comdat any

$_ZNKSt6vectorIbSaIbEE5beginEv = comdat any

$_ZNSt19_Bit_const_iteratorC2EPmj = comdat any

$_ZNSt13_Bit_iteratorpLEl = comdat any

$_ZNSt18_Bit_iterator_base7_M_incrEl = comdat any

$_ZNSt13_Bit_iteratorC2EPmj = comdat any

$_ZNKSt6vectorIbSaIbEE6cbeginEv = comdat any

$_ZNSt6vectorIbSaIbEE14_M_fill_insertESt13_Bit_iteratormb = comdat any

$_ZNKSt19_Bit_const_iterator13_M_const_castEv = comdat any

$_ZNKSt6vectorIbSaIbEE8capacityEv = comdat any

$_ZSt13copy_backwardISt13_Bit_iteratorS0_ET0_T_S2_S1_ = comdat any

$_ZSt4fillISt13_Bit_iteratorbEvT_S1_RKT0_ = comdat any

$_ZNKSt6vectorIbSaIbEE12_M_check_lenEmPKc = comdat any

$_ZNSt13_Bvector_baseISaIbEE11_M_allocateEm = comdat any

$_ZNSt6vectorIbSaIbEE15_M_copy_alignedESt19_Bit_const_iteratorS2_St13_Bit_iterator = comdat any

$_ZSt4copyISt13_Bit_iteratorS0_ET0_T_S2_S1_ = comdat any

$_ZNSt13_Bvector_baseISaIbEE13_M_deallocateEv = comdat any

$_ZNSt13_Bvector_baseISaIbEE8_S_nwordEm = comdat any

$_ZNKSt13_Bvector_baseISaIbEE13_Bvector_impl11_M_end_addrEv = comdat any

$_ZSt22__copy_move_backward_aILb0ESt13_Bit_iteratorS0_ET1_T0_S2_S1_ = comdat any

$_ZSt12__miter_baseISt13_Bit_iteratorET_S1_ = comdat any

$_ZSt12__niter_wrapISt13_Bit_iteratorET_RKS1_S1_ = comdat any

$_ZSt23__copy_move_backward_a1ILb0ESt13_Bit_iteratorS0_ET1_T0_S2_S1_ = comdat any

$_ZSt12__niter_baseISt13_Bit_iteratorET_S1_ = comdat any

$_ZSt23__copy_move_backward_a2ILb0ESt13_Bit_iteratorS0_ET1_T0_S2_S1_ = comdat any

$_ZNSt20__copy_move_backwardILb0ELb0ESt26random_access_iterator_tagE13__copy_move_bISt13_Bit_iteratorS3_EET0_T_S5_S4_ = comdat any

$_ZNSt13_Bit_iteratormmEv = comdat any

$_ZNKSt13_Bit_iteratordeEv = comdat any

$_ZNSt14_Bit_referenceaSERKS_ = comdat any

$_ZNSt18_Bit_iterator_base12_M_bump_downEv = comdat any

$_ZNSt14_Bit_referenceC2EPmm = comdat any

$_ZNKSt14_Bit_referencecvbEv = comdat any

$_ZNSt14_Bit_referenceaSEb = comdat any

$_ZSt8__fill_aISt13_Bit_iteratorbEvT_S1_RKT0_ = comdat any

$_ZSt9__fill_a1St13_Bit_iteratorS_RKb = comdat any

$_ZSt14__fill_bvectorPmjjb = comdat any

$_ZSt16__fill_bvector_nPmmb = comdat any

$_ZNKSt6vectorIbSaIbEE8max_sizeEv = comdat any

$_ZNSt16allocator_traitsISaImEE8max_sizeERKS0_ = comdat any

$_ZNKSt13_Bvector_baseISaIbEE20_M_get_Bit_allocatorEv = comdat any

$_ZNKSt15__new_allocatorImE8max_sizeEv = comdat any

$_ZNKSt15__new_allocatorImE11_M_max_sizeEv = comdat any

$_ZNSt16allocator_traitsISaImEE8allocateERS0_m = comdat any

$_ZNSt15__new_allocatorImE8allocateEmPKv = comdat any

$_ZSt4copyIPmS0_ET0_T_S2_S1_ = comdat any

$_ZSt4copyISt19_Bit_const_iteratorSt13_Bit_iteratorET0_T_S3_S2_ = comdat any

$_ZSt13__copy_move_aILb0EPmS0_ET1_T0_S2_S1_ = comdat any

$_ZSt12__miter_baseIPmET_S1_ = comdat any

$_ZSt12__niter_wrapIPmET_RKS1_S1_ = comdat any

$_ZSt14__copy_move_a1ILb0EPmS0_ET1_T0_S2_S1_ = comdat any

$_ZSt12__niter_baseIPmET_S1_ = comdat any

$_ZSt14__copy_move_a2ILb0EPmS0_ET1_T0_S2_S1_ = comdat any

$_ZNSt11__copy_moveILb0ELb1ESt26random_access_iterator_tagE8__copy_mImEEPT_PKS3_S6_S4_ = comdat any

$_ZSt13__copy_move_aILb0ESt19_Bit_const_iteratorSt13_Bit_iteratorET1_T0_S3_S2_ = comdat any

$_ZSt12__miter_baseISt19_Bit_const_iteratorET_S1_ = comdat any

$_ZSt14__copy_move_a1ILb0ESt19_Bit_const_iteratorSt13_Bit_iteratorET1_T0_S3_S2_ = comdat any

$_ZSt12__niter_baseISt19_Bit_const_iteratorET_S1_ = comdat any

$_ZSt14__copy_move_a2ILb0ESt19_Bit_const_iteratorSt13_Bit_iteratorET1_T0_S3_S2_ = comdat any

$_ZNSt11__copy_moveILb0ELb0ESt26random_access_iterator_tagE8__copy_mISt19_Bit_const_iteratorSt13_Bit_iteratorEET0_T_S6_S5_ = comdat any

$_ZNKSt19_Bit_const_iteratordeEv = comdat any

$_ZNSt19_Bit_const_iteratorppEv = comdat any

$_ZNSt13_Bit_iteratorppEv = comdat any

$_ZNSt18_Bit_iterator_base10_M_bump_upEv = comdat any

$_ZSt13__copy_move_aILb0ESt13_Bit_iteratorS0_ET1_T0_S2_S1_ = comdat any

$_ZSt14__copy_move_a1ILb0ESt13_Bit_iteratorS0_ET1_T0_S2_S1_ = comdat any

$_ZSt14__copy_move_a2ILb0ESt13_Bit_iteratorS0_ET1_T0_S2_S1_ = comdat any

$_ZNSt11__copy_moveILb0ELb0ESt26random_access_iterator_tagE8__copy_mISt13_Bit_iteratorS3_EET0_T_S5_S4_ = comdat any

$_ZNSt16allocator_traitsISaImEE10deallocateERS0_Pmm = comdat any

$_ZNSt13_Bvector_baseISaIbEE18_Bvector_impl_data8_M_resetEv = comdat any

$_ZNSt15__new_allocatorImE10deallocateEPmm = comdat any

$_ZNSt13_Bvector_baseISaIbEE18_Bvector_impl_dataC2Ev = comdat any

$_ZNKSt6vectorIS_IiSaIiEESaIS1_EE4sizeEv = comdat any

$_ZNSt6vectorIS_IiSaIiEESaIS1_EE17_M_default_appendEm = comdat any

$_ZNSt6vectorIS_IiSaIiEESaIS1_EE15_M_erase_at_endEPS1_ = comdat any

$_ZNKSt6vectorIS_IiSaIiEESaIS1_EE8max_sizeEv = comdat any

$_ZSt27__uninitialized_default_n_aIPSt6vectorIiSaIiEEmS2_ET_S4_T0_RSaIT1_E = comdat any

$_ZNSt12_Vector_baseISt6vectorIiSaIiEESaIS2_EE19_M_get_Tp_allocatorEv = comdat any

$_ZNKSt6vectorIS_IiSaIiEESaIS1_EE12_M_check_lenEmPKc = comdat any

$_ZNSt12_Vector_baseISt6vectorIiSaIiEESaIS2_EE11_M_allocateEm = comdat any

$_ZNSt6vectorIS_IiSaIiEESaIS1_EE11_S_relocateEPS1_S4_S4_RS2_ = comdat any

$_ZNSt12_Vector_baseISt6vectorIiSaIiEESaIS2_EE13_M_deallocateEPS2_m = comdat any

$_ZNSt6vectorIS_IiSaIiEESaIS1_EE11_S_max_sizeERKS2_ = comdat any

$_ZNKSt12_Vector_baseISt6vectorIiSaIiEESaIS2_EE19_M_get_Tp_allocatorEv = comdat any

$_ZNSt16allocator_traitsISaISt6vectorIiSaIiEEEE8max_sizeERKS3_ = comdat any

$_ZNKSt15__new_allocatorISt6vectorIiSaIiEEE8max_sizeEv = comdat any

$_ZNKSt15__new_allocatorISt6vectorIiSaIiEEE11_M_max_sizeEv = comdat any

$_ZSt25__uninitialized_default_nIPSt6vectorIiSaIiEEmET_S4_T0_ = comdat any

$_ZNSt27__uninitialized_default_n_1ILb0EE18__uninit_default_nIPSt6vectorIiSaIiEEmEET_S6_T0_ = comdat any

$_ZSt10_ConstructISt6vectorIiSaIiEEJEEvPT_DpOT0_ = comdat any

$_ZNSt16allocator_traitsISaISt6vectorIiSaIiEEEE8allocateERS3_m = comdat any

$_ZNSt15__new_allocatorISt6vectorIiSaIiEEE8allocateEmPKv = comdat any

$_ZSt12__relocate_aIPSt6vectorIiSaIiEES3_SaIS2_EET0_T_S6_S5_RT1_ = comdat any

$_ZSt14__relocate_a_1IPSt6vectorIiSaIiEES3_SaIS2_EET0_T_S6_S5_RT1_ = comdat any

$_ZSt12__niter_baseIPSt6vectorIiSaIiEEET_S4_ = comdat any

$_ZSt19__relocate_object_aISt6vectorIiSaIiEES2_SaIS2_EEvPT_PT0_RT1_ = comdat any

$_ZNSt16allocator_traitsISaISt6vectorIiSaIiEEEE9constructIS2_JS2_EEEvRS3_PT_DpOT0_ = comdat any

$_ZNSt16allocator_traitsISaISt6vectorIiSaIiEEEE7destroyIS2_EEvRS3_PT_ = comdat any

$_ZNSt15__new_allocatorISt6vectorIiSaIiEEE9constructIS2_JS2_EEEvPT_DpOT0_ = comdat any

$_ZNSt6vectorIiSaIiEEC2EOS1_ = comdat any

$_ZNSt12_Vector_baseIiSaIiEEC2EOS1_ = comdat any

$_ZNSt12_Vector_baseIiSaIiEE12_Vector_implC2EOS2_ = comdat any

$_ZNSt12_Vector_baseIiSaIiEE17_Vector_impl_dataC2EOS2_ = comdat any

$_ZNSt15__new_allocatorIiEC2ERKS0_ = comdat any

$_ZNSt15__new_allocatorISt6vectorIiSaIiEEE7destroyIS2_EEvPT_ = comdat any

$_ZNSt6vectorIiSaIiEED2Ev = comdat any

$_ZNSt12_Vector_baseIiSaIiEED2Ev = comdat any

$_ZNSt16allocator_traitsISaISt6vectorIiSaIiEEEE10deallocateERS3_PS2_m = comdat any

$_ZNSt15__new_allocatorISt6vectorIiSaIiEEE10deallocateEPS2_m = comdat any

$_ZSt8_DestroyIPSt6vectorIiSaIiEES2_EvT_S4_RSaIT0_E = comdat any

$_ZSt8_DestroyIPSt6vectorIiSaIiEEEvT_S4_ = comdat any

$_ZNSt12_Destroy_auxILb0EE9__destroyIPSt6vectorIiSaIiEEEEvT_S6_ = comdat any

$_ZSt8_DestroyISt6vectorIiSaIiEEEvPT_ = comdat any

$_ZNKSt6vectorIdSaIdEE4sizeEv = comdat any

$_ZNSt6vectorIdSaIdEE17_M_default_appendEm = comdat any

$_ZNSt6vectorIdSaIdEE15_M_erase_at_endEPd = comdat any

$_ZNKSt6vectorIdSaIdEE8max_sizeEv = comdat any

$_ZSt27__uninitialized_default_n_aIPdmdET_S1_T0_RSaIT1_E = comdat any

$_ZNSt12_Vector_baseIdSaIdEE19_M_get_Tp_allocatorEv = comdat any

$_ZNKSt6vectorIdSaIdEE12_M_check_lenEmPKc = comdat any

$_ZNSt12_Vector_baseIdSaIdEE11_M_allocateEm = comdat any

$_ZNSt6vectorIdSaIdEE11_S_relocateEPdS2_S2_RS0_ = comdat any

$_ZNSt12_Vector_baseIdSaIdEE13_M_deallocateEPdm = comdat any

$_ZNSt6vectorIdSaIdEE11_S_max_sizeERKS0_ = comdat any

$_ZNKSt12_Vector_baseIdSaIdEE19_M_get_Tp_allocatorEv = comdat any

$_ZNSt16allocator_traitsISaIdEE8max_sizeERKS0_ = comdat any

$_ZNKSt15__new_allocatorIdE8max_sizeEv = comdat any

$_ZNKSt15__new_allocatorIdE11_M_max_sizeEv = comdat any

$_ZSt25__uninitialized_default_nIPdmET_S1_T0_ = comdat any

$_ZNSt27__uninitialized_default_n_1ILb1EE18__uninit_default_nIPdmEET_S3_T0_ = comdat any

$_ZSt10_ConstructIdJEEvPT_DpOT0_ = comdat any

$_ZSt6fill_nIPdmdET_S1_T0_RKT1_ = comdat any

$_ZSt10__fill_n_aIPdmdET_S1_T0_RKT1_St26random_access_iterator_tag = comdat any

$_ZSt19__iterator_categoryIPdENSt15iterator_traitsIT_E17iterator_categoryERKS2_ = comdat any

$_ZSt8__fill_aIPddEvT_S1_RKT0_ = comdat any

$_ZSt9__fill_a1IPddEN9__gnu_cxx11__enable_ifIXsr11__is_scalarIT0_EE7__valueEvE6__typeET_S6_RKS3_ = comdat any

$_ZNSt16allocator_traitsISaIdEE8allocateERS0_m = comdat any

$_ZNSt15__new_allocatorIdE8allocateEmPKv = comdat any

$_ZSt12__relocate_aIPdS0_SaIdEET0_T_S3_S2_RT1_ = comdat any

$_ZSt14__relocate_a_1IddENSt9enable_ifIXsr3std24__is_bitwise_relocatableIT_EE5valueEPS1_E4typeES2_S2_S2_RSaIT0_E = comdat any

$_ZSt12__niter_baseIPdET_S1_ = comdat any

$_ZNSt16allocator_traitsISaIdEE10deallocateERS0_Pdm = comdat any

$_ZNSt15__new_allocatorIdE10deallocateEPdm = comdat any

$_ZSt8_DestroyIPddEvT_S1_RSaIT0_E = comdat any

$_ZSt8_DestroyIPdEvT_S1_ = comdat any

$_ZNSt12_Destroy_auxILb1EE9__destroyIPdEEvT_S3_ = comdat any

$_ZNSt14numeric_limitsIyE3maxEv = comdat any

$_ZN9__gnu_cxx17__normal_iteratorIPiSt6vectorIiSaIiEEEC2Ev = comdat any

$_ZNSt6vectorIiSaIiEE5beginEv = comdat any

$_ZNK9__gnu_cxx17__normal_iteratorIPiSt6vectorIiSaIiEEEplEl = comdat any

$_ZNK9__gnu_cxx17__normal_iteratorIPiSt6vectorIiSaIiEEEdeEv = comdat any

$_ZNK6NewBdd3Man9VarOfBvarEi = comdat any

$_ZNK6NewBdd3Man10ThenOfBvarEi = comdat any

$_ZNK6NewBdd3Man10ElseOfBvarEi = comdat any

$_ZNK6NewBdd3Man8Bvar2LitEi = comdat any

$_ZN6NewBdd3Man12SetVarOfBvarEit = comdat any

$_ZN6NewBdd3Man13SetThenOfBvarEij = comdat any

$_ZN6NewBdd3Man13SetElseOfBvarEij = comdat any

$_ZNKSt6vectorIdSaIdEE5emptyEv = comdat any

$_ZNK6NewBdd3Man8OneCountEj = comdat any

$_ZNSt6vectorIdSaIdEEixEm = comdat any

$_ZSt4setwi = comdat any

$_ZN6NewBdd3Man12ResizeUniqueEt = comdat any

$_ZN9__gnu_cxx17__normal_iteratorIPiSt6vectorIiSaIiEEEC2ERKS1_ = comdat any

$_ZNKSt6vectorItSaItEEixEm = comdat any

$_ZNKSt6vectorIjSaIjEEixEm = comdat any

$_ZNK6NewBdd3Man8Bvar2LitEib = comdat any

$_ZNSt14numeric_limitsIjE3maxEv = comdat any

$_ZN9__gnu_cxxeqIPKdSt6vectorIdSaIdEEEEbRKNS_17__normal_iteratorIT_T0_EESB_ = comdat any

$_ZNKSt6vectorIdSaIdEE5beginEv = comdat any

$_ZNKSt6vectorIdSaIdEE3endEv = comdat any

$_ZNK9__gnu_cxx17__normal_iteratorIPKdSt6vectorIdSaIdEEE4baseEv = comdat any

$_ZN9__gnu_cxx17__normal_iteratorIPKdSt6vectorIdSaIdEEEC2ERKS2_ = comdat any

$_ZNK6NewBdd3Man10LitIsComplEj = comdat any

$_ZSt3powIdtEN9__gnu_cxx9__promoteIDTplcvNS1_IT_Xsr3std12__is_integerIS2_EE7__valueEE6__typeELi0EcvNS1_IT0_Xsr3std12__is_integerIS5_EE7__valueEE6__typeELi0EEXsr3std12__is_integerIS8_EE7__valueEE6__typeES2_S5_ = comdat any

$_ZNKSt6vectorIdSaIdEEixEm = comdat any

$_ZNK6NewBdd3Man8Lit2BvarEj = comdat any

$_ZNSt8ios_base5widthEl = comdat any

$_ZN9__gnu_cxxneIPiSt6vectorIiSaIiEEEEbRKNS_17__normal_iteratorIT_T0_EESA_ = comdat any

$_ZN9__gnu_cxxeqIPiSt6vectorIiSaIiEEEEbRKNS_17__normal_iteratorIT_T0_EESA_ = comdat any

$_ZNK9__gnu_cxx17__normal_iteratorIPiSt6vectorIiSaIiEEE4baseEv = comdat any

$_ZNSt6vectorIS_IjSaIjEESaIS1_EE6resizeEm = comdat any

$_ZNSaIiEC2Ev = comdat any

$_ZNSt6vectorIiSaIiEEC2EmRKiRKS0_ = comdat any

$_ZNSt15__new_allocatorIiED2Ev = comdat any

$_ZNSt6vectorIiSaIiEE9push_backERKi = comdat any

$_ZNK12Transduction12TransductionIN6NewBdd3ManENS1_5ParamEjLj4294967295EE5PrintENSt7__cxx1112basic_stringIcSt11char_traitsIcESaIcEEEb = comdat any

$_ZN12Transduction12TransductionIN6NewBdd3ManENS1_5ParamEjLj4294967295EE7ConnectEiibbj = comdat any

$_ZNSt7__cxx114listIiSaIiEE9push_backERKi = comdat any

$_ZNKSt6vectorIS_IjSaIjEESaIS1_EE4sizeEv = comdat any

$_ZNSt6vectorIS_IjSaIjEESaIS1_EE17_M_default_appendEm = comdat any

$_ZNSt6vectorIS_IjSaIjEESaIS1_EE15_M_erase_at_endEPS1_ = comdat any

$_ZNKSt6vectorIS_IjSaIjEESaIS1_EE8max_sizeEv = comdat any

$_ZSt27__uninitialized_default_n_aIPSt6vectorIjSaIjEEmS2_ET_S4_T0_RSaIT1_E = comdat any

$_ZNSt12_Vector_baseISt6vectorIjSaIjEESaIS2_EE19_M_get_Tp_allocatorEv = comdat any

$_ZNKSt6vectorIS_IjSaIjEESaIS1_EE12_M_check_lenEmPKc = comdat any

$_ZNSt12_Vector_baseISt6vectorIjSaIjEESaIS2_EE11_M_allocateEm = comdat any

$_ZNSt6vectorIS_IjSaIjEESaIS1_EE11_S_relocateEPS1_S4_S4_RS2_ = comdat any

$_ZNSt12_Vector_baseISt6vectorIjSaIjEESaIS2_EE13_M_deallocateEPS2_m = comdat any

$_ZNSt6vectorIS_IjSaIjEESaIS1_EE11_S_max_sizeERKS2_ = comdat any

$_ZNKSt12_Vector_baseISt6vectorIjSaIjEESaIS2_EE19_M_get_Tp_allocatorEv = comdat any

$_ZNSt16allocator_traitsISaISt6vectorIjSaIjEEEE8max_sizeERKS3_ = comdat any

$_ZNKSt15__new_allocatorISt6vectorIjSaIjEEE8max_sizeEv = comdat any

$_ZNKSt15__new_allocatorISt6vectorIjSaIjEEE11_M_max_sizeEv = comdat any

$_ZSt25__uninitialized_default_nIPSt6vectorIjSaIjEEmET_S4_T0_ = comdat any

$_ZNSt27__uninitialized_default_n_1ILb0EE18__uninit_default_nIPSt6vectorIjSaIjEEmEET_S6_T0_ = comdat any

$_ZSt10_ConstructISt6vectorIjSaIjEEJEEvPT_DpOT0_ = comdat any

$_ZNSt16allocator_traitsISaISt6vectorIjSaIjEEEE8allocateERS3_m = comdat any

$_ZNSt15__new_allocatorISt6vectorIjSaIjEEE8allocateEmPKv = comdat any

$_ZSt12__relocate_aIPSt6vectorIjSaIjEES3_SaIS2_EET0_T_S6_S5_RT1_ = comdat any

$_ZSt14__relocate_a_1IPSt6vectorIjSaIjEES3_SaIS2_EET0_T_S6_S5_RT1_ = comdat any

$_ZSt12__niter_baseIPSt6vectorIjSaIjEEET_S4_ = comdat any

$_ZSt19__relocate_object_aISt6vectorIjSaIjEES2_SaIS2_EEvPT_PT0_RT1_ = comdat any

$_ZNSt16allocator_traitsISaISt6vectorIjSaIjEEEE9constructIS2_JS2_EEEvRS3_PT_DpOT0_ = comdat any

$_ZNSt16allocator_traitsISaISt6vectorIjSaIjEEEE7destroyIS2_EEvRS3_PT_ = comdat any

$_ZNSt15__new_allocatorISt6vectorIjSaIjEEE9constructIS2_JS2_EEEvPT_DpOT0_ = comdat any

$_ZNSt6vectorIjSaIjEEC2EOS1_ = comdat any

$_ZNSt12_Vector_baseIjSaIjEEC2EOS1_ = comdat any

$_ZNSt12_Vector_baseIjSaIjEE12_Vector_implC2EOS2_ = comdat any

$_ZNSt12_Vector_baseIjSaIjEE17_Vector_impl_dataC2EOS2_ = comdat any

$_ZNSt15__new_allocatorIjEC2ERKS0_ = comdat any

$_ZNSt15__new_allocatorISt6vectorIjSaIjEEE7destroyIS2_EEvPT_ = comdat any

$_ZNSt16allocator_traitsISaISt6vectorIjSaIjEEEE10deallocateERS3_PS2_m = comdat any

$_ZNSt15__new_allocatorISt6vectorIjSaIjEEE10deallocateEPS2_m = comdat any

$_ZSt8_DestroyIPSt6vectorIjSaIjEES2_EvT_S4_RSaIT0_E = comdat any

$_ZSt8_DestroyIPSt6vectorIjSaIjEEEvT_S4_ = comdat any

$_ZNSt12_Destroy_auxILb0EE9__destroyIPSt6vectorIjSaIjEEEEvT_S6_ = comdat any

$_ZSt8_DestroyISt6vectorIjSaIjEEEvPT_ = comdat any

$_ZNSt6vectorIiSaIiEE17_S_check_init_lenEmRKS0_ = comdat any

$_ZNSt12_Vector_baseIiSaIiEEC2EmRKS0_ = comdat any

$_ZNSt6vectorIiSaIiEE18_M_fill_initializeEmRKi = comdat any

$_ZNSaIiEC2ERKS_ = comdat any

$_ZNSt12_Vector_baseIiSaIiEE12_Vector_implC2ERKS0_ = comdat any

$_ZNSt12_Vector_baseIiSaIiEE17_M_create_storageEm = comdat any

$_ZSt24__uninitialized_fill_n_aIPimiiET_S1_T0_RKT1_RSaIT2_E = comdat any

$_ZSt20uninitialized_fill_nIPimiET_S1_T0_RKT1_ = comdat any

$_ZNSt22__uninitialized_fill_nILb1EE15__uninit_fill_nIPimiEET_S3_T0_RKT1_ = comdat any

$_ZNSt16allocator_traitsISaIiEE9constructIiJRKiEEEvRS0_PT_DpOT0_ = comdat any

$_ZNSt6vectorIiSaIiEE17_M_realloc_insertIJRKiEEEvN9__gnu_cxx17__normal_iteratorIPiS1_EEDpOT_ = comdat any

$_ZNSt6vectorIiSaIiEE3endEv = comdat any

$_ZNSt15__new_allocatorIiE9constructIiJRKiEEEvPT_DpOT0_ = comdat any

$_ZN9__gnu_cxxmiIPiSt6vectorIiSaIiEEEENS_17__normal_iteratorIT_T0_E15difference_typeERKS8_SB_ = comdat any

$_ZStorSt13_Ios_OpenmodeS_ = comdat any

$_ZNSt19__ptr_traits_ptr_toIPccLb0EE10pointer_toERc = comdat any

$_ZNSt15__new_allocatorIcEC2ERKS0_ = comdat any

$_ZNSt11char_traitsIcE6assignERcRKc = comdat any

$_ZNSt7__cxx1112basic_stringIcSt11char_traitsIcESaIcEE6assignIPcvEERS4_T_S8_ = comdat any

$_ZN9__gnu_cxx17__normal_iteratorIPKcNSt7__cxx1112basic_stringIcSt11char_traitsIcESaIcEEEEC2IPcvEERKNS0_IT_S8_EE = comdat any

$_ZN9__gnu_cxxmiIPKcPcNSt7__cxx1112basic_stringIcSt11char_traitsIcESaIcEEEEEDTmicldtfp_4baseEcldtfp0_4baseEERKNS_17__normal_iteratorIT_T1_EERKNSB_IT0_SD_EE = comdat any

$_ZN9__gnu_cxxmiIPKcNSt7__cxx1112basic_stringIcSt11char_traitsIcESaIcEEEEENS_17__normal_iteratorIT_T0_E15difference_typeERKSC_SF_ = comdat any

$_ZNK9__gnu_cxx17__normal_iteratorIPKcNSt7__cxx1112basic_stringIcSt11char_traitsIcESaIcEEEE4baseEv = comdat any

$_ZNK9__gnu_cxx17__normal_iteratorIPcNSt7__cxx1112basic_stringIcSt11char_traitsIcESaIcEEEE4baseEv = comdat any

$_ZN9__gnu_cxx17__normal_iteratorIPcNSt7__cxx1112basic_stringIcSt11char_traitsIcESaIcEEEEC2ERKS1_ = comdat any

$_ZNSt7__cxx1115basic_stringbufIcSt11char_traitsIcESaIcEED2Ev = comdat any

$_ZNSt6vectorIbSaIbEEixEm = comdat any

$_ZNK12Transduction7ManUtilIN6NewBdd3ManEjLj4294967295EE6IncRefEj = comdat any

$_ZNSt6vectorIjSaIjEE9push_backERKj = comdat any

$_ZNKSt6vectorIiSaIiEE5emptyEv = comdat any

$_ZSt4findISt14_List_iteratorIiEiET_S2_S2_RKT0_ = comdat any

$_ZNSt7__cxx114listIiSaIiEE5beginEv = comdat any

$_ZNSt7__cxx114listIiSaIiEE3endEv = comdat any

$_ZStneRKSt14_List_iteratorIiES2_ = comdat any

$_ZNSt7__cxx114listIiSaIiEE5eraseESt20_List_const_iteratorIiE = comdat any

$_ZNSt20_List_const_iteratorIiEC2ERKSt14_List_iteratorIiE = comdat any

$_ZNSt7__cxx114listIiSaIiEE6insertESt20_List_const_iteratorIiERKi = comdat any

$_ZN12Transduction12TransductionIN6NewBdd3ManENS1_5ParamEjLj4294967295EE12SortObjs_recERKSt14_List_iteratorIiE = comdat any

$_ZNKSt13_Bit_iteratorixEl = comdat any

$_ZN6NewBdd3Man6IncRefEj = comdat any

$_ZNKSt6vectorItSaItEE5emptyEv = comdat any

$_ZNK6NewBdd3Man3RefEj = comdat any

$_ZN9__gnu_cxxeqIPKtSt6vectorItSaItEEEEbRKNS_17__normal_iteratorIT_T0_EESB_ = comdat any

$_ZNKSt6vectorItSaItEE5beginEv = comdat any

$_ZNKSt6vectorItSaItEE3endEv = comdat any

$_ZNK9__gnu_cxx17__normal_iteratorIPKtSt6vectorItSaItEEE4baseEv = comdat any

$_ZN9__gnu_cxx17__normal_iteratorIPKtSt6vectorItSaItEEEC2ERKS2_ = comdat any

$_ZNSt16allocator_traitsISaIjEE9constructIjJRKjEEEvRS0_PT_DpOT0_ = comdat any

$_ZNSt6vectorIjSaIjEE17_M_realloc_insertIJRKjEEEvN9__gnu_cxx17__normal_iteratorIPjS1_EEDpOT_ = comdat any

$_ZNSt6vectorIjSaIjEE3endEv = comdat any

$_ZNSt15__new_allocatorIjE9constructIjJRKjEEEvPT_DpOT0_ = comdat any

$_ZN9__gnu_cxxmiIPjSt6vectorIjSaIjEEEENS_17__normal_iteratorIT_T0_E15difference_typeERKS8_SB_ = comdat any

$_ZNSt6vectorIjSaIjEE5beginEv = comdat any

$_ZNK9__gnu_cxx17__normal_iteratorIPjSt6vectorIjSaIjEEE4baseEv = comdat any

$_ZN9__gnu_cxx17__normal_iteratorIPjSt6vectorIjSaIjEEEC2ERKS1_ = comdat any

$_ZN9__gnu_cxxeqIPKiSt6vectorIiSaIiEEEEbRKNS_17__normal_iteratorIT_T0_EESB_ = comdat any

$_ZNKSt6vectorIiSaIiEE5beginEv = comdat any

$_ZNKSt6vectorIiSaIiEE3endEv = comdat any

$_ZNK9__gnu_cxx17__normal_iteratorIPKiSt6vectorIiSaIiEEE4baseEv = comdat any

$_ZN9__gnu_cxx17__normal_iteratorIPKiSt6vectorIiSaIiEEEC2ERKS2_ = comdat any

$_ZSt9__find_ifISt14_List_iteratorIiEN9__gnu_cxx5__ops16_Iter_equals_valIKiEEET_S7_S7_T0_ = comdat any

$_ZN9__gnu_cxx5__ops17__iter_equals_valIKiEENS0_16_Iter_equals_valIT_EERS4_ = comdat any

$_ZSt9__find_ifISt14_List_iteratorIiEN9__gnu_cxx5__ops16_Iter_equals_valIKiEEET_S7_S7_T0_St18input_iterator_tag = comdat any

$_ZSt19__iterator_categoryISt14_List_iteratorIiEENSt15iterator_traitsIT_E17iterator_categoryERKS3_ = comdat any

$_ZN9__gnu_cxx5__ops16_Iter_equals_valIKiEclISt14_List_iteratorIiEEEbT_ = comdat any

$_ZNSt14_List_iteratorIiEppEv = comdat any

$_ZNKSt14_List_iteratorIiEdeEv = comdat any

$_ZNSt10_List_nodeIiE9_M_valptrEv = comdat any

$_ZN9__gnu_cxx16__aligned_membufIiE6_M_ptrEv = comdat any

$_ZN9__gnu_cxx16__aligned_membufIiE7_M_addrEv = comdat any

$_ZN9__gnu_cxx5__ops16_Iter_equals_valIKiEC2ERS2_ = comdat any

$_ZNSt14_List_iteratorIiEC2EPNSt8__detail15_List_node_baseE = comdat any

$_ZNSt7__cxx114listIiSaIiEE8_M_eraseESt14_List_iteratorIiE = comdat any

$_ZNKSt20_List_const_iteratorIiE13_M_const_castEv = comdat any

$_ZNSt7__cxx1110_List_baseIiSaIiEE11_M_dec_sizeEm = comdat any

$_ZNSt16allocator_traitsISaISt10_List_nodeIiEEE7destroyIiEEvRS2_PT_ = comdat any

$_ZNSt7__cxx1110_List_baseIiSaIiEE21_M_get_Node_allocatorEv = comdat any

$_ZNSt7__cxx1110_List_baseIiSaIiEE11_M_put_nodeEPSt10_List_nodeIiE = comdat any

$_ZNSt15__new_allocatorISt10_List_nodeIiEE7destroyIiEEvPT_ = comdat any

$_ZNSt16allocator_traitsISaISt10_List_nodeIiEEE10deallocateERS2_PS1_m = comdat any

$_ZNSt15__new_allocatorISt10_List_nodeIiEE10deallocateEPS1_m = comdat any

$_ZNSt7__cxx114listIiSaIiEE14_M_create_nodeIJRKiEEEPSt10_List_nodeIiEDpOT_ = comdat any

$_ZNSt7__cxx1110_List_baseIiSaIiEE11_M_inc_sizeEm = comdat any

$_ZNSt7__cxx1110_List_baseIiSaIiEE11_M_get_nodeEv = comdat any

$_ZNSt15__allocated_ptrISaISt10_List_nodeIiEEEC2ERS2_PS1_ = comdat any

$_ZNSt16allocator_traitsISaISt10_List_nodeIiEEE9constructIiJRKiEEEvRS2_PT_DpOT0_ = comdat any

$_ZNSt15__allocated_ptrISaISt10_List_nodeIiEEEaSEDn = comdat any

$_ZNSt15__allocated_ptrISaISt10_List_nodeIiEEED2Ev = comdat any

$_ZNSt16allocator_traitsISaISt10_List_nodeIiEEE8allocateERS2_m = comdat any

$_ZNSt15__new_allocatorISt10_List_nodeIiEE8allocateEmPKv = comdat any

$_ZNKSt15__new_allocatorISt10_List_nodeIiEE11_M_max_sizeEv = comdat any

$_ZNSt15__new_allocatorISt10_List_nodeIiEE9constructIiJRKiEEEvPT_DpOT0_ = comdat any

$_ZNSt7__cxx114listIiSaIiEE9_M_insertIJRKiEEEvSt14_List_iteratorIiEDpOT_ = comdat any

$_ZNK12Transduction7ManUtilIN6NewBdd3ManEjLj4294967295EE6DecRefEj = comdat any

$_ZN6NewBdd3Man6DecRefEj = comdat any

$_ZNK12Transduction12TransductionIN6NewBdd3ManENS1_5ParamEjLj4294967295EE5BuildEiRSt6vectorIjSaIjEE = comdat any

$_ZNK6NewBdd3Man7LitIsEqEjj = comdat any

$_ZNSt14_List_iteratorIiEppEi = comdat any

$_ZNK6NewBdd3Man6Const1Ev = comdat any

$_ZNKSt6vectorIS_IiSaIiEESaIS1_EEixEm = comdat any

$_ZN6NewBdd3Man3AndEjj = comdat any

$_ZNK12Transduction12TransductionIN6NewBdd3ManENS1_5ParamEjLj4294967295EE5LitFiEiiRKSt6vectorIjSaIjEE = comdat any

$_ZN6NewBdd3Man7And_recEjj = comdat any

$_ZSt4swapIjENSt9enable_ifIXsr6__and_ISt6__not_ISt15__is_tuple_likeIT_EESt21is_move_constructibleIS3_ESt18is_move_assignableIS3_EEE5valueEvE4typeERS3_SC_ = comdat any

$_ZN6NewBdd5Cache6LookupEjj = comdat any

$_ZNK6NewBdd3Man5LevelEj = comdat any

$_ZNK6NewBdd3Man3VarEj = comdat any

$_ZNK6NewBdd3Man4ThenEj = comdat any

$_ZNK6NewBdd3Man4ElseEj = comdat any

$_ZN6NewBdd3Man12UniqueCreateEtjj = comdat any

$_ZN6NewBdd5Cache6InsertEjjj = comdat any

$_ZN6NewBdd5Cache6ResizeEv = comdat any

$_ZSt3hexRSt8ios_base = comdat any

$_ZSt3decRSt8ios_base = comdat any

$_ZNSt8ios_base4setfESt13_Ios_FmtflagsS0_ = comdat any

$_ZStaNRSt13_Ios_FmtflagsS_ = comdat any

$_ZStcoSt13_Ios_Fmtflags = comdat any

$_ZStoRRSt13_Ios_FmtflagsS_ = comdat any

$_ZStanSt13_Ios_FmtflagsS_ = comdat any

$_ZStorSt13_Ios_FmtflagsS_ = comdat any

$_ZNK6NewBdd3Man10LitNotCondEjb = comdat any

$_ZNK6NewBdd3Man10LitRegularEj = comdat any

$_ZNK6NewBdd3Man12LitIrregularEj = comdat any

$_ZNK6NewBdd3Man6LitNotEj = comdat any

$_ZN6NewBdd3Man3GbcEv = comdat any

$_ZN6NewBdd3Man6ResizeEv = comdat any

$_ZNKSt6vectorIjSaIjEE5emptyEv = comdat any

$_ZNK6NewBdd3Man10EdgeOfBvarEi = comdat any

$_ZN6NewBdd3Man10RemoveBvarEi = comdat any

$_ZNK6NewBdd3Man9RefOfBvarEi = comdat any

$_ZN6NewBdd3Man11SetMark_recEj = comdat any

$_ZNK6NewBdd3Man10MarkOfBvarEi = comdat any

$_ZN6NewBdd3Man13ResetMark_recEj = comdat any

$_ZN6NewBdd5Cache5ClearEv = comdat any

$_ZN9__gnu_cxxeqIPKjSt6vectorIjSaIjEEEEbRKNS_17__normal_iteratorIT_T0_EESB_ = comdat any

$_ZNKSt6vectorIjSaIjEE5beginEv = comdat any

$_ZNKSt6vectorIjSaIjEE3endEv = comdat any

$_ZNK9__gnu_cxx17__normal_iteratorIPKjSt6vectorIjSaIjEEE4baseEv = comdat any

$_ZN9__gnu_cxx17__normal_iteratorIPKjSt6vectorIjSaIjEEEC2ERKS2_ = comdat any

$_ZNK6NewBdd3Man4MarkEj = comdat any

$_ZN6NewBdd3Man7SetMarkEj = comdat any

$_ZNKSt6vectorIbSaIbEEixEm = comdat any

$_ZNKSt19_Bit_const_iteratorixEl = comdat any

$_ZStplRKSt19_Bit_const_iteratorl = comdat any

$_ZNSt19_Bit_const_iteratorpLEl = comdat any

$_ZN6NewBdd3Man9ResetMarkEj = comdat any

$_ZSt4fillIN9__gnu_cxx17__normal_iteratorIPjSt6vectorIjSaIjEEEEiEvT_S7_RKT0_ = comdat any

$_ZSt8__fill_aIN9__gnu_cxx17__normal_iteratorIPjSt6vectorIjSaIjEEEEiEvT_S7_RKT0_ = comdat any

$_ZSt9__fill_a1IPjSt6vectorIjSaIjEEiEvN9__gnu_cxx17__normal_iteratorIT_T0_EES8_RKT1_ = comdat any

$_ZSt9__fill_a1IPjiEN9__gnu_cxx11__enable_ifIXsr11__is_scalarIT0_EE7__valueEvE6__typeET_S6_RKS3_ = comdat any

$_ZNKSt6vectorIiSaIiEEixEm = comdat any

$_ZN6NewBdd3Man10CountEdgesEv = comdat any

$_ZN6NewBdd3Man4SiftEv = comdat any

$_ZNSt6vectorIjSaIjEE5clearEv = comdat any

$_ZN6NewBdd3Man14CountEdges_recEj = comdat any

$_ZN6NewBdd3Man7IncEdgeEj = comdat any

$_ZN6NewBdd3Man10CountNodesEv = comdat any

$_ZNSaItEC2Ev = comdat any

$_ZNSt6vectorItSaItEEC2EmRKS0_ = comdat any

$_ZSt4swapItENSt9enable_ifIXsr6__and_ISt6__not_ISt15__is_tuple_likeIT_EESt21is_move_constructibleIS3_ESt18is_move_assignableIS3_EEE5valueEvE4typeERS3_SC_ = comdat any

$_ZN6NewBdd3Man4SwapEt = comdat any

$_ZNSt6vectorItSaItEED2Ev = comdat any

$_ZN6NewBdd3Man13SetMarkOfBvarEi = comdat any

$_ZN6NewBdd3Man14CountNodes_recEj = comdat any

$_ZN6NewBdd3Man15ResetMarkOfBvarEi = comdat any

$_ZNSt6vectorItSaItEE17_S_check_init_lenEmRKS0_ = comdat any

$_ZNSt12_Vector_baseItSaItEEC2EmRKS0_ = comdat any

$_ZNSt6vectorItSaItEE21_M_default_initializeEm = comdat any

$_ZNSaItEC2ERKS_ = comdat any

$_ZNSt15__new_allocatorItEC2ERKS0_ = comdat any

$_ZNSt12_Vector_baseItSaItEE12_Vector_implC2ERKS0_ = comdat any

$_ZNSt12_Vector_baseItSaItEE17_M_create_storageEm = comdat any

$_ZN6NewBdd3Man7DecEdgeEj = comdat any

$_ZNK6NewBdd3Man4EdgeEj = comdat any

$_ZN9__gnu_cxx17__normal_iteratorIPiSt6vectorIiSaIiEEEppEi = comdat any

$_ZNSt12_Vector_baseItSaItEED2Ev = comdat any

$_ZNSt15__new_allocatorItED2Ev = comdat any

$_ZNSt6vectorIiSaIiEEC2EmRKS0_ = comdat any

$_ZNSaIjEC2Ev = comdat any

$_ZNSt6vectorIjSaIjEEC2EmRKS0_ = comdat any

$_ZNSt6vectorIjSaIjEE9push_backEOj = comdat any

$_ZNSt6vectorIiSaIiEE21_M_default_initializeEm = comdat any

$_ZNSt6vectorIjSaIjEE17_S_check_init_lenEmRKS0_ = comdat any

$_ZNSt12_Vector_baseIjSaIjEEC2EmRKS0_ = comdat any

$_ZNSt6vectorIjSaIjEE21_M_default_initializeEm = comdat any

$_ZNSaIjEC2ERKS_ = comdat any

$_ZNSt12_Vector_baseIjSaIjEE12_Vector_implC2ERKS0_ = comdat any

$_ZNSt12_Vector_baseIjSaIjEE17_M_create_storageEm = comdat any

$_ZNSt6vectorIjSaIjEE12emplace_backIJjEEERjDpOT_ = comdat any

$_ZNSt16allocator_traitsISaIjEE9constructIjJjEEEvRS0_PT_DpOT0_ = comdat any

$_ZNSt6vectorIjSaIjEE17_M_realloc_insertIJjEEEvN9__gnu_cxx17__normal_iteratorIPjS1_EEDpOT_ = comdat any

$_ZNSt6vectorIjSaIjEE4backEv = comdat any

$_ZNSt15__new_allocatorIjE9constructIjJjEEEvPT_DpOT0_ = comdat any

$_ZNK9__gnu_cxx17__normal_iteratorIPjSt6vectorIjSaIjEEEmiEl = comdat any

$_ZNK9__gnu_cxx17__normal_iteratorIPjSt6vectorIjSaIjEEEdeEv = comdat any

$_ZNSt12_Vector_baseIjSaIjEED2Ev = comdat any

$_ZNSt15__new_allocatorIjED2Ev = comdat any

$_ZNK6NewBdd3Man8IsConst1Ej = comdat any

$_ZN6NewBdd3Man2OrEjj = comdat any

$_ZN12Transduction12TransductionIN6NewBdd3ManENS1_5ParamEjLj4294967295EE10DisconnectEiijbb = comdat any

$_ZNSt7__cxx114listIiSaIiEE6rbeginEv = comdat any

$_ZStneISt14_List_iteratorIiEEbRKSt16reverse_iteratorIT_ES6_ = comdat any

$_ZNSt7__cxx114listIiSaIiEE4rendEv = comdat any

$_ZNKSt16reverse_iteratorISt14_List_iteratorIiEEdeEv = comdat any

$_ZN12Transduction12TransductionIN6NewBdd3ManENS1_5ParamEjLj4294967295EE6RemoveEib = comdat any

$_ZNKSt16reverse_iteratorISt14_List_iteratorIiEE4baseEv = comdat any

$_ZNSt14_List_iteratorIiEmmEv = comdat any

$_ZNSt16reverse_iteratorISt14_List_iteratorIiEEC2ES1_ = comdat any

$_ZNSt16reverse_iteratorISt14_List_iteratorIiEEppEi = comdat any

$_ZNSt6vectorIiSaIiEE5eraseEN9__gnu_cxx17__normal_iteratorIPKiS1_EE = comdat any

$_ZSt4findIN9__gnu_cxx17__normal_iteratorIPiSt6vectorIiSaIiEEEEiET_S7_S7_RKT0_ = comdat any

$_ZN9__gnu_cxx17__normal_iteratorIPKiSt6vectorIiSaIiEEEC2IPivEERKNS0_IT_S5_EE = comdat any

$_ZNSt6vectorIjSaIjEE5eraseEN9__gnu_cxx17__normal_iteratorIPKjS1_EE = comdat any

$_ZNK9__gnu_cxx17__normal_iteratorIPjSt6vectorIjSaIjEEEplEl = comdat any

$_ZN9__gnu_cxx17__normal_iteratorIPKjSt6vectorIjSaIjEEEC2IPjvEERKNS0_IT_S5_EE = comdat any

$_ZNSt6vectorIiSaIiEE8_M_eraseEN9__gnu_cxx17__normal_iteratorIPiS1_EE = comdat any

$_ZN9__gnu_cxxmiIPKiSt6vectorIiSaIiEEEENS_17__normal_iteratorIT_T0_E15difference_typeERKS9_SC_ = comdat any

$_ZNKSt6vectorIiSaIiEE6cbeginEv = comdat any

$_ZSt4moveIN9__gnu_cxx17__normal_iteratorIPiSt6vectorIiSaIiEEEES6_ET0_T_S8_S7_ = comdat any

$_ZNSt16allocator_traitsISaIiEE7destroyIiEEvRS0_PT_ = comdat any

$_ZSt13__copy_move_aILb1EN9__gnu_cxx17__normal_iteratorIPiSt6vectorIiSaIiEEEES6_ET1_T0_S8_S7_ = comdat any

$_ZSt12__miter_baseIN9__gnu_cxx17__normal_iteratorIPiSt6vectorIiSaIiEEEEET_S7_ = comdat any

$_ZSt12__niter_wrapIN9__gnu_cxx17__normal_iteratorIPiSt6vectorIiSaIiEEEES2_ET_S7_T0_ = comdat any

$_ZSt14__copy_move_a1ILb1EPiS0_ET1_T0_S2_S1_ = comdat any

$_ZSt12__niter_baseIPiSt6vectorIiSaIiEEET_N9__gnu_cxx17__normal_iteratorIS4_T0_EE = comdat any

$_ZSt14__copy_move_a2ILb1EPiS0_ET1_T0_S2_S1_ = comdat any

$_ZNSt11__copy_moveILb1ELb1ESt26random_access_iterator_tagE8__copy_mIiEEPT_PKS3_S6_S4_ = comdat any

$_ZNSt15__new_allocatorIiE7destroyIiEEvPT_ = comdat any

$_ZSt9__find_ifIN9__gnu_cxx17__normal_iteratorIPiSt6vectorIiSaIiEEEENS0_5__ops16_Iter_equals_valIKiEEET_SB_SB_T0_ = comdat any

$_ZSt9__find_ifIN9__gnu_cxx17__normal_iteratorIPiSt6vectorIiSaIiEEEENS0_5__ops16_Iter_equals_valIKiEEET_SB_SB_T0_St26random_access_iterator_tag = comdat any

$_ZSt19__iterator_categoryIN9__gnu_cxx17__normal_iteratorIPiSt6vectorIiSaIiEEEEENSt15iterator_traitsIT_E17iterator_categoryERKS8_ = comdat any

$_ZN9__gnu_cxx5__ops16_Iter_equals_valIKiEclINS_17__normal_iteratorIPiSt6vectorIiSaIiEEEEEEbT_ = comdat any

$_ZN9__gnu_cxx17__normal_iteratorIPiSt6vectorIiSaIiEEEppEv = comdat any

$_ZNSt6vectorIjSaIjEE8_M_eraseEN9__gnu_cxx17__normal_iteratorIPjS1_EE = comdat any

$_ZN9__gnu_cxxmiIPKjSt6vectorIjSaIjEEEENS_17__normal_iteratorIT_T0_E15difference_typeERKS9_SC_ = comdat any

$_ZNKSt6vectorIjSaIjEE6cbeginEv = comdat any

$_ZN9__gnu_cxxneIPjSt6vectorIjSaIjEEEEbRKNS_17__normal_iteratorIT_T0_EESA_ = comdat any

$_ZSt4moveIN9__gnu_cxx17__normal_iteratorIPjSt6vectorIjSaIjEEEES6_ET0_T_S8_S7_ = comdat any

$_ZNSt16allocator_traitsISaIjEE7destroyIjEEvRS0_PT_ = comdat any

$_ZSt13__copy_move_aILb1EN9__gnu_cxx17__normal_iteratorIPjSt6vectorIjSaIjEEEES6_ET1_T0_S8_S7_ = comdat any

$_ZSt12__miter_baseIN9__gnu_cxx17__normal_iteratorIPjSt6vectorIjSaIjEEEEET_S7_ = comdat any

$_ZSt12__niter_wrapIN9__gnu_cxx17__normal_iteratorIPjSt6vectorIjSaIjEEEES2_ET_S7_T0_ = comdat any

$_ZSt14__copy_move_a1ILb1EPjS0_ET1_T0_S2_S1_ = comdat any

$_ZSt12__niter_baseIPjSt6vectorIjSaIjEEET_N9__gnu_cxx17__normal_iteratorIS4_T0_EE = comdat any

$_ZSt14__copy_move_a2ILb1EPjS0_ET1_T0_S2_S1_ = comdat any

$_ZNSt11__copy_moveILb1ELb1ESt26random_access_iterator_tagE8__copy_mIjEEPT_PKS3_S6_S4_ = comdat any

$_ZNSt15__new_allocatorIjE7destroyIjEEvPT_ = comdat any

$_ZSteqISt14_List_iteratorIiEEbRKSt16reverse_iteratorIT_ES6_ = comdat any

$_ZSteqRKSt14_List_iteratorIiES2_ = comdat any

$_ZNSt6vectorIiSaIiEE5clearEv = comdat any

$_ZNK12Transduction7ManUtilIN6NewBdd3ManEjLj4294967295EE6DelVecERSt6vectorIjSaIjEE = comdat any

$_ZNSt16reverse_iteratorISt14_List_iteratorIiEEC2ERKS2_ = comdat any

$_ZNSt6vectorIjSaIjEE14_M_fill_insertEN9__gnu_cxx17__normal_iteratorIPjS1_EEmRKj = comdat any

$_ZNSt6vectorIjSaIjEE16_Temporary_valueC2IJRKjEEEPS1_DpOT_ = comdat any

$_ZNSt6vectorIjSaIjEE16_Temporary_value6_M_valEv = comdat any

$_ZSt22__uninitialized_move_aIPjS0_SaIjEET0_T_S3_S2_RT1_ = comdat any

$_ZSt13move_backwardIPjS0_ET0_T_S2_S1_ = comdat any

$_ZSt4fillIPjjEvT_S1_RKT0_ = comdat any

$_ZSt24__uninitialized_fill_n_aIPjmjjET_S1_T0_RKT1_RSaIT2_E = comdat any

$_ZNSt6vectorIjSaIjEE16_Temporary_valueD2Ev = comdat any

$_ZSt34__uninitialized_move_if_noexcept_aIPjS0_SaIjEET0_T_S3_S2_RT1_ = comdat any

$_ZNSt6vectorIjSaIjEE16_Temporary_value8_StorageC2Ev = comdat any

$_ZNSt6vectorIjSaIjEE16_Temporary_value6_M_ptrEv = comdat any

$_ZSt22__uninitialized_copy_aISt13move_iteratorIPjES1_jET0_T_S4_S3_RSaIT1_E = comdat any

$_ZSt18make_move_iteratorIPjESt13move_iteratorIT_ES2_ = comdat any

$_ZSt18uninitialized_copyISt13move_iteratorIPjES1_ET0_T_S4_S3_ = comdat any

$_ZNSt20__uninitialized_copyILb1EE13__uninit_copyISt13move_iteratorIPjES3_EET0_T_S6_S5_ = comdat any

$_ZSt4copyISt13move_iteratorIPjES1_ET0_T_S4_S3_ = comdat any

$_ZSt13__copy_move_aILb1EPjS0_ET1_T0_S2_S1_ = comdat any

$_ZSt12__miter_baseIPjEDTcl12__miter_basecldtfp_4baseEEESt13move_iteratorIT_E = comdat any

$_ZSt12__niter_wrapIPjET_RKS1_S1_ = comdat any

$_ZSt12__miter_baseIPjET_S1_ = comdat any

$_ZNKSt13move_iteratorIPjE4baseEv = comdat any

$_ZNSt13move_iteratorIPjEC2ES0_ = comdat any

$_ZSt22__copy_move_backward_aILb1EPjS0_ET1_T0_S2_S1_ = comdat any

$_ZSt23__copy_move_backward_a1ILb1EPjS0_ET1_T0_S2_S1_ = comdat any

$_ZSt23__copy_move_backward_a2ILb1EPjS0_ET1_T0_S2_S1_ = comdat any

$_ZNSt20__copy_move_backwardILb1ELb1ESt26random_access_iterator_tagE13__copy_move_bIjEEPT_PKS3_S6_S4_ = comdat any

$_ZSt20uninitialized_fill_nIPjmjET_S1_T0_RKT1_ = comdat any

$_ZNSt22__uninitialized_fill_nILb1EE15__uninit_fill_nIPjmjEET_S3_T0_RKT1_ = comdat any

$_ZNSt6vectorIjSaIjEE16_Temporary_value8_StorageD2Ev = comdat any

$_ZSt32__make_move_if_noexcept_iteratorIjSt13move_iteratorIPjEET0_PT_ = comdat any

$_ZSt4swapIiENSt9enable_ifIXsr6__and_ISt6__not_ISt15__is_tuple_likeIT_EESt21is_move_constructibleIS3_ESt18is_move_assignableIS3_EEE5valueEvE4typeERS3_SC_ = comdat any

$_ZSt3maxIiERKT_S2_S2_ = comdat any

$_ZN12Transduction12TransductionIN6NewBdd3ManENS1_5ParamEjLj4294967295EE3addERSt6vectorIbSaIbEEj = comdat any

$_ZN12Transduction12TransductionIN6NewBdd3ManENS1_5ParamEjLj4294967295EE8balancedERKSt6vectorIbSaIbEE = comdat any

$_ZNSt13_Bvector_baseISaIbEED2Ev = comdat any

$_ZNK12Transduction12TransductionIN6NewBdd3ManENS1_5ParamEjLj4294967295EE11CountLevelsEv = comdat any

$_ZNK12Transduction12TransductionIN6NewBdd3ManENS1_5ParamEjLj4294967295EE6FindFiEii = comdat any

$_ZSt3minIiERKT_S2_S2_ = comdat any

$_ZSt4leftRSt8ios_base = comdat any

$_ZSt5rightRSt8ios_base = comdat any

$_ZNK12Transduction12TransductionIN6NewBdd3ManENS1_5ParamEjLj4294967295EE10CountNodesEv = comdat any

$_ZSt12setprecisioni = comdat any

$_ZSt5fixedRSt8ios_base = comdat any

$_ZNK12Transduction12TransductionIN6NewBdd3ManENS1_5ParamEjLj4294967295EE10CountGatesEv = comdat any

$_ZNKSt7__cxx114listIiSaIiEE4sizeEv = comdat any

$_ZNKSt7__cxx114listIiSaIiEE13_M_node_countEv = comdat any

$_ZNKSt7__cxx1110_List_baseIiSaIiEE11_M_get_sizeEv = comdat any

$_ZNSt8ios_base9precisionEl = comdat any

$_ZNSt15__new_allocatorIcEC2Ev = comdat any

$_ZNSt7__cxx1112basic_stringIcSt11char_traitsIcESaIcEE12_M_constructIPKcEEvT_S8_St20forward_iterator_tag = comdat any

$_ZSt8distanceIPKcENSt15iterator_traitsIT_E15difference_typeES3_S3_ = comdat any

$_ZZNSt7__cxx1112basic_stringIcSt11char_traitsIcESaIcEE12_M_constructIPKcEEvT_S8_St20forward_iterator_tagEN6_GuardC2EPS4_ = comdat any

$_ZZNSt7__cxx1112basic_stringIcSt11char_traitsIcESaIcEE12_M_constructIPKcEEvT_S8_St20forward_iterator_tagEN6_GuardD2Ev = comdat any

$_ZSt10__distanceIPKcENSt15iterator_traitsIT_E15difference_typeES3_S3_St26random_access_iterator_tag = comdat any

$_ZSt19__iterator_categoryIPKcENSt15iterator_traitsIT_E17iterator_categoryERKS3_ = comdat any

$_ZNSt11char_traitsIcE4copyEPcPKcm = comdat any

$_ZNSt19__ptr_traits_ptr_toIPKcS0_Lb0EE10pointer_toERS0_ = comdat any

$_ZNSt16allocator_traitsISaIcEE10deallocateERS0_Pcm = comdat any

$_ZNSt15__new_allocatorIcE10deallocateEPcm = comdat any

$_ZNK12Transduction7ManUtilIN6NewBdd3ManEjLj4294967295EE6DelVecERSt6vectorIS4_IjSaIjEESaIS6_EE = comdat any

$_ZN6NewBdd3ManD2Ev = comdat any

$_ZNSt6vectorIS_IjSaIjEESaIS1_EED2Ev = comdat any

$_ZNSt6vectorIS_IiSaIiEESaIS1_EED2Ev = comdat any

$_ZNSt7__cxx1110_List_baseIiSaIiEED2Ev = comdat any

$_ZNSt6vectorIS_IjSaIjEESaIS1_EE5clearEv = comdat any

$_ZN6NewBdd5CacheD2Ev = comdat any

$_ZNSt6vectorIdSaIdEED2Ev = comdat any

$_ZNSt12_Vector_baseIdSaIdEED2Ev = comdat any

$_ZNSt15__new_allocatorIdED2Ev = comdat any

$_ZNSt12_Vector_baseISt6vectorIjSaIjEESaIS2_EED2Ev = comdat any

$_ZNSt15__new_allocatorISt6vectorIjSaIjEEED2Ev = comdat any

$_ZNSt12_Vector_baseISt6vectorIiSaIiEESaIS2_EED2Ev = comdat any

$_ZNSt15__new_allocatorISt6vectorIiSaIiEEED2Ev = comdat any

$_ZNSt7__cxx1110_List_baseIiSaIiEE8_M_clearEv = comdat any

$_ZNKSt7__cxx114listIiSaIiEE5beginEv = comdat any

$_ZStneRKSt20_List_const_iteratorIiES2_ = comdat any

$_ZNKSt7__cxx114listIiSaIiEE3endEv = comdat any

$_ZNKSt20_List_const_iteratorIiEdeEv = comdat any

$_ZNSt20_List_const_iteratorIiEppEi = comdat any

$_ZNSt20_List_const_iteratorIiEC2EPKNSt8__detail15_List_node_baseE = comdat any

$_ZNKSt10_List_nodeIiE9_M_valptrEv = comdat any

$_ZNK9__gnu_cxx16__aligned_membufIiE6_M_ptrEv = comdat any

$_ZNK9__gnu_cxx16__aligned_membufIiE7_M_addrEv = comdat any

$_ZN12Transduction12TransductionIN6NewBdd3ManENS1_5ParamEjLj4294967295EE4MspfEbii = comdat any

$_ZN12Transduction12TransductionIN6NewBdd3ManENS1_5ParamEjLj4294967295EE13PrintPfHeaderENSt7__cxx1112basic_stringIcSt11char_traitsIcESaIcEEEii = comdat any

$_ZNK12Transduction12TransductionIN6NewBdd3ManENS1_5ParamEjLj4294967295EE14IsFoConeSharedEi = comdat any

$_ZSt8distanceISt16reverse_iteratorISt14_List_iteratorIiEEENSt15iterator_traitsIT_E15difference_typeES5_S5_ = comdat any

$_ZN12Transduction12TransductionIN6NewBdd3ManENS1_5ParamEjLj4294967295EE5CalcGEi = comdat any

$_ZN12Transduction12TransductionIN6NewBdd3ManENS1_5ParamEjLj4294967295EE9MspfCalcGEi = comdat any

$_ZN12Transduction12TransductionIN6NewBdd3ManENS1_5ParamEjLj4294967295EE14ReplaceByConstEib = comdat any

$_ZN12Transduction12TransductionIN6NewBdd3ManENS1_5ParamEjLj4294967295EE7SortFisEi = comdat any

$_ZN12Transduction12TransductionIN6NewBdd3ManENS1_5ParamEjLj4294967295EE9MspfCalcCEii = comdat any

$_ZN12Transduction12TransductionIN6NewBdd3ManENS1_5ParamEjLj4294967295EE7ReplaceEiib = comdat any

$_ZNK12Transduction12TransductionIN6NewBdd3ManENS1_5ParamEjLj4294967295EE18IsFoConeShared_recERSt6vectorIiSaIiEEii = comdat any

$_ZSt10__distanceISt16reverse_iteratorISt14_List_iteratorIiEEENSt15iterator_traitsIT_E15difference_typeES5_S5_St18input_iterator_tag = comdat any

$_ZSt19__iterator_categoryISt16reverse_iteratorISt14_List_iteratorIiEEENSt15iterator_traitsIT_E17iterator_categoryERKS5_ = comdat any

$_ZNSt16reverse_iteratorISt14_List_iteratorIiEEppEv = comdat any

$_ZNSt6vectorIjSaIjEEC2EmRKjRKS0_ = comdat any

$_ZNK12Transduction12TransductionIN6NewBdd3ManENS1_5ParamEjLj4294967295EE16BuildFoConeComplEiRSt6vectorIjSaIjEE = comdat any

$_ZNK12Transduction7ManUtilIN6NewBdd3ManEjLj4294967295EE3XorEjj = comdat any

$_ZNSt6vectorIjSaIjEE18_M_fill_initializeEmRKj = comdat any

$_ZNK12Transduction7ManUtilIN6NewBdd3ManEjLj4294967295EE7CopyVecERSt6vectorIjSaIjEERKS6_ = comdat any

$_ZNSaIbEC2Ev = comdat any

$_ZNSt6vectorIbSaIbEEC2EmRKS0_ = comdat any

$_ZNSt15__new_allocatorIbED2Ev = comdat any

$_ZNSt6vectorIjSaIjEEaSERKS1_ = comdat any

$_ZNKSt6vectorIjSaIjEE8capacityEv = comdat any

$_ZNSt6vectorIjSaIjEE20_M_allocate_and_copyIN9__gnu_cxx17__normal_iteratorIPKjS1_EEEEPjmT_S9_ = comdat any

$_ZSt8_DestroyIN9__gnu_cxx17__normal_iteratorIPjSt6vectorIjSaIjEEEEjEvT_S7_RSaIT0_E = comdat any

$_ZSt4copyIN9__gnu_cxx17__normal_iteratorIPKjSt6vectorIjSaIjEEEENS1_IPjS6_EEET0_T_SB_SA_ = comdat any

$_ZSt4copyIPjS0_ET0_T_S2_S1_ = comdat any

$_ZSt22__uninitialized_copy_aIPjS0_jET0_T_S2_S1_RSaIT1_E = comdat any

$_ZSt22__uninitialized_copy_aIN9__gnu_cxx17__normal_iteratorIPKjSt6vectorIjSaIjEEEEPjjET0_T_SA_S9_RSaIT1_E = comdat any

$_ZSt18uninitialized_copyIN9__gnu_cxx17__normal_iteratorIPKjSt6vectorIjSaIjEEEEPjET0_T_SA_S9_ = comdat any

$_ZNSt20__uninitialized_copyILb1EE13__uninit_copyIN9__gnu_cxx17__normal_iteratorIPKjSt6vectorIjSaIjEEEEPjEET0_T_SC_SB_ = comdat any

$_ZSt4copyIN9__gnu_cxx17__normal_iteratorIPKjSt6vectorIjSaIjEEEEPjET0_T_SA_S9_ = comdat any

$_ZSt13__copy_move_aILb0EN9__gnu_cxx17__normal_iteratorIPKjSt6vectorIjSaIjEEEEPjET1_T0_SA_S9_ = comdat any

$_ZSt12__miter_baseIN9__gnu_cxx17__normal_iteratorIPKjSt6vectorIjSaIjEEEEET_S8_ = comdat any

$_ZSt14__copy_move_a1ILb0EPKjPjET1_T0_S4_S3_ = comdat any

$_ZSt12__niter_baseIPKjSt6vectorIjSaIjEEET_N9__gnu_cxx17__normal_iteratorIS5_T0_EE = comdat any

$_ZSt14__copy_move_a2ILb0EPKjPjET1_T0_S4_S3_ = comdat any

$_ZNSt11__copy_moveILb0ELb1ESt26random_access_iterator_tagE8__copy_mIjEEPT_PKS3_S6_S4_ = comdat any

$_ZSt8_DestroyIN9__gnu_cxx17__normal_iteratorIPjSt6vectorIjSaIjEEEEEvT_S7_ = comdat any

$_ZNSt12_Destroy_auxILb1EE9__destroyIN9__gnu_cxx17__normal_iteratorIPjSt6vectorIjSaIjEEEEEEvT_S9_ = comdat any

$_ZSt13__copy_move_aILb0EN9__gnu_cxx17__normal_iteratorIPKjSt6vectorIjSaIjEEEENS1_IPjS6_EEET1_T0_SB_SA_ = comdat any

$_ZSt13__copy_move_aILb0EPjS0_ET1_T0_S2_S1_ = comdat any

$_ZSt14__copy_move_a1ILb0EPjS0_ET1_T0_S2_S1_ = comdat any

$_ZSt14__copy_move_a2ILb0EPjS0_ET1_T0_S2_S1_ = comdat any

$_ZSt18uninitialized_copyIPjS0_ET0_T_S2_S1_ = comdat any

$_ZNSt20__uninitialized_copyILb1EE13__uninit_copyIPjS2_EET0_T_S4_S3_ = comdat any

$_ZNSt15__new_allocatorIbEC2Ev = comdat any

$_ZNSt6vectorIbSaIbEEC2EmRKbRKS0_ = comdat any

$_ZNSt13_Bvector_baseISaIbEEC2ERKS0_ = comdat any

$_ZNSt6vectorIbSaIbEE13_M_initializeEm = comdat any

$_ZNSt6vectorIbSaIbEE19_M_initialize_valueEb = comdat any

$_ZNSaImEC2IbEERKSaIT_E = comdat any

$_ZNSt13_Bvector_baseISaIbEE13_Bvector_implC2ERKSaImE = comdat any

$_ZNSt15__new_allocatorImED2Ev = comdat any

$_ZNSaImEC2ERKS_ = comdat any

$_ZNSt15__new_allocatorImEC2ERKS0_ = comdat any

$_ZNK12Transduction12TransductionIN6NewBdd3ManENS1_5ParamEjLj4294967295EE11CostCompareEii = comdat any

$_ZN9__gnu_cxxneIPKiSt6vectorIiSaIiEEEEbRKNS_17__normal_iteratorIT_T0_EESB_ = comdat any

$_ZSt4findIN9__gnu_cxx17__normal_iteratorIPKiSt6vectorIiSaIiEEEEiET_S8_S8_RKT0_ = comdat any

$_ZSteqRKSt20_List_const_iteratorIiES2_ = comdat any

$_ZSt4findISt20_List_const_iteratorIiEiET_S2_S2_RKT0_ = comdat any

$_ZSt9__find_ifIN9__gnu_cxx17__normal_iteratorIPKiSt6vectorIiSaIiEEEENS0_5__ops16_Iter_equals_valIS2_EEET_SB_SB_T0_ = comdat any

$_ZSt9__find_ifIN9__gnu_cxx17__normal_iteratorIPKiSt6vectorIiSaIiEEEENS0_5__ops16_Iter_equals_valIS2_EEET_SB_SB_T0_St26random_access_iterator_tag = comdat any

$_ZSt19__iterator_categoryIN9__gnu_cxx17__normal_iteratorIPKiSt6vectorIiSaIiEEEEENSt15iterator_traitsIT_E17iterator_categoryERKS9_ = comdat any

$_ZN9__gnu_cxx5__ops16_Iter_equals_valIKiEclINS_17__normal_iteratorIPS2_St6vectorIiSaIiEEEEEEbT_ = comdat any

$_ZN9__gnu_cxx17__normal_iteratorIPKiSt6vectorIiSaIiEEEppEv = comdat any

$_ZNK9__gnu_cxx17__normal_iteratorIPKiSt6vectorIiSaIiEEEdeEv = comdat any

$_ZSt9__find_ifISt20_List_const_iteratorIiEN9__gnu_cxx5__ops16_Iter_equals_valIKiEEET_S7_S7_T0_ = comdat any

$_ZSt9__find_ifISt20_List_const_iteratorIiEN9__gnu_cxx5__ops16_Iter_equals_valIKiEEET_S7_S7_T0_St18input_iterator_tag = comdat any

$_ZSt19__iterator_categoryISt20_List_const_iteratorIiEENSt15iterator_traitsIT_E17iterator_categoryERKS3_ = comdat any

$_ZN9__gnu_cxx5__ops16_Iter_equals_valIKiEclISt20_List_const_iteratorIiEEEbT_ = comdat any

$_ZNSt20_List_const_iteratorIiEppEv = comdat any

$_ZN12Transduction12TransductionIN6NewBdd3ManENS1_5ParamEjLj4294967295EE18RemoveRedundantFisEiij = comdat any

$_ZN12Transduction12TransductionIN6NewBdd3ManENS1_5ParamEjLj4294967295EE4CspfEbii = comdat any

$_ZN12Transduction12TransductionIN6NewBdd3ManENS1_5ParamEjLj4294967295EE5CalcCEi = comdat any

$_ZN12Transduction18TransductionBackupIN6NewBdd3ManEjLj4294967295EEC2Ev = comdat any

$_ZNK12Transduction12TransductionIN6NewBdd3ManENS1_5ParamEjLj4294967295EE4SaveERNS_18TransductionBackupIS2_jLj4294967295EEE = comdat any

$_ZNSt7__cxx114listIiSaIiEEC2ERKS2_ = comdat any

$_ZN12Transduction12TransductionIN6NewBdd3ManENS1_5ParamEjLj4294967295EE15TrivialMergeOneEi = comdat any

$_ZN12Transduction12TransductionIN6NewBdd3ManENS1_5ParamEjLj4294967295EE4LoadERKNS_18TransductionBackupIS2_jLj4294967295EEE = comdat any

$_ZNK12Transduction12TransductionIN6NewBdd3ManENS1_5ParamEjLj4294967295EE14MarkFoCone_recERSt6vectorIbSaIbEEi = comdat any

$_ZN12Transduction12TransductionIN6NewBdd3ManENS1_5ParamEjLj4294967295EE8noexcessERKSt6vectorIbSaIbEEj = comdat any

$_ZN12Transduction12TransductionIN6NewBdd3ManENS1_5ParamEjLj4294967295EE10TryConnectEiib = comdat any

$_ZN12Transduction12TransductionIN6NewBdd3ManENS1_5ParamEjLj4294967295EE20BalancedDecomposeOneERKSt14_List_iteratorIiERi = comdat any

$_ZN12Transduction12TransductionIN6NewBdd3ManENS1_5ParamEjLj4294967295EE19TrivialDecomposeOneERKSt14_List_iteratorIiERi = comdat any

$_ZN12Transduction18TransductionBackupIN6NewBdd3ManEjLj4294967295EED2Ev = comdat any

$_ZNSt7__cxx114listIiSaIiEEaSERKS2_ = comdat any

$_ZNSt6vectorIS_IiSaIiEESaIS1_EEaSERKS3_ = comdat any

$_ZNSt6vectorIiSaIiEEaSERKS1_ = comdat any

$_ZNK12Transduction7ManUtilIN6NewBdd3ManEjLj4294967295EE7CopyVecERSt6vectorIS4_IjSaIjEESaIS6_EERKS8_ = comdat any

$_ZNSt6vectorIbSaIbEEaSERKS1_ = comdat any

$_ZNSt7__cxx114listIiSaIiEE18_M_assign_dispatchISt20_List_const_iteratorIiEEEvT_S6_St12__false_type = comdat any

$_ZNSt7__cxx114listIiSaIiEE5eraseESt20_List_const_iteratorIiES4_ = comdat any

$_ZNSt7__cxx114listIiSaIiEE6insertISt20_List_const_iteratorIiEvEESt14_List_iteratorIiES5_T_S8_ = comdat any

$_ZNKSt7__cxx114listIiSaIiEE13get_allocatorEv = comdat any

$_ZNSt7__cxx114listIiSaIiEEC2ISt20_List_const_iteratorIiEvEET_S6_RKS1_ = comdat any

$_ZNKSt7__cxx114listIiSaIiEE5emptyEv = comdat any

$_ZNSt7__cxx114listIiSaIiEE6spliceESt20_List_const_iteratorIiERS2_ = comdat any

$_ZNKSt7__cxx1110_List_baseIiSaIiEE21_M_get_Node_allocatorEv = comdat any

$_ZNSaIiEC2ISt10_List_nodeIiEEERKSaIT_E = comdat any

$_ZNSaISt10_List_nodeIiEEC2IiEERKSaIT_E = comdat any

$_ZNSt7__cxx1110_List_baseIiSaIiEEC2EOSaISt10_List_nodeIiEE = comdat any

$_ZNSt15__new_allocatorISt10_List_nodeIiEED2Ev = comdat any

$_ZNSt7__cxx114listIiSaIiEE22_M_initialize_dispatchISt20_List_const_iteratorIiEEEvT_S6_St12__false_type = comdat any

$_ZNSt7__cxx1110_List_baseIiSaIiEE10_List_implC2EOSaISt10_List_nodeIiEE = comdat any

$_ZNSt15__new_allocatorISt10_List_nodeIiEEC2ERKS2_ = comdat any

$_ZNSt7__cxx114listIiSaIiEE12emplace_backIJRKiEEERiDpOT_ = comdat any

$_ZNSt7__cxx114listIiSaIiEE4backEv = comdat any

$_ZNSt7__cxx114listIiSaIiEE6spliceESt20_List_const_iteratorIiEOS2_ = comdat any

$_ZNSt7__cxx114listIiSaIiEE25_M_check_equal_allocatorsERS2_ = comdat any

$_ZNSt7__cxx114listIiSaIiEE11_M_transferESt14_List_iteratorIiES4_S4_ = comdat any

$_ZNSt7__cxx1110_List_baseIiSaIiEE11_M_set_sizeEm = comdat any

$_ZNSt11__alloc_neqISaISt10_List_nodeIiEELb1EE8_S_do_itERKS2_S5_ = comdat any

$_ZNKSt6vectorIS_IiSaIiEESaIS1_EE8capacityEv = comdat any

$_ZNSt6vectorIS_IiSaIiEESaIS1_EE20_M_allocate_and_copyIN9__gnu_cxx17__normal_iteratorIPKS1_S3_EEEEPS1_mT_SB_ = comdat any

$_ZNKSt6vectorIS_IiSaIiEESaIS1_EE5beginEv = comdat any

$_ZNKSt6vectorIS_IiSaIiEESaIS1_EE3endEv = comdat any

$_ZSt8_DestroyIN9__gnu_cxx17__normal_iteratorIPSt6vectorIiSaIiEES2_IS4_SaIS4_EEEES4_EvT_S9_RSaIT0_E = comdat any

$_ZSt4copyIN9__gnu_cxx17__normal_iteratorIPKSt6vectorIiSaIiEES2_IS4_SaIS4_EEEENS1_IPS4_S8_EEET0_T_SD_SC_ = comdat any

$_ZNSt6vectorIS_IiSaIiEESaIS1_EE5beginEv = comdat any

$_ZNSt6vectorIS_IiSaIiEESaIS1_EE3endEv = comdat any

$_ZSt4copyIPSt6vectorIiSaIiEES3_ET0_T_S5_S4_ = comdat any

$_ZSt22__uninitialized_copy_aIPSt6vectorIiSaIiEES3_S2_ET0_T_S5_S4_RSaIT1_E = comdat any

$_ZSt22__uninitialized_copy_aIN9__gnu_cxx17__normal_iteratorIPKSt6vectorIiSaIiEES2_IS4_SaIS4_EEEEPS4_S4_ET0_T_SC_SB_RSaIT1_E = comdat any

$_ZSt18uninitialized_copyIN9__gnu_cxx17__normal_iteratorIPKSt6vectorIiSaIiEES2_IS4_SaIS4_EEEEPS4_ET0_T_SC_SB_ = comdat any

$_ZNSt20__uninitialized_copyILb0EE13__uninit_copyIN9__gnu_cxx17__normal_iteratorIPKSt6vectorIiSaIiEES4_IS6_SaIS6_EEEEPS6_EET0_T_SE_SD_ = comdat any

$_ZSt16__do_uninit_copyIN9__gnu_cxx17__normal_iteratorIPKSt6vectorIiSaIiEES2_IS4_SaIS4_EEEEPS4_ET0_T_SC_SB_ = comdat any

$_ZN9__gnu_cxxneIPKSt6vectorIiSaIiEES1_IS3_SaIS3_EEEEbRKNS_17__normal_iteratorIT_T0_EESD_ = comdat any

$_ZSt10_ConstructISt6vectorIiSaIiEEJRKS2_EEvPT_DpOT0_ = comdat any

$_ZNK9__gnu_cxx17__normal_iteratorIPKSt6vectorIiSaIiEES1_IS3_SaIS3_EEEdeEv = comdat any

$_ZN9__gnu_cxx17__normal_iteratorIPKSt6vectorIiSaIiEES1_IS3_SaIS3_EEEppEv = comdat any

$_ZNK9__gnu_cxx17__normal_iteratorIPKSt6vectorIiSaIiEES1_IS3_SaIS3_EEE4baseEv = comdat any

$_ZNSt6vectorIiSaIiEEC2ERKS1_ = comdat any

$_ZN9__gnu_cxx14__alloc_traitsISaIiEiE17_S_select_on_copyERKS1_ = comdat any

$_ZSt22__uninitialized_copy_aIN9__gnu_cxx17__normal_iteratorIPKiSt6vectorIiSaIiEEEEPiiET0_T_SA_S9_RSaIT1_E = comdat any

$_ZNSt16allocator_traitsISaIiEE37select_on_container_copy_constructionERKS0_ = comdat any

$_ZSt18uninitialized_copyIN9__gnu_cxx17__normal_iteratorIPKiSt6vectorIiSaIiEEEEPiET0_T_SA_S9_ = comdat any

$_ZNSt20__uninitialized_copyILb1EE13__uninit_copyIN9__gnu_cxx17__normal_iteratorIPKiSt6vectorIiSaIiEEEEPiEET0_T_SC_SB_ = comdat any

$_ZSt4copyIN9__gnu_cxx17__normal_iteratorIPKiSt6vectorIiSaIiEEEEPiET0_T_SA_S9_ = comdat any

$_ZSt13__copy_move_aILb0EN9__gnu_cxx17__normal_iteratorIPKiSt6vectorIiSaIiEEEEPiET1_T0_SA_S9_ = comdat any

$_ZSt12__miter_baseIN9__gnu_cxx17__normal_iteratorIPKiSt6vectorIiSaIiEEEEET_S8_ = comdat any

$_ZSt12__niter_wrapIPiET_RKS1_S1_ = comdat any

$_ZSt14__copy_move_a1ILb0EPKiPiET1_T0_S4_S3_ = comdat any

$_ZSt12__niter_baseIPKiSt6vectorIiSaIiEEET_N9__gnu_cxx17__normal_iteratorIS5_T0_EE = comdat any

$_ZSt14__copy_move_a2ILb0EPKiPiET1_T0_S4_S3_ = comdat any

$_ZNSt11__copy_moveILb0ELb1ESt26random_access_iterator_tagE8__copy_mIiEEPT_PKS3_S6_S4_ = comdat any

$_ZN9__gnu_cxx17__normal_iteratorIPKSt6vectorIiSaIiEES1_IS3_SaIS3_EEEC2ERKS5_ = comdat any

$_ZSt8_DestroyIN9__gnu_cxx17__normal_iteratorIPSt6vectorIiSaIiEES2_IS4_SaIS4_EEEEEvT_S9_ = comdat any

$_ZNSt12_Destroy_auxILb0EE9__destroyIN9__gnu_cxx17__normal_iteratorIPSt6vectorIiSaIiEES4_IS6_SaIS6_EEEEEEvT_SB_ = comdat any

$_ZN9__gnu_cxxneIPSt6vectorIiSaIiEES1_IS3_SaIS3_EEEEbRKNS_17__normal_iteratorIT_T0_EESC_ = comdat any

$_ZNK9__gnu_cxx17__normal_iteratorIPSt6vectorIiSaIiEES1_IS3_SaIS3_EEEdeEv = comdat any

$_ZN9__gnu_cxx17__normal_iteratorIPSt6vectorIiSaIiEES1_IS3_SaIS3_EEEppEv = comdat any

$_ZNK9__gnu_cxx17__normal_iteratorIPSt6vectorIiSaIiEES1_IS3_SaIS3_EEE4baseEv = comdat any

$_ZSt13__copy_move_aILb0EN9__gnu_cxx17__normal_iteratorIPKSt6vectorIiSaIiEES2_IS4_SaIS4_EEEENS1_IPS4_S8_EEET1_T0_SD_SC_ = comdat any

$_ZSt12__miter_baseIN9__gnu_cxx17__normal_iteratorIPKSt6vectorIiSaIiEES2_IS4_SaIS4_EEEEET_SA_ = comdat any

$_ZSt12__niter_wrapIN9__gnu_cxx17__normal_iteratorIPSt6vectorIiSaIiEES2_IS4_SaIS4_EEEES5_ET_S9_T0_ = comdat any

$_ZSt14__copy_move_a1ILb0EPKSt6vectorIiSaIiEEPS2_ET1_T0_S7_S6_ = comdat any

$_ZSt12__niter_baseIPKSt6vectorIiSaIiEES0_IS2_SaIS2_EEET_N9__gnu_cxx17__normal_iteratorIS7_T0_EE = comdat any

$_ZSt12__niter_baseIPSt6vectorIiSaIiEES0_IS2_SaIS2_EEET_N9__gnu_cxx17__normal_iteratorIS6_T0_EE = comdat any

$_ZNK9__gnu_cxx17__normal_iteratorIPSt6vectorIiSaIiEES1_IS3_SaIS3_EEEplEl = comdat any

$_ZN9__gnu_cxx17__normal_iteratorIPSt6vectorIiSaIiEES1_IS3_SaIS3_EEEC2ERKS4_ = comdat any

$_ZSt14__copy_move_a2ILb0EPKSt6vectorIiSaIiEEPS2_ET1_T0_S7_S6_ = comdat any

$_ZNSt11__copy_moveILb0ELb0ESt26random_access_iterator_tagE8__copy_mIPKSt6vectorIiSaIiEEPS5_EET0_T_SA_S9_ = comdat any

$_ZSt13__copy_move_aILb0EPSt6vectorIiSaIiEES3_ET1_T0_S5_S4_ = comdat any

$_ZSt12__miter_baseIPSt6vectorIiSaIiEEET_S4_ = comdat any

$_ZSt12__niter_wrapIPSt6vectorIiSaIiEEET_RKS4_S4_ = comdat any

$_ZSt14__copy_move_a1ILb0EPSt6vectorIiSaIiEES3_ET1_T0_S5_S4_ = comdat any

$_ZSt14__copy_move_a2ILb0EPSt6vectorIiSaIiEES3_ET1_T0_S5_S4_ = comdat any

$_ZNSt11__copy_moveILb0ELb0ESt26random_access_iterator_tagE8__copy_mIPSt6vectorIiSaIiEES6_EET0_T_S8_S7_ = comdat any

$_ZSt18uninitialized_copyIPSt6vectorIiSaIiEES3_ET0_T_S5_S4_ = comdat any

$_ZNSt20__uninitialized_copyILb0EE13__uninit_copyIPSt6vectorIiSaIiEES5_EET0_T_S7_S6_ = comdat any

$_ZSt16__do_uninit_copyIPSt6vectorIiSaIiEES3_ET0_T_S5_S4_ = comdat any

$_ZSt10_ConstructISt6vectorIiSaIiEEJRS2_EEvPT_DpOT0_ = comdat any

$_ZNKSt6vectorIiSaIiEE8capacityEv = comdat any

$_ZNSt6vectorIiSaIiEE20_M_allocate_and_copyIN9__gnu_cxx17__normal_iteratorIPKiS1_EEEEPimT_S9_ = comdat any

$_ZSt8_DestroyIN9__gnu_cxx17__normal_iteratorIPiSt6vectorIiSaIiEEEEiEvT_S7_RSaIT0_E = comdat any

$_ZSt4copyIN9__gnu_cxx17__normal_iteratorIPKiSt6vectorIiSaIiEEEENS1_IPiS6_EEET0_T_SB_SA_ = comdat any

$_ZSt4copyIPiS0_ET0_T_S2_S1_ = comdat any

$_ZSt22__uninitialized_copy_aIPiS0_iET0_T_S2_S1_RSaIT1_E = comdat any

$_ZSt8_DestroyIN9__gnu_cxx17__normal_iteratorIPiSt6vectorIiSaIiEEEEEvT_S7_ = comdat any

$_ZNSt12_Destroy_auxILb1EE9__destroyIN9__gnu_cxx17__normal_iteratorIPiSt6vectorIiSaIiEEEEEEvT_S9_ = comdat any

$_ZSt13__copy_move_aILb0EN9__gnu_cxx17__normal_iteratorIPKiSt6vectorIiSaIiEEEENS1_IPiS6_EEET1_T0_SB_SA_ = comdat any

$_ZSt13__copy_move_aILb0EPiS0_ET1_T0_S2_S1_ = comdat any

$_ZSt12__miter_baseIPiET_S1_ = comdat any

$_ZSt14__copy_move_a1ILb0EPiS0_ET1_T0_S2_S1_ = comdat any

$_ZSt14__copy_move_a2ILb0EPiS0_ET1_T0_S2_S1_ = comdat any

$_ZSt18uninitialized_copyIPiS0_ET0_T_S2_S1_ = comdat any

$_ZNSt20__uninitialized_copyILb1EE13__uninit_copyIPiS2_EET0_T_S4_S3_ = comdat any

$_ZNKSt6vectorIS_IjSaIjEESaIS1_EEixEm = comdat any

$_ZN9__gnu_cxx14__alloc_traitsISaISt10_List_nodeIiEES2_E17_S_select_on_copyERKS3_ = comdat any

$_ZNSt16allocator_traitsISaISt10_List_nodeIiEEE37select_on_container_copy_constructionERKS2_ = comdat any

$_ZNSaISt10_List_nodeIiEEC2ERKS1_ = comdat any

$_ZNSt6vectorIjSaIjEEC2ERKS1_ = comdat any

$_ZNSt6vectorIiSaIiEE6insertEN9__gnu_cxx17__normal_iteratorIPKiS1_EERS4_ = comdat any

$_ZNSt6vectorIjSaIjEE6insertEN9__gnu_cxx17__normal_iteratorIPKjS1_EERS4_ = comdat any

$_ZN9__gnu_cxx17__normal_iteratorIPjSt6vectorIjSaIjEEEppEi = comdat any

$_ZN9__gnu_cxx14__alloc_traitsISaIjEjE17_S_select_on_copyERKS1_ = comdat any

$_ZNSt16allocator_traitsISaIjEE37select_on_container_copy_constructionERKS0_ = comdat any

$_ZN9__gnu_cxxmiIPKiPiSt6vectorIiSaIiEEEEDTmicldtfp_4baseEcldtfp0_4baseEERKNS_17__normal_iteratorIT_T1_EERKNS8_IT0_SA_EE = comdat any

$_ZN9__gnu_cxxeqIPKiPiSt6vectorIiSaIiEEEEbRKNS_17__normal_iteratorIT_T1_EERKNS7_IT0_S9_EE = comdat any

$_ZNSt6vectorIiSaIiEE16_Temporary_valueC2IJRKiEEEPS1_DpOT_ = comdat any

$_ZNSt6vectorIiSaIiEE13_M_insert_auxIiEEvN9__gnu_cxx17__normal_iteratorIPiS1_EEOT_ = comdat any

$_ZNSt6vectorIiSaIiEE16_Temporary_value6_M_valEv = comdat any

$_ZNSt6vectorIiSaIiEE16_Temporary_valueD2Ev = comdat any

$_ZNSt6vectorIiSaIiEE16_Temporary_value8_StorageC2Ev = comdat any

$_ZNSt6vectorIiSaIiEE16_Temporary_value6_M_ptrEv = comdat any

$_ZNSt16allocator_traitsISaIiEE9constructIiJiEEEvRS0_PT_DpOT0_ = comdat any

$_ZSt13move_backwardIPiS0_ET0_T_S2_S1_ = comdat any

$_ZNSt15__new_allocatorIiE9constructIiJiEEEvPT_DpOT0_ = comdat any

$_ZSt22__copy_move_backward_aILb1EPiS0_ET1_T0_S2_S1_ = comdat any

$_ZSt23__copy_move_backward_a1ILb1EPiS0_ET1_T0_S2_S1_ = comdat any

$_ZSt23__copy_move_backward_a2ILb1EPiS0_ET1_T0_S2_S1_ = comdat any

$_ZNSt20__copy_move_backwardILb1ELb1ESt26random_access_iterator_tagE13__copy_move_bIiEEPT_PKS3_S6_S4_ = comdat any

$_ZNSt6vectorIiSaIiEE16_Temporary_value8_StorageD2Ev = comdat any

$_ZN9__gnu_cxxmiIPKjPjSt6vectorIjSaIjEEEEDTmicldtfp_4baseEcldtfp0_4baseEERKNS_17__normal_iteratorIT_T1_EERKNS8_IT0_SA_EE = comdat any

$_ZN9__gnu_cxxeqIPKjPjSt6vectorIjSaIjEEEEbRKNS_17__normal_iteratorIT_T1_EERKNS7_IT0_S9_EE = comdat any

$_ZNSt6vectorIjSaIjEE13_M_insert_auxIjEEvN9__gnu_cxx17__normal_iteratorIPjS1_EEOT_ = comdat any

$_ZNSt6vectorIiSaIiEE4backEv = comdat any

$_ZN12Transduction12TransductionIN6NewBdd3ManENS1_5ParamEjLj4294967295EE7NewGateERi = comdat any

$_ZNK9__gnu_cxx17__normal_iteratorIPiSt6vectorIiSaIiEEEmiEl = comdat any

$_ZSt8distanceISt14_List_iteratorIiEENSt15iterator_traitsIT_E15difference_typeES3_S3_ = comdat any

$_ZSt10__distanceIiElSt14_List_iteratorIT_ES2_St18input_iterator_tag = comdat any

$_ZSt10__distanceIiElSt20_List_const_iteratorIT_ES2_St18input_iterator_tag = comdat any

$_ZN12Transduction12TransductionIN6NewBdd3ManENS1_5ParamEjLj4294967295EE9DecomposeEv = comdat any

$_ZNSt3setIiSt4lessIiESaIiEEC2IN9__gnu_cxx17__normal_iteratorIPiSt6vectorIiS2_EEEEET_SB_ = comdat any

$_ZNSt3setIiSt4lessIiESaIiEEC2Ev = comdat any

$_ZSt16set_intersectionISt23_Rb_tree_const_iteratorIiES1_St15insert_iteratorISt3setIiSt4lessIiESaIiEEEET1_T_SA_T0_SB_S9_ = comdat any

$_ZNKSt3setIiSt4lessIiESaIiEE5beginEv = comdat any

$_ZNKSt3setIiSt4lessIiESaIiEE3endEv = comdat any

$_ZSt8inserterISt3setIiSt4lessIiESaIiEEESt15insert_iteratorIT_ERS6_NS6_8iteratorE = comdat any

$_ZNKSt3setIiSt4lessIiESaIiEE4sizeEv = comdat any

$_ZSteqIiSt4lessIiESaIiEEbRKSt3setIT_T0_T1_ES9_ = comdat any

$_ZNSt14_List_iteratorIiEmmEi = comdat any

$_ZStneRKSt23_Rb_tree_const_iteratorIiES2_ = comdat any

$_ZNKSt23_Rb_tree_const_iteratorIiEdeEv = comdat any

$_ZNSt23_Rb_tree_const_iteratorIiEppEi = comdat any

$_ZNSt3setIiSt4lessIiESaIiEEaSERKS3_ = comdat any

$_ZNSt3setIiSt4lessIiESaIiEED2Ev = comdat any

$_ZNSt8_Rb_treeIiiSt9_IdentityIiESt4lessIiESaIiEEC2Ev = comdat any

$_ZNSt8_Rb_treeIiiSt9_IdentityIiESt4lessIiESaIiEE22_M_insert_range_uniqueIN9__gnu_cxx17__normal_iteratorIPiSt6vectorIiS4_EEEEENSt9enable_ifIXsr17__same_value_typeIT_EE5valueEvE4typeESE_SE_ = comdat any

$_ZNSt8_Rb_treeIiiSt9_IdentityIiESt4lessIiESaIiEE13_Rb_tree_implIS3_Lb1EEC2Ev = comdat any

$_ZNSaISt13_Rb_tree_nodeIiEEC2Ev = comdat any

$_ZNSt20_Rb_tree_key_compareISt4lessIiEEC2Ev = comdat any

$_ZNSt15_Rb_tree_headerC2Ev = comdat any

$_ZNSt15__new_allocatorISt13_Rb_tree_nodeIiEEC2Ev = comdat any

$_ZNSt15_Rb_tree_header8_M_resetEv = comdat any

$_ZNSt8_Rb_treeIiiSt9_IdentityIiESt4lessIiESaIiEE11_Alloc_nodeC2ERS5_ = comdat any

$_ZNSt8_Rb_treeIiiSt9_IdentityIiESt4lessIiESaIiEE17_M_insert_unique_IRiNS5_11_Alloc_nodeEEESt17_Rb_tree_iteratorIiESt23_Rb_tree_const_iteratorIiEOT_RT0_ = comdat any

$_ZNSt8_Rb_treeIiiSt9_IdentityIiESt4lessIiESaIiEE3endEv = comdat any

$_ZNSt23_Rb_tree_const_iteratorIiEC2ERKSt17_Rb_tree_iteratorIiE = comdat any

$_ZNSt8_Rb_treeIiiSt9_IdentityIiESt4lessIiESaIiEE29_M_get_insert_hint_unique_posESt23_Rb_tree_const_iteratorIiERKi = comdat any

$_ZNKSt9_IdentityIiEclERi = comdat any

$_ZNSt8_Rb_treeIiiSt9_IdentityIiESt4lessIiESaIiEE10_M_insert_IRiNS5_11_Alloc_nodeEEESt17_Rb_tree_iteratorIiEPSt18_Rb_tree_node_baseSC_OT_RT0_ = comdat any

$_ZNSt17_Rb_tree_iteratorIiEC2EPSt18_Rb_tree_node_base = comdat any

$_ZNKSt23_Rb_tree_const_iteratorIiE13_M_const_castEv = comdat any

$_ZNSt8_Rb_treeIiiSt9_IdentityIiESt4lessIiESaIiEE6_M_endEv = comdat any

$_ZNKSt8_Rb_treeIiiSt9_IdentityIiESt4lessIiESaIiEE4sizeEv = comdat any

$_ZNKSt4lessIiEclERKiS2_ = comdat any

$_ZNSt8_Rb_treeIiiSt9_IdentityIiESt4lessIiESaIiEE6_S_keyEPKSt18_Rb_tree_node_base = comdat any

$_ZNSt8_Rb_treeIiiSt9_IdentityIiESt4lessIiESaIiEE12_M_rightmostEv = comdat any

$_ZNSt4pairIPSt18_Rb_tree_node_baseS1_EC2IS1_S1_TnNSt9enable_ifIXaaclsr5_PCCPE18_ConstructiblePairIT_T0_EEclsr5_PCCPE26_ImplicitlyConvertiblePairIS5_S6_EEEbE4typeELb1EEERKS1_SA_ = comdat any

$_ZNSt8_Rb_treeIiiSt9_IdentityIiESt4lessIiESaIiEE24_M_get_insert_unique_posERKi = comdat any

$_ZNSt8_Rb_treeIiiSt9_IdentityIiESt4lessIiESaIiEE11_M_leftmostEv = comdat any

$_ZNSt4pairIPSt18_Rb_tree_node_baseS1_EC2IRS1_S4_TnNSt9enable_ifIXaaclsr5_PCCPE22_MoveConstructiblePairIT_T0_EEclsr5_PCCPE30_ImplicitlyMoveConvertiblePairIS6_S7_EEEbE4typeELb1EEEOS6_OS7_ = comdat any

$_ZNSt17_Rb_tree_iteratorIiEmmEv = comdat any

$_ZNSt8_Rb_treeIiiSt9_IdentityIiESt4lessIiESaIiEE8_S_rightEPSt18_Rb_tree_node_base = comdat any

$_ZNSt17_Rb_tree_iteratorIiEppEv = comdat any

$_ZNSt8_Rb_treeIiiSt9_IdentityIiESt4lessIiESaIiEE6_S_keyEPKSt13_Rb_tree_nodeIiE = comdat any

$_ZNKSt9_IdentityIiEclERKi = comdat any

$_ZNKSt13_Rb_tree_nodeIiE9_M_valptrEv = comdat any

$_ZNSt8_Rb_treeIiiSt9_IdentityIiESt4lessIiESaIiEE8_M_beginEv = comdat any

$_ZNSt8_Rb_treeIiiSt9_IdentityIiESt4lessIiESaIiEE7_S_leftEPSt18_Rb_tree_node_base = comdat any

$_ZSteqRKSt17_Rb_tree_iteratorIiES2_ = comdat any

$_ZNSt8_Rb_treeIiiSt9_IdentityIiESt4lessIiESaIiEE5beginEv = comdat any

$_ZNSt4pairIPSt18_Rb_tree_node_baseS1_EC2IRPSt13_Rb_tree_nodeIiERS1_TnNSt9enable_ifIXaaclsr5_PCCPE22_MoveConstructiblePairIT_T0_EEclsr5_PCCPE30_ImplicitlyMoveConvertiblePairISA_SB_EEEbE4typeELb1EEEOSA_OSB_ = comdat any

$_ZNKSt8_Rb_treeIiiSt9_IdentityIiESt4lessIiESaIiEE9_M_mbeginEv = comdat any

$_ZNKSt8_Rb_treeIiiSt9_IdentityIiESt4lessIiESaIiEE11_Alloc_nodeclIRiEEPSt13_Rb_tree_nodeIiEOT_ = comdat any

$_ZNSt8_Rb_treeIiiSt9_IdentityIiESt4lessIiESaIiEE14_M_create_nodeIJRiEEEPSt13_Rb_tree_nodeIiEDpOT_ = comdat any

$_ZNSt8_Rb_treeIiiSt9_IdentityIiESt4lessIiESaIiEE11_M_get_nodeEv = comdat any

$_ZNSt8_Rb_treeIiiSt9_IdentityIiESt4lessIiESaIiEE17_M_construct_nodeIJRiEEEvPSt13_Rb_tree_nodeIiEDpOT_ = comdat any

$_ZNSt16allocator_traitsISaISt13_Rb_tree_nodeIiEEE8allocateERS2_m = comdat any

$_ZNSt8_Rb_treeIiiSt9_IdentityIiESt4lessIiESaIiEE21_M_get_Node_allocatorEv = comdat any

$_ZNSt15__new_allocatorISt13_Rb_tree_nodeIiEE8allocateEmPKv = comdat any

$_ZNKSt15__new_allocatorISt13_Rb_tree_nodeIiEE11_M_max_sizeEv = comdat any

$_ZNSt16allocator_traitsISaISt13_Rb_tree_nodeIiEEE9constructIiJRiEEEvRS2_PT_DpOT0_ = comdat any

$_ZNSt13_Rb_tree_nodeIiE9_M_valptrEv = comdat any

$_ZNSt15__new_allocatorISt13_Rb_tree_nodeIiEE9constructIiJRiEEEvPT_DpOT0_ = comdat any

$_ZSt18__set_intersectionISt23_Rb_tree_const_iteratorIiES1_St15insert_iteratorISt3setIiSt4lessIiESaIiEEEN9__gnu_cxx5__ops15_Iter_less_iterEET1_T_SD_T0_SE_SC_T2_ = comdat any

$_ZN9__gnu_cxx5__ops16__iter_less_iterEv = comdat any

$_ZNK9__gnu_cxx5__ops15_Iter_less_iterclISt23_Rb_tree_const_iteratorIiES4_EEbT_T0_ = comdat any

$_ZNSt23_Rb_tree_const_iteratorIiEppEv = comdat any

$_ZNSt15insert_iteratorISt3setIiSt4lessIiESaIiEEEdeEv = comdat any

$_ZNSt15insert_iteratorISt3setIiSt4lessIiESaIiEEEaSERKi = comdat any

$_ZNSt15insert_iteratorISt3setIiSt4lessIiESaIiEEEppEv = comdat any

$_ZNSt3setIiSt4lessIiESaIiEE6insertESt23_Rb_tree_const_iteratorIiERKi = comdat any

$_ZNSt8_Rb_treeIiiSt9_IdentityIiESt4lessIiESaIiEE17_M_insert_unique_IRKiEESt17_Rb_tree_iteratorIiESt23_Rb_tree_const_iteratorIiEOT_ = comdat any

$_ZNSt8_Rb_treeIiiSt9_IdentityIiESt4lessIiESaIiEE17_M_insert_unique_IRKiNS5_11_Alloc_nodeEEESt17_Rb_tree_iteratorIiESt23_Rb_tree_const_iteratorIiEOT_RT0_ = comdat any

$_ZNSt8_Rb_treeIiiSt9_IdentityIiESt4lessIiESaIiEE10_M_insert_IRKiNS5_11_Alloc_nodeEEESt17_Rb_tree_iteratorIiEPSt18_Rb_tree_node_baseSD_OT_RT0_ = comdat any

$_ZNKSt8_Rb_treeIiiSt9_IdentityIiESt4lessIiESaIiEE11_Alloc_nodeclIRKiEEPSt13_Rb_tree_nodeIiEOT_ = comdat any

$_ZNSt8_Rb_treeIiiSt9_IdentityIiESt4lessIiESaIiEE14_M_create_nodeIJRKiEEEPSt13_Rb_tree_nodeIiEDpOT_ = comdat any

$_ZNSt8_Rb_treeIiiSt9_IdentityIiESt4lessIiESaIiEE17_M_construct_nodeIJRKiEEEvPSt13_Rb_tree_nodeIiEDpOT_ = comdat any

$_ZNSt16allocator_traitsISaISt13_Rb_tree_nodeIiEEE9constructIiJRKiEEEvRS2_PT_DpOT0_ = comdat any

$_ZNSt15__new_allocatorISt13_Rb_tree_nodeIiEE9constructIiJRKiEEEvPT_DpOT0_ = comdat any

$_ZNKSt8_Rb_treeIiiSt9_IdentityIiESt4lessIiESaIiEE5beginEv = comdat any

$_ZNSt23_Rb_tree_const_iteratorIiEC2EPKSt18_Rb_tree_node_base = comdat any

$_ZNKSt8_Rb_treeIiiSt9_IdentityIiESt4lessIiESaIiEE3endEv = comdat any

$_ZNSt15insert_iteratorISt3setIiSt4lessIiESaIiEEEC2ERS4_St23_Rb_tree_const_iteratorIiE = comdat any

$_ZSteqRKSt8_Rb_treeIiiSt9_IdentityIiESt4lessIiESaIiEES7_ = comdat any

$_ZSt5equalISt23_Rb_tree_const_iteratorIiES1_EbT_S2_T0_ = comdat any

$_ZSt11__equal_auxISt23_Rb_tree_const_iteratorIiES1_EbT_S2_T0_ = comdat any

$_ZSt12__equal_aux1ISt23_Rb_tree_const_iteratorIiES1_EbT_S2_T0_ = comdat any

$_ZSt12__niter_baseISt23_Rb_tree_const_iteratorIiEET_S2_ = comdat any

$_ZNSt7__equalILb0EE5equalISt23_Rb_tree_const_iteratorIiES3_EEbT_S4_T0_ = comdat any

$_ZNSt8_Rb_treeIiiSt9_IdentityIiESt4lessIiESaIiEEaSERKS5_ = comdat any

$_ZNSt8_Rb_treeIiiSt9_IdentityIiESt4lessIiESaIiEE20_Reuse_or_alloc_nodeC2ERS5_ = comdat any

$_ZNKSt8_Rb_treeIiiSt9_IdentityIiESt4lessIiESaIiEE7_M_rootEv = comdat any

$_ZNSt8_Rb_treeIiiSt9_IdentityIiESt4lessIiESaIiEE7_M_copyILb0ENS5_20_Reuse_or_alloc_nodeEEEPSt13_Rb_tree_nodeIiERKS5_RT0_ = comdat any

$_ZNSt8_Rb_treeIiiSt9_IdentityIiESt4lessIiESaIiEE7_M_rootEv = comdat any

$_ZNSt8_Rb_treeIiiSt9_IdentityIiESt4lessIiESaIiEE20_Reuse_or_alloc_nodeD2Ev = comdat any

$_ZNSt8_Rb_treeIiiSt9_IdentityIiESt4lessIiESaIiEE7_M_copyILb0ENS5_20_Reuse_or_alloc_nodeEEEPSt13_Rb_tree_nodeIiESA_PSt18_Rb_tree_node_baseRT0_ = comdat any

$_ZNSt8_Rb_treeIiiSt9_IdentityIiESt4lessIiESaIiEE10_S_minimumEPSt18_Rb_tree_node_base = comdat any

$_ZNSt8_Rb_treeIiiSt9_IdentityIiESt4lessIiESaIiEE10_S_maximumEPSt18_Rb_tree_node_base = comdat any

$_ZNSt8_Rb_treeIiiSt9_IdentityIiESt4lessIiESaIiEE13_M_clone_nodeILb0ENS5_20_Reuse_or_alloc_nodeEEEPSt13_Rb_tree_nodeIiESA_RT0_ = comdat any

$_ZNSt8_Rb_treeIiiSt9_IdentityIiESt4lessIiESaIiEE20_Reuse_or_alloc_nodeclIRKiEEPSt13_Rb_tree_nodeIiEOT_ = comdat any

$_ZNSt8_Rb_treeIiiSt9_IdentityIiESt4lessIiESaIiEE20_Reuse_or_alloc_node10_M_extractEv = comdat any

$_ZNSt8_Rb_treeIiiSt9_IdentityIiESt4lessIiESaIiEE15_M_destroy_nodeEPSt13_Rb_tree_nodeIiE = comdat any

$_ZNSt16allocator_traitsISaISt13_Rb_tree_nodeIiEEE7destroyIiEEvRS2_PT_ = comdat any

$_ZNSt15__new_allocatorISt13_Rb_tree_nodeIiEE7destroyIiEEvPT_ = comdat any

$_ZNSt18_Rb_tree_node_base10_S_minimumEPS_ = comdat any

$_ZNSt18_Rb_tree_node_base10_S_maximumEPS_ = comdat any

$_ZNSt8_Rb_treeIiiSt9_IdentityIiESt4lessIiESaIiEE8_M_eraseEPSt13_Rb_tree_nodeIiE = comdat any

$_ZNSt8_Rb_treeIiiSt9_IdentityIiESt4lessIiESaIiEE12_M_drop_nodeEPSt13_Rb_tree_nodeIiE = comdat any

$_ZNSt8_Rb_treeIiiSt9_IdentityIiESt4lessIiESaIiEE11_M_put_nodeEPSt13_Rb_tree_nodeIiE = comdat any

$_ZNSt16allocator_traitsISaISt13_Rb_tree_nodeIiEEE10deallocateERS2_PS1_m = comdat any

$_ZNSt15__new_allocatorISt13_Rb_tree_nodeIiEE10deallocateEPS1_m = comdat any

$_ZNSt8_Rb_treeIiiSt9_IdentityIiESt4lessIiESaIiEED2Ev = comdat any

$_ZNSt15__new_allocatorISt13_Rb_tree_nodeIiEED2Ev = comdat any

$_ZN5NewTt3ManC2EiNS_5ParamE = comdat any

$_ZN12Transduction12TransductionIN5NewTt3ManENS1_5ParamEjLj4294967295EE9ImportAigEP10Gia_Man_t_ = comdat any

$_ZNK12Transduction7ManUtilIN5NewTt3ManEjLj4294967295EE6UpdateERjj = comdat any

$_ZNK5NewTt3Man6Const0Ev = comdat any

$_ZNK5NewTt3Man6IthVarEi = comdat any

$_ZN12Transduction12TransductionIN5NewTt3ManENS1_5ParamEjLj4294967295EE5BuildEb = comdat any

$_ZN5NewTt3Man7ReorderEv = comdat any

$_ZN5NewTt3Man10TurnOffReoEv = comdat any

$_ZN12Transduction12TransductionIN5NewTt3ManENS1_5ParamEjLj4294967295EE7Aig2BddEP10Gia_Man_t_RSt6vectorIjSaIjEE = comdat any

$_ZN12Transduction12TransductionIN5NewTt3ManENS1_5ParamEjLj4294967295EE18RemoveConstOutputsEv = comdat any

$_ZNK12Transduction12TransductionIN5NewTt3ManENS1_5ParamEjLj4294967295EE5LitFiEii = comdat any

$_ZN12Transduction12TransductionIN5NewTt3ManENS1_5ParamEjLj4294967295EE10ShufflePisEi = comdat any

$_ZN12Transduction12TransductionIN5NewTt3ManENS1_5ParamEjLj4294967295EE12ComputeLevelEv = comdat any

$_ZNK12Transduction12TransductionIN5NewTt3ManENS1_5ParamEjLj4294967295EE10PrintStatsENSt7__cxx1112basic_stringIcSt11char_traitsIcESaIcEEEbi = comdat any

$_ZNSt6vectorIySaIyEEC2Ev = comdat any

$_ZN5NewTt3Man3lwwEv = comdat any

$_ZNSt6vectorIySaIyEE6resizeEm = comdat any

$_ZN5NewTt3Man4varsEi = comdat any

$_ZNSt6vectorIySaIyEEixEm = comdat any

$_ZN5NewTt3Man3oneEv = comdat any

$_ZNSt12_Vector_baseIySaIyEEC2Ev = comdat any

$_ZNSt12_Vector_baseIySaIyEE12_Vector_implC2Ev = comdat any

$_ZNSaIyEC2Ev = comdat any

$_ZNSt12_Vector_baseIySaIyEE17_Vector_impl_dataC2Ev = comdat any

$_ZNSt15__new_allocatorIyEC2Ev = comdat any

$_ZNKSt6vectorIySaIyEE4sizeEv = comdat any

$_ZNSt6vectorIySaIyEE17_M_default_appendEm = comdat any

$_ZNSt6vectorIySaIyEE15_M_erase_at_endEPy = comdat any

$_ZNKSt6vectorIySaIyEE8max_sizeEv = comdat any

$_ZSt27__uninitialized_default_n_aIPymyET_S1_T0_RSaIT1_E = comdat any

$_ZNSt12_Vector_baseIySaIyEE19_M_get_Tp_allocatorEv = comdat any

$_ZNKSt6vectorIySaIyEE12_M_check_lenEmPKc = comdat any

$_ZNSt12_Vector_baseIySaIyEE11_M_allocateEm = comdat any

$_ZNSt6vectorIySaIyEE11_S_relocateEPyS2_S2_RS0_ = comdat any

$_ZNSt12_Vector_baseIySaIyEE13_M_deallocateEPym = comdat any

$_ZNSt6vectorIySaIyEE11_S_max_sizeERKS0_ = comdat any

$_ZNKSt12_Vector_baseIySaIyEE19_M_get_Tp_allocatorEv = comdat any

$_ZNSt16allocator_traitsISaIyEE8max_sizeERKS0_ = comdat any

$_ZNKSt15__new_allocatorIyE8max_sizeEv = comdat any

$_ZNKSt15__new_allocatorIyE11_M_max_sizeEv = comdat any

$_ZSt25__uninitialized_default_nIPymET_S1_T0_ = comdat any

$_ZNSt27__uninitialized_default_n_1ILb1EE18__uninit_default_nIPymEET_S3_T0_ = comdat any

$_ZSt10_ConstructIyJEEvPT_DpOT0_ = comdat any

$_ZSt6fill_nIPymyET_S1_T0_RKT1_ = comdat any

$_ZSt10__fill_n_aIPymyET_S1_T0_RKT1_St26random_access_iterator_tag = comdat any

$_ZSt19__iterator_categoryIPyENSt15iterator_traitsIT_E17iterator_categoryERKS2_ = comdat any

$_ZSt8__fill_aIPyyEvT_S1_RKT0_ = comdat any

$_ZSt9__fill_a1IPyyEN9__gnu_cxx11__enable_ifIXsr11__is_scalarIT0_EE7__valueEvE6__typeET_S6_RKS3_ = comdat any

$_ZNSt16allocator_traitsISaIyEE8allocateERS0_m = comdat any

$_ZNSt15__new_allocatorIyE8allocateEmPKv = comdat any

$_ZSt12__relocate_aIPyS0_SaIyEET0_T_S3_S2_RT1_ = comdat any

$_ZSt14__relocate_a_1IyyENSt9enable_ifIXsr3std24__is_bitwise_relocatableIT_EE5valueEPS1_E4typeES2_S2_S2_RSaIT0_E = comdat any

$_ZSt12__niter_baseIPyET_S1_ = comdat any

$_ZNSt16allocator_traitsISaIyEE10deallocateERS0_Pym = comdat any

$_ZNSt15__new_allocatorIyE10deallocateEPym = comdat any

$_ZSt8_DestroyIPyyEvT_S1_RSaIT0_E = comdat any

$_ZSt8_DestroyIPyEvT_S1_ = comdat any

$_ZNSt12_Destroy_auxILb1EE9__destroyIPyEEvT_S3_ = comdat any

$_ZNK12Transduction12TransductionIN5NewTt3ManENS1_5ParamEjLj4294967295EE5PrintENSt7__cxx1112basic_stringIcSt11char_traitsIcESaIcEEEb = comdat any

$_ZN12Transduction12TransductionIN5NewTt3ManENS1_5ParamEjLj4294967295EE7ConnectEiibbj = comdat any

$_ZNK12Transduction7ManUtilIN5NewTt3ManEjLj4294967295EE6IncRefEj = comdat any

$_ZN12Transduction12TransductionIN5NewTt3ManENS1_5ParamEjLj4294967295EE12SortObjs_recERKSt14_List_iteratorIiE = comdat any

$_ZN5NewTt3Man6IncRefEj = comdat any

$_ZNK5NewTt3Man3RefEj = comdat any

$_ZNK5NewTt3Man8Lit2BvarEj = comdat any

$_ZNK12Transduction7ManUtilIN5NewTt3ManEjLj4294967295EE6DecRefEj = comdat any

$_ZN5NewTt3Man6DecRefEj = comdat any

$_ZNK12Transduction12TransductionIN5NewTt3ManENS1_5ParamEjLj4294967295EE5BuildEiRSt6vectorIjSaIjEE = comdat any

$_ZNK5NewTt3Man7LitIsEqEjj = comdat any

$_ZNK5NewTt3Man6Const1Ev = comdat any

$_ZN5NewTt3Man3AndEjj = comdat any

$_ZNK12Transduction12TransductionIN5NewTt3ManENS1_5ParamEjLj4294967295EE5LitFiEiiRKSt6vectorIjSaIjEE = comdat any

$_ZNK5NewTt3Man10LitIsComplEj = comdat any

$_ZN5NewTt3Man3GbcEv = comdat any

$_ZN5NewTt3Man6ResizeEv = comdat any

$_ZNK5NewTt3Man10LitNotCondEjb = comdat any

$_ZNKSt6vectorIySaIyEEixEm = comdat any

$_ZNK5NewTt3Man8IsConst1Ej = comdat any

$_ZN5NewTt3Man2OrEjj = comdat any

$_ZN12Transduction12TransductionIN5NewTt3ManENS1_5ParamEjLj4294967295EE10DisconnectEiijbb = comdat any

$_ZNK5NewTt3Man6LitNotEj = comdat any

$_ZN12Transduction12TransductionIN5NewTt3ManENS1_5ParamEjLj4294967295EE6RemoveEib = comdat any

$_ZNK12Transduction7ManUtilIN5NewTt3ManEjLj4294967295EE6DelVecERSt6vectorIjSaIjEE = comdat any

$_ZN12Transduction12TransductionIN5NewTt3ManENS1_5ParamEjLj4294967295EE3addERSt6vectorIbSaIbEEj = comdat any

$_ZN12Transduction12TransductionIN5NewTt3ManENS1_5ParamEjLj4294967295EE8balancedERKSt6vectorIbSaIbEE = comdat any

$_ZNK12Transduction12TransductionIN5NewTt3ManENS1_5ParamEjLj4294967295EE11CountLevelsEv = comdat any

$_ZNK12Transduction12TransductionIN5NewTt3ManENS1_5ParamEjLj4294967295EE6FindFiEii = comdat any

$_ZNK12Transduction12TransductionIN5NewTt3ManENS1_5ParamEjLj4294967295EE10CountNodesEv = comdat any

$_ZNK12Transduction12TransductionIN5NewTt3ManENS1_5ParamEjLj4294967295EE10CountGatesEv = comdat any

$_ZNK12Transduction7ManUtilIN5NewTt3ManEjLj4294967295EE6DelVecERSt6vectorIS4_IjSaIjEESaIS6_EE = comdat any

$_ZN5NewTt3ManD2Ev = comdat any

$_ZNSt6vectorIySaIyEED2Ev = comdat any

$_ZNSt12_Vector_baseIySaIyEED2Ev = comdat any

$_ZNSt15__new_allocatorIyED2Ev = comdat any

$_ZN12Transduction12TransductionIN5NewTt3ManENS1_5ParamEjLj4294967295EE4MspfEbii = comdat any

$_ZN12Transduction12TransductionIN5NewTt3ManENS1_5ParamEjLj4294967295EE13PrintPfHeaderENSt7__cxx1112basic_stringIcSt11char_traitsIcESaIcEEEii = comdat any

$_ZNK12Transduction12TransductionIN5NewTt3ManENS1_5ParamEjLj4294967295EE14IsFoConeSharedEi = comdat any

$_ZN12Transduction12TransductionIN5NewTt3ManENS1_5ParamEjLj4294967295EE5CalcGEi = comdat any

$_ZN12Transduction12TransductionIN5NewTt3ManENS1_5ParamEjLj4294967295EE9MspfCalcGEi = comdat any

$_ZN12Transduction12TransductionIN5NewTt3ManENS1_5ParamEjLj4294967295EE14ReplaceByConstEib = comdat any

$_ZN12Transduction12TransductionIN5NewTt3ManENS1_5ParamEjLj4294967295EE7SortFisEi = comdat any

$_ZN12Transduction12TransductionIN5NewTt3ManENS1_5ParamEjLj4294967295EE9MspfCalcCEii = comdat any

$_ZN12Transduction12TransductionIN5NewTt3ManENS1_5ParamEjLj4294967295EE7ReplaceEiib = comdat any

$_ZNK12Transduction12TransductionIN5NewTt3ManENS1_5ParamEjLj4294967295EE18IsFoConeShared_recERSt6vectorIiSaIiEEii = comdat any

$_ZNK12Transduction12TransductionIN5NewTt3ManENS1_5ParamEjLj4294967295EE16BuildFoConeComplEiRSt6vectorIjSaIjEE = comdat any

$_ZNK12Transduction7ManUtilIN5NewTt3ManEjLj4294967295EE3XorEjj = comdat any

$_ZNK12Transduction7ManUtilIN5NewTt3ManEjLj4294967295EE7CopyVecERSt6vectorIjSaIjEERKS6_ = comdat any

$_ZNK12Transduction12TransductionIN5NewTt3ManENS1_5ParamEjLj4294967295EE11CostCompareEii = comdat any

$_ZNK5NewTt3Man8OneCountEj = comdat any

$_ZNSt6bitsetILm64EEC2Ey = comdat any

$_ZNKSt6bitsetILm64EE5countEv = comdat any

$_ZN5NewTt3Man4onesEi = comdat any

$_ZNSt13_Sanitize_valILm64ELb0EE18_S_do_sanitize_valEy = comdat any

$_ZNSt12_Base_bitsetILm1EEC2Ey = comdat any

$_ZNKSt12_Base_bitsetILm1EE11_M_do_countEv = comdat any

$_ZN12Transduction12TransductionIN5NewTt3ManENS1_5ParamEjLj4294967295EE18RemoveRedundantFisEiij = comdat any

$_ZN12Transduction12TransductionIN5NewTt3ManENS1_5ParamEjLj4294967295EE4CspfEbii = comdat any

$_ZN12Transduction12TransductionIN5NewTt3ManENS1_5ParamEjLj4294967295EE5CalcCEi = comdat any

$_ZN12Transduction18TransductionBackupIN5NewTt3ManEjLj4294967295EEC2Ev = comdat any

$_ZNK12Transduction12TransductionIN5NewTt3ManENS1_5ParamEjLj4294967295EE4SaveERNS_18TransductionBackupIS2_jLj4294967295EEE = comdat any

$_ZN12Transduction12TransductionIN5NewTt3ManENS1_5ParamEjLj4294967295EE15TrivialMergeOneEi = comdat any

$_ZN12Transduction12TransductionIN5NewTt3ManENS1_5ParamEjLj4294967295EE4LoadERKNS_18TransductionBackupIS2_jLj4294967295EEE = comdat any

$_ZNK12Transduction12TransductionIN5NewTt3ManENS1_5ParamEjLj4294967295EE14MarkFoCone_recERSt6vectorIbSaIbEEi = comdat any

$_ZN12Transduction12TransductionIN5NewTt3ManENS1_5ParamEjLj4294967295EE8noexcessERKSt6vectorIbSaIbEEj = comdat any

$_ZN12Transduction12TransductionIN5NewTt3ManENS1_5ParamEjLj4294967295EE10TryConnectEiib = comdat any

$_ZN12Transduction12TransductionIN5NewTt3ManENS1_5ParamEjLj4294967295EE20BalancedDecomposeOneERKSt14_List_iteratorIiERi = comdat any

$_ZN12Transduction12TransductionIN5NewTt3ManENS1_5ParamEjLj4294967295EE19TrivialDecomposeOneERKSt14_List_iteratorIiERi = comdat any

$_ZN12Transduction18TransductionBackupIN5NewTt3ManEjLj4294967295EED2Ev = comdat any

$_ZNK12Transduction7ManUtilIN5NewTt3ManEjLj4294967295EE7CopyVecERSt6vectorIS4_IjSaIjEESaIS6_EERKS8_ = comdat any

$_ZN12Transduction12TransductionIN5NewTt3ManENS1_5ParamEjLj4294967295EE7NewGateERi = comdat any

$_ZN12Transduction12TransductionIN5NewTt3ManENS1_5ParamEjLj4294967295EE9DecomposeEv = comdat any

$_ZZN5NewTt3Man4varsEiE4vars = comdat any

$_ZZN5NewTt3Man4onesEiE4ones = comdat any

@_ZStL8__ioinit = internal global %"class.std::ios_base::Init" zeroinitializer, align 1
@__dso_handle = external hidden global i8
@_ZSt4cout = external global %"class.std::basic_ostream", align 8
@.str = private unnamed_addr constant [27 x i8] c"Unknown transduction type \00", align 1
@.str.1 = private unnamed_addr constant [5 x i8] c"Init\00", align 1
@.str.2 = private unnamed_addr constant [45 x i8] c"nObjsMax must not be smaller than nObjsAlloc\00", align 1
@.str.3 = private unnamed_addr constant [23 x i8] c"Memout (nVars) in init\00", align 1
@.str.4 = private unnamed_addr constant [26 x i8] c"Memout (nObjsMax) in init\00", align 1
@.str.5 = private unnamed_addr constant [28 x i8] c"Memout (nObjsAlloc) in init\00", align 1
@.str.6 = private unnamed_addr constant [37 x i8] c"nObjsAlloc must be larger than nVars\00", align 1
@.str.7 = private unnamed_addr constant [29 x i8] c"Memout (nUniqueSize) in init\00", align 1
@.str.8 = private unnamed_addr constant [12 x i8] c"Allocating \00", align 1
@.str.9 = private unnamed_addr constant [12 x i8] c" nodes and \00", align 1
@.str.10 = private unnamed_addr constant [4 x i8] c" x \00", align 1
@.str.11 = private unnamed_addr constant [22 x i8] c" unique table entries\00", align 1
@.str.12 = private unnamed_addr constant [43 x i8] c"nVars must be less than 1024 to count ones\00", align 1
@_ZSt4cerr = external global %"class.std::basic_ostream", align 8
@.str.13 = private unnamed_addr constant [26 x i8] c"vector::_M_default_append\00", align 1
@.str.14 = private unnamed_addr constant [29 x i8] c"vector<bool>::_M_fill_insert\00", align 1
@.str.15 = private unnamed_addr constant [46 x i8] c"nCacheMax must not be smaller than nCacheSize\00", align 1
@.str.16 = private unnamed_addr constant [27 x i8] c"Memout (nCacheMax) in init\00", align 1
@.str.17 = private unnamed_addr constant [15 x i8] c" cache entries\00", align 1
@.str.18 = private unnamed_addr constant [13 x i8] c"Create node \00", align 1
@.str.19 = private unnamed_addr constant [3 x i8] c": \00", align 1
@.str.20 = private unnamed_addr constant [7 x i8] c"Var = \00", align 1
@.str.21 = private unnamed_addr constant [3 x i8] c", \00", align 1
@.str.22 = private unnamed_addr constant [8 x i8] c"Then = \00", align 1
@.str.23 = private unnamed_addr constant [8 x i8] c"Else = \00", align 1
@.str.24 = private unnamed_addr constant [10 x i8] c", Ones = \00", align 1
@.str.25 = private unnamed_addr constant [23 x i8] c"fCountOnes was not set\00", align 1
@.str.26 = private unnamed_addr constant [14 x i8] c"Reallocating \00", align 1
@.str.27 = private unnamed_addr constant [31 x i8] c" unique table entries for Var \00", align 1
@.str.28 = private unnamed_addr constant [17 x i8] c"\09\09\09\09import Gate \00", align 1
@.str.29 = private unnamed_addr constant [15 x i8] c"\09\09\09\09import PO \00", align 1
@.str.30 = private unnamed_addr constant [49 x i8] c"cannot create std::vector larger than max_size()\00", align 1
@.str.31 = private unnamed_addr constant [26 x i8] c"vector::_M_realloc_insert\00", align 1
@_ZTVNSt7__cxx1118basic_stringstreamIcSt11char_traitsIcESaIcEEE = external unnamed_addr constant { [5 x ptr], [5 x ptr], [5 x ptr] }, align 8
@_ZTTNSt7__cxx1118basic_stringstreamIcSt11char_traitsIcESaIcEEE = external unnamed_addr constant [10 x ptr], align 8
@_ZTVSt9basic_iosIcSt11char_traitsIcEE = external unnamed_addr constant { [4 x ptr] }, align 8
@_ZTVNSt7__cxx1115basic_stringbufIcSt11char_traitsIcESaIcEEE = external unnamed_addr constant { [16 x ptr] }, align 8
@_ZTVSt15basic_streambufIcSt11char_traitsIcEE = external unnamed_addr constant { [16 x ptr] }, align 8
@.str.32 = private unnamed_addr constant [6 x i8] c"\1B[2K\0D\00", align 1
@.str.33 = private unnamed_addr constant [22 x i8] c"basic_string::replace\00", align 1
@.str.34 = private unnamed_addr constant [55 x i8] c"%s: __pos (which is %zu) > this->size() (which is %zu)\00", align 1
@.str.35 = private unnamed_addr constant [15 x i8] c"\09\09\09\09\09add Wire \00", align 1
@.str.36 = private unnamed_addr constant [2 x i8] c"(\00", align 1
@.str.37 = private unnamed_addr constant [2 x i8] c")\00", align 1
@.str.38 = private unnamed_addr constant [5 x i8] c" -> \00", align 1
@.str.39 = private unnamed_addr constant [9 x i8] c"\09\09\09Build\00", align 1
@.str.40 = private unnamed_addr constant [18 x i8] c"\09\09\09\09building Gate\00", align 1
@.str.41 = private unnamed_addr constant [13 x i8] c"Cache Hits: \00", align 1
@.str.42 = private unnamed_addr constant [10 x i8] c"Lookups: \00", align 1
@.str.43 = private unnamed_addr constant [7 x i8] c"Rate: \00", align 1
@.str.44 = private unnamed_addr constant [12 x i8] c"Cache hit: \00", align 1
@.str.45 = private unnamed_addr constant [5 x i8] c"x = \00", align 1
@.str.46 = private unnamed_addr constant [5 x i8] c"y = \00", align 1
@.str.47 = private unnamed_addr constant [5 x i8] c"z = \00", align 1
@.str.48 = private unnamed_addr constant [8 x i8] c"hash = \00", align 1
@.str.49 = private unnamed_addr constant [12 x i8] c"Cache mov: \00", align 1
@.str.50 = private unnamed_addr constant [14 x i8] c"Memout (node)\00", align 1
@.str.51 = private unnamed_addr constant [16 x i8] c"Garbage collect\00", align 1
@.str.52 = private unnamed_addr constant [7 x i8] c" nodes\00", align 1
@.str.53 = private unnamed_addr constant [12 x i8] c"Cache ent: \00", align 1
@.str.54 = private unnamed_addr constant [8 x i8] c"Reorder\00", align 1
@.str.55 = private unnamed_addr constant [6 x i8] c"Sift \00", align 1
@.str.56 = private unnamed_addr constant [12 x i8] c" : Level = \00", align 1
@.str.57 = private unnamed_addr constant [10 x i8] c" Count = \00", align 1
@.str.58 = private unnamed_addr constant [10 x i8] c" Thold = \00", align 1
@.str.59 = private unnamed_addr constant [7 x i8] c"\09Swap \00", align 1
@.str.60 = private unnamed_addr constant [11 x i8] c" : Diff = \00", align 1
@.str.61 = private unnamed_addr constant [8 x i8] c"Sifted \00", align 1
@.str.62 = private unnamed_addr constant [14 x i8] c"\09\09\09Build Exdc\00", align 1
@.str.63 = private unnamed_addr constant [20 x i8] c"\09\09\09\09building Exdc (\00", align 1
@.str.64 = private unnamed_addr constant [4 x i8] c" / \00", align 1
@.str.65 = private unnamed_addr constant [6 x i8] c"\09\09PO \00", align 1
@.str.66 = private unnamed_addr constant [12 x i8] c" is Const 1\00", align 1
@.str.67 = private unnamed_addr constant [12 x i8] c" is Const 0\00", align 1
@.str.68 = private unnamed_addr constant [22 x i8] c"\09\09remove unused Gate \00", align 1
@.str.69 = private unnamed_addr constant [18 x i8] c"\09\09\09\09\09remove Wire \00", align 1
@.str.70 = private unnamed_addr constant [18 x i8] c"\09\09\09\09\09remove Gate \00", align 1
@.str.71 = private unnamed_addr constant [23 x i8] c"vector::_M_fill_insert\00", align 1
@.str.72 = private unnamed_addr constant [10 x i8] c"#nodes = \00", align 1
@.str.73 = private unnamed_addr constant [12 x i8] c", #level = \00", align 1
@.str.74 = private unnamed_addr constant [13 x i8] c", elapsed = \00", align 1
@.str.75 = private unnamed_addr constant [2 x i8] c"s\00", align 1
@.str.76 = private unnamed_addr constant [50 x i8] c"basic_string: construction from null is not valid\00", align 1
@.str.77 = private unnamed_addr constant [4 x i8] c"End\00", align 1
@.str.78 = private unnamed_addr constant [6 x i8] c"Free \00", align 1
@.str.79 = private unnamed_addr constant [9 x i8] c" nodes (\00", align 1
@.str.80 = private unnamed_addr constant [13 x i8] c" live nodes)\00", align 1
@.str.81 = private unnamed_addr constant [7 x i8] c"Free {\00", align 1
@.str.82 = private unnamed_addr constant [23 x i8] c"} unique table entries\00", align 1
@.str.83 = private unnamed_addr constant [6 x i8] c" refs\00", align 1
@.str.84 = private unnamed_addr constant [5 x i8] c"Mspf\00", align 1
@.str.85 = private unnamed_addr constant [23 x i8] c"\09\09\09remove unused Gate \00", align 1
@.str.86 = private unnamed_addr constant [20 x i8] c"\09\09\09processing Gate \00", align 1
@.str.87 = private unnamed_addr constant [3 x i8] c" (\00", align 1
@.str.88 = private unnamed_addr constant [2 x i8] c"/\00", align 1
@.str.89 = private unnamed_addr constant [15 x i8] c", #restarts = \00", align 1
@.str.90 = private unnamed_addr constant [3 x i8] c"\09\09\00", align 1
@.str.91 = private unnamed_addr constant [17 x i8] c" (blocking Wire \00", align 1
@.str.92 = private unnamed_addr constant [17 x i8] c" (blocking Gate \00", align 1
@.str.93 = private unnamed_addr constant [33 x i8] c"\09\09\09Build with complemented Gate \00", align 1
@.str.94 = private unnamed_addr constant [18 x i8] c"\09\09\09\09replace Gate \00", align 1
@.str.95 = private unnamed_addr constant [11 x i8] c" by Const \00", align 1
@.str.96 = private unnamed_addr constant [19 x i8] c"\09\09\09\09sort FIs Gate \00", align 1
@.str.97 = private unnamed_addr constant [9 x i8] c"\09\09\09\09\09FI \00", align 1
@.str.98 = private unnamed_addr constant [4 x i8] c" = \00", align 1
@.str.99 = private unnamed_addr constant [24 x i8] c"\09\09\09\09[Mspf] remove Wire \00", align 1
@.str.100 = private unnamed_addr constant [24 x i8] c"\09\09\09\09[Rrfi] remove Wire \00", align 1
@.str.101 = private unnamed_addr constant [10 x i8] c" by Node \00", align 1
@.str.102 = private unnamed_addr constant [5 x i8] c"Cspf\00", align 1
@.str.103 = private unnamed_addr constant [24 x i8] c"\09\09\09\09[Cspf] remove Wire \00", align 1
@.str.104 = private unnamed_addr constant [25 x i8] c"[Resub] processing Gate \00", align 1
@.str.105 = private unnamed_addr constant [6 x i8] c"Resub\00", align 1
@.str.106 = private unnamed_addr constant [30 x i8] c"\09\09[TrivialMerge] adding Wire \00", align 1
@.str.107 = private unnamed_addr constant [28 x i8] c"\09\09[TryConnect] adding Wire \00", align 1
@.str.108 = private unnamed_addr constant [25 x i8] c"\09BalancedDecompose Gate \00", align 1
@.str.109 = private unnamed_addr constant [18 x i8] c"\09\09\09\09\09create Gate \00", align 1
@.str.110 = private unnamed_addr constant [24 x i8] c"\09TrivialDecompose Gate \00", align 1
@.str.111 = private unnamed_addr constant [29 x i8] c"[ResubMono] processing Gate \00", align 1
@.str.112 = private unnamed_addr constant [24 x i8] c"\09trying a new fanin PI \00", align 1
@.str.113 = private unnamed_addr constant [26 x i8] c"\09trying a new fanin Gate \00", align 1
@.str.114 = private unnamed_addr constant [10 x i8] c"ResubMono\00", align 1
@.str.115 = private unnamed_addr constant [31 x i8] c"[ResubShared] processing Gate \00", align 1
@.str.116 = private unnamed_addr constant [12 x i8] c"ResubShared\00", align 1
@.str.117 = private unnamed_addr constant [15 x i8] c"\09replace Gate \00", align 1
@.str.118 = private unnamed_addr constant [10 x i8] c" by Gate \00", align 1
@.str.119 = private unnamed_addr constant [17 x i8] c"\09decompose Gate \00", align 1
@.str.120 = private unnamed_addr constant [6 x i8] c" and \00", align 1
@.str.121 = private unnamed_addr constant [16 x i8] c" by a new Gate \00", align 1
@.str.122 = private unnamed_addr constant [16 x i8] c"\09\09Intersection:\00", align 1
@.str.123 = private unnamed_addr constant [2 x i8] c" \00", align 1
@.str.124 = private unnamed_addr constant [66 x i8] c"Hard limit on the number of nodes (2^29) is reached. Quitting...\0A\00", align 1
@.str.125 = private unnamed_addr constant [41 x i8] c"Extending GIA object storage: %d -> %d.\0A\00", align 1
@.str.126 = private unnamed_addr constant [41 x i8] c"nVars must be less than 64 to count ones\00", align 1
@_ZZN5NewTt3Man4varsEiE4vars = linkonce_odr constant [6 x i64] [i64 -6148914691236517206, i64 -3689348814741910324, i64 -1085102592571150096, i64 -71777214294589696, i64 -281470681808896, i64 -4294967296], comdat, align 16
@_ZZN5NewTt3Man4onesEiE4ones = linkonce_odr constant [7 x i64] [i64 1, i64 3, i64 15, i64 255, i64 65535, i64 4294967295, i64 -1], comdat, align 16
@llvm.global_ctors = appending global [1 x { i32, ptr, ptr }] [{ i32, ptr, ptr } { i32 65535, ptr @_GLOBAL__sub_I_giaTransduction.cpp, ptr null }]

; Function Attrs: nounwind uwtable
define internal void @__cxx_global_var_init() #0 section ".text.startup" {
  call void @_ZNSt8ios_base4InitC1Ev(ptr noundef nonnull align 1 dereferenceable(1) @_ZStL8__ioinit)
  %1 = call i32 @__cxa_atexit(ptr @_ZNSt8ios_base4InitD1Ev, ptr @_ZStL8__ioinit, ptr @__dso_handle) #3
  ret void
}

declare void @_ZNSt8ios_base4InitC1Ev(ptr noundef nonnull align 1 dereferenceable(1)) unnamed_addr #1

; Function Attrs: nounwind
declare void @_ZNSt8ios_base4InitD1Ev(ptr noundef nonnull align 1 dereferenceable(1)) unnamed_addr #2

; Function Attrs: nounwind
declare i32 @__cxa_atexit(ptr, ptr, ptr) #3

; Function Attrs: mustprogress nounwind uwtable
define ptr @Gia_ManTransductionBdd(ptr noundef %0, i32 noundef %1, i32 noundef %2, i32 noundef %3, i32 noundef %4, i32 noundef %5, i32 noundef %6, i32 noundef %7, ptr noundef %8, i32 noundef %9, i32 noundef %10) #4 {
  %12 = alloca ptr, align 8
  %13 = alloca i32, align 4
  %14 = alloca i32, align 4
  %15 = alloca i32, align 4
  %16 = alloca i32, align 4
  %17 = alloca i32, align 4
  %18 = alloca i32, align 4
  %19 = alloca i32, align 4
  %20 = alloca ptr, align 8
  %21 = alloca i32, align 4
  %22 = alloca i32, align 4
  %23 = alloca %"struct.NewBdd::Param", align 8
  %24 = alloca %"class.Transduction::Transduction", align 8
  %25 = alloca i32, align 4
  %26 = alloca i8, align 1
  %27 = alloca i8, align 1
  %28 = alloca i8, align 1
  %29 = alloca i8, align 1
  %30 = alloca i8, align 1
  %31 = alloca i8, align 1
  %32 = alloca i8, align 1
  store ptr %0, ptr %12, align 8, !tbaa !3
  store i32 %1, ptr %13, align 4, !tbaa !8
  store i32 %2, ptr %14, align 4, !tbaa !8
  store i32 %3, ptr %15, align 4, !tbaa !8
  store i32 %4, ptr %16, align 4, !tbaa !8
  store i32 %5, ptr %17, align 4, !tbaa !8
  store i32 %6, ptr %18, align 4, !tbaa !8
  store i32 %7, ptr %19, align 4, !tbaa !8
  store ptr %8, ptr %20, align 8, !tbaa !3
  store i32 %9, ptr %21, align 4, !tbaa !8
  store i32 %10, ptr %22, align 4, !tbaa !8
  %33 = load i32, ptr %15, align 4, !tbaa !8
  %34 = icmp ne i32 %33, 0
  br i1 %34, label %35, label %42

35:                                               ; preds = %11
  %36 = load i32, ptr %15, align 4, !tbaa !8
  call void @srand(i32 noundef %36) #3
  %37 = call i32 @rand() #3
  %38 = srem i32 %37, 4
  store i32 %38, ptr %16, align 4, !tbaa !8
  %39 = call i32 @rand() #3
  store i32 %39, ptr %17, align 4, !tbaa !8
  %40 = call i32 @rand() #3
  %41 = srem i32 %40, 16
  store i32 %41, ptr %18, align 4, !tbaa !8
  br label %42

42:                                               ; preds = %35, %11
  call void @llvm.lifetime.start.p0(i64 72, ptr %23) #3
  call void @_ZN6NewBdd5ParamC2Ev(ptr noundef nonnull align 8 dereferenceable(72) %23)
  call void @llvm.lifetime.start.p0(i64 456, ptr %24) #3
  %43 = load ptr, ptr %12, align 8, !tbaa !3
  %44 = load i32, ptr %22, align 4, !tbaa !8
  %45 = load i32, ptr %21, align 4, !tbaa !8
  %46 = icmp ne i32 %45, 0
  %47 = load i32, ptr %16, align 4, !tbaa !8
  %48 = load i32, ptr %17, align 4, !tbaa !8
  %49 = load i32, ptr %19, align 4, !tbaa !8
  %50 = icmp ne i32 %49, 0
  %51 = load ptr, ptr %20, align 8, !tbaa !3
  call void @_ZN12Transduction12TransductionIN6NewBdd3ManENS1_5ParamEjLj4294967295EEC2EP10Gia_Man_t_ibiibS6_RS3_(ptr noundef nonnull align 8 dereferenceable(456) %24, ptr noundef %43, i32 noundef %44, i1 noundef zeroext %46, i32 noundef %47, i32 noundef %48, i1 noundef zeroext %50, ptr noundef %51, ptr noundef nonnull align 8 dereferenceable(72) %23)
  call void @llvm.lifetime.start.p0(i64 4, ptr %25) #3
  %52 = call noundef i32 @_ZNK12Transduction12TransductionIN6NewBdd3ManENS1_5ParamEjLj4294967295EE10CountWiresEv(ptr noundef nonnull align 8 dereferenceable(456) %24)
  store i32 %52, ptr %25, align 4, !tbaa !8
  %53 = load i32, ptr %13, align 4, !tbaa !8
  switch i32 %53, label %167 [
    i32 0, label %54
    i32 1, label %65
    i32 2, label %71
    i32 3, label %77
    i32 4, label %83
    i32 5, label %89
    i32 6, label %95
    i32 7, label %108
    i32 8, label %128
  ]

54:                                               ; preds = %42
  %55 = load i32, ptr %14, align 4, !tbaa !8
  %56 = icmp ne i32 %55, 0
  br i1 %56, label %57, label %59

57:                                               ; preds = %54
  %58 = call noundef i32 @_ZN12Transduction12TransductionIN6NewBdd3ManENS1_5ParamEjLj4294967295EE4MspfEv(ptr noundef nonnull align 8 dereferenceable(456) %24)
  br label %61

59:                                               ; preds = %54
  %60 = call noundef i32 @_ZN12Transduction12TransductionIN6NewBdd3ManENS1_5ParamEjLj4294967295EE4CspfEv(ptr noundef nonnull align 8 dereferenceable(456) %24)
  br label %61

61:                                               ; preds = %59, %57
  %62 = phi i32 [ %58, %57 ], [ %60, %59 ]
  %63 = load i32, ptr %25, align 4, !tbaa !8
  %64 = sub nsw i32 %63, %62
  store i32 %64, ptr %25, align 4, !tbaa !8
  br label %172

65:                                               ; preds = %42
  %66 = load i32, ptr %14, align 4, !tbaa !8
  %67 = icmp ne i32 %66, 0
  %68 = call noundef i32 @_ZN12Transduction12TransductionIN6NewBdd3ManENS1_5ParamEjLj4294967295EE5ResubEb(ptr noundef nonnull align 8 dereferenceable(456) %24, i1 noundef zeroext %67)
  %69 = load i32, ptr %25, align 4, !tbaa !8
  %70 = sub nsw i32 %69, %68
  store i32 %70, ptr %25, align 4, !tbaa !8
  br label %172

71:                                               ; preds = %42
  %72 = load i32, ptr %14, align 4, !tbaa !8
  %73 = icmp ne i32 %72, 0
  %74 = call noundef i32 @_ZN12Transduction12TransductionIN6NewBdd3ManENS1_5ParamEjLj4294967295EE9ResubMonoEb(ptr noundef nonnull align 8 dereferenceable(456) %24, i1 noundef zeroext %73)
  %75 = load i32, ptr %25, align 4, !tbaa !8
  %76 = sub nsw i32 %75, %74
  store i32 %76, ptr %25, align 4, !tbaa !8
  br label %172

77:                                               ; preds = %42
  %78 = load i32, ptr %14, align 4, !tbaa !8
  %79 = icmp ne i32 %78, 0
  %80 = call noundef i32 @_ZN12Transduction12TransductionIN6NewBdd3ManENS1_5ParamEjLj4294967295EE11ResubSharedEb(ptr noundef nonnull align 8 dereferenceable(456) %24, i1 noundef zeroext %79)
  %81 = load i32, ptr %25, align 4, !tbaa !8
  %82 = sub nsw i32 %81, %80
  store i32 %82, ptr %25, align 4, !tbaa !8
  br label %172

83:                                               ; preds = %42
  %84 = load i32, ptr %14, align 4, !tbaa !8
  %85 = icmp ne i32 %84, 0
  %86 = call noundef i32 @_ZN12Transduction12TransductionIN6NewBdd3ManENS1_5ParamEjLj4294967295EE11RepeatResubEbb(ptr noundef nonnull align 8 dereferenceable(456) %24, i1 noundef zeroext false, i1 noundef zeroext %85)
  %87 = load i32, ptr %25, align 4, !tbaa !8
  %88 = sub nsw i32 %87, %86
  store i32 %88, ptr %25, align 4, !tbaa !8
  br label %172

89:                                               ; preds = %42
  %90 = load i32, ptr %14, align 4, !tbaa !8
  %91 = icmp ne i32 %90, 0
  %92 = call noundef i32 @_ZN12Transduction12TransductionIN6NewBdd3ManENS1_5ParamEjLj4294967295EE11RepeatResubEbb(ptr noundef nonnull align 8 dereferenceable(456) %24, i1 noundef zeroext true, i1 noundef zeroext %91)
  %93 = load i32, ptr %25, align 4, !tbaa !8
  %94 = sub nsw i32 %93, %92
  store i32 %94, ptr %25, align 4, !tbaa !8
  br label %172

95:                                               ; preds = %42
  call void @llvm.lifetime.start.p0(i64 1, ptr %26) #3
  %96 = load i32, ptr %18, align 4, !tbaa !8
  %97 = sdiv i32 %96, 4
  %98 = srem i32 %97, 2
  %99 = icmp ne i32 %98, 0
  %100 = zext i1 %99 to i8
  store i8 %100, ptr %26, align 1, !tbaa !10
  %101 = load i32, ptr %14, align 4, !tbaa !8
  %102 = icmp ne i32 %101, 0
  %103 = load i8, ptr %26, align 1, !tbaa !10, !range !12, !noundef !13
  %104 = trunc i8 %103 to i1
  %105 = call noundef i32 @_ZN12Transduction12TransductionIN6NewBdd3ManENS1_5ParamEjLj4294967295EE11RepeatInnerEbb(ptr noundef nonnull align 8 dereferenceable(456) %24, i1 noundef zeroext %102, i1 noundef zeroext %104)
  %106 = load i32, ptr %25, align 4, !tbaa !8
  %107 = sub nsw i32 %106, %105
  store i32 %107, ptr %25, align 4, !tbaa !8
  call void @llvm.lifetime.end.p0(i64 1, ptr %26) #3
  br label %172

108:                                              ; preds = %42
  call void @llvm.lifetime.start.p0(i64 1, ptr %27) #3
  %109 = load i32, ptr %18, align 4, !tbaa !8
  %110 = sdiv i32 %109, 4
  %111 = srem i32 %110, 2
  %112 = icmp ne i32 %111, 0
  %113 = zext i1 %112 to i8
  store i8 %113, ptr %27, align 1, !tbaa !10
  call void @llvm.lifetime.start.p0(i64 1, ptr %28) #3
  %114 = load i32, ptr %18, align 4, !tbaa !8
  %115 = sdiv i32 %114, 8
  %116 = srem i32 %115, 2
  %117 = icmp ne i32 %116, 0
  %118 = zext i1 %117 to i8
  store i8 %118, ptr %28, align 1, !tbaa !10
  %119 = load i32, ptr %14, align 4, !tbaa !8
  %120 = icmp ne i32 %119, 0
  %121 = load i8, ptr %27, align 1, !tbaa !10, !range !12, !noundef !13
  %122 = trunc i8 %121 to i1
  %123 = load i8, ptr %28, align 1, !tbaa !10, !range !12, !noundef !13
  %124 = trunc i8 %123 to i1
  %125 = call noundef i32 @_ZN12Transduction12TransductionIN6NewBdd3ManENS1_5ParamEjLj4294967295EE11RepeatOuterEbbb(ptr noundef nonnull align 8 dereferenceable(456) %24, i1 noundef zeroext %120, i1 noundef zeroext %122, i1 noundef zeroext %124)
  %126 = load i32, ptr %25, align 4, !tbaa !8
  %127 = sub nsw i32 %126, %125
  store i32 %127, ptr %25, align 4, !tbaa !8
  call void @llvm.lifetime.end.p0(i64 1, ptr %28) #3
  call void @llvm.lifetime.end.p0(i64 1, ptr %27) #3
  br label %172

128:                                              ; preds = %42
  call void @llvm.lifetime.start.p0(i64 1, ptr %29) #3
  %129 = load i32, ptr %18, align 4, !tbaa !8
  %130 = srem i32 %129, 2
  %131 = icmp ne i32 %130, 0
  %132 = zext i1 %131 to i8
  store i8 %132, ptr %29, align 1, !tbaa !10
  call void @llvm.lifetime.start.p0(i64 1, ptr %30) #3
  %133 = load i32, ptr %14, align 4, !tbaa !8
  %134 = icmp ne i32 %133, 0
  br i1 %134, label %135, label %139

135:                                              ; preds = %128
  %136 = load i32, ptr %18, align 4, !tbaa !8
  %137 = sdiv i32 %136, 2
  %138 = srem i32 %137, 2
  br label %140

139:                                              ; preds = %128
  br label %140

140:                                              ; preds = %139, %135
  %141 = phi i32 [ %138, %135 ], [ 0, %139 ]
  %142 = icmp ne i32 %141, 0
  %143 = zext i1 %142 to i8
  store i8 %143, ptr %30, align 1, !tbaa !10
  call void @llvm.lifetime.start.p0(i64 1, ptr %31) #3
  %144 = load i32, ptr %18, align 4, !tbaa !8
  %145 = sdiv i32 %144, 4
  %146 = srem i32 %145, 2
  %147 = icmp ne i32 %146, 0
  %148 = zext i1 %147 to i8
  store i8 %148, ptr %31, align 1, !tbaa !10
  call void @llvm.lifetime.start.p0(i64 1, ptr %32) #3
  %149 = load i32, ptr %18, align 4, !tbaa !8
  %150 = sdiv i32 %149, 8
  %151 = srem i32 %150, 2
  %152 = icmp ne i32 %151, 0
  %153 = zext i1 %152 to i8
  store i8 %153, ptr %32, align 1, !tbaa !10
  %154 = load i8, ptr %29, align 1, !tbaa !10, !range !12, !noundef !13
  %155 = trunc i8 %154 to i1
  %156 = load i8, ptr %30, align 1, !tbaa !10, !range !12, !noundef !13
  %157 = trunc i8 %156 to i1
  %158 = load i32, ptr %14, align 4, !tbaa !8
  %159 = icmp ne i32 %158, 0
  %160 = load i8, ptr %31, align 1, !tbaa !10, !range !12, !noundef !13
  %161 = trunc i8 %160 to i1
  %162 = load i8, ptr %32, align 1, !tbaa !10, !range !12, !noundef !13
  %163 = trunc i8 %162 to i1
  %164 = call noundef i32 @_ZN12Transduction12TransductionIN6NewBdd3ManENS1_5ParamEjLj4294967295EE9RepeatAllEbbbbb(ptr noundef nonnull align 8 dereferenceable(456) %24, i1 noundef zeroext %155, i1 noundef zeroext %157, i1 noundef zeroext %159, i1 noundef zeroext %161, i1 noundef zeroext %163)
  %165 = load i32, ptr %25, align 4, !tbaa !8
  %166 = sub nsw i32 %165, %164
  store i32 %166, ptr %25, align 4, !tbaa !8
  call void @llvm.lifetime.end.p0(i64 1, ptr %32) #3
  call void @llvm.lifetime.end.p0(i64 1, ptr %31) #3
  call void @llvm.lifetime.end.p0(i64 1, ptr %30) #3
  call void @llvm.lifetime.end.p0(i64 1, ptr %29) #3
  br label %172

167:                                              ; preds = %42
  %168 = call noundef nonnull align 8 dereferenceable(8) ptr @_ZStlsISt11char_traitsIcEERSt13basic_ostreamIcT_ES5_PKc(ptr noundef nonnull align 8 dereferenceable(8) @_ZSt4cout, ptr noundef @.str)
  %169 = load i32, ptr %13, align 4, !tbaa !8
  %170 = call noundef nonnull align 8 dereferenceable(8) ptr @_ZNSolsEi(ptr noundef nonnull align 8 dereferenceable(8) %168, i32 noundef %169)
  %171 = call noundef nonnull align 8 dereferenceable(8) ptr @_ZNSolsEPFRSoS_E(ptr noundef nonnull align 8 dereferenceable(8) %170, ptr noundef @_ZSt4endlIcSt11char_traitsIcEERSt13basic_ostreamIT_T0_ES6_)
  br label %172

172:                                              ; preds = %167, %140, %108, %95, %89, %83, %77, %71, %65, %61
  %173 = call noundef ptr @_ZNK12Transduction12TransductionIN6NewBdd3ManENS1_5ParamEjLj4294967295EE11GenerateAigEv(ptr noundef nonnull align 8 dereferenceable(456) %24)
  call void @llvm.lifetime.end.p0(i64 4, ptr %25) #3
  call void @_ZN12Transduction12TransductionIN6NewBdd3ManENS1_5ParamEjLj4294967295EED2Ev(ptr noundef nonnull align 8 dereferenceable(456) %24) #3
  call void @llvm.lifetime.end.p0(i64 456, ptr %24) #3
  call void @llvm.lifetime.end.p0(i64 72, ptr %23) #3
  ret ptr %173
}

; Function Attrs: nounwind
declare void @srand(i32 noundef) #2

; Function Attrs: nounwind
declare i32 @rand() #2

; Function Attrs: nocallback nofree nosync nounwind willreturn memory(argmem: readwrite)
declare void @llvm.lifetime.start.p0(i64 immarg, ptr captures(none)) #5

; Function Attrs: mustprogress nounwind uwtable
define linkonce_odr void @_ZN6NewBdd5ParamC2Ev(ptr noundef nonnull align 8 dereferenceable(72) %0) unnamed_addr #4 comdat align 2 {
  %2 = alloca ptr, align 8
  store ptr %0, ptr %2, align 8, !tbaa !14
  %3 = load ptr, ptr %2, align 8
  %4 = getelementptr inbounds nuw %"struct.NewBdd::Param", ptr %3, i32 0, i32 0
  store i32 20, ptr %4, align 8, !tbaa !16
  %5 = getelementptr inbounds nuw %"struct.NewBdd::Param", ptr %3, i32 0, i32 1
  store i32 25, ptr %5, align 4, !tbaa !20
  %6 = getelementptr inbounds nuw %"struct.NewBdd::Param", ptr %3, i32 0, i32 2
  store i32 10, ptr %6, align 8, !tbaa !21
  %7 = getelementptr inbounds nuw %"struct.NewBdd::Param", ptr %3, i32 0, i32 3
  store double 4.000000e+00, ptr %7, align 8, !tbaa !22
  %8 = getelementptr inbounds nuw %"struct.NewBdd::Param", ptr %3, i32 0, i32 4
  store i32 15, ptr %8, align 8, !tbaa !23
  %9 = getelementptr inbounds nuw %"struct.NewBdd::Param", ptr %3, i32 0, i32 5
  store i32 20, ptr %9, align 4, !tbaa !24
  %10 = getelementptr inbounds nuw %"struct.NewBdd::Param", ptr %3, i32 0, i32 6
  store i32 0, ptr %10, align 8, !tbaa !25
  %11 = getelementptr inbounds nuw %"struct.NewBdd::Param", ptr %3, i32 0, i32 7
  store i8 0, ptr %11, align 4, !tbaa !26
  %12 = getelementptr inbounds nuw %"struct.NewBdd::Param", ptr %3, i32 0, i32 8
  store i32 0, ptr %12, align 8, !tbaa !27
  %13 = call noundef i32 @_ZN6NewBddL7BvarMaxEv()
  %14 = getelementptr inbounds nuw %"struct.NewBdd::Param", ptr %3, i32 0, i32 9
  store i32 %13, ptr %14, align 4, !tbaa !28
  %15 = getelementptr inbounds nuw %"struct.NewBdd::Param", ptr %3, i32 0, i32 10
  store double 1.200000e+00, ptr %15, align 8, !tbaa !29
  %16 = getelementptr inbounds nuw %"struct.NewBdd::Param", ptr %3, i32 0, i32 11
  store i8 0, ptr %16, align 8, !tbaa !30
  %17 = getelementptr inbounds nuw %"struct.NewBdd::Param", ptr %3, i32 0, i32 12
  store i32 0, ptr %17, align 4, !tbaa !31
  %18 = getelementptr inbounds nuw %"struct.NewBdd::Param", ptr %3, i32 0, i32 13
  store ptr null, ptr %18, align 8, !tbaa !32
  ret void
}

; Function Attrs: mustprogress nounwind uwtable
define linkonce_odr void @_ZN12Transduction12TransductionIN6NewBdd3ManENS1_5ParamEjLj4294967295EEC2EP10Gia_Man_t_ibiibS6_RS3_(ptr noundef nonnull align 8 dereferenceable(456) %0, ptr noundef %1, i32 noundef %2, i1 noundef zeroext %3, i32 noundef %4, i32 noundef %5, i1 noundef zeroext %6, ptr noundef %7, ptr noundef nonnull align 8 dereferenceable(72) %8) unnamed_addr #4 comdat align 2 {
  %10 = alloca ptr, align 8
  %11 = alloca ptr, align 8
  %12 = alloca i32, align 4
  %13 = alloca i8, align 1
  %14 = alloca i32, align 4
  %15 = alloca i32, align 4
  %16 = alloca i8, align 1
  %17 = alloca ptr, align 8
  %18 = alloca ptr, align 8
  %19 = alloca %"struct.NewBdd::Param", align 8
  %20 = alloca i32, align 4
  %21 = alloca %"class.std::vector.8", align 8
  %22 = alloca i32, align 4
  %23 = alloca i32, align 4
  %24 = alloca i32, align 4
  %25 = alloca i32, align 4
  %26 = alloca %"class.std::__cxx11::basic_string", align 8
  %27 = alloca %"class.std::allocator.34", align 1
  store ptr %0, ptr %10, align 8, !tbaa !33
  store ptr %1, ptr %11, align 8, !tbaa !3
  store i32 %2, ptr %12, align 4, !tbaa !8
  %28 = zext i1 %3 to i8
  store i8 %28, ptr %13, align 1, !tbaa !10
  store i32 %4, ptr %14, align 4, !tbaa !8
  store i32 %5, ptr %15, align 4, !tbaa !8
  %29 = zext i1 %6 to i8
  store i8 %29, ptr %16, align 1, !tbaa !10
  store ptr %7, ptr %17, align 8, !tbaa !3
  store ptr %8, ptr %18, align 8, !tbaa !14
  %30 = load ptr, ptr %10, align 8
  %31 = getelementptr inbounds nuw %"class.Transduction::Transduction", ptr %30, i32 0, i32 1
  %32 = load i32, ptr %12, align 4, !tbaa !8
  store i32 %32, ptr %31, align 8, !tbaa !35
  %33 = getelementptr inbounds nuw %"class.Transduction::Transduction", ptr %30, i32 0, i32 2
  %34 = load i32, ptr %14, align 4, !tbaa !8
  store i32 %34, ptr %33, align 4, !tbaa !73
  %35 = getelementptr inbounds nuw %"class.Transduction::Transduction", ptr %30, i32 0, i32 3
  %36 = load i8, ptr %16, align 1, !tbaa !10, !range !12, !noundef !13
  %37 = trunc i8 %36 to i1
  %38 = zext i1 %37 to i8
  store i8 %38, ptr %35, align 8, !tbaa !74
  %39 = getelementptr inbounds nuw %"class.Transduction::Transduction", ptr %30, i32 0, i32 7
  call void @_ZNSt6vectorIiSaIiEEC2Ev(ptr noundef nonnull align 8 dereferenceable(24) %39) #3
  %40 = getelementptr inbounds nuw %"class.Transduction::Transduction", ptr %30, i32 0, i32 8
  call void @_ZNSt6vectorIiSaIiEEC2Ev(ptr noundef nonnull align 8 dereferenceable(24) %40) #3
  %41 = getelementptr inbounds nuw %"class.Transduction::Transduction", ptr %30, i32 0, i32 9
  call void @_ZNSt7__cxx114listIiSaIiEEC2Ev(ptr noundef nonnull align 8 dereferenceable(24) %41) #3
  %42 = getelementptr inbounds nuw %"class.Transduction::Transduction", ptr %30, i32 0, i32 10
  call void @_ZNSt6vectorIS_IiSaIiEESaIS1_EEC2Ev(ptr noundef nonnull align 8 dereferenceable(24) %42) #3
  %43 = getelementptr inbounds nuw %"class.Transduction::Transduction", ptr %30, i32 0, i32 11
  call void @_ZNSt6vectorIS_IiSaIiEESaIS1_EEC2Ev(ptr noundef nonnull align 8 dereferenceable(24) %43) #3
  %44 = getelementptr inbounds nuw %"class.Transduction::Transduction", ptr %30, i32 0, i32 12
  call void @_ZNSt6vectorIiSaIiEEC2Ev(ptr noundef nonnull align 8 dereferenceable(24) %44) #3
  %45 = getelementptr inbounds nuw %"class.Transduction::Transduction", ptr %30, i32 0, i32 13
  call void @_ZNSt6vectorIiSaIiEEC2Ev(ptr noundef nonnull align 8 dereferenceable(24) %45) #3
  %46 = getelementptr inbounds nuw %"class.Transduction::Transduction", ptr %30, i32 0, i32 14
  call void @_ZNSt6vectorIS_IiSaIiEESaIS1_EEC2Ev(ptr noundef nonnull align 8 dereferenceable(24) %46) #3
  %47 = getelementptr inbounds nuw %"class.Transduction::Transduction", ptr %30, i32 0, i32 15
  call void @_ZNSt6vectorIjSaIjEEC2Ev(ptr noundef nonnull align 8 dereferenceable(24) %47) #3
  %48 = getelementptr inbounds nuw %"class.Transduction::Transduction", ptr %30, i32 0, i32 16
  call void @_ZNSt6vectorIjSaIjEEC2Ev(ptr noundef nonnull align 8 dereferenceable(24) %48) #3
  %49 = getelementptr inbounds nuw %"class.Transduction::Transduction", ptr %30, i32 0, i32 17
  call void @_ZNSt6vectorIS_IjSaIjEESaIS1_EEC2Ev(ptr noundef nonnull align 8 dereferenceable(24) %49) #3
  %50 = getelementptr inbounds nuw %"class.Transduction::Transduction", ptr %30, i32 0, i32 18
  call void @_ZNSt6vectorIbSaIbEEC2Ev(ptr noundef nonnull align 8 dereferenceable(40) %50) #3
  %51 = getelementptr inbounds nuw %"class.Transduction::Transduction", ptr %30, i32 0, i32 19
  call void @_ZNSt6vectorIbSaIbEEC2Ev(ptr noundef nonnull align 8 dereferenceable(40) %51) #3
  %52 = getelementptr inbounds nuw %"class.Transduction::Transduction", ptr %30, i32 0, i32 20
  call void @_ZNSt6vectorIbSaIbEEC2Ev(ptr noundef nonnull align 8 dereferenceable(40) %52) #3
  %53 = getelementptr inbounds nuw %"class.Transduction::Transduction", ptr %30, i32 0, i32 21
  call void @_ZNSt6vectorIjSaIjEEC2Ev(ptr noundef nonnull align 8 dereferenceable(24) %53) #3
  %54 = getelementptr inbounds nuw %"class.Transduction::Transduction", ptr %30, i32 0, i32 22
  %55 = load i8, ptr %13, align 1, !tbaa !10, !range !12, !noundef !13
  %56 = trunc i8 %55 to i1
  %57 = zext i1 %56 to i8
  store i8 %57, ptr %54, align 8, !tbaa !75
  %58 = call noundef i64 @_ZL9Abc_Clockv()
  %59 = getelementptr inbounds nuw %"class.Transduction::Transduction", ptr %30, i32 0, i32 23
  store i64 %58, ptr %59, align 8, !tbaa !76
  %60 = load ptr, ptr %18, align 8, !tbaa !14
  %61 = getelementptr inbounds nuw %"struct.NewBdd::Param", ptr %60, i32 0, i32 8
  store i32 1, ptr %61, align 8, !tbaa !27
  %62 = load ptr, ptr %18, align 8, !tbaa !14
  %63 = getelementptr inbounds nuw %"struct.NewBdd::Param", ptr %62, i32 0, i32 9
  store i32 4000, ptr %63, align 4, !tbaa !28
  %64 = load i32, ptr %14, align 4, !tbaa !8
  %65 = icmp ne i32 %64, 0
  br i1 %65, label %66, label %72

66:                                               ; preds = %9
  %67 = load i32, ptr %14, align 4, !tbaa !8
  %68 = icmp slt i32 %67, 4
  br i1 %68, label %69, label %72

69:                                               ; preds = %66
  %70 = load ptr, ptr %18, align 8, !tbaa !14
  %71 = getelementptr inbounds nuw %"struct.NewBdd::Param", ptr %70, i32 0, i32 7
  store i8 1, ptr %71, align 4, !tbaa !26
  br label %72

72:                                               ; preds = %69, %66, %9
  %73 = call noalias noundef nonnull ptr @_Znwm(i64 noundef 384) #20
  %74 = load ptr, ptr %11, align 8, !tbaa !3
  %75 = call noundef i32 @_ZL12Gia_ManCiNumP10Gia_Man_t_(ptr noundef %74)
  %76 = load ptr, ptr %18, align 8, !tbaa !14
  call void @llvm.memcpy.p0.p0.i64(ptr align 8 %19, ptr align 8 %76, i64 72, i1 false), !tbaa.struct !77
  call void @_ZN6NewBdd3ManC2EiNS_5ParamE(ptr noundef nonnull align 8 dereferenceable(384) %73, i32 noundef %75, ptr noundef byval(%"struct.NewBdd::Param") align 8 %19)
  %77 = getelementptr inbounds nuw %"class.Transduction::ManUtil", ptr %30, i32 0, i32 0
  store ptr %73, ptr %77, align 8, !tbaa !80
  %78 = load ptr, ptr %11, align 8, !tbaa !3
  call void @_ZN12Transduction12TransductionIN6NewBdd3ManENS1_5ParamEjLj4294967295EE9ImportAigEP10Gia_Man_t_(ptr noundef nonnull align 8 dereferenceable(456) %30, ptr noundef %78)
  %79 = getelementptr inbounds nuw %"class.Transduction::Transduction", ptr %30, i32 0, i32 15
  %80 = call noundef nonnull align 4 dereferenceable(4) ptr @_ZNSt6vectorIjSaIjEEixEm(ptr noundef nonnull align 8 dereferenceable(24) %79, i64 noundef 0) #3
  %81 = getelementptr inbounds nuw %"class.Transduction::ManUtil", ptr %30, i32 0, i32 0
  %82 = load ptr, ptr %81, align 8, !tbaa !80
  %83 = call noundef i32 @_ZNK6NewBdd3Man6Const0Ev(ptr noundef nonnull align 8 dereferenceable(384) %82)
  call void @_ZNK12Transduction7ManUtilIN6NewBdd3ManEjLj4294967295EE6UpdateERjj(ptr noundef nonnull align 8 dereferenceable(8) %30, ptr noundef nonnull align 4 dereferenceable(4) %80, i32 noundef %83)
  call void @llvm.lifetime.start.p0(i64 4, ptr %20) #3
  store i32 0, ptr %20, align 4, !tbaa !8
  br label %84

84:                                               ; preds = %102, %72
  %85 = load i32, ptr %20, align 4, !tbaa !8
  %86 = zext i32 %85 to i64
  %87 = getelementptr inbounds nuw %"class.Transduction::Transduction", ptr %30, i32 0, i32 7
  %88 = call noundef i64 @_ZNKSt6vectorIiSaIiEE4sizeEv(ptr noundef nonnull align 8 dereferenceable(24) %87) #3
  %89 = icmp ult i64 %86, %88
  br i1 %89, label %91, label %90

90:                                               ; preds = %84
  call void @llvm.lifetime.end.p0(i64 4, ptr %20) #3
  br label %105

91:                                               ; preds = %84
  %92 = getelementptr inbounds nuw %"class.Transduction::Transduction", ptr %30, i32 0, i32 15
  %93 = load i32, ptr %20, align 4, !tbaa !8
  %94 = add i32 %93, 1
  %95 = zext i32 %94 to i64
  %96 = call noundef nonnull align 4 dereferenceable(4) ptr @_ZNSt6vectorIjSaIjEEixEm(ptr noundef nonnull align 8 dereferenceable(24) %92, i64 noundef %95) #3
  %97 = getelementptr inbounds nuw %"class.Transduction::ManUtil", ptr %30, i32 0, i32 0
  %98 = load ptr, ptr %97, align 8, !tbaa !80
  %99 = load i32, ptr %20, align 4, !tbaa !8
  %100 = trunc i32 %99 to i16
  %101 = call noundef i32 @_ZNK6NewBdd3Man6IthVarEt(ptr noundef nonnull align 8 dereferenceable(384) %98, i16 noundef zeroext %100)
  call void @_ZNK12Transduction7ManUtilIN6NewBdd3ManEjLj4294967295EE6UpdateERjj(ptr noundef nonnull align 8 dereferenceable(8) %30, ptr noundef nonnull align 4 dereferenceable(4) %96, i32 noundef %101)
  br label %102

102:                                              ; preds = %91
  %103 = load i32, ptr %20, align 4, !tbaa !8
  %104 = add i32 %103, 1
  store i32 %104, ptr %20, align 4, !tbaa !8
  br label %84, !llvm.loop !81

105:                                              ; preds = %90
  %106 = getelementptr inbounds nuw %"class.Transduction::Transduction", ptr %30, i32 0, i32 5
  store i32 -1, ptr %106, align 8, !tbaa !83
  call void @_ZN12Transduction12TransductionIN6NewBdd3ManENS1_5ParamEjLj4294967295EE5BuildEb(ptr noundef nonnull align 8 dereferenceable(456) %30, i1 noundef zeroext false)
  %107 = getelementptr inbounds nuw %"class.Transduction::ManUtil", ptr %30, i32 0, i32 0
  %108 = load ptr, ptr %107, align 8, !tbaa !80
  call void @_ZN6NewBdd3Man7ReorderEv(ptr noundef nonnull align 8 dereferenceable(384) %108)
  %109 = getelementptr inbounds nuw %"class.Transduction::ManUtil", ptr %30, i32 0, i32 0
  %110 = load ptr, ptr %109, align 8, !tbaa !80
  call void @_ZN6NewBdd3Man10TurnOffReoEv(ptr noundef nonnull align 8 dereferenceable(384) %110)
  %111 = load ptr, ptr %17, align 8, !tbaa !3
  %112 = icmp ne ptr %111, null
  br i1 %112, label %113, label %148

113:                                              ; preds = %105
  call void @llvm.lifetime.start.p0(i64 24, ptr %21) #3
  call void @_ZNSt6vectorIjSaIjEEC2Ev(ptr noundef nonnull align 8 dereferenceable(24) %21) #3
  %114 = load ptr, ptr %17, align 8, !tbaa !3
  call void @_ZN12Transduction12TransductionIN6NewBdd3ManENS1_5ParamEjLj4294967295EE7Aig2BddEP10Gia_Man_t_RSt6vectorIjSaIjEE(ptr noundef nonnull align 8 dereferenceable(456) %30, ptr noundef %114, ptr noundef nonnull align 8 dereferenceable(24) %21)
  call void @llvm.lifetime.start.p0(i64 4, ptr %22) #3
  store i32 0, ptr %22, align 4, !tbaa !8
  br label %115

115:                                              ; preds = %144, %113
  %116 = load i32, ptr %22, align 4, !tbaa !8
  %117 = zext i32 %116 to i64
  %118 = getelementptr inbounds nuw %"class.Transduction::Transduction", ptr %30, i32 0, i32 8
  %119 = call noundef i64 @_ZNKSt6vectorIiSaIiEE4sizeEv(ptr noundef nonnull align 8 dereferenceable(24) %118) #3
  %120 = icmp ult i64 %117, %119
  br i1 %120, label %122, label %121

121:                                              ; preds = %115
  call void @llvm.lifetime.end.p0(i64 4, ptr %22) #3
  br label %147

122:                                              ; preds = %115
  %123 = call noundef i64 @_ZNKSt6vectorIjSaIjEE4sizeEv(ptr noundef nonnull align 8 dereferenceable(24) %21) #3
  %124 = icmp eq i64 %123, 1
  br i1 %124, label %125, label %128

125:                                              ; preds = %122
  %126 = call noundef nonnull align 4 dereferenceable(4) ptr @_ZNSt6vectorIjSaIjEEixEm(ptr noundef nonnull align 8 dereferenceable(24) %21, i64 noundef 0) #3
  %127 = load i32, ptr %126, align 4, !tbaa !8
  br label %133

128:                                              ; preds = %122
  %129 = load i32, ptr %22, align 4, !tbaa !8
  %130 = zext i32 %129 to i64
  %131 = call noundef nonnull align 4 dereferenceable(4) ptr @_ZNSt6vectorIjSaIjEEixEm(ptr noundef nonnull align 8 dereferenceable(24) %21, i64 noundef %130) #3
  %132 = load i32, ptr %131, align 4, !tbaa !8
  br label %133

133:                                              ; preds = %128, %125
  %134 = phi i32 [ %127, %125 ], [ %132, %128 ]
  %135 = getelementptr inbounds nuw %"class.Transduction::Transduction", ptr %30, i32 0, i32 17
  %136 = getelementptr inbounds nuw %"class.Transduction::Transduction", ptr %30, i32 0, i32 8
  %137 = load i32, ptr %22, align 4, !tbaa !8
  %138 = zext i32 %137 to i64
  %139 = call noundef nonnull align 4 dereferenceable(4) ptr @_ZNSt6vectorIiSaIiEEixEm(ptr noundef nonnull align 8 dereferenceable(24) %136, i64 noundef %138) #3
  %140 = load i32, ptr %139, align 4, !tbaa !8
  %141 = sext i32 %140 to i64
  %142 = call noundef nonnull align 8 dereferenceable(24) ptr @_ZNSt6vectorIS_IjSaIjEESaIS1_EEixEm(ptr noundef nonnull align 8 dereferenceable(24) %135, i64 noundef %141) #3
  %143 = call noundef nonnull align 4 dereferenceable(4) ptr @_ZNSt6vectorIjSaIjEEixEm(ptr noundef nonnull align 8 dereferenceable(24) %142, i64 noundef 0) #3
  store i32 %134, ptr %143, align 4, !tbaa !8
  br label %144

144:                                              ; preds = %133
  %145 = load i32, ptr %22, align 4, !tbaa !8
  %146 = add i32 %145, 1
  store i32 %146, ptr %22, align 4, !tbaa !8
  br label %115, !llvm.loop !84

147:                                              ; preds = %121
  call void @_ZNSt6vectorIjSaIjEED2Ev(ptr noundef nonnull align 8 dereferenceable(24) %21) #3
  call void @llvm.lifetime.end.p0(i64 24, ptr %21) #3
  br label %173

148:                                              ; preds = %105
  call void @llvm.lifetime.start.p0(i64 4, ptr %23) #3
  store i32 0, ptr %23, align 4, !tbaa !8
  br label %149

149:                                              ; preds = %169, %148
  %150 = load i32, ptr %23, align 4, !tbaa !8
  %151 = zext i32 %150 to i64
  %152 = getelementptr inbounds nuw %"class.Transduction::Transduction", ptr %30, i32 0, i32 8
  %153 = call noundef i64 @_ZNKSt6vectorIiSaIiEE4sizeEv(ptr noundef nonnull align 8 dereferenceable(24) %152) #3
  %154 = icmp ult i64 %151, %153
  br i1 %154, label %156, label %155

155:                                              ; preds = %149
  call void @llvm.lifetime.end.p0(i64 4, ptr %23) #3
  br label %172

156:                                              ; preds = %149
  %157 = getelementptr inbounds nuw %"class.Transduction::Transduction", ptr %30, i32 0, i32 17
  %158 = getelementptr inbounds nuw %"class.Transduction::Transduction", ptr %30, i32 0, i32 8
  %159 = load i32, ptr %23, align 4, !tbaa !8
  %160 = zext i32 %159 to i64
  %161 = call noundef nonnull align 4 dereferenceable(4) ptr @_ZNSt6vectorIiSaIiEEixEm(ptr noundef nonnull align 8 dereferenceable(24) %158, i64 noundef %160) #3
  %162 = load i32, ptr %161, align 4, !tbaa !8
  %163 = sext i32 %162 to i64
  %164 = call noundef nonnull align 8 dereferenceable(24) ptr @_ZNSt6vectorIS_IjSaIjEESaIS1_EEixEm(ptr noundef nonnull align 8 dereferenceable(24) %157, i64 noundef %163) #3
  %165 = call noundef nonnull align 4 dereferenceable(4) ptr @_ZNSt6vectorIjSaIjEEixEm(ptr noundef nonnull align 8 dereferenceable(24) %164, i64 noundef 0) #3
  %166 = getelementptr inbounds nuw %"class.Transduction::ManUtil", ptr %30, i32 0, i32 0
  %167 = load ptr, ptr %166, align 8, !tbaa !80
  %168 = call noundef i32 @_ZNK6NewBdd3Man6Const0Ev(ptr noundef nonnull align 8 dereferenceable(384) %167)
  call void @_ZNK12Transduction7ManUtilIN6NewBdd3ManEjLj4294967295EE6UpdateERjj(ptr noundef nonnull align 8 dereferenceable(8) %30, ptr noundef nonnull align 4 dereferenceable(4) %165, i32 noundef %168)
  br label %169

169:                                              ; preds = %156
  %170 = load i32, ptr %23, align 4, !tbaa !8
  %171 = add i32 %170, 1
  store i32 %171, ptr %23, align 4, !tbaa !8
  br label %149, !llvm.loop !85

172:                                              ; preds = %155
  br label %173

173:                                              ; preds = %172, %147
  call void @_ZN12Transduction12TransductionIN6NewBdd3ManENS1_5ParamEjLj4294967295EE18RemoveConstOutputsEv(ptr noundef nonnull align 8 dereferenceable(456) %30)
  %174 = getelementptr inbounds nuw %"class.Transduction::Transduction", ptr %30, i32 0, i32 21
  %175 = getelementptr inbounds nuw %"class.Transduction::Transduction", ptr %30, i32 0, i32 8
  %176 = call noundef i64 @_ZNKSt6vectorIiSaIiEE4sizeEv(ptr noundef nonnull align 8 dereferenceable(24) %175) #3
  call void @llvm.lifetime.start.p0(i64 4, ptr %24) #3
  store i32 -1, ptr %24, align 4, !tbaa !8
  call void @_ZNSt6vectorIjSaIjEE6resizeEmRKj(ptr noundef nonnull align 8 dereferenceable(24) %174, i64 noundef %176, ptr noundef nonnull align 4 dereferenceable(4) %24)
  call void @llvm.lifetime.end.p0(i64 4, ptr %24) #3
  call void @llvm.lifetime.start.p0(i64 4, ptr %25) #3
  store i32 0, ptr %25, align 4, !tbaa !8
  br label %177

177:                                              ; preds = %195, %173
  %178 = load i32, ptr %25, align 4, !tbaa !8
  %179 = zext i32 %178 to i64
  %180 = getelementptr inbounds nuw %"class.Transduction::Transduction", ptr %30, i32 0, i32 8
  %181 = call noundef i64 @_ZNKSt6vectorIiSaIiEE4sizeEv(ptr noundef nonnull align 8 dereferenceable(24) %180) #3
  %182 = icmp ult i64 %179, %181
  br i1 %182, label %184, label %183

183:                                              ; preds = %177
  call void @llvm.lifetime.end.p0(i64 4, ptr %25) #3
  br label %198

184:                                              ; preds = %177
  %185 = getelementptr inbounds nuw %"class.Transduction::Transduction", ptr %30, i32 0, i32 21
  %186 = load i32, ptr %25, align 4, !tbaa !8
  %187 = zext i32 %186 to i64
  %188 = call noundef nonnull align 4 dereferenceable(4) ptr @_ZNSt6vectorIjSaIjEEixEm(ptr noundef nonnull align 8 dereferenceable(24) %185, i64 noundef %187) #3
  %189 = getelementptr inbounds nuw %"class.Transduction::Transduction", ptr %30, i32 0, i32 8
  %190 = load i32, ptr %25, align 4, !tbaa !8
  %191 = zext i32 %190 to i64
  %192 = call noundef nonnull align 4 dereferenceable(4) ptr @_ZNSt6vectorIiSaIiEEixEm(ptr noundef nonnull align 8 dereferenceable(24) %189, i64 noundef %191) #3
  %193 = load i32, ptr %192, align 4, !tbaa !8
  %194 = call noundef i32 @_ZNK12Transduction12TransductionIN6NewBdd3ManENS1_5ParamEjLj4294967295EE5LitFiEii(ptr noundef nonnull align 8 dereferenceable(456) %30, i32 noundef %193, i32 noundef 0)
  call void @_ZNK12Transduction7ManUtilIN6NewBdd3ManEjLj4294967295EE6UpdateERjj(ptr noundef nonnull align 8 dereferenceable(8) %30, ptr noundef nonnull align 4 dereferenceable(4) %188, i32 noundef %194)
  br label %195

195:                                              ; preds = %184
  %196 = load i32, ptr %25, align 4, !tbaa !8
  %197 = add i32 %196, 1
  store i32 %197, ptr %25, align 4, !tbaa !8
  br label %177, !llvm.loop !86

198:                                              ; preds = %183
  %199 = getelementptr inbounds nuw %"class.Transduction::Transduction", ptr %30, i32 0, i32 6
  store i32 0, ptr %199, align 4, !tbaa !87
  %200 = load i32, ptr %15, align 4, !tbaa !8
  %201 = icmp ne i32 %200, 0
  br i1 %201, label %202, label %204

202:                                              ; preds = %198
  %203 = load i32, ptr %15, align 4, !tbaa !8
  call void @_ZN12Transduction12TransductionIN6NewBdd3ManENS1_5ParamEjLj4294967295EE10ShufflePisEi(ptr noundef nonnull align 8 dereferenceable(456) %30, i32 noundef %203)
  br label %204

204:                                              ; preds = %202, %198
  %205 = load i8, ptr %16, align 1, !tbaa !10, !range !12, !noundef !13
  %206 = trunc i8 %205 to i1
  br i1 %206, label %207, label %208

207:                                              ; preds = %204
  call void @_ZN12Transduction12TransductionIN6NewBdd3ManENS1_5ParamEjLj4294967295EE12ComputeLevelEv(ptr noundef nonnull align 8 dereferenceable(456) %30)
  br label %208

208:                                              ; preds = %207, %204
  %209 = load i32, ptr %12, align 4, !tbaa !8
  %210 = icmp ne i32 %209, 0
  br i1 %210, label %211, label %212

211:                                              ; preds = %208
  call void @llvm.lifetime.start.p0(i64 1, ptr %27) #3
  call void @_ZNSaIcEC2Ev(ptr noundef nonnull align 1 dereferenceable(1) %27) #3
  call void @_ZNSt7__cxx1112basic_stringIcSt11char_traitsIcESaIcEEC2IS3_EEPKcRKS3_(ptr noundef nonnull align 8 dereferenceable(32) %26, ptr noundef @.str.1, ptr noundef nonnull align 1 dereferenceable(1) %27)
  call void @_ZNK12Transduction12TransductionIN6NewBdd3ManENS1_5ParamEjLj4294967295EE10PrintStatsENSt7__cxx1112basic_stringIcSt11char_traitsIcESaIcEEEbi(ptr noundef nonnull align 8 dereferenceable(456) %30, ptr noundef %26, i1 noundef zeroext true, i32 noundef 11)
  call void @_ZNSt7__cxx1112basic_stringIcSt11char_traitsIcESaIcEED2Ev(ptr noundef nonnull align 8 dereferenceable(32) %26) #3
  call void @_ZNSt15__new_allocatorIcED2Ev(ptr noundef nonnull align 1 dereferenceable(1) %27) #3
  call void @llvm.lifetime.end.p0(i64 1, ptr %27) #3
  br label %212

212:                                              ; preds = %211, %208
  ret void
}

; Function Attrs: inlinehint mustprogress nounwind uwtable
define linkonce_odr noundef i32 @_ZNK12Transduction12TransductionIN6NewBdd3ManENS1_5ParamEjLj4294967295EE10CountWiresEv(ptr noundef nonnull align 8 dereferenceable(456) %0) #6 comdat align 2 {
  %2 = alloca ptr, align 8
  %3 = alloca i32, align 4
  %4 = alloca %"struct.std::_List_const_iterator", align 8
  %5 = alloca %"struct.std::_List_const_iterator", align 8
  %6 = alloca %"struct.std::_List_const_iterator", align 8
  store ptr %0, ptr %2, align 8, !tbaa !33
  %7 = load ptr, ptr %2, align 8
  call void @llvm.lifetime.start.p0(i64 4, ptr %3) #3
  store i32 0, ptr %3, align 4, !tbaa !8
  call void @llvm.lifetime.start.p0(i64 8, ptr %4) #3
  %8 = getelementptr inbounds nuw %"class.Transduction::Transduction", ptr %7, i32 0, i32 9
  %9 = call ptr @_ZNKSt7__cxx114listIiSaIiEE5beginEv(ptr noundef nonnull align 8 dereferenceable(24) %8) #3
  %10 = getelementptr inbounds nuw %"struct.std::_List_const_iterator", ptr %4, i32 0, i32 0
  store ptr %9, ptr %10, align 8
  br label %11

11:                                               ; preds = %28, %1
  call void @llvm.lifetime.start.p0(i64 8, ptr %5) #3
  %12 = getelementptr inbounds nuw %"class.Transduction::Transduction", ptr %7, i32 0, i32 9
  %13 = call ptr @_ZNKSt7__cxx114listIiSaIiEE3endEv(ptr noundef nonnull align 8 dereferenceable(24) %12) #3
  %14 = getelementptr inbounds nuw %"struct.std::_List_const_iterator", ptr %5, i32 0, i32 0
  store ptr %13, ptr %14, align 8
  %15 = call noundef zeroext i1 @_ZStneRKSt20_List_const_iteratorIiES2_(ptr noundef nonnull align 8 dereferenceable(8) %4, ptr noundef nonnull align 8 dereferenceable(8) %5) #3
  call void @llvm.lifetime.end.p0(i64 8, ptr %5) #3
  br i1 %15, label %17, label %16

16:                                               ; preds = %11
  call void @llvm.lifetime.end.p0(i64 8, ptr %4) #3
  br label %31

17:                                               ; preds = %11
  %18 = getelementptr inbounds nuw %"class.Transduction::Transduction", ptr %7, i32 0, i32 10
  %19 = call noundef nonnull align 4 dereferenceable(4) ptr @_ZNKSt20_List_const_iteratorIiEdeEv(ptr noundef nonnull align 8 dereferenceable(8) %4) #3
  %20 = load i32, ptr %19, align 4, !tbaa !8
  %21 = sext i32 %20 to i64
  %22 = call noundef nonnull align 8 dereferenceable(24) ptr @_ZNKSt6vectorIS_IiSaIiEESaIS1_EEixEm(ptr noundef nonnull align 8 dereferenceable(24) %18, i64 noundef %21) #3
  %23 = call noundef i64 @_ZNKSt6vectorIiSaIiEE4sizeEv(ptr noundef nonnull align 8 dereferenceable(24) %22) #3
  %24 = load i32, ptr %3, align 4, !tbaa !8
  %25 = sext i32 %24 to i64
  %26 = add i64 %25, %23
  %27 = trunc i64 %26 to i32
  store i32 %27, ptr %3, align 4, !tbaa !8
  br label %28

28:                                               ; preds = %17
  %29 = call ptr @_ZNSt20_List_const_iteratorIiEppEi(ptr noundef nonnull align 8 dereferenceable(8) %4, i32 noundef 0) #3
  %30 = getelementptr inbounds nuw %"struct.std::_List_const_iterator", ptr %6, i32 0, i32 0
  store ptr %29, ptr %30, align 8
  br label %11, !llvm.loop !88

31:                                               ; preds = %16
  %32 = load i32, ptr %3, align 4, !tbaa !8
  call void @llvm.lifetime.end.p0(i64 4, ptr %3) #3
  ret i32 %32
}

; Function Attrs: mustprogress nounwind uwtable
define linkonce_odr noundef i32 @_ZN12Transduction12TransductionIN6NewBdd3ManENS1_5ParamEjLj4294967295EE4MspfEv(ptr noundef nonnull align 8 dereferenceable(456) %0) #4 comdat align 2 {
  %2 = alloca ptr, align 8
  store ptr %0, ptr %2, align 8, !tbaa !33
  %3 = load ptr, ptr %2, align 8
  %4 = call noundef i32 @_ZN12Transduction12TransductionIN6NewBdd3ManENS1_5ParamEjLj4294967295EE4MspfEbii(ptr noundef nonnull align 8 dereferenceable(456) %3, i1 noundef zeroext true, i32 noundef -1, i32 noundef -1)
  ret i32 %4
}

; Function Attrs: mustprogress nounwind uwtable
define linkonce_odr noundef i32 @_ZN12Transduction12TransductionIN6NewBdd3ManENS1_5ParamEjLj4294967295EE4CspfEv(ptr noundef nonnull align 8 dereferenceable(456) %0) #4 comdat align 2 {
  %2 = alloca ptr, align 8
  store ptr %0, ptr %2, align 8, !tbaa !33
  %3 = load ptr, ptr %2, align 8
  %4 = call noundef i32 @_ZN12Transduction12TransductionIN6NewBdd3ManENS1_5ParamEjLj4294967295EE4CspfEbii(ptr noundef nonnull align 8 dereferenceable(456) %3, i1 noundef zeroext true, i32 noundef -1, i32 noundef -1)
  ret i32 %4
}

; Function Attrs: mustprogress nounwind uwtable
define linkonce_odr noundef i32 @_ZN12Transduction12TransductionIN6NewBdd3ManENS1_5ParamEjLj4294967295EE5ResubEb(ptr noundef nonnull align 8 dereferenceable(456) %0, i1 noundef zeroext %1) #4 comdat align 2 {
  %3 = alloca ptr, align 8
  %4 = alloca i8, align 1
  %5 = alloca i32, align 4
  %6 = alloca i32, align 4
  %7 = alloca %"class.Transduction::TransductionBackup", align 8
  %8 = alloca i32, align 4
  %9 = alloca %"class.std::__cxx11::list", align 8
  %10 = alloca %"class.std::reverse_iterator", align 8
  %11 = alloca %"class.std::reverse_iterator", align 8
  %12 = alloca i32, align 4
  %13 = alloca %"class.std::__cxx11::basic_stringstream", align 8
  %14 = alloca %"struct.std::_Setw", align 4
  %15 = alloca %"struct.std::_Setw", align 4
  %16 = alloca %"class.std::reverse_iterator", align 8
  %17 = alloca %"class.std::reverse_iterator", align 8
  %18 = alloca %"struct.std::_Setw", align 4
  %19 = alloca %"class.std::__cxx11::basic_string", align 8
  %20 = alloca %"class.std::vector.18", align 8
  %21 = alloca i32, align 4
  %22 = alloca i8, align 1
  %23 = alloca %"class.std::vector.18", align 8
  %24 = alloca %"class.std::allocator.45", align 1
  %25 = alloca %"class.std::__cxx11::list", align 8
  %26 = alloca %"struct.std::_List_iterator", align 8
  %27 = alloca %"struct.std::_List_iterator", align 8
  %28 = alloca %"struct.std::_Bit_reference", align 8
  %29 = alloca %"struct.std::_List_iterator", align 8
  %30 = alloca %"struct.std::_Bit_reference", align 8
  %31 = alloca %"struct.std::_Bit_reference", align 8
  %32 = alloca %"struct.std::_List_iterator", align 8
  %33 = alloca %"struct.std::_List_iterator", align 8
  %34 = alloca %"struct.std::_List_iterator", align 8
  %35 = alloca i32, align 4
  %36 = alloca %"class.std::reverse_iterator", align 8
  %37 = alloca %"class.std::__cxx11::basic_string", align 8
  %38 = alloca %"class.std::allocator.34", align 1
  store ptr %0, ptr %3, align 8, !tbaa !33
  %39 = zext i1 %1 to i8
  store i8 %39, ptr %4, align 1, !tbaa !10
  %40 = load ptr, ptr %3, align 8
  call void @llvm.lifetime.start.p0(i64 4, ptr %5) #3
  %41 = load i8, ptr %4, align 1, !tbaa !10, !range !12, !noundef !13
  %42 = trunc i8 %41 to i1
  br i1 %42, label %43, label %45

43:                                               ; preds = %2
  %44 = call noundef i32 @_ZN12Transduction12TransductionIN6NewBdd3ManENS1_5ParamEjLj4294967295EE4MspfEbii(ptr noundef nonnull align 8 dereferenceable(456) %40, i1 noundef zeroext true, i32 noundef -1, i32 noundef -1)
  br label %47

45:                                               ; preds = %2
  %46 = call noundef i32 @_ZN12Transduction12TransductionIN6NewBdd3ManENS1_5ParamEjLj4294967295EE4CspfEbii(ptr noundef nonnull align 8 dereferenceable(456) %40, i1 noundef zeroext true, i32 noundef -1, i32 noundef -1)
  br label %47

47:                                               ; preds = %45, %43
  %48 = phi i32 [ %44, %43 ], [ %46, %45 ]
  store i32 %48, ptr %5, align 4, !tbaa !8
  call void @llvm.lifetime.start.p0(i64 4, ptr %6) #3
  %49 = call noundef i32 @_ZNK12Transduction12TransductionIN6NewBdd3ManENS1_5ParamEjLj4294967295EE10CountNodesEv(ptr noundef nonnull align 8 dereferenceable(456) %40)
  store i32 %49, ptr %6, align 4, !tbaa !8
  call void @llvm.lifetime.start.p0(i64 352, ptr %7) #3
  call void @_ZN12Transduction18TransductionBackupIN6NewBdd3ManEjLj4294967295EEC2Ev(ptr noundef nonnull align 8 dereferenceable(352) %7) #3
  call void @_ZNK12Transduction12TransductionIN6NewBdd3ManENS1_5ParamEjLj4294967295EE4SaveERNS_18TransductionBackupIS2_jLj4294967295EEE(ptr noundef nonnull align 8 dereferenceable(456) %40, ptr noundef nonnull align 8 dereferenceable(352) %7)
  call void @llvm.lifetime.start.p0(i64 4, ptr %8) #3
  %50 = load i32, ptr %5, align 4, !tbaa !8
  store i32 %50, ptr %8, align 4, !tbaa !8
  call void @llvm.lifetime.start.p0(i64 24, ptr %9) #3
  %51 = getelementptr inbounds nuw %"class.Transduction::Transduction", ptr %40, i32 0, i32 9
  call void @_ZNSt7__cxx114listIiSaIiEEC2ERKS2_(ptr noundef nonnull align 8 dereferenceable(24) %9, ptr noundef nonnull align 8 dereferenceable(24) %51)
  call void @llvm.lifetime.start.p0(i64 8, ptr %10) #3
  call void @_ZNSt7__cxx114listIiSaIiEE6rbeginEv(ptr dead_on_unwind writable sret(%"class.std::reverse_iterator") align 8 %10, ptr noundef nonnull align 8 dereferenceable(24) %9) #3
  br label %52

52:                                               ; preds = %395, %47
  call void @llvm.lifetime.start.p0(i64 8, ptr %11) #3
  call void @_ZNSt7__cxx114listIiSaIiEE4rendEv(ptr dead_on_unwind writable sret(%"class.std::reverse_iterator") align 8 %11, ptr noundef nonnull align 8 dereferenceable(24) %9) #3
  %53 = call noundef zeroext i1 @_ZStneISt14_List_iteratorIiEEbRKSt16reverse_iteratorIT_ES6_(ptr noundef nonnull align 8 dereferenceable(8) %10, ptr noundef nonnull align 8 dereferenceable(8) %11)
  call void @llvm.lifetime.end.p0(i64 8, ptr %11) #3
  br i1 %53, label %55, label %54

54:                                               ; preds = %52
  store i32 2, ptr %12, align 4
  call void @llvm.lifetime.end.p0(i64 8, ptr %10) #3
  br label %396

55:                                               ; preds = %52
  %56 = getelementptr inbounds nuw %"class.Transduction::Transduction", ptr %40, i32 0, i32 1
  %57 = load i32, ptr %56, align 8, !tbaa !35
  %58 = icmp sgt i32 %57, 1
  br i1 %58, label %59, label %91

59:                                               ; preds = %55
  call void @llvm.lifetime.start.p0(i64 392, ptr %13) #3
  call void @_ZNSt7__cxx1118basic_stringstreamIcSt11char_traitsIcESaIcEEC1Ev(ptr noundef nonnull align 8 dereferenceable(128) %13)
  %60 = getelementptr inbounds i8, ptr %13, i64 16
  %61 = call noundef nonnull align 8 dereferenceable(8) ptr @_ZStlsISt11char_traitsIcEERSt13basic_ostreamIcT_ES5_PKc(ptr noundef nonnull align 8 dereferenceable(8) %60, ptr noundef @.str.104)
  %62 = call i32 @_ZSt4setwi(i32 noundef 5)
  %63 = getelementptr inbounds nuw %"struct.std::_Setw", ptr %14, i32 0, i32 0
  store i32 %62, ptr %63, align 4
  %64 = getelementptr inbounds nuw %"struct.std::_Setw", ptr %14, i32 0, i32 0
  %65 = load i32, ptr %64, align 4
  %66 = call noundef nonnull align 8 dereferenceable(8) ptr @_ZStlsIcSt11char_traitsIcEERSt13basic_ostreamIT_T0_ES6_St5_Setw(ptr noundef nonnull align 8 dereferenceable(8) %61, i32 %65)
  %67 = call noundef nonnull align 4 dereferenceable(4) ptr @_ZNKSt16reverse_iteratorISt14_List_iteratorIiEEdeEv(ptr noundef nonnull align 8 dereferenceable(8) %10)
  %68 = load i32, ptr %67, align 4, !tbaa !8
  %69 = call noundef nonnull align 8 dereferenceable(8) ptr @_ZNSolsEi(ptr noundef nonnull align 8 dereferenceable(8) %66, i32 noundef %68)
  %70 = call noundef nonnull align 8 dereferenceable(8) ptr @_ZStlsISt11char_traitsIcEERSt13basic_ostreamIcT_ES5_PKc(ptr noundef nonnull align 8 dereferenceable(8) %69, ptr noundef @.str.87)
  %71 = call i32 @_ZSt4setwi(i32 noundef 5)
  %72 = getelementptr inbounds nuw %"struct.std::_Setw", ptr %15, i32 0, i32 0
  store i32 %71, ptr %72, align 4
  %73 = getelementptr inbounds nuw %"struct.std::_Setw", ptr %15, i32 0, i32 0
  %74 = load i32, ptr %73, align 4
  %75 = call noundef nonnull align 8 dereferenceable(8) ptr @_ZStlsIcSt11char_traitsIcEERSt13basic_ostreamIT_T0_ES6_St5_Setw(ptr noundef nonnull align 8 dereferenceable(8) %70, i32 %74)
  call void @_ZNSt7__cxx114listIiSaIiEE6rbeginEv(ptr dead_on_unwind writable sret(%"class.std::reverse_iterator") align 8 %16, ptr noundef nonnull align 8 dereferenceable(24) %9) #3
  call void @_ZNSt16reverse_iteratorISt14_List_iteratorIiEEC2ERKS2_(ptr noundef nonnull align 8 dereferenceable(8) %17, ptr noundef nonnull align 8 dereferenceable(8) %10) #3
  %76 = call noundef i64 @_ZSt8distanceISt16reverse_iteratorISt14_List_iteratorIiEEENSt15iterator_traitsIT_E15difference_typeES5_S5_(ptr noundef %16, ptr noundef %17)
  %77 = add nsw i64 %76, 1
  %78 = call noundef nonnull align 8 dereferenceable(8) ptr @_ZNSolsEl(ptr noundef nonnull align 8 dereferenceable(8) %75, i64 noundef %77)
  %79 = call noundef nonnull align 8 dereferenceable(8) ptr @_ZStlsISt11char_traitsIcEERSt13basic_ostreamIcT_ES5_PKc(ptr noundef nonnull align 8 dereferenceable(8) %78, ptr noundef @.str.88)
  %80 = call i32 @_ZSt4setwi(i32 noundef 5)
  %81 = getelementptr inbounds nuw %"struct.std::_Setw", ptr %18, i32 0, i32 0
  store i32 %80, ptr %81, align 4
  %82 = getelementptr inbounds nuw %"struct.std::_Setw", ptr %18, i32 0, i32 0
  %83 = load i32, ptr %82, align 4
  %84 = call noundef nonnull align 8 dereferenceable(8) ptr @_ZStlsIcSt11char_traitsIcEERSt13basic_ostreamIT_T0_ES6_St5_Setw(ptr noundef nonnull align 8 dereferenceable(8) %79, i32 %83)
  %85 = call noundef i64 @_ZNKSt7__cxx114listIiSaIiEE4sizeEv(ptr noundef nonnull align 8 dereferenceable(24) %9) #3
  %86 = call noundef nonnull align 8 dereferenceable(8) ptr @_ZNSolsEm(ptr noundef nonnull align 8 dereferenceable(8) %84, i64 noundef %85)
  %87 = call noundef nonnull align 8 dereferenceable(8) ptr @_ZStlsISt11char_traitsIcEERSt13basic_ostreamIcT_ES5_PKc(ptr noundef nonnull align 8 dereferenceable(8) %86, ptr noundef @.str.37)
  call void @_ZNKSt7__cxx1118basic_stringstreamIcSt11char_traitsIcESaIcEE3strEv(ptr dead_on_unwind writable sret(%"class.std::__cxx11::basic_string") align 8 %19, ptr noundef nonnull align 8 dereferenceable(128) %13)
  %88 = getelementptr inbounds nuw %"class.Transduction::Transduction", ptr %40, i32 0, i32 1
  %89 = load i32, ptr %88, align 8, !tbaa !35
  %90 = icmp sgt i32 %89, 2
  call void @_ZNK12Transduction12TransductionIN6NewBdd3ManENS1_5ParamEjLj4294967295EE10PrintStatsENSt7__cxx1112basic_stringIcSt11char_traitsIcESaIcEEEbi(ptr noundef nonnull align 8 dereferenceable(456) %40, ptr noundef %19, i1 noundef zeroext %90, i32 noundef 0)
  call void @_ZNSt7__cxx1112basic_stringIcSt11char_traitsIcESaIcEED2Ev(ptr noundef nonnull align 8 dereferenceable(32) %19) #3
  call void @_ZNSt7__cxx1118basic_stringstreamIcSt11char_traitsIcESaIcEED1Ev(ptr noundef nonnull align 8 dereferenceable(128) %13) #3
  call void @llvm.lifetime.end.p0(i64 392, ptr %13) #3
  br label %91

91:                                               ; preds = %59, %55
  %92 = getelementptr inbounds nuw %"class.Transduction::Transduction", ptr %40, i32 0, i32 11
  %93 = call noundef nonnull align 4 dereferenceable(4) ptr @_ZNKSt16reverse_iteratorISt14_List_iteratorIiEEdeEv(ptr noundef nonnull align 8 dereferenceable(8) %10)
  %94 = load i32, ptr %93, align 4, !tbaa !8
  %95 = sext i32 %94 to i64
  %96 = call noundef nonnull align 8 dereferenceable(24) ptr @_ZNSt6vectorIS_IiSaIiEESaIS1_EEixEm(ptr noundef nonnull align 8 dereferenceable(24) %92, i64 noundef %95) #3
  %97 = call noundef zeroext i1 @_ZNKSt6vectorIiSaIiEE5emptyEv(ptr noundef nonnull align 8 dereferenceable(24) %96) #3
  br i1 %97, label %98, label %99

98:                                               ; preds = %91
  br label %395

99:                                               ; preds = %91
  %100 = call noundef nonnull align 4 dereferenceable(4) ptr @_ZNKSt16reverse_iteratorISt14_List_iteratorIiEEdeEv(ptr noundef nonnull align 8 dereferenceable(8) %10)
  %101 = load i32, ptr %100, align 4, !tbaa !8
  %102 = call noundef i32 @_ZN12Transduction12TransductionIN6NewBdd3ManENS1_5ParamEjLj4294967295EE15TrivialMergeOneEi(ptr noundef nonnull align 8 dereferenceable(456) %40, i32 noundef %101)
  %103 = load i32, ptr %5, align 4, !tbaa !8
  %104 = add nsw i32 %103, %102
  store i32 %104, ptr %5, align 4, !tbaa !8
  call void @llvm.lifetime.start.p0(i64 40, ptr %20) #3
  call void @_ZNSt6vectorIbSaIbEEC2Ev(ptr noundef nonnull align 8 dereferenceable(40) %20) #3
  %105 = getelementptr inbounds nuw %"class.Transduction::Transduction", ptr %40, i32 0, i32 3
  %106 = load i8, ptr %105, align 8, !tbaa !74, !range !12, !noundef !13
  %107 = trunc i8 %106 to i1
  br i1 %107, label %108, label %172

108:                                              ; preds = %99
  call void @llvm.lifetime.start.p0(i64 4, ptr %21) #3
  store i32 0, ptr %21, align 4, !tbaa !8
  br label %109

109:                                              ; preds = %135, %108
  %110 = load i32, ptr %21, align 4, !tbaa !8
  %111 = zext i32 %110 to i64
  %112 = getelementptr inbounds nuw %"class.Transduction::Transduction", ptr %40, i32 0, i32 10
  %113 = call noundef nonnull align 4 dereferenceable(4) ptr @_ZNKSt16reverse_iteratorISt14_List_iteratorIiEEdeEv(ptr noundef nonnull align 8 dereferenceable(8) %10)
  %114 = load i32, ptr %113, align 4, !tbaa !8
  %115 = sext i32 %114 to i64
  %116 = call noundef nonnull align 8 dereferenceable(24) ptr @_ZNSt6vectorIS_IiSaIiEESaIS1_EEixEm(ptr noundef nonnull align 8 dereferenceable(24) %112, i64 noundef %115) #3
  %117 = call noundef i64 @_ZNKSt6vectorIiSaIiEE4sizeEv(ptr noundef nonnull align 8 dereferenceable(24) %116) #3
  %118 = icmp ult i64 %111, %117
  br i1 %118, label %120, label %119

119:                                              ; preds = %109
  store i32 5, ptr %12, align 4
  call void @llvm.lifetime.end.p0(i64 4, ptr %21) #3
  br label %138

120:                                              ; preds = %109
  %121 = getelementptr inbounds nuw %"class.Transduction::Transduction", ptr %40, i32 0, i32 12
  %122 = getelementptr inbounds nuw %"class.Transduction::Transduction", ptr %40, i32 0, i32 10
  %123 = call noundef nonnull align 4 dereferenceable(4) ptr @_ZNKSt16reverse_iteratorISt14_List_iteratorIiEEdeEv(ptr noundef nonnull align 8 dereferenceable(8) %10)
  %124 = load i32, ptr %123, align 4, !tbaa !8
  %125 = sext i32 %124 to i64
  %126 = call noundef nonnull align 8 dereferenceable(24) ptr @_ZNSt6vectorIS_IiSaIiEESaIS1_EEixEm(ptr noundef nonnull align 8 dereferenceable(24) %122, i64 noundef %125) #3
  %127 = load i32, ptr %21, align 4, !tbaa !8
  %128 = zext i32 %127 to i64
  %129 = call noundef nonnull align 4 dereferenceable(4) ptr @_ZNSt6vectorIiSaIiEEixEm(ptr noundef nonnull align 8 dereferenceable(24) %126, i64 noundef %128) #3
  %130 = load i32, ptr %129, align 4, !tbaa !8
  %131 = ashr i32 %130, 1
  %132 = sext i32 %131 to i64
  %133 = call noundef nonnull align 4 dereferenceable(4) ptr @_ZNSt6vectorIiSaIiEEixEm(ptr noundef nonnull align 8 dereferenceable(24) %121, i64 noundef %132) #3
  %134 = load i32, ptr %133, align 4, !tbaa !8
  call void @_ZN12Transduction12TransductionIN6NewBdd3ManENS1_5ParamEjLj4294967295EE3addERSt6vectorIbSaIbEEj(ptr noundef nonnull align 8 dereferenceable(456) %40, ptr noundef nonnull align 8 dereferenceable(40) %20, i32 noundef %134)
  br label %135

135:                                              ; preds = %120
  %136 = load i32, ptr %21, align 4, !tbaa !8
  %137 = add i32 %136, 1
  store i32 %137, ptr %21, align 4, !tbaa !8
  br label %109, !llvm.loop !89

138:                                              ; preds = %119
  %139 = call noundef i64 @_ZNKSt6vectorIbSaIbEE4sizeEv(ptr noundef nonnull align 8 dereferenceable(40) %20) #3
  %140 = trunc i64 %139 to i32
  %141 = getelementptr inbounds nuw %"class.Transduction::Transduction", ptr %40, i32 0, i32 12
  %142 = call noundef nonnull align 4 dereferenceable(4) ptr @_ZNKSt16reverse_iteratorISt14_List_iteratorIiEEdeEv(ptr noundef nonnull align 8 dereferenceable(8) %10)
  %143 = load i32, ptr %142, align 4, !tbaa !8
  %144 = sext i32 %143 to i64
  %145 = call noundef nonnull align 4 dereferenceable(4) ptr @_ZNSt6vectorIiSaIiEEixEm(ptr noundef nonnull align 8 dereferenceable(24) %141, i64 noundef %144) #3
  %146 = load i32, ptr %145, align 4, !tbaa !8
  %147 = getelementptr inbounds nuw %"class.Transduction::Transduction", ptr %40, i32 0, i32 13
  %148 = call noundef nonnull align 4 dereferenceable(4) ptr @_ZNKSt16reverse_iteratorISt14_List_iteratorIiEEdeEv(ptr noundef nonnull align 8 dereferenceable(8) %10)
  %149 = load i32, ptr %148, align 4, !tbaa !8
  %150 = sext i32 %149 to i64
  %151 = call noundef nonnull align 4 dereferenceable(4) ptr @_ZNSt6vectorIiSaIiEEixEm(ptr noundef nonnull align 8 dereferenceable(24) %147, i64 noundef %150) #3
  %152 = load i32, ptr %151, align 4, !tbaa !8
  %153 = add nsw i32 %146, %152
  %154 = icmp sgt i32 %140, %153
  br i1 %154, label %155, label %157

155:                                              ; preds = %138
  call void @_ZN12Transduction12TransductionIN6NewBdd3ManENS1_5ParamEjLj4294967295EE4LoadERKNS_18TransductionBackupIS2_jLj4294967295EEE(ptr noundef nonnull align 8 dereferenceable(456) %40, ptr noundef nonnull align 8 dereferenceable(352) %7)
  %156 = load i32, ptr %8, align 4, !tbaa !8
  store i32 %156, ptr %5, align 4, !tbaa !8
  store i32 4, ptr %12, align 4
  br label %392

157:                                              ; preds = %138
  %158 = getelementptr inbounds nuw %"class.Transduction::Transduction", ptr %40, i32 0, i32 12
  %159 = call noundef nonnull align 4 dereferenceable(4) ptr @_ZNKSt16reverse_iteratorISt14_List_iteratorIiEEdeEv(ptr noundef nonnull align 8 dereferenceable(8) %10)
  %160 = load i32, ptr %159, align 4, !tbaa !8
  %161 = sext i32 %160 to i64
  %162 = call noundef nonnull align 4 dereferenceable(4) ptr @_ZNSt6vectorIiSaIiEEixEm(ptr noundef nonnull align 8 dereferenceable(24) %158, i64 noundef %161) #3
  %163 = load i32, ptr %162, align 4, !tbaa !8
  %164 = getelementptr inbounds nuw %"class.Transduction::Transduction", ptr %40, i32 0, i32 13
  %165 = call noundef nonnull align 4 dereferenceable(4) ptr @_ZNKSt16reverse_iteratorISt14_List_iteratorIiEEdeEv(ptr noundef nonnull align 8 dereferenceable(8) %10)
  %166 = load i32, ptr %165, align 4, !tbaa !8
  %167 = sext i32 %166 to i64
  %168 = call noundef nonnull align 4 dereferenceable(4) ptr @_ZNSt6vectorIiSaIiEEixEm(ptr noundef nonnull align 8 dereferenceable(24) %164, i64 noundef %167) #3
  %169 = load i32, ptr %168, align 4, !tbaa !8
  %170 = add nsw i32 %163, %169
  %171 = sext i32 %170 to i64
  call void @_ZNSt6vectorIbSaIbEE6resizeEmb(ptr noundef nonnull align 8 dereferenceable(40) %20, i64 noundef %171, i1 noundef zeroext false)
  br label %172

172:                                              ; preds = %157, %99
  call void @llvm.lifetime.start.p0(i64 1, ptr %22) #3
  store i8 0, ptr %22, align 1, !tbaa !10
  call void @llvm.lifetime.start.p0(i64 40, ptr %23) #3
  %173 = getelementptr inbounds nuw %"class.Transduction::Transduction", ptr %40, i32 0, i32 4
  %174 = load i32, ptr %173, align 4, !tbaa !90
  %175 = sext i32 %174 to i64
  call void @llvm.lifetime.start.p0(i64 1, ptr %24) #3
  call void @_ZNSaIbEC2Ev(ptr noundef nonnull align 1 dereferenceable(1) %24) #3
  call void @_ZNSt6vectorIbSaIbEEC2EmRKS0_(ptr noundef nonnull align 8 dereferenceable(40) %23, i64 noundef %175, ptr noundef nonnull align 1 dereferenceable(1) %24)
  call void @_ZNSt15__new_allocatorIbED2Ev(ptr noundef nonnull align 1 dereferenceable(1) %24) #3
  call void @llvm.lifetime.end.p0(i64 1, ptr %24) #3
  %176 = call noundef nonnull align 4 dereferenceable(4) ptr @_ZNKSt16reverse_iteratorISt14_List_iteratorIiEEdeEv(ptr noundef nonnull align 8 dereferenceable(8) %10)
  %177 = load i32, ptr %176, align 4, !tbaa !8
  call void @_ZNK12Transduction12TransductionIN6NewBdd3ManENS1_5ParamEjLj4294967295EE14MarkFoCone_recERSt6vectorIbSaIbEEi(ptr noundef nonnull align 8 dereferenceable(456) %40, ptr noundef nonnull align 8 dereferenceable(40) %23, i32 noundef %177)
  call void @llvm.lifetime.start.p0(i64 24, ptr %25) #3
  %178 = getelementptr inbounds nuw %"class.Transduction::Transduction", ptr %40, i32 0, i32 9
  call void @_ZNSt7__cxx114listIiSaIiEEC2ERKS2_(ptr noundef nonnull align 8 dereferenceable(24) %25, ptr noundef nonnull align 8 dereferenceable(24) %178)
  call void @llvm.lifetime.start.p0(i64 8, ptr %26) #3
  %179 = call ptr @_ZNSt7__cxx114listIiSaIiEE5beginEv(ptr noundef nonnull align 8 dereferenceable(24) %25) #3
  %180 = getelementptr inbounds nuw %"struct.std::_List_iterator", ptr %26, i32 0, i32 0
  store ptr %179, ptr %180, align 8
  br label %181

181:                                              ; preds = %269, %172
  call void @llvm.lifetime.start.p0(i64 8, ptr %27) #3
  %182 = call ptr @_ZNSt7__cxx114listIiSaIiEE3endEv(ptr noundef nonnull align 8 dereferenceable(24) %25) #3
  %183 = getelementptr inbounds nuw %"struct.std::_List_iterator", ptr %27, i32 0, i32 0
  store ptr %182, ptr %183, align 8
  %184 = call noundef zeroext i1 @_ZStneRKSt14_List_iteratorIiES2_(ptr noundef nonnull align 8 dereferenceable(8) %26, ptr noundef nonnull align 8 dereferenceable(8) %27) #3
  call void @llvm.lifetime.end.p0(i64 8, ptr %27) #3
  br i1 %184, label %186, label %185

185:                                              ; preds = %181
  store i32 8, ptr %12, align 4
  br label %272

186:                                              ; preds = %181
  %187 = getelementptr inbounds nuw %"class.Transduction::Transduction", ptr %40, i32 0, i32 3
  %188 = load i8, ptr %187, align 8, !tbaa !74, !range !12, !noundef !13
  %189 = trunc i8 %188 to i1
  br i1 %189, label %190, label %208

190:                                              ; preds = %186
  %191 = call noundef i64 @_ZNKSt6vectorIbSaIbEE4sizeEv(ptr noundef nonnull align 8 dereferenceable(40) %20) #3
  %192 = trunc i64 %191 to i32
  %193 = getelementptr inbounds nuw %"class.Transduction::Transduction", ptr %40, i32 0, i32 12
  %194 = call noundef nonnull align 4 dereferenceable(4) ptr @_ZNKSt16reverse_iteratorISt14_List_iteratorIiEEdeEv(ptr noundef nonnull align 8 dereferenceable(8) %10)
  %195 = load i32, ptr %194, align 4, !tbaa !8
  %196 = sext i32 %195 to i64
  %197 = call noundef nonnull align 4 dereferenceable(4) ptr @_ZNSt6vectorIiSaIiEEixEm(ptr noundef nonnull align 8 dereferenceable(24) %193, i64 noundef %196) #3
  %198 = load i32, ptr %197, align 4, !tbaa !8
  %199 = getelementptr inbounds nuw %"class.Transduction::Transduction", ptr %40, i32 0, i32 13
  %200 = call noundef nonnull align 4 dereferenceable(4) ptr @_ZNKSt16reverse_iteratorISt14_List_iteratorIiEEdeEv(ptr noundef nonnull align 8 dereferenceable(8) %10)
  %201 = load i32, ptr %200, align 4, !tbaa !8
  %202 = sext i32 %201 to i64
  %203 = call noundef nonnull align 4 dereferenceable(4) ptr @_ZNSt6vectorIiSaIiEEixEm(ptr noundef nonnull align 8 dereferenceable(24) %199, i64 noundef %202) #3
  %204 = load i32, ptr %203, align 4, !tbaa !8
  %205 = add nsw i32 %198, %204
  %206 = icmp sgt i32 %192, %205
  br i1 %206, label %207, label %208

207:                                              ; preds = %190
  store i32 8, ptr %12, align 4
  br label %272

208:                                              ; preds = %190, %186
  call void @llvm.lifetime.start.p0(i64 16, ptr %28) #3
  %209 = call noundef nonnull align 4 dereferenceable(4) ptr @_ZNKSt14_List_iteratorIiEdeEv(ptr noundef nonnull align 8 dereferenceable(8) %26) #3
  %210 = load i32, ptr %209, align 4, !tbaa !8
  %211 = sext i32 %210 to i64
  %212 = call { ptr, i64 } @_ZNSt6vectorIbSaIbEEixEm(ptr noundef nonnull align 8 dereferenceable(40) %23, i64 noundef %211)
  %213 = getelementptr inbounds nuw { ptr, i64 }, ptr %28, i32 0, i32 0
  %214 = extractvalue { ptr, i64 } %212, 0
  store ptr %214, ptr %213, align 8
  %215 = getelementptr inbounds nuw { ptr, i64 }, ptr %28, i32 0, i32 1
  %216 = extractvalue { ptr, i64 } %212, 1
  store i64 %216, ptr %215, align 8
  %217 = call noundef zeroext i1 @_ZNKSt14_Bit_referencecvbEv(ptr noundef nonnull align 8 dereferenceable(16) %28) #3
  br i1 %217, label %226, label %218

218:                                              ; preds = %208
  %219 = getelementptr inbounds nuw %"class.Transduction::Transduction", ptr %40, i32 0, i32 11
  %220 = call noundef nonnull align 4 dereferenceable(4) ptr @_ZNKSt14_List_iteratorIiEdeEv(ptr noundef nonnull align 8 dereferenceable(8) %26) #3
  %221 = load i32, ptr %220, align 4, !tbaa !8
  %222 = sext i32 %221 to i64
  %223 = call noundef nonnull align 8 dereferenceable(24) ptr @_ZNSt6vectorIS_IiSaIiEESaIS1_EEixEm(ptr noundef nonnull align 8 dereferenceable(24) %219, i64 noundef %222) #3
  %224 = call noundef zeroext i1 @_ZNKSt6vectorIiSaIiEE5emptyEv(ptr noundef nonnull align 8 dereferenceable(24) %223) #3
  %225 = xor i1 %224, true
  br label %226

226:                                              ; preds = %218, %208
  %227 = phi i1 [ false, %208 ], [ %225, %218 ]
  call void @llvm.lifetime.end.p0(i64 16, ptr %28) #3
  br i1 %227, label %228, label %268

228:                                              ; preds = %226
  %229 = getelementptr inbounds nuw %"class.Transduction::Transduction", ptr %40, i32 0, i32 3
  %230 = load i8, ptr %229, align 8, !tbaa !74, !range !12, !noundef !13
  %231 = trunc i8 %230 to i1
  br i1 %231, label %232, label %240

232:                                              ; preds = %228
  %233 = getelementptr inbounds nuw %"class.Transduction::Transduction", ptr %40, i32 0, i32 12
  %234 = call noundef nonnull align 4 dereferenceable(4) ptr @_ZNKSt14_List_iteratorIiEdeEv(ptr noundef nonnull align 8 dereferenceable(8) %26) #3
  %235 = load i32, ptr %234, align 4, !tbaa !8
  %236 = sext i32 %235 to i64
  %237 = call noundef nonnull align 4 dereferenceable(4) ptr @_ZNSt6vectorIiSaIiEEixEm(ptr noundef nonnull align 8 dereferenceable(24) %233, i64 noundef %236) #3
  %238 = load i32, ptr %237, align 4, !tbaa !8
  %239 = call noundef zeroext i1 @_ZN12Transduction12TransductionIN6NewBdd3ManENS1_5ParamEjLj4294967295EE8noexcessERKSt6vectorIbSaIbEEj(ptr noundef nonnull align 8 dereferenceable(456) %40, ptr noundef nonnull align 8 dereferenceable(40) %20, i32 noundef %238)
  br i1 %239, label %240, label %267

240:                                              ; preds = %232, %228
  %241 = call noundef nonnull align 4 dereferenceable(4) ptr @_ZNKSt16reverse_iteratorISt14_List_iteratorIiEEdeEv(ptr noundef nonnull align 8 dereferenceable(8) %10)
  %242 = load i32, ptr %241, align 4, !tbaa !8
  %243 = call noundef nonnull align 4 dereferenceable(4) ptr @_ZNKSt14_List_iteratorIiEdeEv(ptr noundef nonnull align 8 dereferenceable(8) %26) #3
  %244 = load i32, ptr %243, align 4, !tbaa !8
  %245 = call noundef zeroext i1 @_ZN12Transduction12TransductionIN6NewBdd3ManENS1_5ParamEjLj4294967295EE10TryConnectEiib(ptr noundef nonnull align 8 dereferenceable(456) %40, i32 noundef %242, i32 noundef %244, i1 noundef zeroext false)
  br i1 %245, label %252, label %246

246:                                              ; preds = %240
  %247 = call noundef nonnull align 4 dereferenceable(4) ptr @_ZNKSt16reverse_iteratorISt14_List_iteratorIiEEdeEv(ptr noundef nonnull align 8 dereferenceable(8) %10)
  %248 = load i32, ptr %247, align 4, !tbaa !8
  %249 = call noundef nonnull align 4 dereferenceable(4) ptr @_ZNKSt14_List_iteratorIiEdeEv(ptr noundef nonnull align 8 dereferenceable(8) %26) #3
  %250 = load i32, ptr %249, align 4, !tbaa !8
  %251 = call noundef zeroext i1 @_ZN12Transduction12TransductionIN6NewBdd3ManENS1_5ParamEjLj4294967295EE10TryConnectEiib(ptr noundef nonnull align 8 dereferenceable(456) %40, i32 noundef %248, i32 noundef %250, i1 noundef zeroext true)
  br i1 %251, label %252, label %266

252:                                              ; preds = %246, %240
  store i8 1, ptr %22, align 1, !tbaa !10
  %253 = load i32, ptr %5, align 4, !tbaa !8
  %254 = add nsw i32 %253, -1
  store i32 %254, ptr %5, align 4, !tbaa !8
  %255 = getelementptr inbounds nuw %"class.Transduction::Transduction", ptr %40, i32 0, i32 3
  %256 = load i8, ptr %255, align 8, !tbaa !74, !range !12, !noundef !13
  %257 = trunc i8 %256 to i1
  br i1 %257, label %258, label %265

258:                                              ; preds = %252
  %259 = getelementptr inbounds nuw %"class.Transduction::Transduction", ptr %40, i32 0, i32 12
  %260 = call noundef nonnull align 4 dereferenceable(4) ptr @_ZNKSt14_List_iteratorIiEdeEv(ptr noundef nonnull align 8 dereferenceable(8) %26) #3
  %261 = load i32, ptr %260, align 4, !tbaa !8
  %262 = sext i32 %261 to i64
  %263 = call noundef nonnull align 4 dereferenceable(4) ptr @_ZNSt6vectorIiSaIiEEixEm(ptr noundef nonnull align 8 dereferenceable(24) %259, i64 noundef %262) #3
  %264 = load i32, ptr %263, align 4, !tbaa !8
  call void @_ZN12Transduction12TransductionIN6NewBdd3ManENS1_5ParamEjLj4294967295EE3addERSt6vectorIbSaIbEEj(ptr noundef nonnull align 8 dereferenceable(456) %40, ptr noundef nonnull align 8 dereferenceable(40) %20, i32 noundef %264)
  br label %265

265:                                              ; preds = %258, %252
  br label %266

266:                                              ; preds = %265, %246
  br label %267

267:                                              ; preds = %266, %232
  br label %268

268:                                              ; preds = %267, %226
  br label %269

269:                                              ; preds = %268
  %270 = call ptr @_ZNSt14_List_iteratorIiEppEi(ptr noundef nonnull align 8 dereferenceable(8) %26, i32 noundef 0) #3
  %271 = getelementptr inbounds nuw %"struct.std::_List_iterator", ptr %29, i32 0, i32 0
  store ptr %270, ptr %271, align 8
  br label %181, !llvm.loop !91

272:                                              ; preds = %207, %185
  call void @llvm.lifetime.end.p0(i64 8, ptr %26) #3
  br label %273

273:                                              ; preds = %272
  %274 = load i8, ptr %22, align 1, !tbaa !10, !range !12, !noundef !13
  %275 = trunc i8 %274 to i1
  br i1 %275, label %276, label %330

276:                                              ; preds = %273
  %277 = load i8, ptr %4, align 1, !tbaa !10, !range !12, !noundef !13
  %278 = trunc i8 %277 to i1
  br i1 %278, label %279, label %285

279:                                              ; preds = %276
  call void @_ZN12Transduction12TransductionIN6NewBdd3ManENS1_5ParamEjLj4294967295EE5BuildEb(ptr noundef nonnull align 8 dereferenceable(456) %40, i1 noundef zeroext true)
  %280 = call noundef nonnull align 4 dereferenceable(4) ptr @_ZNKSt16reverse_iteratorISt14_List_iteratorIiEEdeEv(ptr noundef nonnull align 8 dereferenceable(8) %10)
  %281 = load i32, ptr %280, align 4, !tbaa !8
  %282 = call noundef i32 @_ZN12Transduction12TransductionIN6NewBdd3ManENS1_5ParamEjLj4294967295EE4MspfEbii(ptr noundef nonnull align 8 dereferenceable(456) %40, i1 noundef zeroext true, i32 noundef %281, i32 noundef -1)
  %283 = load i32, ptr %5, align 4, !tbaa !8
  %284 = add nsw i32 %283, %282
  store i32 %284, ptr %5, align 4, !tbaa !8
  br label %301

285:                                              ; preds = %276
  call void @llvm.lifetime.start.p0(i64 16, ptr %30) #3
  %286 = getelementptr inbounds nuw %"class.Transduction::Transduction", ptr %40, i32 0, i32 19
  %287 = call noundef nonnull align 4 dereferenceable(4) ptr @_ZNKSt16reverse_iteratorISt14_List_iteratorIiEEdeEv(ptr noundef nonnull align 8 dereferenceable(8) %10)
  %288 = load i32, ptr %287, align 4, !tbaa !8
  %289 = sext i32 %288 to i64
  %290 = call { ptr, i64 } @_ZNSt6vectorIbSaIbEEixEm(ptr noundef nonnull align 8 dereferenceable(40) %286, i64 noundef %289)
  %291 = getelementptr inbounds nuw { ptr, i64 }, ptr %30, i32 0, i32 0
  %292 = extractvalue { ptr, i64 } %290, 0
  store ptr %292, ptr %291, align 8
  %293 = getelementptr inbounds nuw { ptr, i64 }, ptr %30, i32 0, i32 1
  %294 = extractvalue { ptr, i64 } %290, 1
  store i64 %294, ptr %293, align 8
  %295 = call noundef nonnull align 8 dereferenceable(16) ptr @_ZNSt14_Bit_referenceaSEb(ptr noundef nonnull align 8 dereferenceable(16) %30, i1 noundef zeroext true) #3
  call void @llvm.lifetime.end.p0(i64 16, ptr %30) #3
  %296 = call noundef nonnull align 4 dereferenceable(4) ptr @_ZNKSt16reverse_iteratorISt14_List_iteratorIiEEdeEv(ptr noundef nonnull align 8 dereferenceable(8) %10)
  %297 = load i32, ptr %296, align 4, !tbaa !8
  %298 = call noundef i32 @_ZN12Transduction12TransductionIN6NewBdd3ManENS1_5ParamEjLj4294967295EE4CspfEbii(ptr noundef nonnull align 8 dereferenceable(456) %40, i1 noundef zeroext true, i32 noundef %297, i32 noundef -1)
  %299 = load i32, ptr %5, align 4, !tbaa !8
  %300 = add nsw i32 %299, %298
  store i32 %300, ptr %5, align 4, !tbaa !8
  br label %301

301:                                              ; preds = %285, %279
  %302 = getelementptr inbounds nuw %"class.Transduction::Transduction", ptr %40, i32 0, i32 11
  %303 = call noundef nonnull align 4 dereferenceable(4) ptr @_ZNKSt16reverse_iteratorISt14_List_iteratorIiEEdeEv(ptr noundef nonnull align 8 dereferenceable(8) %10)
  %304 = load i32, ptr %303, align 4, !tbaa !8
  %305 = sext i32 %304 to i64
  %306 = call noundef nonnull align 8 dereferenceable(24) ptr @_ZNSt6vectorIS_IiSaIiEESaIS1_EEixEm(ptr noundef nonnull align 8 dereferenceable(24) %302, i64 noundef %305) #3
  %307 = call noundef zeroext i1 @_ZNKSt6vectorIiSaIiEE5emptyEv(ptr noundef nonnull align 8 dereferenceable(24) %306) #3
  br i1 %307, label %329, label %308

308:                                              ; preds = %301
  call void @llvm.lifetime.start.p0(i64 16, ptr %31) #3
  %309 = getelementptr inbounds nuw %"class.Transduction::Transduction", ptr %40, i32 0, i32 19
  %310 = call noundef nonnull align 4 dereferenceable(4) ptr @_ZNKSt16reverse_iteratorISt14_List_iteratorIiEEdeEv(ptr noundef nonnull align 8 dereferenceable(8) %10)
  %311 = load i32, ptr %310, align 4, !tbaa !8
  %312 = sext i32 %311 to i64
  %313 = call { ptr, i64 } @_ZNSt6vectorIbSaIbEEixEm(ptr noundef nonnull align 8 dereferenceable(40) %309, i64 noundef %312)
  %314 = getelementptr inbounds nuw { ptr, i64 }, ptr %31, i32 0, i32 0
  %315 = extractvalue { ptr, i64 } %313, 0
  store ptr %315, ptr %314, align 8
  %316 = getelementptr inbounds nuw { ptr, i64 }, ptr %31, i32 0, i32 1
  %317 = extractvalue { ptr, i64 } %313, 1
  store i64 %317, ptr %316, align 8
  %318 = call noundef nonnull align 8 dereferenceable(16) ptr @_ZNSt14_Bit_referenceaSEb(ptr noundef nonnull align 8 dereferenceable(16) %31, i1 noundef zeroext true) #3
  call void @llvm.lifetime.end.p0(i64 16, ptr %31) #3
  %319 = load i8, ptr %4, align 1, !tbaa !10, !range !12, !noundef !13
  %320 = trunc i8 %319 to i1
  br i1 %320, label %321, label %323

321:                                              ; preds = %308
  %322 = call noundef i32 @_ZN12Transduction12TransductionIN6NewBdd3ManENS1_5ParamEjLj4294967295EE4MspfEbii(ptr noundef nonnull align 8 dereferenceable(456) %40, i1 noundef zeroext true, i32 noundef -1, i32 noundef -1)
  br label %325

323:                                              ; preds = %308
  %324 = call noundef i32 @_ZN12Transduction12TransductionIN6NewBdd3ManENS1_5ParamEjLj4294967295EE4CspfEbii(ptr noundef nonnull align 8 dereferenceable(456) %40, i1 noundef zeroext true, i32 noundef -1, i32 noundef -1)
  br label %325

325:                                              ; preds = %323, %321
  %326 = phi i32 [ %322, %321 ], [ %324, %323 ]
  %327 = load i32, ptr %5, align 4, !tbaa !8
  %328 = add nsw i32 %327, %326
  store i32 %328, ptr %5, align 4, !tbaa !8
  br label %329

329:                                              ; preds = %325, %301
  br label %330

330:                                              ; preds = %329, %273
  %331 = load i32, ptr %6, align 4, !tbaa !8
  %332 = call noundef i32 @_ZNK12Transduction12TransductionIN6NewBdd3ManENS1_5ParamEjLj4294967295EE10CountNodesEv(ptr noundef nonnull align 8 dereferenceable(456) %40)
  %333 = icmp slt i32 %331, %332
  br i1 %333, label %334, label %336

334:                                              ; preds = %330
  call void @_ZN12Transduction12TransductionIN6NewBdd3ManENS1_5ParamEjLj4294967295EE4LoadERKNS_18TransductionBackupIS2_jLj4294967295EEE(ptr noundef nonnull align 8 dereferenceable(456) %40, ptr noundef nonnull align 8 dereferenceable(352) %7)
  %335 = load i32, ptr %8, align 4, !tbaa !8
  store i32 %335, ptr %5, align 4, !tbaa !8
  store i32 4, ptr %12, align 4
  br label %391

336:                                              ; preds = %330
  %337 = getelementptr inbounds nuw %"class.Transduction::Transduction", ptr %40, i32 0, i32 11
  %338 = call noundef nonnull align 4 dereferenceable(4) ptr @_ZNKSt16reverse_iteratorISt14_List_iteratorIiEEdeEv(ptr noundef nonnull align 8 dereferenceable(8) %10)
  %339 = load i32, ptr %338, align 4, !tbaa !8
  %340 = sext i32 %339 to i64
  %341 = call noundef nonnull align 8 dereferenceable(24) ptr @_ZNSt6vectorIS_IiSaIiEESaIS1_EEixEm(ptr noundef nonnull align 8 dereferenceable(24) %337, i64 noundef %340) #3
  %342 = call noundef zeroext i1 @_ZNKSt6vectorIiSaIiEE5emptyEv(ptr noundef nonnull align 8 dereferenceable(24) %341) #3
  br i1 %342, label %388, label %343

343:                                              ; preds = %336
  %344 = getelementptr inbounds nuw %"class.Transduction::Transduction", ptr %40, i32 0, i32 10
  %345 = call noundef nonnull align 4 dereferenceable(4) ptr @_ZNKSt16reverse_iteratorISt14_List_iteratorIiEEdeEv(ptr noundef nonnull align 8 dereferenceable(8) %10)
  %346 = load i32, ptr %345, align 4, !tbaa !8
  %347 = sext i32 %346 to i64
  %348 = call noundef nonnull align 8 dereferenceable(24) ptr @_ZNSt6vectorIS_IiSaIiEESaIS1_EEixEm(ptr noundef nonnull align 8 dereferenceable(24) %344, i64 noundef %347) #3
  %349 = call noundef i64 @_ZNKSt6vectorIiSaIiEE4sizeEv(ptr noundef nonnull align 8 dereferenceable(24) %348) #3
  %350 = icmp ugt i64 %349, 2
  br i1 %350, label %351, label %388

351:                                              ; preds = %343
  call void @llvm.lifetime.start.p0(i64 8, ptr %32) #3
  %352 = getelementptr inbounds nuw %"class.Transduction::Transduction", ptr %40, i32 0, i32 9
  %353 = call ptr @_ZNSt7__cxx114listIiSaIiEE5beginEv(ptr noundef nonnull align 8 dereferenceable(24) %352) #3
  %354 = getelementptr inbounds nuw %"struct.std::_List_iterator", ptr %33, i32 0, i32 0
  store ptr %353, ptr %354, align 8
  %355 = getelementptr inbounds nuw %"class.Transduction::Transduction", ptr %40, i32 0, i32 9
  %356 = call ptr @_ZNSt7__cxx114listIiSaIiEE3endEv(ptr noundef nonnull align 8 dereferenceable(24) %355) #3
  %357 = getelementptr inbounds nuw %"struct.std::_List_iterator", ptr %34, i32 0, i32 0
  store ptr %356, ptr %357, align 8
  %358 = call noundef nonnull align 4 dereferenceable(4) ptr @_ZNKSt16reverse_iteratorISt14_List_iteratorIiEEdeEv(ptr noundef nonnull align 8 dereferenceable(8) %10)
  %359 = getelementptr inbounds nuw %"struct.std::_List_iterator", ptr %33, i32 0, i32 0
  %360 = load ptr, ptr %359, align 8
  %361 = getelementptr inbounds nuw %"struct.std::_List_iterator", ptr %34, i32 0, i32 0
  %362 = load ptr, ptr %361, align 8
  %363 = call ptr @_ZSt4findISt14_List_iteratorIiEiET_S2_S2_RKT0_(ptr %360, ptr %362, ptr noundef nonnull align 4 dereferenceable(4) %358)
  %364 = getelementptr inbounds nuw %"struct.std::_List_iterator", ptr %32, i32 0, i32 0
  store ptr %363, ptr %364, align 8
  call void @llvm.lifetime.start.p0(i64 4, ptr %35) #3
  %365 = getelementptr inbounds nuw %"class.Transduction::Transduction", ptr %40, i32 0, i32 4
  %366 = load i32, ptr %365, align 4, !tbaa !90
  store i32 %366, ptr %35, align 4, !tbaa !8
  %367 = getelementptr inbounds nuw %"class.Transduction::Transduction", ptr %40, i32 0, i32 3
  %368 = load i8, ptr %367, align 8, !tbaa !74, !range !12, !noundef !13
  %369 = trunc i8 %368 to i1
  br i1 %369, label %370, label %383

370:                                              ; preds = %351
  %371 = call noundef i32 @_ZN12Transduction12TransductionIN6NewBdd3ManENS1_5ParamEjLj4294967295EE20BalancedDecomposeOneERKSt14_List_iteratorIiERi(ptr noundef nonnull align 8 dereferenceable(456) %40, ptr noundef nonnull align 8 dereferenceable(8) %32, ptr noundef nonnull align 4 dereferenceable(4) %35)
  %372 = load i8, ptr %4, align 1, !tbaa !10, !range !12, !noundef !13
  %373 = trunc i8 %372 to i1
  br i1 %373, label %374, label %376

374:                                              ; preds = %370
  %375 = call noundef i32 @_ZN12Transduction12TransductionIN6NewBdd3ManENS1_5ParamEjLj4294967295EE4MspfEbii(ptr noundef nonnull align 8 dereferenceable(456) %40, i1 noundef zeroext true, i32 noundef -1, i32 noundef -1)
  br label %378

376:                                              ; preds = %370
  %377 = call noundef i32 @_ZN12Transduction12TransductionIN6NewBdd3ManENS1_5ParamEjLj4294967295EE4CspfEbii(ptr noundef nonnull align 8 dereferenceable(456) %40, i1 noundef zeroext true, i32 noundef -1, i32 noundef -1)
  br label %378

378:                                              ; preds = %376, %374
  %379 = phi i32 [ %375, %374 ], [ %377, %376 ]
  %380 = add nsw i32 %371, %379
  %381 = load i32, ptr %5, align 4, !tbaa !8
  %382 = add nsw i32 %381, %380
  store i32 %382, ptr %5, align 4, !tbaa !8
  br label %387

383:                                              ; preds = %351
  %384 = call noundef i32 @_ZN12Transduction12TransductionIN6NewBdd3ManENS1_5ParamEjLj4294967295EE19TrivialDecomposeOneERKSt14_List_iteratorIiERi(ptr noundef nonnull align 8 dereferenceable(456) %40, ptr noundef nonnull align 8 dereferenceable(8) %32, ptr noundef nonnull align 4 dereferenceable(4) %35)
  %385 = load i32, ptr %5, align 4, !tbaa !8
  %386 = add nsw i32 %385, %384
  store i32 %386, ptr %5, align 4, !tbaa !8
  br label %387

387:                                              ; preds = %383, %378
  call void @llvm.lifetime.end.p0(i64 4, ptr %35) #3
  call void @llvm.lifetime.end.p0(i64 8, ptr %32) #3
  br label %388

388:                                              ; preds = %387, %343, %336
  %389 = call noundef i32 @_ZNK12Transduction12TransductionIN6NewBdd3ManENS1_5ParamEjLj4294967295EE10CountNodesEv(ptr noundef nonnull align 8 dereferenceable(456) %40)
  store i32 %389, ptr %6, align 4, !tbaa !8
  call void @_ZNK12Transduction12TransductionIN6NewBdd3ManENS1_5ParamEjLj4294967295EE4SaveERNS_18TransductionBackupIS2_jLj4294967295EEE(ptr noundef nonnull align 8 dereferenceable(456) %40, ptr noundef nonnull align 8 dereferenceable(352) %7)
  %390 = load i32, ptr %5, align 4, !tbaa !8
  store i32 %390, ptr %8, align 4, !tbaa !8
  store i32 0, ptr %12, align 4
  br label %391

391:                                              ; preds = %388, %334
  call void @_ZNSt7__cxx1110_List_baseIiSaIiEED2Ev(ptr noundef nonnull align 8 dereferenceable(24) %25) #3
  call void @llvm.lifetime.end.p0(i64 24, ptr %25) #3
  call void @_ZNSt13_Bvector_baseISaIbEED2Ev(ptr noundef nonnull align 8 dereferenceable(40) %23) #3
  call void @llvm.lifetime.end.p0(i64 40, ptr %23) #3
  call void @llvm.lifetime.end.p0(i64 1, ptr %22) #3
  br label %392

392:                                              ; preds = %391, %155
  call void @_ZNSt13_Bvector_baseISaIbEED2Ev(ptr noundef nonnull align 8 dereferenceable(40) %20) #3
  call void @llvm.lifetime.end.p0(i64 40, ptr %20) #3
  %393 = load i32, ptr %12, align 4
  switch i32 %393, label %403 [
    i32 0, label %394
    i32 4, label %395
  ]

394:                                              ; preds = %392
  br label %395

395:                                              ; preds = %394, %392, %98
  call void @llvm.lifetime.start.p0(i64 8, ptr %36) #3
  call void @_ZNSt16reverse_iteratorISt14_List_iteratorIiEEppEi(ptr dead_on_unwind writable sret(%"class.std::reverse_iterator") align 8 %36, ptr noundef nonnull align 8 dereferenceable(8) %10, i32 noundef 0)
  call void @llvm.lifetime.end.p0(i64 8, ptr %36) #3
  br label %52, !llvm.loop !92

396:                                              ; preds = %54
  %397 = getelementptr inbounds nuw %"class.Transduction::Transduction", ptr %40, i32 0, i32 1
  %398 = load i32, ptr %397, align 8, !tbaa !35
  %399 = icmp ne i32 %398, 0
  br i1 %399, label %400, label %401

400:                                              ; preds = %396
  call void @llvm.lifetime.start.p0(i64 1, ptr %38) #3
  call void @_ZNSaIcEC2Ev(ptr noundef nonnull align 1 dereferenceable(1) %38) #3
  call void @_ZNSt7__cxx1112basic_stringIcSt11char_traitsIcESaIcEEC2IS3_EEPKcRKS3_(ptr noundef nonnull align 8 dereferenceable(32) %37, ptr noundef @.str.105, ptr noundef nonnull align 1 dereferenceable(1) %38)
  call void @_ZNK12Transduction12TransductionIN6NewBdd3ManENS1_5ParamEjLj4294967295EE10PrintStatsENSt7__cxx1112basic_stringIcSt11char_traitsIcESaIcEEEbi(ptr noundef nonnull align 8 dereferenceable(456) %40, ptr noundef %37, i1 noundef zeroext true, i32 noundef 11)
  call void @_ZNSt7__cxx1112basic_stringIcSt11char_traitsIcESaIcEED2Ev(ptr noundef nonnull align 8 dereferenceable(32) %37) #3
  call void @_ZNSt15__new_allocatorIcED2Ev(ptr noundef nonnull align 1 dereferenceable(1) %38) #3
  call void @llvm.lifetime.end.p0(i64 1, ptr %38) #3
  br label %401

401:                                              ; preds = %400, %396
  %402 = load i32, ptr %5, align 4, !tbaa !8
  store i32 1, ptr %12, align 4
  call void @_ZNSt7__cxx1110_List_baseIiSaIiEED2Ev(ptr noundef nonnull align 8 dereferenceable(24) %9) #3
  call void @llvm.lifetime.end.p0(i64 24, ptr %9) #3
  call void @llvm.lifetime.end.p0(i64 4, ptr %8) #3
  call void @_ZN12Transduction18TransductionBackupIN6NewBdd3ManEjLj4294967295EED2Ev(ptr noundef nonnull align 8 dereferenceable(352) %7) #3
  call void @llvm.lifetime.end.p0(i64 352, ptr %7) #3
  call void @llvm.lifetime.end.p0(i64 4, ptr %6) #3
  call void @llvm.lifetime.end.p0(i64 4, ptr %5) #3
  ret i32 %402

403:                                              ; preds = %392
  unreachable
}

; Function Attrs: mustprogress nounwind uwtable
define linkonce_odr noundef i32 @_ZN12Transduction12TransductionIN6NewBdd3ManENS1_5ParamEjLj4294967295EE9ResubMonoEb(ptr noundef nonnull align 8 dereferenceable(456) %0, i1 noundef zeroext %1) #4 comdat align 2 {
  %3 = alloca ptr, align 8
  %4 = alloca i8, align 1
  %5 = alloca i32, align 4
  %6 = alloca %"class.std::__cxx11::list", align 8
  %7 = alloca %"class.std::reverse_iterator", align 8
  %8 = alloca %"class.std::reverse_iterator", align 8
  %9 = alloca i32, align 4
  %10 = alloca %"class.std::__cxx11::basic_stringstream", align 8
  %11 = alloca %"struct.std::_Setw", align 4
  %12 = alloca %"struct.std::_Setw", align 4
  %13 = alloca %"class.std::reverse_iterator", align 8
  %14 = alloca %"class.std::reverse_iterator", align 8
  %15 = alloca %"struct.std::_Setw", align 4
  %16 = alloca %"class.std::__cxx11::basic_string", align 8
  %17 = alloca %"class.Transduction::TransductionBackup", align 8
  %18 = alloca i32, align 4
  %19 = alloca i32, align 4
  %20 = alloca %"class.std::__cxx11::basic_stringstream", align 8
  %21 = alloca %"struct.std::_Setw", align 4
  %22 = alloca %"class.std::__cxx11::basic_string", align 8
  %23 = alloca i32, align 4
  %24 = alloca %"struct.std::_Bit_reference", align 8
  %25 = alloca %"struct.std::_Bit_reference", align 8
  %26 = alloca %"class.std::vector.18", align 8
  %27 = alloca %"class.std::allocator.45", align 1
  %28 = alloca %"class.std::__cxx11::list", align 8
  %29 = alloca %"struct.std::_List_iterator", align 8
  %30 = alloca %"struct.std::_List_iterator", align 8
  %31 = alloca %"class.std::__cxx11::basic_stringstream", align 8
  %32 = alloca %"struct.std::_Setw", align 4
  %33 = alloca %"struct.std::_Setw", align 4
  %34 = alloca %"struct.std::_List_iterator", align 8
  %35 = alloca %"struct.std::_List_iterator", align 8
  %36 = alloca %"struct.std::_Setw", align 4
  %37 = alloca %"class.std::__cxx11::basic_string", align 8
  %38 = alloca %"struct.std::_Bit_reference", align 8
  %39 = alloca i32, align 4
  %40 = alloca %"struct.std::_Bit_reference", align 8
  %41 = alloca %"struct.std::_Bit_reference", align 8
  %42 = alloca %"struct.std::_List_iterator", align 8
  %43 = alloca %"struct.std::_List_iterator", align 8
  %44 = alloca %"struct.std::_List_iterator", align 8
  %45 = alloca %"struct.std::_List_iterator", align 8
  %46 = alloca i32, align 4
  %47 = alloca %"class.std::reverse_iterator", align 8
  %48 = alloca %"class.std::__cxx11::basic_string", align 8
  %49 = alloca %"class.std::allocator.34", align 1
  store ptr %0, ptr %3, align 8, !tbaa !33
  %50 = zext i1 %1 to i8
  store i8 %50, ptr %4, align 1, !tbaa !10
  %51 = load ptr, ptr %3, align 8
  call void @llvm.lifetime.start.p0(i64 4, ptr %5) #3
  %52 = load i8, ptr %4, align 1, !tbaa !10, !range !12, !noundef !13
  %53 = trunc i8 %52 to i1
  br i1 %53, label %54, label %56

54:                                               ; preds = %2
  %55 = call noundef i32 @_ZN12Transduction12TransductionIN6NewBdd3ManENS1_5ParamEjLj4294967295EE4MspfEbii(ptr noundef nonnull align 8 dereferenceable(456) %51, i1 noundef zeroext true, i32 noundef -1, i32 noundef -1)
  br label %58

56:                                               ; preds = %2
  %57 = call noundef i32 @_ZN12Transduction12TransductionIN6NewBdd3ManENS1_5ParamEjLj4294967295EE4CspfEbii(ptr noundef nonnull align 8 dereferenceable(456) %51, i1 noundef zeroext true, i32 noundef -1, i32 noundef -1)
  br label %58

58:                                               ; preds = %56, %54
  %59 = phi i32 [ %55, %54 ], [ %57, %56 ]
  store i32 %59, ptr %5, align 4, !tbaa !8
  call void @llvm.lifetime.start.p0(i64 24, ptr %6) #3
  %60 = getelementptr inbounds nuw %"class.Transduction::Transduction", ptr %51, i32 0, i32 9
  call void @_ZNSt7__cxx114listIiSaIiEEC2ERKS2_(ptr noundef nonnull align 8 dereferenceable(24) %6, ptr noundef nonnull align 8 dereferenceable(24) %60)
  call void @llvm.lifetime.start.p0(i64 8, ptr %7) #3
  call void @_ZNSt7__cxx114listIiSaIiEE6rbeginEv(ptr dead_on_unwind writable sret(%"class.std::reverse_iterator") align 8 %7, ptr noundef nonnull align 8 dereferenceable(24) %6) #3
  br label %61

61:                                               ; preds = %500, %58
  call void @llvm.lifetime.start.p0(i64 8, ptr %8) #3
  call void @_ZNSt7__cxx114listIiSaIiEE4rendEv(ptr dead_on_unwind writable sret(%"class.std::reverse_iterator") align 8 %8, ptr noundef nonnull align 8 dereferenceable(24) %6) #3
  %62 = call noundef zeroext i1 @_ZStneISt14_List_iteratorIiEEbRKSt16reverse_iteratorIT_ES6_(ptr noundef nonnull align 8 dereferenceable(8) %7, ptr noundef nonnull align 8 dereferenceable(8) %8)
  call void @llvm.lifetime.end.p0(i64 8, ptr %8) #3
  br i1 %62, label %64, label %63

63:                                               ; preds = %61
  store i32 2, ptr %9, align 4
  call void @llvm.lifetime.end.p0(i64 8, ptr %7) #3
  br label %501

64:                                               ; preds = %61
  %65 = getelementptr inbounds nuw %"class.Transduction::Transduction", ptr %51, i32 0, i32 1
  %66 = load i32, ptr %65, align 8, !tbaa !35
  %67 = icmp sgt i32 %66, 1
  br i1 %67, label %68, label %100

68:                                               ; preds = %64
  call void @llvm.lifetime.start.p0(i64 392, ptr %10) #3
  call void @_ZNSt7__cxx1118basic_stringstreamIcSt11char_traitsIcESaIcEEC1Ev(ptr noundef nonnull align 8 dereferenceable(128) %10)
  %69 = getelementptr inbounds i8, ptr %10, i64 16
  %70 = call noundef nonnull align 8 dereferenceable(8) ptr @_ZStlsISt11char_traitsIcEERSt13basic_ostreamIcT_ES5_PKc(ptr noundef nonnull align 8 dereferenceable(8) %69, ptr noundef @.str.111)
  %71 = call i32 @_ZSt4setwi(i32 noundef 5)
  %72 = getelementptr inbounds nuw %"struct.std::_Setw", ptr %11, i32 0, i32 0
  store i32 %71, ptr %72, align 4
  %73 = getelementptr inbounds nuw %"struct.std::_Setw", ptr %11, i32 0, i32 0
  %74 = load i32, ptr %73, align 4
  %75 = call noundef nonnull align 8 dereferenceable(8) ptr @_ZStlsIcSt11char_traitsIcEERSt13basic_ostreamIT_T0_ES6_St5_Setw(ptr noundef nonnull align 8 dereferenceable(8) %70, i32 %74)
  %76 = call noundef nonnull align 4 dereferenceable(4) ptr @_ZNKSt16reverse_iteratorISt14_List_iteratorIiEEdeEv(ptr noundef nonnull align 8 dereferenceable(8) %7)
  %77 = load i32, ptr %76, align 4, !tbaa !8
  %78 = call noundef nonnull align 8 dereferenceable(8) ptr @_ZNSolsEi(ptr noundef nonnull align 8 dereferenceable(8) %75, i32 noundef %77)
  %79 = call noundef nonnull align 8 dereferenceable(8) ptr @_ZStlsISt11char_traitsIcEERSt13basic_ostreamIcT_ES5_PKc(ptr noundef nonnull align 8 dereferenceable(8) %78, ptr noundef @.str.87)
  %80 = call i32 @_ZSt4setwi(i32 noundef 5)
  %81 = getelementptr inbounds nuw %"struct.std::_Setw", ptr %12, i32 0, i32 0
  store i32 %80, ptr %81, align 4
  %82 = getelementptr inbounds nuw %"struct.std::_Setw", ptr %12, i32 0, i32 0
  %83 = load i32, ptr %82, align 4
  %84 = call noundef nonnull align 8 dereferenceable(8) ptr @_ZStlsIcSt11char_traitsIcEERSt13basic_ostreamIT_T0_ES6_St5_Setw(ptr noundef nonnull align 8 dereferenceable(8) %79, i32 %83)
  call void @_ZNSt7__cxx114listIiSaIiEE6rbeginEv(ptr dead_on_unwind writable sret(%"class.std::reverse_iterator") align 8 %13, ptr noundef nonnull align 8 dereferenceable(24) %6) #3
  call void @_ZNSt16reverse_iteratorISt14_List_iteratorIiEEC2ERKS2_(ptr noundef nonnull align 8 dereferenceable(8) %14, ptr noundef nonnull align 8 dereferenceable(8) %7) #3
  %85 = call noundef i64 @_ZSt8distanceISt16reverse_iteratorISt14_List_iteratorIiEEENSt15iterator_traitsIT_E15difference_typeES5_S5_(ptr noundef %13, ptr noundef %14)
  %86 = add nsw i64 %85, 1
  %87 = call noundef nonnull align 8 dereferenceable(8) ptr @_ZNSolsEl(ptr noundef nonnull align 8 dereferenceable(8) %84, i64 noundef %86)
  %88 = call noundef nonnull align 8 dereferenceable(8) ptr @_ZStlsISt11char_traitsIcEERSt13basic_ostreamIcT_ES5_PKc(ptr noundef nonnull align 8 dereferenceable(8) %87, ptr noundef @.str.88)
  %89 = call i32 @_ZSt4setwi(i32 noundef 5)
  %90 = getelementptr inbounds nuw %"struct.std::_Setw", ptr %15, i32 0, i32 0
  store i32 %89, ptr %90, align 4
  %91 = getelementptr inbounds nuw %"struct.std::_Setw", ptr %15, i32 0, i32 0
  %92 = load i32, ptr %91, align 4
  %93 = call noundef nonnull align 8 dereferenceable(8) ptr @_ZStlsIcSt11char_traitsIcEERSt13basic_ostreamIT_T0_ES6_St5_Setw(ptr noundef nonnull align 8 dereferenceable(8) %88, i32 %92)
  %94 = call noundef i64 @_ZNKSt7__cxx114listIiSaIiEE4sizeEv(ptr noundef nonnull align 8 dereferenceable(24) %6) #3
  %95 = call noundef nonnull align 8 dereferenceable(8) ptr @_ZNSolsEm(ptr noundef nonnull align 8 dereferenceable(8) %93, i64 noundef %94)
  %96 = call noundef nonnull align 8 dereferenceable(8) ptr @_ZStlsISt11char_traitsIcEERSt13basic_ostreamIcT_ES5_PKc(ptr noundef nonnull align 8 dereferenceable(8) %95, ptr noundef @.str.37)
  call void @_ZNKSt7__cxx1118basic_stringstreamIcSt11char_traitsIcESaIcEE3strEv(ptr dead_on_unwind writable sret(%"class.std::__cxx11::basic_string") align 8 %16, ptr noundef nonnull align 8 dereferenceable(128) %10)
  %97 = getelementptr inbounds nuw %"class.Transduction::Transduction", ptr %51, i32 0, i32 1
  %98 = load i32, ptr %97, align 8, !tbaa !35
  %99 = icmp sgt i32 %98, 2
  call void @_ZNK12Transduction12TransductionIN6NewBdd3ManENS1_5ParamEjLj4294967295EE10PrintStatsENSt7__cxx1112basic_stringIcSt11char_traitsIcESaIcEEEbi(ptr noundef nonnull align 8 dereferenceable(456) %51, ptr noundef %16, i1 noundef zeroext %99, i32 noundef 0)
  call void @_ZNSt7__cxx1112basic_stringIcSt11char_traitsIcESaIcEED2Ev(ptr noundef nonnull align 8 dereferenceable(32) %16) #3
  call void @_ZNSt7__cxx1118basic_stringstreamIcSt11char_traitsIcESaIcEED1Ev(ptr noundef nonnull align 8 dereferenceable(128) %10) #3
  call void @llvm.lifetime.end.p0(i64 392, ptr %10) #3
  br label %100

100:                                              ; preds = %68, %64
  %101 = getelementptr inbounds nuw %"class.Transduction::Transduction", ptr %51, i32 0, i32 11
  %102 = call noundef nonnull align 4 dereferenceable(4) ptr @_ZNKSt16reverse_iteratorISt14_List_iteratorIiEEdeEv(ptr noundef nonnull align 8 dereferenceable(8) %7)
  %103 = load i32, ptr %102, align 4, !tbaa !8
  %104 = sext i32 %103 to i64
  %105 = call noundef nonnull align 8 dereferenceable(24) ptr @_ZNSt6vectorIS_IiSaIiEESaIS1_EEixEm(ptr noundef nonnull align 8 dereferenceable(24) %101, i64 noundef %104) #3
  %106 = call noundef zeroext i1 @_ZNKSt6vectorIiSaIiEE5emptyEv(ptr noundef nonnull align 8 dereferenceable(24) %105) #3
  br i1 %106, label %107, label %108

107:                                              ; preds = %100
  br label %500

108:                                              ; preds = %100
  %109 = call noundef nonnull align 4 dereferenceable(4) ptr @_ZNKSt16reverse_iteratorISt14_List_iteratorIiEEdeEv(ptr noundef nonnull align 8 dereferenceable(8) %7)
  %110 = load i32, ptr %109, align 4, !tbaa !8
  %111 = call noundef i32 @_ZN12Transduction12TransductionIN6NewBdd3ManENS1_5ParamEjLj4294967295EE15TrivialMergeOneEi(ptr noundef nonnull align 8 dereferenceable(456) %51, i32 noundef %110)
  %112 = load i32, ptr %5, align 4, !tbaa !8
  %113 = add nsw i32 %112, %111
  store i32 %113, ptr %5, align 4, !tbaa !8
  call void @llvm.lifetime.start.p0(i64 352, ptr %17) #3
  call void @_ZN12Transduction18TransductionBackupIN6NewBdd3ManEjLj4294967295EEC2Ev(ptr noundef nonnull align 8 dereferenceable(352) %17) #3
  call void @_ZNK12Transduction12TransductionIN6NewBdd3ManENS1_5ParamEjLj4294967295EE4SaveERNS_18TransductionBackupIS2_jLj4294967295EEE(ptr noundef nonnull align 8 dereferenceable(456) %51, ptr noundef nonnull align 8 dereferenceable(352) %17)
  call void @llvm.lifetime.start.p0(i64 4, ptr %18) #3
  %114 = load i32, ptr %5, align 4, !tbaa !8
  store i32 %114, ptr %18, align 4, !tbaa !8
  call void @llvm.lifetime.start.p0(i64 4, ptr %19) #3
  store i32 0, ptr %19, align 4, !tbaa !8
  br label %115

115:                                              ; preds = %250, %108
  %116 = load i32, ptr %19, align 4, !tbaa !8
  %117 = zext i32 %116 to i64
  %118 = getelementptr inbounds nuw %"class.Transduction::Transduction", ptr %51, i32 0, i32 7
  %119 = call noundef i64 @_ZNKSt6vectorIiSaIiEE4sizeEv(ptr noundef nonnull align 8 dereferenceable(24) %118) #3
  %120 = icmp ult i64 %117, %119
  br i1 %120, label %122, label %121

121:                                              ; preds = %115
  store i32 5, ptr %9, align 4
  br label %253

122:                                              ; preds = %115
  %123 = getelementptr inbounds nuw %"class.Transduction::Transduction", ptr %51, i32 0, i32 11
  %124 = call noundef nonnull align 4 dereferenceable(4) ptr @_ZNKSt16reverse_iteratorISt14_List_iteratorIiEEdeEv(ptr noundef nonnull align 8 dereferenceable(8) %7)
  %125 = load i32, ptr %124, align 4, !tbaa !8
  %126 = sext i32 %125 to i64
  %127 = call noundef nonnull align 8 dereferenceable(24) ptr @_ZNSt6vectorIS_IiSaIiEESaIS1_EEixEm(ptr noundef nonnull align 8 dereferenceable(24) %123, i64 noundef %126) #3
  %128 = call noundef zeroext i1 @_ZNKSt6vectorIiSaIiEE5emptyEv(ptr noundef nonnull align 8 dereferenceable(24) %127) #3
  br i1 %128, label %129, label %130

129:                                              ; preds = %122
  store i32 5, ptr %9, align 4
  br label %253

130:                                              ; preds = %122
  %131 = getelementptr inbounds nuw %"class.Transduction::Transduction", ptr %51, i32 0, i32 1
  %132 = load i32, ptr %131, align 8, !tbaa !35
  %133 = icmp sgt i32 %132, 2
  br i1 %133, label %134, label %147

134:                                              ; preds = %130
  call void @llvm.lifetime.start.p0(i64 392, ptr %20) #3
  call void @_ZNSt7__cxx1118basic_stringstreamIcSt11char_traitsIcESaIcEEC1Ev(ptr noundef nonnull align 8 dereferenceable(128) %20)
  %135 = getelementptr inbounds i8, ptr %20, i64 16
  %136 = call noundef nonnull align 8 dereferenceable(8) ptr @_ZStlsISt11char_traitsIcEERSt13basic_ostreamIcT_ES5_PKc(ptr noundef nonnull align 8 dereferenceable(8) %135, ptr noundef @.str.112)
  %137 = call i32 @_ZSt4setwi(i32 noundef 2)
  %138 = getelementptr inbounds nuw %"struct.std::_Setw", ptr %21, i32 0, i32 0
  store i32 %137, ptr %138, align 4
  %139 = getelementptr inbounds nuw %"struct.std::_Setw", ptr %21, i32 0, i32 0
  %140 = load i32, ptr %139, align 4
  %141 = call noundef nonnull align 8 dereferenceable(8) ptr @_ZStlsIcSt11char_traitsIcEERSt13basic_ostreamIT_T0_ES6_St5_Setw(ptr noundef nonnull align 8 dereferenceable(8) %136, i32 %140)
  %142 = load i32, ptr %19, align 4, !tbaa !8
  %143 = call noundef nonnull align 8 dereferenceable(8) ptr @_ZNSolsEj(ptr noundef nonnull align 8 dereferenceable(8) %141, i32 noundef %142)
  call void @_ZNKSt7__cxx1118basic_stringstreamIcSt11char_traitsIcESaIcEE3strEv(ptr dead_on_unwind writable sret(%"class.std::__cxx11::basic_string") align 8 %22, ptr noundef nonnull align 8 dereferenceable(128) %20)
  %144 = getelementptr inbounds nuw %"class.Transduction::Transduction", ptr %51, i32 0, i32 1
  %145 = load i32, ptr %144, align 8, !tbaa !35
  %146 = icmp sgt i32 %145, 3
  call void @_ZNK12Transduction12TransductionIN6NewBdd3ManENS1_5ParamEjLj4294967295EE10PrintStatsENSt7__cxx1112basic_stringIcSt11char_traitsIcESaIcEEEbi(ptr noundef nonnull align 8 dereferenceable(456) %51, ptr noundef %22, i1 noundef zeroext %146, i32 noundef 0)
  call void @_ZNSt7__cxx1112basic_stringIcSt11char_traitsIcESaIcEED2Ev(ptr noundef nonnull align 8 dereferenceable(32) %22) #3
  call void @_ZNSt7__cxx1118basic_stringstreamIcSt11char_traitsIcESaIcEED1Ev(ptr noundef nonnull align 8 dereferenceable(128) %20) #3
  call void @llvm.lifetime.end.p0(i64 392, ptr %20) #3
  br label %147

147:                                              ; preds = %134, %130
  %148 = call noundef nonnull align 4 dereferenceable(4) ptr @_ZNKSt16reverse_iteratorISt14_List_iteratorIiEEdeEv(ptr noundef nonnull align 8 dereferenceable(8) %7)
  %149 = load i32, ptr %148, align 4, !tbaa !8
  %150 = getelementptr inbounds nuw %"class.Transduction::Transduction", ptr %51, i32 0, i32 7
  %151 = load i32, ptr %19, align 4, !tbaa !8
  %152 = zext i32 %151 to i64
  %153 = call noundef nonnull align 4 dereferenceable(4) ptr @_ZNSt6vectorIiSaIiEEixEm(ptr noundef nonnull align 8 dereferenceable(24) %150, i64 noundef %152) #3
  %154 = load i32, ptr %153, align 4, !tbaa !8
  %155 = call noundef zeroext i1 @_ZN12Transduction12TransductionIN6NewBdd3ManENS1_5ParamEjLj4294967295EE10TryConnectEiib(ptr noundef nonnull align 8 dereferenceable(456) %51, i32 noundef %149, i32 noundef %154, i1 noundef zeroext false)
  br i1 %155, label %165, label %156

156:                                              ; preds = %147
  %157 = call noundef nonnull align 4 dereferenceable(4) ptr @_ZNKSt16reverse_iteratorISt14_List_iteratorIiEEdeEv(ptr noundef nonnull align 8 dereferenceable(8) %7)
  %158 = load i32, ptr %157, align 4, !tbaa !8
  %159 = getelementptr inbounds nuw %"class.Transduction::Transduction", ptr %51, i32 0, i32 7
  %160 = load i32, ptr %19, align 4, !tbaa !8
  %161 = zext i32 %160 to i64
  %162 = call noundef nonnull align 4 dereferenceable(4) ptr @_ZNSt6vectorIiSaIiEEixEm(ptr noundef nonnull align 8 dereferenceable(24) %159, i64 noundef %161) #3
  %163 = load i32, ptr %162, align 4, !tbaa !8
  %164 = call noundef zeroext i1 @_ZN12Transduction12TransductionIN6NewBdd3ManENS1_5ParamEjLj4294967295EE10TryConnectEiib(ptr noundef nonnull align 8 dereferenceable(456) %51, i32 noundef %158, i32 noundef %163, i1 noundef zeroext true)
  br i1 %164, label %165, label %249

165:                                              ; preds = %156, %147
  %166 = load i32, ptr %5, align 4, !tbaa !8
  %167 = add nsw i32 %166, -1
  store i32 %167, ptr %5, align 4, !tbaa !8
  call void @llvm.lifetime.start.p0(i64 4, ptr %23) #3
  %168 = load i8, ptr %4, align 1, !tbaa !10, !range !12, !noundef !13
  %169 = trunc i8 %168 to i1
  br i1 %169, label %170, label %179

170:                                              ; preds = %165
  call void @_ZN12Transduction12TransductionIN6NewBdd3ManENS1_5ParamEjLj4294967295EE5BuildEb(ptr noundef nonnull align 8 dereferenceable(456) %51, i1 noundef zeroext true)
  %171 = call noundef nonnull align 4 dereferenceable(4) ptr @_ZNKSt16reverse_iteratorISt14_List_iteratorIiEEdeEv(ptr noundef nonnull align 8 dereferenceable(8) %7)
  %172 = load i32, ptr %171, align 4, !tbaa !8
  %173 = getelementptr inbounds nuw %"class.Transduction::Transduction", ptr %51, i32 0, i32 7
  %174 = load i32, ptr %19, align 4, !tbaa !8
  %175 = zext i32 %174 to i64
  %176 = call noundef nonnull align 4 dereferenceable(4) ptr @_ZNSt6vectorIiSaIiEEixEm(ptr noundef nonnull align 8 dereferenceable(24) %173, i64 noundef %175) #3
  %177 = load i32, ptr %176, align 4, !tbaa !8
  %178 = call noundef i32 @_ZN12Transduction12TransductionIN6NewBdd3ManENS1_5ParamEjLj4294967295EE4MspfEbii(ptr noundef nonnull align 8 dereferenceable(456) %51, i1 noundef zeroext true, i32 noundef %172, i32 noundef %177)
  store i32 %178, ptr %23, align 4, !tbaa !8
  br label %198

179:                                              ; preds = %165
  call void @llvm.lifetime.start.p0(i64 16, ptr %24) #3
  %180 = getelementptr inbounds nuw %"class.Transduction::Transduction", ptr %51, i32 0, i32 19
  %181 = call noundef nonnull align 4 dereferenceable(4) ptr @_ZNKSt16reverse_iteratorISt14_List_iteratorIiEEdeEv(ptr noundef nonnull align 8 dereferenceable(8) %7)
  %182 = load i32, ptr %181, align 4, !tbaa !8
  %183 = sext i32 %182 to i64
  %184 = call { ptr, i64 } @_ZNSt6vectorIbSaIbEEixEm(ptr noundef nonnull align 8 dereferenceable(40) %180, i64 noundef %183)
  %185 = getelementptr inbounds nuw { ptr, i64 }, ptr %24, i32 0, i32 0
  %186 = extractvalue { ptr, i64 } %184, 0
  store ptr %186, ptr %185, align 8
  %187 = getelementptr inbounds nuw { ptr, i64 }, ptr %24, i32 0, i32 1
  %188 = extractvalue { ptr, i64 } %184, 1
  store i64 %188, ptr %187, align 8
  %189 = call noundef nonnull align 8 dereferenceable(16) ptr @_ZNSt14_Bit_referenceaSEb(ptr noundef nonnull align 8 dereferenceable(16) %24, i1 noundef zeroext true) #3
  call void @llvm.lifetime.end.p0(i64 16, ptr %24) #3
  %190 = call noundef nonnull align 4 dereferenceable(4) ptr @_ZNKSt16reverse_iteratorISt14_List_iteratorIiEEdeEv(ptr noundef nonnull align 8 dereferenceable(8) %7)
  %191 = load i32, ptr %190, align 4, !tbaa !8
  %192 = getelementptr inbounds nuw %"class.Transduction::Transduction", ptr %51, i32 0, i32 7
  %193 = load i32, ptr %19, align 4, !tbaa !8
  %194 = zext i32 %193 to i64
  %195 = call noundef nonnull align 4 dereferenceable(4) ptr @_ZNSt6vectorIiSaIiEEixEm(ptr noundef nonnull align 8 dereferenceable(24) %192, i64 noundef %194) #3
  %196 = load i32, ptr %195, align 4, !tbaa !8
  %197 = call noundef i32 @_ZN12Transduction12TransductionIN6NewBdd3ManENS1_5ParamEjLj4294967295EE4CspfEbii(ptr noundef nonnull align 8 dereferenceable(456) %51, i1 noundef zeroext true, i32 noundef %191, i32 noundef %196)
  store i32 %197, ptr %23, align 4, !tbaa !8
  br label %198

198:                                              ; preds = %179, %170
  %199 = load i32, ptr %23, align 4, !tbaa !8
  %200 = icmp ne i32 %199, 0
  br i1 %200, label %201, label %246

201:                                              ; preds = %198
  %202 = load i32, ptr %23, align 4, !tbaa !8
  %203 = load i32, ptr %5, align 4, !tbaa !8
  %204 = add nsw i32 %203, %202
  store i32 %204, ptr %5, align 4, !tbaa !8
  %205 = getelementptr inbounds nuw %"class.Transduction::Transduction", ptr %51, i32 0, i32 11
  %206 = call noundef nonnull align 4 dereferenceable(4) ptr @_ZNKSt16reverse_iteratorISt14_List_iteratorIiEEdeEv(ptr noundef nonnull align 8 dereferenceable(8) %7)
  %207 = load i32, ptr %206, align 4, !tbaa !8
  %208 = sext i32 %207 to i64
  %209 = call noundef nonnull align 8 dereferenceable(24) ptr @_ZNSt6vectorIS_IiSaIiEESaIS1_EEixEm(ptr noundef nonnull align 8 dereferenceable(24) %205, i64 noundef %208) #3
  %210 = call noundef zeroext i1 @_ZNKSt6vectorIiSaIiEE5emptyEv(ptr noundef nonnull align 8 dereferenceable(24) %209) #3
  br i1 %210, label %232, label %211

211:                                              ; preds = %201
  call void @llvm.lifetime.start.p0(i64 16, ptr %25) #3
  %212 = getelementptr inbounds nuw %"class.Transduction::Transduction", ptr %51, i32 0, i32 19
  %213 = call noundef nonnull align 4 dereferenceable(4) ptr @_ZNKSt16reverse_iteratorISt14_List_iteratorIiEEdeEv(ptr noundef nonnull align 8 dereferenceable(8) %7)
  %214 = load i32, ptr %213, align 4, !tbaa !8
  %215 = sext i32 %214 to i64
  %216 = call { ptr, i64 } @_ZNSt6vectorIbSaIbEEixEm(ptr noundef nonnull align 8 dereferenceable(40) %212, i64 noundef %215)
  %217 = getelementptr inbounds nuw { ptr, i64 }, ptr %25, i32 0, i32 0
  %218 = extractvalue { ptr, i64 } %216, 0
  store ptr %218, ptr %217, align 8
  %219 = getelementptr inbounds nuw { ptr, i64 }, ptr %25, i32 0, i32 1
  %220 = extractvalue { ptr, i64 } %216, 1
  store i64 %220, ptr %219, align 8
  %221 = call noundef nonnull align 8 dereferenceable(16) ptr @_ZNSt14_Bit_referenceaSEb(ptr noundef nonnull align 8 dereferenceable(16) %25, i1 noundef zeroext true) #3
  call void @llvm.lifetime.end.p0(i64 16, ptr %25) #3
  %222 = load i8, ptr %4, align 1, !tbaa !10, !range !12, !noundef !13
  %223 = trunc i8 %222 to i1
  br i1 %223, label %224, label %226

224:                                              ; preds = %211
  %225 = call noundef i32 @_ZN12Transduction12TransductionIN6NewBdd3ManENS1_5ParamEjLj4294967295EE4MspfEbii(ptr noundef nonnull align 8 dereferenceable(456) %51, i1 noundef zeroext true, i32 noundef -1, i32 noundef -1)
  br label %228

226:                                              ; preds = %211
  %227 = call noundef i32 @_ZN12Transduction12TransductionIN6NewBdd3ManENS1_5ParamEjLj4294967295EE4CspfEbii(ptr noundef nonnull align 8 dereferenceable(456) %51, i1 noundef zeroext true, i32 noundef -1, i32 noundef -1)
  br label %228

228:                                              ; preds = %226, %224
  %229 = phi i32 [ %225, %224 ], [ %227, %226 ]
  %230 = load i32, ptr %5, align 4, !tbaa !8
  %231 = add nsw i32 %230, %229
  store i32 %231, ptr %5, align 4, !tbaa !8
  br label %232

232:                                              ; preds = %228, %201
  %233 = getelementptr inbounds nuw %"class.Transduction::Transduction", ptr %51, i32 0, i32 3
  %234 = load i8, ptr %233, align 8, !tbaa !74, !range !12, !noundef !13
  %235 = trunc i8 %234 to i1
  br i1 %235, label %236, label %243

236:                                              ; preds = %232
  %237 = call noundef i32 @_ZNK12Transduction12TransductionIN6NewBdd3ManENS1_5ParamEjLj4294967295EE11CountLevelsEv(ptr noundef nonnull align 8 dereferenceable(456) %51)
  %238 = getelementptr inbounds nuw %"class.Transduction::Transduction", ptr %51, i32 0, i32 5
  %239 = load i32, ptr %238, align 8, !tbaa !83
  %240 = icmp sgt i32 %237, %239
  br i1 %240, label %241, label %243

241:                                              ; preds = %236
  call void @_ZN12Transduction12TransductionIN6NewBdd3ManENS1_5ParamEjLj4294967295EE4LoadERKNS_18TransductionBackupIS2_jLj4294967295EEE(ptr noundef nonnull align 8 dereferenceable(456) %51, ptr noundef nonnull align 8 dereferenceable(352) %17)
  %242 = load i32, ptr %18, align 4, !tbaa !8
  store i32 %242, ptr %5, align 4, !tbaa !8
  br label %245

243:                                              ; preds = %236, %232
  call void @_ZNK12Transduction12TransductionIN6NewBdd3ManENS1_5ParamEjLj4294967295EE4SaveERNS_18TransductionBackupIS2_jLj4294967295EEE(ptr noundef nonnull align 8 dereferenceable(456) %51, ptr noundef nonnull align 8 dereferenceable(352) %17)
  %244 = load i32, ptr %5, align 4, !tbaa !8
  store i32 %244, ptr %18, align 4, !tbaa !8
  br label %245

245:                                              ; preds = %243, %241
  br label %248

246:                                              ; preds = %198
  call void @_ZN12Transduction12TransductionIN6NewBdd3ManENS1_5ParamEjLj4294967295EE4LoadERKNS_18TransductionBackupIS2_jLj4294967295EEE(ptr noundef nonnull align 8 dereferenceable(456) %51, ptr noundef nonnull align 8 dereferenceable(352) %17)
  %247 = load i32, ptr %18, align 4, !tbaa !8
  store i32 %247, ptr %5, align 4, !tbaa !8
  br label %248

248:                                              ; preds = %246, %245
  call void @llvm.lifetime.end.p0(i64 4, ptr %23) #3
  br label %249

249:                                              ; preds = %248, %156
  br label %250

250:                                              ; preds = %249
  %251 = load i32, ptr %19, align 4, !tbaa !8
  %252 = add i32 %251, 1
  store i32 %252, ptr %19, align 4, !tbaa !8
  br label %115, !llvm.loop !93

253:                                              ; preds = %129, %121
  call void @llvm.lifetime.end.p0(i64 4, ptr %19) #3
  br label %254

254:                                              ; preds = %253
  %255 = getelementptr inbounds nuw %"class.Transduction::Transduction", ptr %51, i32 0, i32 11
  %256 = call noundef nonnull align 4 dereferenceable(4) ptr @_ZNKSt16reverse_iteratorISt14_List_iteratorIiEEdeEv(ptr noundef nonnull align 8 dereferenceable(8) %7)
  %257 = load i32, ptr %256, align 4, !tbaa !8
  %258 = sext i32 %257 to i64
  %259 = call noundef nonnull align 8 dereferenceable(24) ptr @_ZNSt6vectorIS_IiSaIiEESaIS1_EEixEm(ptr noundef nonnull align 8 dereferenceable(24) %255, i64 noundef %258) #3
  %260 = call noundef zeroext i1 @_ZNKSt6vectorIiSaIiEE5emptyEv(ptr noundef nonnull align 8 dereferenceable(24) %259) #3
  br i1 %260, label %261, label %262

261:                                              ; preds = %254
  store i32 4, ptr %9, align 4
  br label %497

262:                                              ; preds = %254
  call void @llvm.lifetime.start.p0(i64 40, ptr %26) #3
  %263 = getelementptr inbounds nuw %"class.Transduction::Transduction", ptr %51, i32 0, i32 4
  %264 = load i32, ptr %263, align 4, !tbaa !90
  %265 = sext i32 %264 to i64
  call void @llvm.lifetime.start.p0(i64 1, ptr %27) #3
  call void @_ZNSaIbEC2Ev(ptr noundef nonnull align 1 dereferenceable(1) %27) #3
  call void @_ZNSt6vectorIbSaIbEEC2EmRKS0_(ptr noundef nonnull align 8 dereferenceable(40) %26, i64 noundef %265, ptr noundef nonnull align 1 dereferenceable(1) %27)
  call void @_ZNSt15__new_allocatorIbED2Ev(ptr noundef nonnull align 1 dereferenceable(1) %27) #3
  call void @llvm.lifetime.end.p0(i64 1, ptr %27) #3
  %266 = call noundef nonnull align 4 dereferenceable(4) ptr @_ZNKSt16reverse_iteratorISt14_List_iteratorIiEEdeEv(ptr noundef nonnull align 8 dereferenceable(8) %7)
  %267 = load i32, ptr %266, align 4, !tbaa !8
  call void @_ZNK12Transduction12TransductionIN6NewBdd3ManENS1_5ParamEjLj4294967295EE14MarkFoCone_recERSt6vectorIbSaIbEEi(ptr noundef nonnull align 8 dereferenceable(456) %51, ptr noundef nonnull align 8 dereferenceable(40) %26, i32 noundef %267)
  call void @llvm.lifetime.start.p0(i64 24, ptr %28) #3
  %268 = getelementptr inbounds nuw %"class.Transduction::Transduction", ptr %51, i32 0, i32 9
  call void @_ZNSt7__cxx114listIiSaIiEEC2ERKS2_(ptr noundef nonnull align 8 dereferenceable(24) %28, ptr noundef nonnull align 8 dereferenceable(24) %268)
  call void @llvm.lifetime.start.p0(i64 8, ptr %29) #3
  %269 = call ptr @_ZNSt7__cxx114listIiSaIiEE5beginEv(ptr noundef nonnull align 8 dereferenceable(24) %28) #3
  %270 = getelementptr inbounds nuw %"struct.std::_List_iterator", ptr %29, i32 0, i32 0
  store ptr %269, ptr %270, align 8
  br label %271

271:                                              ; preds = %438, %262
  call void @llvm.lifetime.start.p0(i64 8, ptr %30) #3
  %272 = call ptr @_ZNSt7__cxx114listIiSaIiEE3endEv(ptr noundef nonnull align 8 dereferenceable(24) %28) #3
  %273 = getelementptr inbounds nuw %"struct.std::_List_iterator", ptr %30, i32 0, i32 0
  store ptr %272, ptr %273, align 8
  %274 = call noundef zeroext i1 @_ZStneRKSt14_List_iteratorIiES2_(ptr noundef nonnull align 8 dereferenceable(8) %29, ptr noundef nonnull align 8 dereferenceable(8) %30) #3
  call void @llvm.lifetime.end.p0(i64 8, ptr %30) #3
  br i1 %274, label %276, label %275

275:                                              ; preds = %271
  store i32 8, ptr %9, align 4
  br label %441

276:                                              ; preds = %271
  %277 = getelementptr inbounds nuw %"class.Transduction::Transduction", ptr %51, i32 0, i32 11
  %278 = call noundef nonnull align 4 dereferenceable(4) ptr @_ZNKSt16reverse_iteratorISt14_List_iteratorIiEEdeEv(ptr noundef nonnull align 8 dereferenceable(8) %7)
  %279 = load i32, ptr %278, align 4, !tbaa !8
  %280 = sext i32 %279 to i64
  %281 = call noundef nonnull align 8 dereferenceable(24) ptr @_ZNSt6vectorIS_IiSaIiEESaIS1_EEixEm(ptr noundef nonnull align 8 dereferenceable(24) %277, i64 noundef %280) #3
  %282 = call noundef zeroext i1 @_ZNKSt6vectorIiSaIiEE5emptyEv(ptr noundef nonnull align 8 dereferenceable(24) %281) #3
  br i1 %282, label %283, label %284

283:                                              ; preds = %276
  store i32 8, ptr %9, align 4
  br label %441

284:                                              ; preds = %276
  %285 = getelementptr inbounds nuw %"class.Transduction::Transduction", ptr %51, i32 0, i32 1
  %286 = load i32, ptr %285, align 8, !tbaa !35
  %287 = icmp sgt i32 %286, 2
  br i1 %287, label %288, label %326

288:                                              ; preds = %284
  call void @llvm.lifetime.start.p0(i64 392, ptr %31) #3
  call void @_ZNSt7__cxx1118basic_stringstreamIcSt11char_traitsIcESaIcEEC1Ev(ptr noundef nonnull align 8 dereferenceable(128) %31)
  %289 = getelementptr inbounds i8, ptr %31, i64 16
  %290 = call noundef nonnull align 8 dereferenceable(8) ptr @_ZStlsISt11char_traitsIcEERSt13basic_ostreamIcT_ES5_PKc(ptr noundef nonnull align 8 dereferenceable(8) %289, ptr noundef @.str.113)
  %291 = call i32 @_ZSt4setwi(i32 noundef 5)
  %292 = getelementptr inbounds nuw %"struct.std::_Setw", ptr %32, i32 0, i32 0
  store i32 %291, ptr %292, align 4
  %293 = getelementptr inbounds nuw %"struct.std::_Setw", ptr %32, i32 0, i32 0
  %294 = load i32, ptr %293, align 4
  %295 = call noundef nonnull align 8 dereferenceable(8) ptr @_ZStlsIcSt11char_traitsIcEERSt13basic_ostreamIT_T0_ES6_St5_Setw(ptr noundef nonnull align 8 dereferenceable(8) %290, i32 %294)
  %296 = call noundef nonnull align 4 dereferenceable(4) ptr @_ZNKSt14_List_iteratorIiEdeEv(ptr noundef nonnull align 8 dereferenceable(8) %29) #3
  %297 = load i32, ptr %296, align 4, !tbaa !8
  %298 = call noundef nonnull align 8 dereferenceable(8) ptr @_ZNSolsEi(ptr noundef nonnull align 8 dereferenceable(8) %295, i32 noundef %297)
  %299 = call noundef nonnull align 8 dereferenceable(8) ptr @_ZStlsISt11char_traitsIcEERSt13basic_ostreamIcT_ES5_PKc(ptr noundef nonnull align 8 dereferenceable(8) %298, ptr noundef @.str.87)
  %300 = call i32 @_ZSt4setwi(i32 noundef 5)
  %301 = getelementptr inbounds nuw %"struct.std::_Setw", ptr %33, i32 0, i32 0
  store i32 %300, ptr %301, align 4
  %302 = getelementptr inbounds nuw %"struct.std::_Setw", ptr %33, i32 0, i32 0
  %303 = load i32, ptr %302, align 4
  %304 = call noundef nonnull align 8 dereferenceable(8) ptr @_ZStlsIcSt11char_traitsIcEERSt13basic_ostreamIT_T0_ES6_St5_Setw(ptr noundef nonnull align 8 dereferenceable(8) %299, i32 %303)
  %305 = call ptr @_ZNSt7__cxx114listIiSaIiEE5beginEv(ptr noundef nonnull align 8 dereferenceable(24) %28) #3
  %306 = getelementptr inbounds nuw %"struct.std::_List_iterator", ptr %34, i32 0, i32 0
  store ptr %305, ptr %306, align 8
  call void @llvm.memcpy.p0.p0.i64(ptr align 8 %35, ptr align 8 %29, i64 8, i1 false), !tbaa.struct !94
  %307 = getelementptr inbounds nuw %"struct.std::_List_iterator", ptr %34, i32 0, i32 0
  %308 = load ptr, ptr %307, align 8
  %309 = getelementptr inbounds nuw %"struct.std::_List_iterator", ptr %35, i32 0, i32 0
  %310 = load ptr, ptr %309, align 8
  %311 = call noundef i64 @_ZSt8distanceISt14_List_iteratorIiEENSt15iterator_traitsIT_E15difference_typeES3_S3_(ptr %308, ptr %310)
  %312 = add nsw i64 %311, 1
  %313 = call noundef nonnull align 8 dereferenceable(8) ptr @_ZNSolsEl(ptr noundef nonnull align 8 dereferenceable(8) %304, i64 noundef %312)
  %314 = call noundef nonnull align 8 dereferenceable(8) ptr @_ZStlsISt11char_traitsIcEERSt13basic_ostreamIcT_ES5_PKc(ptr noundef nonnull align 8 dereferenceable(8) %313, ptr noundef @.str.88)
  %315 = call i32 @_ZSt4setwi(i32 noundef 5)
  %316 = getelementptr inbounds nuw %"struct.std::_Setw", ptr %36, i32 0, i32 0
  store i32 %315, ptr %316, align 4
  %317 = getelementptr inbounds nuw %"struct.std::_Setw", ptr %36, i32 0, i32 0
  %318 = load i32, ptr %317, align 4
  %319 = call noundef nonnull align 8 dereferenceable(8) ptr @_ZStlsIcSt11char_traitsIcEERSt13basic_ostreamIT_T0_ES6_St5_Setw(ptr noundef nonnull align 8 dereferenceable(8) %314, i32 %318)
  %320 = call noundef i64 @_ZNKSt7__cxx114listIiSaIiEE4sizeEv(ptr noundef nonnull align 8 dereferenceable(24) %28) #3
  %321 = call noundef nonnull align 8 dereferenceable(8) ptr @_ZNSolsEm(ptr noundef nonnull align 8 dereferenceable(8) %319, i64 noundef %320)
  %322 = call noundef nonnull align 8 dereferenceable(8) ptr @_ZStlsISt11char_traitsIcEERSt13basic_ostreamIcT_ES5_PKc(ptr noundef nonnull align 8 dereferenceable(8) %321, ptr noundef @.str.37)
  call void @_ZNKSt7__cxx1118basic_stringstreamIcSt11char_traitsIcESaIcEE3strEv(ptr dead_on_unwind writable sret(%"class.std::__cxx11::basic_string") align 8 %37, ptr noundef nonnull align 8 dereferenceable(128) %31)
  %323 = getelementptr inbounds nuw %"class.Transduction::Transduction", ptr %51, i32 0, i32 1
  %324 = load i32, ptr %323, align 8, !tbaa !35
  %325 = icmp sgt i32 %324, 3
  call void @_ZNK12Transduction12TransductionIN6NewBdd3ManENS1_5ParamEjLj4294967295EE10PrintStatsENSt7__cxx1112basic_stringIcSt11char_traitsIcESaIcEEEbi(ptr noundef nonnull align 8 dereferenceable(456) %51, ptr noundef %37, i1 noundef zeroext %325, i32 noundef 0)
  call void @_ZNSt7__cxx1112basic_stringIcSt11char_traitsIcESaIcEED2Ev(ptr noundef nonnull align 8 dereferenceable(32) %37) #3
  call void @_ZNSt7__cxx1118basic_stringstreamIcSt11char_traitsIcESaIcEED1Ev(ptr noundef nonnull align 8 dereferenceable(128) %31) #3
  call void @llvm.lifetime.end.p0(i64 392, ptr %31) #3
  br label %326

326:                                              ; preds = %288, %284
  call void @llvm.lifetime.start.p0(i64 16, ptr %38) #3
  %327 = call noundef nonnull align 4 dereferenceable(4) ptr @_ZNKSt14_List_iteratorIiEdeEv(ptr noundef nonnull align 8 dereferenceable(8) %29) #3
  %328 = load i32, ptr %327, align 4, !tbaa !8
  %329 = sext i32 %328 to i64
  %330 = call { ptr, i64 } @_ZNSt6vectorIbSaIbEEixEm(ptr noundef nonnull align 8 dereferenceable(40) %26, i64 noundef %329)
  %331 = getelementptr inbounds nuw { ptr, i64 }, ptr %38, i32 0, i32 0
  %332 = extractvalue { ptr, i64 } %330, 0
  store ptr %332, ptr %331, align 8
  %333 = getelementptr inbounds nuw { ptr, i64 }, ptr %38, i32 0, i32 1
  %334 = extractvalue { ptr, i64 } %330, 1
  store i64 %334, ptr %333, align 8
  %335 = call noundef zeroext i1 @_ZNKSt14_Bit_referencecvbEv(ptr noundef nonnull align 8 dereferenceable(16) %38) #3
  br i1 %335, label %344, label %336

336:                                              ; preds = %326
  %337 = getelementptr inbounds nuw %"class.Transduction::Transduction", ptr %51, i32 0, i32 11
  %338 = call noundef nonnull align 4 dereferenceable(4) ptr @_ZNKSt14_List_iteratorIiEdeEv(ptr noundef nonnull align 8 dereferenceable(8) %29) #3
  %339 = load i32, ptr %338, align 4, !tbaa !8
  %340 = sext i32 %339 to i64
  %341 = call noundef nonnull align 8 dereferenceable(24) ptr @_ZNSt6vectorIS_IiSaIiEESaIS1_EEixEm(ptr noundef nonnull align 8 dereferenceable(24) %337, i64 noundef %340) #3
  %342 = call noundef zeroext i1 @_ZNKSt6vectorIiSaIiEE5emptyEv(ptr noundef nonnull align 8 dereferenceable(24) %341) #3
  %343 = xor i1 %342, true
  br label %344

344:                                              ; preds = %336, %326
  %345 = phi i1 [ false, %326 ], [ %343, %336 ]
  call void @llvm.lifetime.end.p0(i64 16, ptr %38) #3
  br i1 %345, label %346, label %437

346:                                              ; preds = %344
  %347 = call noundef nonnull align 4 dereferenceable(4) ptr @_ZNKSt16reverse_iteratorISt14_List_iteratorIiEEdeEv(ptr noundef nonnull align 8 dereferenceable(8) %7)
  %348 = load i32, ptr %347, align 4, !tbaa !8
  %349 = call noundef nonnull align 4 dereferenceable(4) ptr @_ZNKSt14_List_iteratorIiEdeEv(ptr noundef nonnull align 8 dereferenceable(8) %29) #3
  %350 = load i32, ptr %349, align 4, !tbaa !8
  %351 = call noundef zeroext i1 @_ZN12Transduction12TransductionIN6NewBdd3ManENS1_5ParamEjLj4294967295EE10TryConnectEiib(ptr noundef nonnull align 8 dereferenceable(456) %51, i32 noundef %348, i32 noundef %350, i1 noundef zeroext false)
  br i1 %351, label %358, label %352

352:                                              ; preds = %346
  %353 = call noundef nonnull align 4 dereferenceable(4) ptr @_ZNKSt16reverse_iteratorISt14_List_iteratorIiEEdeEv(ptr noundef nonnull align 8 dereferenceable(8) %7)
  %354 = load i32, ptr %353, align 4, !tbaa !8
  %355 = call noundef nonnull align 4 dereferenceable(4) ptr @_ZNKSt14_List_iteratorIiEdeEv(ptr noundef nonnull align 8 dereferenceable(8) %29) #3
  %356 = load i32, ptr %355, align 4, !tbaa !8
  %357 = call noundef zeroext i1 @_ZN12Transduction12TransductionIN6NewBdd3ManENS1_5ParamEjLj4294967295EE10TryConnectEiib(ptr noundef nonnull align 8 dereferenceable(456) %51, i32 noundef %354, i32 noundef %356, i1 noundef zeroext true)
  br i1 %357, label %358, label %436

358:                                              ; preds = %352, %346
  %359 = load i32, ptr %5, align 4, !tbaa !8
  %360 = add nsw i32 %359, -1
  store i32 %360, ptr %5, align 4, !tbaa !8
  call void @llvm.lifetime.start.p0(i64 4, ptr %39) #3
  %361 = load i8, ptr %4, align 1, !tbaa !10, !range !12, !noundef !13
  %362 = trunc i8 %361 to i1
  br i1 %362, label %363, label %369

363:                                              ; preds = %358
  call void @_ZN12Transduction12TransductionIN6NewBdd3ManENS1_5ParamEjLj4294967295EE5BuildEb(ptr noundef nonnull align 8 dereferenceable(456) %51, i1 noundef zeroext true)
  %364 = call noundef nonnull align 4 dereferenceable(4) ptr @_ZNKSt16reverse_iteratorISt14_List_iteratorIiEEdeEv(ptr noundef nonnull align 8 dereferenceable(8) %7)
  %365 = load i32, ptr %364, align 4, !tbaa !8
  %366 = call noundef nonnull align 4 dereferenceable(4) ptr @_ZNKSt14_List_iteratorIiEdeEv(ptr noundef nonnull align 8 dereferenceable(8) %29) #3
  %367 = load i32, ptr %366, align 4, !tbaa !8
  %368 = call noundef i32 @_ZN12Transduction12TransductionIN6NewBdd3ManENS1_5ParamEjLj4294967295EE4MspfEbii(ptr noundef nonnull align 8 dereferenceable(456) %51, i1 noundef zeroext true, i32 noundef %365, i32 noundef %367)
  store i32 %368, ptr %39, align 4, !tbaa !8
  br label %385

369:                                              ; preds = %358
  call void @llvm.lifetime.start.p0(i64 16, ptr %40) #3
  %370 = getelementptr inbounds nuw %"class.Transduction::Transduction", ptr %51, i32 0, i32 19
  %371 = call noundef nonnull align 4 dereferenceable(4) ptr @_ZNKSt16reverse_iteratorISt14_List_iteratorIiEEdeEv(ptr noundef nonnull align 8 dereferenceable(8) %7)
  %372 = load i32, ptr %371, align 4, !tbaa !8
  %373 = sext i32 %372 to i64
  %374 = call { ptr, i64 } @_ZNSt6vectorIbSaIbEEixEm(ptr noundef nonnull align 8 dereferenceable(40) %370, i64 noundef %373)
  %375 = getelementptr inbounds nuw { ptr, i64 }, ptr %40, i32 0, i32 0
  %376 = extractvalue { ptr, i64 } %374, 0
  store ptr %376, ptr %375, align 8
  %377 = getelementptr inbounds nuw { ptr, i64 }, ptr %40, i32 0, i32 1
  %378 = extractvalue { ptr, i64 } %374, 1
  store i64 %378, ptr %377, align 8
  %379 = call noundef nonnull align 8 dereferenceable(16) ptr @_ZNSt14_Bit_referenceaSEb(ptr noundef nonnull align 8 dereferenceable(16) %40, i1 noundef zeroext true) #3
  call void @llvm.lifetime.end.p0(i64 16, ptr %40) #3
  %380 = call noundef nonnull align 4 dereferenceable(4) ptr @_ZNKSt16reverse_iteratorISt14_List_iteratorIiEEdeEv(ptr noundef nonnull align 8 dereferenceable(8) %7)
  %381 = load i32, ptr %380, align 4, !tbaa !8
  %382 = call noundef nonnull align 4 dereferenceable(4) ptr @_ZNKSt14_List_iteratorIiEdeEv(ptr noundef nonnull align 8 dereferenceable(8) %29) #3
  %383 = load i32, ptr %382, align 4, !tbaa !8
  %384 = call noundef i32 @_ZN12Transduction12TransductionIN6NewBdd3ManENS1_5ParamEjLj4294967295EE4CspfEbii(ptr noundef nonnull align 8 dereferenceable(456) %51, i1 noundef zeroext true, i32 noundef %381, i32 noundef %383)
  store i32 %384, ptr %39, align 4, !tbaa !8
  br label %385

385:                                              ; preds = %369, %363
  %386 = load i32, ptr %39, align 4, !tbaa !8
  %387 = icmp ne i32 %386, 0
  br i1 %387, label %388, label %433

388:                                              ; preds = %385
  %389 = load i32, ptr %39, align 4, !tbaa !8
  %390 = load i32, ptr %5, align 4, !tbaa !8
  %391 = add nsw i32 %390, %389
  store i32 %391, ptr %5, align 4, !tbaa !8
  %392 = getelementptr inbounds nuw %"class.Transduction::Transduction", ptr %51, i32 0, i32 11
  %393 = call noundef nonnull align 4 dereferenceable(4) ptr @_ZNKSt16reverse_iteratorISt14_List_iteratorIiEEdeEv(ptr noundef nonnull align 8 dereferenceable(8) %7)
  %394 = load i32, ptr %393, align 4, !tbaa !8
  %395 = sext i32 %394 to i64
  %396 = call noundef nonnull align 8 dereferenceable(24) ptr @_ZNSt6vectorIS_IiSaIiEESaIS1_EEixEm(ptr noundef nonnull align 8 dereferenceable(24) %392, i64 noundef %395) #3
  %397 = call noundef zeroext i1 @_ZNKSt6vectorIiSaIiEE5emptyEv(ptr noundef nonnull align 8 dereferenceable(24) %396) #3
  br i1 %397, label %419, label %398

398:                                              ; preds = %388
  call void @llvm.lifetime.start.p0(i64 16, ptr %41) #3
  %399 = getelementptr inbounds nuw %"class.Transduction::Transduction", ptr %51, i32 0, i32 19
  %400 = call noundef nonnull align 4 dereferenceable(4) ptr @_ZNKSt16reverse_iteratorISt14_List_iteratorIiEEdeEv(ptr noundef nonnull align 8 dereferenceable(8) %7)
  %401 = load i32, ptr %400, align 4, !tbaa !8
  %402 = sext i32 %401 to i64
  %403 = call { ptr, i64 } @_ZNSt6vectorIbSaIbEEixEm(ptr noundef nonnull align 8 dereferenceable(40) %399, i64 noundef %402)
  %404 = getelementptr inbounds nuw { ptr, i64 }, ptr %41, i32 0, i32 0
  %405 = extractvalue { ptr, i64 } %403, 0
  store ptr %405, ptr %404, align 8
  %406 = getelementptr inbounds nuw { ptr, i64 }, ptr %41, i32 0, i32 1
  %407 = extractvalue { ptr, i64 } %403, 1
  store i64 %407, ptr %406, align 8
  %408 = call noundef nonnull align 8 dereferenceable(16) ptr @_ZNSt14_Bit_referenceaSEb(ptr noundef nonnull align 8 dereferenceable(16) %41, i1 noundef zeroext true) #3
  call void @llvm.lifetime.end.p0(i64 16, ptr %41) #3
  %409 = load i8, ptr %4, align 1, !tbaa !10, !range !12, !noundef !13
  %410 = trunc i8 %409 to i1
  br i1 %410, label %411, label %413

411:                                              ; preds = %398
  %412 = call noundef i32 @_ZN12Transduction12TransductionIN6NewBdd3ManENS1_5ParamEjLj4294967295EE4MspfEbii(ptr noundef nonnull align 8 dereferenceable(456) %51, i1 noundef zeroext true, i32 noundef -1, i32 noundef -1)
  br label %415

413:                                              ; preds = %398
  %414 = call noundef i32 @_ZN12Transduction12TransductionIN6NewBdd3ManENS1_5ParamEjLj4294967295EE4CspfEbii(ptr noundef nonnull align 8 dereferenceable(456) %51, i1 noundef zeroext true, i32 noundef -1, i32 noundef -1)
  br label %415

415:                                              ; preds = %413, %411
  %416 = phi i32 [ %412, %411 ], [ %414, %413 ]
  %417 = load i32, ptr %5, align 4, !tbaa !8
  %418 = add nsw i32 %417, %416
  store i32 %418, ptr %5, align 4, !tbaa !8
  br label %419

419:                                              ; preds = %415, %388
  %420 = getelementptr inbounds nuw %"class.Transduction::Transduction", ptr %51, i32 0, i32 3
  %421 = load i8, ptr %420, align 8, !tbaa !74, !range !12, !noundef !13
  %422 = trunc i8 %421 to i1
  br i1 %422, label %423, label %430

423:                                              ; preds = %419
  %424 = call noundef i32 @_ZNK12Transduction12TransductionIN6NewBdd3ManENS1_5ParamEjLj4294967295EE11CountLevelsEv(ptr noundef nonnull align 8 dereferenceable(456) %51)
  %425 = getelementptr inbounds nuw %"class.Transduction::Transduction", ptr %51, i32 0, i32 5
  %426 = load i32, ptr %425, align 8, !tbaa !83
  %427 = icmp sgt i32 %424, %426
  br i1 %427, label %428, label %430

428:                                              ; preds = %423
  call void @_ZN12Transduction12TransductionIN6NewBdd3ManENS1_5ParamEjLj4294967295EE4LoadERKNS_18TransductionBackupIS2_jLj4294967295EEE(ptr noundef nonnull align 8 dereferenceable(456) %51, ptr noundef nonnull align 8 dereferenceable(352) %17)
  %429 = load i32, ptr %18, align 4, !tbaa !8
  store i32 %429, ptr %5, align 4, !tbaa !8
  br label %432

430:                                              ; preds = %423, %419
  call void @_ZNK12Transduction12TransductionIN6NewBdd3ManENS1_5ParamEjLj4294967295EE4SaveERNS_18TransductionBackupIS2_jLj4294967295EEE(ptr noundef nonnull align 8 dereferenceable(456) %51, ptr noundef nonnull align 8 dereferenceable(352) %17)
  %431 = load i32, ptr %5, align 4, !tbaa !8
  store i32 %431, ptr %18, align 4, !tbaa !8
  br label %432

432:                                              ; preds = %430, %428
  br label %435

433:                                              ; preds = %385
  call void @_ZN12Transduction12TransductionIN6NewBdd3ManENS1_5ParamEjLj4294967295EE4LoadERKNS_18TransductionBackupIS2_jLj4294967295EEE(ptr noundef nonnull align 8 dereferenceable(456) %51, ptr noundef nonnull align 8 dereferenceable(352) %17)
  %434 = load i32, ptr %18, align 4, !tbaa !8
  store i32 %434, ptr %5, align 4, !tbaa !8
  br label %435

435:                                              ; preds = %433, %432
  call void @llvm.lifetime.end.p0(i64 4, ptr %39) #3
  br label %436

436:                                              ; preds = %435, %352
  br label %437

437:                                              ; preds = %436, %344
  br label %438

438:                                              ; preds = %437
  %439 = call ptr @_ZNSt14_List_iteratorIiEppEi(ptr noundef nonnull align 8 dereferenceable(8) %29, i32 noundef 0) #3
  %440 = getelementptr inbounds nuw %"struct.std::_List_iterator", ptr %42, i32 0, i32 0
  store ptr %439, ptr %440, align 8
  br label %271, !llvm.loop !96

441:                                              ; preds = %283, %275
  call void @llvm.lifetime.end.p0(i64 8, ptr %29) #3
  br label %442

442:                                              ; preds = %441
  %443 = getelementptr inbounds nuw %"class.Transduction::Transduction", ptr %51, i32 0, i32 11
  %444 = call noundef nonnull align 4 dereferenceable(4) ptr @_ZNKSt16reverse_iteratorISt14_List_iteratorIiEEdeEv(ptr noundef nonnull align 8 dereferenceable(8) %7)
  %445 = load i32, ptr %444, align 4, !tbaa !8
  %446 = sext i32 %445 to i64
  %447 = call noundef nonnull align 8 dereferenceable(24) ptr @_ZNSt6vectorIS_IiSaIiEESaIS1_EEixEm(ptr noundef nonnull align 8 dereferenceable(24) %443, i64 noundef %446) #3
  %448 = call noundef zeroext i1 @_ZNKSt6vectorIiSaIiEE5emptyEv(ptr noundef nonnull align 8 dereferenceable(24) %447) #3
  br i1 %448, label %449, label %450

449:                                              ; preds = %442
  store i32 4, ptr %9, align 4
  br label %496

450:                                              ; preds = %442
  %451 = getelementptr inbounds nuw %"class.Transduction::Transduction", ptr %51, i32 0, i32 10
  %452 = call noundef nonnull align 4 dereferenceable(4) ptr @_ZNKSt16reverse_iteratorISt14_List_iteratorIiEEdeEv(ptr noundef nonnull align 8 dereferenceable(8) %7)
  %453 = load i32, ptr %452, align 4, !tbaa !8
  %454 = sext i32 %453 to i64
  %455 = call noundef nonnull align 8 dereferenceable(24) ptr @_ZNSt6vectorIS_IiSaIiEESaIS1_EEixEm(ptr noundef nonnull align 8 dereferenceable(24) %451, i64 noundef %454) #3
  %456 = call noundef i64 @_ZNKSt6vectorIiSaIiEE4sizeEv(ptr noundef nonnull align 8 dereferenceable(24) %455) #3
  %457 = icmp ugt i64 %456, 2
  br i1 %457, label %458, label %495

458:                                              ; preds = %450
  call void @llvm.lifetime.start.p0(i64 8, ptr %43) #3
  %459 = getelementptr inbounds nuw %"class.Transduction::Transduction", ptr %51, i32 0, i32 9
  %460 = call ptr @_ZNSt7__cxx114listIiSaIiEE5beginEv(ptr noundef nonnull align 8 dereferenceable(24) %459) #3
  %461 = getelementptr inbounds nuw %"struct.std::_List_iterator", ptr %44, i32 0, i32 0
  store ptr %460, ptr %461, align 8
  %462 = getelementptr inbounds nuw %"class.Transduction::Transduction", ptr %51, i32 0, i32 9
  %463 = call ptr @_ZNSt7__cxx114listIiSaIiEE3endEv(ptr noundef nonnull align 8 dereferenceable(24) %462) #3
  %464 = getelementptr inbounds nuw %"struct.std::_List_iterator", ptr %45, i32 0, i32 0
  store ptr %463, ptr %464, align 8
  %465 = call noundef nonnull align 4 dereferenceable(4) ptr @_ZNKSt16reverse_iteratorISt14_List_iteratorIiEEdeEv(ptr noundef nonnull align 8 dereferenceable(8) %7)
  %466 = getelementptr inbounds nuw %"struct.std::_List_iterator", ptr %44, i32 0, i32 0
  %467 = load ptr, ptr %466, align 8
  %468 = getelementptr inbounds nuw %"struct.std::_List_iterator", ptr %45, i32 0, i32 0
  %469 = load ptr, ptr %468, align 8
  %470 = call ptr @_ZSt4findISt14_List_iteratorIiEiET_S2_S2_RKT0_(ptr %467, ptr %469, ptr noundef nonnull align 4 dereferenceable(4) %465)
  %471 = getelementptr inbounds nuw %"struct.std::_List_iterator", ptr %43, i32 0, i32 0
  store ptr %470, ptr %471, align 8
  call void @llvm.lifetime.start.p0(i64 4, ptr %46) #3
  %472 = getelementptr inbounds nuw %"class.Transduction::Transduction", ptr %51, i32 0, i32 4
  %473 = load i32, ptr %472, align 4, !tbaa !90
  store i32 %473, ptr %46, align 4, !tbaa !8
  %474 = getelementptr inbounds nuw %"class.Transduction::Transduction", ptr %51, i32 0, i32 3
  %475 = load i8, ptr %474, align 8, !tbaa !74, !range !12, !noundef !13
  %476 = trunc i8 %475 to i1
  br i1 %476, label %477, label %490

477:                                              ; preds = %458
  %478 = call noundef i32 @_ZN12Transduction12TransductionIN6NewBdd3ManENS1_5ParamEjLj4294967295EE20BalancedDecomposeOneERKSt14_List_iteratorIiERi(ptr noundef nonnull align 8 dereferenceable(456) %51, ptr noundef nonnull align 8 dereferenceable(8) %43, ptr noundef nonnull align 4 dereferenceable(4) %46)
  %479 = load i8, ptr %4, align 1, !tbaa !10, !range !12, !noundef !13
  %480 = trunc i8 %479 to i1
  br i1 %480, label %481, label %483

481:                                              ; preds = %477
  %482 = call noundef i32 @_ZN12Transduction12TransductionIN6NewBdd3ManENS1_5ParamEjLj4294967295EE4MspfEbii(ptr noundef nonnull align 8 dereferenceable(456) %51, i1 noundef zeroext true, i32 noundef -1, i32 noundef -1)
  br label %485

483:                                              ; preds = %477
  %484 = call noundef i32 @_ZN12Transduction12TransductionIN6NewBdd3ManENS1_5ParamEjLj4294967295EE4CspfEbii(ptr noundef nonnull align 8 dereferenceable(456) %51, i1 noundef zeroext true, i32 noundef -1, i32 noundef -1)
  br label %485

485:                                              ; preds = %483, %481
  %486 = phi i32 [ %482, %481 ], [ %484, %483 ]
  %487 = add nsw i32 %478, %486
  %488 = load i32, ptr %5, align 4, !tbaa !8
  %489 = add nsw i32 %488, %487
  store i32 %489, ptr %5, align 4, !tbaa !8
  br label %494

490:                                              ; preds = %458
  %491 = call noundef i32 @_ZN12Transduction12TransductionIN6NewBdd3ManENS1_5ParamEjLj4294967295EE19TrivialDecomposeOneERKSt14_List_iteratorIiERi(ptr noundef nonnull align 8 dereferenceable(456) %51, ptr noundef nonnull align 8 dereferenceable(8) %43, ptr noundef nonnull align 4 dereferenceable(4) %46)
  %492 = load i32, ptr %5, align 4, !tbaa !8
  %493 = add nsw i32 %492, %491
  store i32 %493, ptr %5, align 4, !tbaa !8
  br label %494

494:                                              ; preds = %490, %485
  call void @llvm.lifetime.end.p0(i64 4, ptr %46) #3
  call void @llvm.lifetime.end.p0(i64 8, ptr %43) #3
  br label %495

495:                                              ; preds = %494, %450
  store i32 0, ptr %9, align 4
  br label %496

496:                                              ; preds = %495, %449
  call void @_ZNSt7__cxx1110_List_baseIiSaIiEED2Ev(ptr noundef nonnull align 8 dereferenceable(24) %28) #3
  call void @llvm.lifetime.end.p0(i64 24, ptr %28) #3
  call void @_ZNSt13_Bvector_baseISaIbEED2Ev(ptr noundef nonnull align 8 dereferenceable(40) %26) #3
  call void @llvm.lifetime.end.p0(i64 40, ptr %26) #3
  br label %497

497:                                              ; preds = %496, %261
  call void @llvm.lifetime.end.p0(i64 4, ptr %18) #3
  call void @_ZN12Transduction18TransductionBackupIN6NewBdd3ManEjLj4294967295EED2Ev(ptr noundef nonnull align 8 dereferenceable(352) %17) #3
  call void @llvm.lifetime.end.p0(i64 352, ptr %17) #3
  %498 = load i32, ptr %9, align 4
  switch i32 %498, label %508 [
    i32 0, label %499
    i32 4, label %500
  ]

499:                                              ; preds = %497
  br label %500

500:                                              ; preds = %499, %497, %107
  call void @llvm.lifetime.start.p0(i64 8, ptr %47) #3
  call void @_ZNSt16reverse_iteratorISt14_List_iteratorIiEEppEi(ptr dead_on_unwind writable sret(%"class.std::reverse_iterator") align 8 %47, ptr noundef nonnull align 8 dereferenceable(8) %7, i32 noundef 0)
  call void @llvm.lifetime.end.p0(i64 8, ptr %47) #3
  br label %61, !llvm.loop !97

501:                                              ; preds = %63
  %502 = getelementptr inbounds nuw %"class.Transduction::Transduction", ptr %51, i32 0, i32 1
  %503 = load i32, ptr %502, align 8, !tbaa !35
  %504 = icmp ne i32 %503, 0
  br i1 %504, label %505, label %506

505:                                              ; preds = %501
  call void @llvm.lifetime.start.p0(i64 1, ptr %49) #3
  call void @_ZNSaIcEC2Ev(ptr noundef nonnull align 1 dereferenceable(1) %49) #3
  call void @_ZNSt7__cxx1112basic_stringIcSt11char_traitsIcESaIcEEC2IS3_EEPKcRKS3_(ptr noundef nonnull align 8 dereferenceable(32) %48, ptr noundef @.str.114, ptr noundef nonnull align 1 dereferenceable(1) %49)
  call void @_ZNK12Transduction12TransductionIN6NewBdd3ManENS1_5ParamEjLj4294967295EE10PrintStatsENSt7__cxx1112basic_stringIcSt11char_traitsIcESaIcEEEbi(ptr noundef nonnull align 8 dereferenceable(456) %51, ptr noundef %48, i1 noundef zeroext true, i32 noundef 11)
  call void @_ZNSt7__cxx1112basic_stringIcSt11char_traitsIcESaIcEED2Ev(ptr noundef nonnull align 8 dereferenceable(32) %48) #3
  call void @_ZNSt15__new_allocatorIcED2Ev(ptr noundef nonnull align 1 dereferenceable(1) %49) #3
  call void @llvm.lifetime.end.p0(i64 1, ptr %49) #3
  br label %506

506:                                              ; preds = %505, %501
  %507 = load i32, ptr %5, align 4, !tbaa !8
  store i32 1, ptr %9, align 4
  call void @_ZNSt7__cxx1110_List_baseIiSaIiEED2Ev(ptr noundef nonnull align 8 dereferenceable(24) %6) #3
  call void @llvm.lifetime.end.p0(i64 24, ptr %6) #3
  call void @llvm.lifetime.end.p0(i64 4, ptr %5) #3
  ret i32 %507

508:                                              ; preds = %497
  unreachable
}

; Function Attrs: mustprogress nounwind uwtable
define linkonce_odr noundef i32 @_ZN12Transduction12TransductionIN6NewBdd3ManENS1_5ParamEjLj4294967295EE11ResubSharedEb(ptr noundef nonnull align 8 dereferenceable(456) %0, i1 noundef zeroext %1) #4 comdat align 2 {
  %3 = alloca ptr, align 8
  %4 = alloca i8, align 1
  %5 = alloca i32, align 4
  %6 = alloca %"class.std::__cxx11::list", align 8
  %7 = alloca %"class.std::reverse_iterator", align 8
  %8 = alloca %"class.std::reverse_iterator", align 8
  %9 = alloca i32, align 4
  %10 = alloca %"class.std::__cxx11::basic_stringstream", align 8
  %11 = alloca %"struct.std::_Setw", align 4
  %12 = alloca %"struct.std::_Setw", align 4
  %13 = alloca %"class.std::reverse_iterator", align 8
  %14 = alloca %"class.std::reverse_iterator", align 8
  %15 = alloca %"struct.std::_Setw", align 4
  %16 = alloca %"class.std::__cxx11::basic_string", align 8
  %17 = alloca i8, align 1
  %18 = alloca i32, align 4
  %19 = alloca %"class.std::vector.18", align 8
  %20 = alloca %"class.std::allocator.45", align 1
  %21 = alloca %"struct.std::_List_iterator", align 8
  %22 = alloca %"struct.std::_List_iterator", align 8
  %23 = alloca %"struct.std::_Bit_reference", align 8
  %24 = alloca %"struct.std::_List_iterator", align 8
  %25 = alloca %"struct.std::_Bit_reference", align 8
  %26 = alloca %"struct.std::_Bit_reference", align 8
  %27 = alloca %"class.std::reverse_iterator", align 8
  %28 = alloca %"class.std::__cxx11::basic_string", align 8
  %29 = alloca %"class.std::allocator.34", align 1
  store ptr %0, ptr %3, align 8, !tbaa !33
  %30 = zext i1 %1 to i8
  store i8 %30, ptr %4, align 1, !tbaa !10
  %31 = load ptr, ptr %3, align 8
  call void @llvm.lifetime.start.p0(i64 4, ptr %5) #3
  %32 = load i8, ptr %4, align 1, !tbaa !10, !range !12, !noundef !13
  %33 = trunc i8 %32 to i1
  br i1 %33, label %34, label %36

34:                                               ; preds = %2
  %35 = call noundef i32 @_ZN12Transduction12TransductionIN6NewBdd3ManENS1_5ParamEjLj4294967295EE4MspfEbii(ptr noundef nonnull align 8 dereferenceable(456) %31, i1 noundef zeroext true, i32 noundef -1, i32 noundef -1)
  br label %38

36:                                               ; preds = %2
  %37 = call noundef i32 @_ZN12Transduction12TransductionIN6NewBdd3ManENS1_5ParamEjLj4294967295EE4CspfEbii(ptr noundef nonnull align 8 dereferenceable(456) %31, i1 noundef zeroext true, i32 noundef -1, i32 noundef -1)
  br label %38

38:                                               ; preds = %36, %34
  %39 = phi i32 [ %35, %34 ], [ %37, %36 ]
  store i32 %39, ptr %5, align 4, !tbaa !8
  call void @llvm.lifetime.start.p0(i64 24, ptr %6) #3
  %40 = getelementptr inbounds nuw %"class.Transduction::Transduction", ptr %31, i32 0, i32 9
  call void @_ZNSt7__cxx114listIiSaIiEEC2ERKS2_(ptr noundef nonnull align 8 dereferenceable(24) %6, ptr noundef nonnull align 8 dereferenceable(24) %40)
  call void @llvm.lifetime.start.p0(i64 8, ptr %7) #3
  call void @_ZNSt7__cxx114listIiSaIiEE6rbeginEv(ptr dead_on_unwind writable sret(%"class.std::reverse_iterator") align 8 %7, ptr noundef nonnull align 8 dereferenceable(24) %6) #3
  br label %41

41:                                               ; preds = %249, %38
  call void @llvm.lifetime.start.p0(i64 8, ptr %8) #3
  call void @_ZNSt7__cxx114listIiSaIiEE4rendEv(ptr dead_on_unwind writable sret(%"class.std::reverse_iterator") align 8 %8, ptr noundef nonnull align 8 dereferenceable(24) %6) #3
  %42 = call noundef zeroext i1 @_ZStneISt14_List_iteratorIiEEbRKSt16reverse_iteratorIT_ES6_(ptr noundef nonnull align 8 dereferenceable(8) %7, ptr noundef nonnull align 8 dereferenceable(8) %8)
  call void @llvm.lifetime.end.p0(i64 8, ptr %8) #3
  br i1 %42, label %44, label %43

43:                                               ; preds = %41
  store i32 2, ptr %9, align 4
  call void @llvm.lifetime.end.p0(i64 8, ptr %7) #3
  br label %250

44:                                               ; preds = %41
  %45 = getelementptr inbounds nuw %"class.Transduction::Transduction", ptr %31, i32 0, i32 1
  %46 = load i32, ptr %45, align 8, !tbaa !35
  %47 = icmp sgt i32 %46, 1
  br i1 %47, label %48, label %80

48:                                               ; preds = %44
  call void @llvm.lifetime.start.p0(i64 392, ptr %10) #3
  call void @_ZNSt7__cxx1118basic_stringstreamIcSt11char_traitsIcESaIcEEC1Ev(ptr noundef nonnull align 8 dereferenceable(128) %10)
  %49 = getelementptr inbounds i8, ptr %10, i64 16
  %50 = call noundef nonnull align 8 dereferenceable(8) ptr @_ZStlsISt11char_traitsIcEERSt13basic_ostreamIcT_ES5_PKc(ptr noundef nonnull align 8 dereferenceable(8) %49, ptr noundef @.str.115)
  %51 = call i32 @_ZSt4setwi(i32 noundef 5)
  %52 = getelementptr inbounds nuw %"struct.std::_Setw", ptr %11, i32 0, i32 0
  store i32 %51, ptr %52, align 4
  %53 = getelementptr inbounds nuw %"struct.std::_Setw", ptr %11, i32 0, i32 0
  %54 = load i32, ptr %53, align 4
  %55 = call noundef nonnull align 8 dereferenceable(8) ptr @_ZStlsIcSt11char_traitsIcEERSt13basic_ostreamIT_T0_ES6_St5_Setw(ptr noundef nonnull align 8 dereferenceable(8) %50, i32 %54)
  %56 = call noundef nonnull align 4 dereferenceable(4) ptr @_ZNKSt16reverse_iteratorISt14_List_iteratorIiEEdeEv(ptr noundef nonnull align 8 dereferenceable(8) %7)
  %57 = load i32, ptr %56, align 4, !tbaa !8
  %58 = call noundef nonnull align 8 dereferenceable(8) ptr @_ZNSolsEi(ptr noundef nonnull align 8 dereferenceable(8) %55, i32 noundef %57)
  %59 = call noundef nonnull align 8 dereferenceable(8) ptr @_ZStlsISt11char_traitsIcEERSt13basic_ostreamIcT_ES5_PKc(ptr noundef nonnull align 8 dereferenceable(8) %58, ptr noundef @.str.87)
  %60 = call i32 @_ZSt4setwi(i32 noundef 5)
  %61 = getelementptr inbounds nuw %"struct.std::_Setw", ptr %12, i32 0, i32 0
  store i32 %60, ptr %61, align 4
  %62 = getelementptr inbounds nuw %"struct.std::_Setw", ptr %12, i32 0, i32 0
  %63 = load i32, ptr %62, align 4
  %64 = call noundef nonnull align 8 dereferenceable(8) ptr @_ZStlsIcSt11char_traitsIcEERSt13basic_ostreamIT_T0_ES6_St5_Setw(ptr noundef nonnull align 8 dereferenceable(8) %59, i32 %63)
  call void @_ZNSt7__cxx114listIiSaIiEE6rbeginEv(ptr dead_on_unwind writable sret(%"class.std::reverse_iterator") align 8 %13, ptr noundef nonnull align 8 dereferenceable(24) %6) #3
  call void @_ZNSt16reverse_iteratorISt14_List_iteratorIiEEC2ERKS2_(ptr noundef nonnull align 8 dereferenceable(8) %14, ptr noundef nonnull align 8 dereferenceable(8) %7) #3
  %65 = call noundef i64 @_ZSt8distanceISt16reverse_iteratorISt14_List_iteratorIiEEENSt15iterator_traitsIT_E15difference_typeES5_S5_(ptr noundef %13, ptr noundef %14)
  %66 = add nsw i64 %65, 1
  %67 = call noundef nonnull align 8 dereferenceable(8) ptr @_ZNSolsEl(ptr noundef nonnull align 8 dereferenceable(8) %64, i64 noundef %66)
  %68 = call noundef nonnull align 8 dereferenceable(8) ptr @_ZStlsISt11char_traitsIcEERSt13basic_ostreamIcT_ES5_PKc(ptr noundef nonnull align 8 dereferenceable(8) %67, ptr noundef @.str.88)
  %69 = call i32 @_ZSt4setwi(i32 noundef 5)
  %70 = getelementptr inbounds nuw %"struct.std::_Setw", ptr %15, i32 0, i32 0
  store i32 %69, ptr %70, align 4
  %71 = getelementptr inbounds nuw %"struct.std::_Setw", ptr %15, i32 0, i32 0
  %72 = load i32, ptr %71, align 4
  %73 = call noundef nonnull align 8 dereferenceable(8) ptr @_ZStlsIcSt11char_traitsIcEERSt13basic_ostreamIT_T0_ES6_St5_Setw(ptr noundef nonnull align 8 dereferenceable(8) %68, i32 %72)
  %74 = call noundef i64 @_ZNKSt7__cxx114listIiSaIiEE4sizeEv(ptr noundef nonnull align 8 dereferenceable(24) %6) #3
  %75 = call noundef nonnull align 8 dereferenceable(8) ptr @_ZNSolsEm(ptr noundef nonnull align 8 dereferenceable(8) %73, i64 noundef %74)
  %76 = call noundef nonnull align 8 dereferenceable(8) ptr @_ZStlsISt11char_traitsIcEERSt13basic_ostreamIcT_ES5_PKc(ptr noundef nonnull align 8 dereferenceable(8) %75, ptr noundef @.str.37)
  call void @_ZNKSt7__cxx1118basic_stringstreamIcSt11char_traitsIcESaIcEE3strEv(ptr dead_on_unwind writable sret(%"class.std::__cxx11::basic_string") align 8 %16, ptr noundef nonnull align 8 dereferenceable(128) %10)
  %77 = getelementptr inbounds nuw %"class.Transduction::Transduction", ptr %31, i32 0, i32 1
  %78 = load i32, ptr %77, align 8, !tbaa !35
  %79 = icmp sgt i32 %78, 2
  call void @_ZNK12Transduction12TransductionIN6NewBdd3ManENS1_5ParamEjLj4294967295EE10PrintStatsENSt7__cxx1112basic_stringIcSt11char_traitsIcESaIcEEEbi(ptr noundef nonnull align 8 dereferenceable(456) %31, ptr noundef %16, i1 noundef zeroext %79, i32 noundef 0)
  call void @_ZNSt7__cxx1112basic_stringIcSt11char_traitsIcESaIcEED2Ev(ptr noundef nonnull align 8 dereferenceable(32) %16) #3
  call void @_ZNSt7__cxx1118basic_stringstreamIcSt11char_traitsIcESaIcEED1Ev(ptr noundef nonnull align 8 dereferenceable(128) %10) #3
  call void @llvm.lifetime.end.p0(i64 392, ptr %10) #3
  br label %80

80:                                               ; preds = %48, %44
  %81 = getelementptr inbounds nuw %"class.Transduction::Transduction", ptr %31, i32 0, i32 11
  %82 = call noundef nonnull align 4 dereferenceable(4) ptr @_ZNKSt16reverse_iteratorISt14_List_iteratorIiEEdeEv(ptr noundef nonnull align 8 dereferenceable(8) %7)
  %83 = load i32, ptr %82, align 4, !tbaa !8
  %84 = sext i32 %83 to i64
  %85 = call noundef nonnull align 8 dereferenceable(24) ptr @_ZNSt6vectorIS_IiSaIiEESaIS1_EEixEm(ptr noundef nonnull align 8 dereferenceable(24) %81, i64 noundef %84) #3
  %86 = call noundef zeroext i1 @_ZNKSt6vectorIiSaIiEE5emptyEv(ptr noundef nonnull align 8 dereferenceable(24) %85) #3
  br i1 %86, label %87, label %88

87:                                               ; preds = %80
  br label %249

88:                                               ; preds = %80
  %89 = call noundef nonnull align 4 dereferenceable(4) ptr @_ZNKSt16reverse_iteratorISt14_List_iteratorIiEEdeEv(ptr noundef nonnull align 8 dereferenceable(8) %7)
  %90 = load i32, ptr %89, align 4, !tbaa !8
  %91 = call noundef i32 @_ZN12Transduction12TransductionIN6NewBdd3ManENS1_5ParamEjLj4294967295EE15TrivialMergeOneEi(ptr noundef nonnull align 8 dereferenceable(456) %31, i32 noundef %90)
  %92 = load i32, ptr %5, align 4, !tbaa !8
  %93 = add nsw i32 %92, %91
  store i32 %93, ptr %5, align 4, !tbaa !8
  call void @llvm.lifetime.start.p0(i64 1, ptr %17) #3
  store i8 0, ptr %17, align 1, !tbaa !10
  call void @llvm.lifetime.start.p0(i64 4, ptr %18) #3
  store i32 0, ptr %18, align 4, !tbaa !8
  br label %94

94:                                               ; preds = %129, %88
  %95 = load i32, ptr %18, align 4, !tbaa !8
  %96 = zext i32 %95 to i64
  %97 = getelementptr inbounds nuw %"class.Transduction::Transduction", ptr %31, i32 0, i32 7
  %98 = call noundef i64 @_ZNKSt6vectorIiSaIiEE4sizeEv(ptr noundef nonnull align 8 dereferenceable(24) %97) #3
  %99 = icmp ult i64 %96, %98
  br i1 %99, label %101, label %100

100:                                              ; preds = %94
  store i32 5, ptr %9, align 4
  call void @llvm.lifetime.end.p0(i64 4, ptr %18) #3
  br label %132

101:                                              ; preds = %94
  %102 = call noundef nonnull align 4 dereferenceable(4) ptr @_ZNKSt16reverse_iteratorISt14_List_iteratorIiEEdeEv(ptr noundef nonnull align 8 dereferenceable(8) %7)
  %103 = load i32, ptr %102, align 4, !tbaa !8
  %104 = getelementptr inbounds nuw %"class.Transduction::Transduction", ptr %31, i32 0, i32 7
  %105 = load i32, ptr %18, align 4, !tbaa !8
  %106 = zext i32 %105 to i64
  %107 = call noundef nonnull align 4 dereferenceable(4) ptr @_ZNSt6vectorIiSaIiEEixEm(ptr noundef nonnull align 8 dereferenceable(24) %104, i64 noundef %106) #3
  %108 = load i32, ptr %107, align 4, !tbaa !8
  %109 = call noundef zeroext i1 @_ZN12Transduction12TransductionIN6NewBdd3ManENS1_5ParamEjLj4294967295EE10TryConnectEiib(ptr noundef nonnull align 8 dereferenceable(456) %31, i32 noundef %103, i32 noundef %108, i1 noundef zeroext false)
  br i1 %109, label %119, label %110

110:                                              ; preds = %101
  %111 = call noundef nonnull align 4 dereferenceable(4) ptr @_ZNKSt16reverse_iteratorISt14_List_iteratorIiEEdeEv(ptr noundef nonnull align 8 dereferenceable(8) %7)
  %112 = load i32, ptr %111, align 4, !tbaa !8
  %113 = getelementptr inbounds nuw %"class.Transduction::Transduction", ptr %31, i32 0, i32 7
  %114 = load i32, ptr %18, align 4, !tbaa !8
  %115 = zext i32 %114 to i64
  %116 = call noundef nonnull align 4 dereferenceable(4) ptr @_ZNSt6vectorIiSaIiEEixEm(ptr noundef nonnull align 8 dereferenceable(24) %113, i64 noundef %115) #3
  %117 = load i32, ptr %116, align 4, !tbaa !8
  %118 = call noundef zeroext i1 @_ZN12Transduction12TransductionIN6NewBdd3ManENS1_5ParamEjLj4294967295EE10TryConnectEiib(ptr noundef nonnull align 8 dereferenceable(456) %31, i32 noundef %112, i32 noundef %117, i1 noundef zeroext true)
  br i1 %118, label %119, label %128

119:                                              ; preds = %110, %101
  %120 = load i8, ptr %17, align 1, !tbaa !10, !range !12, !noundef !13
  %121 = trunc i8 %120 to i1
  %122 = zext i1 %121 to i32
  %123 = or i32 %122, 1
  %124 = icmp ne i32 %123, 0
  %125 = zext i1 %124 to i8
  store i8 %125, ptr %17, align 1, !tbaa !10
  %126 = load i32, ptr %5, align 4, !tbaa !8
  %127 = add nsw i32 %126, -1
  store i32 %127, ptr %5, align 4, !tbaa !8
  br label %128

128:                                              ; preds = %119, %110
  br label %129

129:                                              ; preds = %128
  %130 = load i32, ptr %18, align 4, !tbaa !8
  %131 = add i32 %130, 1
  store i32 %131, ptr %18, align 4, !tbaa !8
  br label %94, !llvm.loop !98

132:                                              ; preds = %100
  call void @llvm.lifetime.start.p0(i64 40, ptr %19) #3
  %133 = getelementptr inbounds nuw %"class.Transduction::Transduction", ptr %31, i32 0, i32 4
  %134 = load i32, ptr %133, align 4, !tbaa !90
  %135 = sext i32 %134 to i64
  call void @llvm.lifetime.start.p0(i64 1, ptr %20) #3
  call void @_ZNSaIbEC2Ev(ptr noundef nonnull align 1 dereferenceable(1) %20) #3
  call void @_ZNSt6vectorIbSaIbEEC2EmRKS0_(ptr noundef nonnull align 8 dereferenceable(40) %19, i64 noundef %135, ptr noundef nonnull align 1 dereferenceable(1) %20)
  call void @_ZNSt15__new_allocatorIbED2Ev(ptr noundef nonnull align 1 dereferenceable(1) %20) #3
  call void @llvm.lifetime.end.p0(i64 1, ptr %20) #3
  %136 = call noundef nonnull align 4 dereferenceable(4) ptr @_ZNKSt16reverse_iteratorISt14_List_iteratorIiEEdeEv(ptr noundef nonnull align 8 dereferenceable(8) %7)
  %137 = load i32, ptr %136, align 4, !tbaa !8
  call void @_ZNK12Transduction12TransductionIN6NewBdd3ManENS1_5ParamEjLj4294967295EE14MarkFoCone_recERSt6vectorIbSaIbEEi(ptr noundef nonnull align 8 dereferenceable(456) %31, ptr noundef nonnull align 8 dereferenceable(40) %19, i32 noundef %137)
  call void @llvm.lifetime.start.p0(i64 8, ptr %21) #3
  %138 = call ptr @_ZNSt7__cxx114listIiSaIiEE5beginEv(ptr noundef nonnull align 8 dereferenceable(24) %6) #3
  %139 = getelementptr inbounds nuw %"struct.std::_List_iterator", ptr %21, i32 0, i32 0
  store ptr %138, ptr %139, align 8
  br label %140

140:                                              ; preds = %188, %132
  call void @llvm.lifetime.start.p0(i64 8, ptr %22) #3
  %141 = call ptr @_ZNSt7__cxx114listIiSaIiEE3endEv(ptr noundef nonnull align 8 dereferenceable(24) %6) #3
  %142 = getelementptr inbounds nuw %"struct.std::_List_iterator", ptr %22, i32 0, i32 0
  store ptr %141, ptr %142, align 8
  %143 = call noundef zeroext i1 @_ZStneRKSt14_List_iteratorIiES2_(ptr noundef nonnull align 8 dereferenceable(8) %21, ptr noundef nonnull align 8 dereferenceable(8) %22) #3
  call void @llvm.lifetime.end.p0(i64 8, ptr %22) #3
  br i1 %143, label %145, label %144

144:                                              ; preds = %140
  store i32 8, ptr %9, align 4
  call void @llvm.lifetime.end.p0(i64 8, ptr %21) #3
  br label %191

145:                                              ; preds = %140
  call void @llvm.lifetime.start.p0(i64 16, ptr %23) #3
  %146 = call noundef nonnull align 4 dereferenceable(4) ptr @_ZNKSt14_List_iteratorIiEdeEv(ptr noundef nonnull align 8 dereferenceable(8) %21) #3
  %147 = load i32, ptr %146, align 4, !tbaa !8
  %148 = sext i32 %147 to i64
  %149 = call { ptr, i64 } @_ZNSt6vectorIbSaIbEEixEm(ptr noundef nonnull align 8 dereferenceable(40) %19, i64 noundef %148)
  %150 = getelementptr inbounds nuw { ptr, i64 }, ptr %23, i32 0, i32 0
  %151 = extractvalue { ptr, i64 } %149, 0
  store ptr %151, ptr %150, align 8
  %152 = getelementptr inbounds nuw { ptr, i64 }, ptr %23, i32 0, i32 1
  %153 = extractvalue { ptr, i64 } %149, 1
  store i64 %153, ptr %152, align 8
  %154 = call noundef zeroext i1 @_ZNKSt14_Bit_referencecvbEv(ptr noundef nonnull align 8 dereferenceable(16) %23) #3
  br i1 %154, label %163, label %155

155:                                              ; preds = %145
  %156 = getelementptr inbounds nuw %"class.Transduction::Transduction", ptr %31, i32 0, i32 11
  %157 = call noundef nonnull align 4 dereferenceable(4) ptr @_ZNKSt14_List_iteratorIiEdeEv(ptr noundef nonnull align 8 dereferenceable(8) %21) #3
  %158 = load i32, ptr %157, align 4, !tbaa !8
  %159 = sext i32 %158 to i64
  %160 = call noundef nonnull align 8 dereferenceable(24) ptr @_ZNSt6vectorIS_IiSaIiEESaIS1_EEixEm(ptr noundef nonnull align 8 dereferenceable(24) %156, i64 noundef %159) #3
  %161 = call noundef zeroext i1 @_ZNKSt6vectorIiSaIiEE5emptyEv(ptr noundef nonnull align 8 dereferenceable(24) %160) #3
  %162 = xor i1 %161, true
  br label %163

163:                                              ; preds = %155, %145
  %164 = phi i1 [ false, %145 ], [ %162, %155 ]
  call void @llvm.lifetime.end.p0(i64 16, ptr %23) #3
  br i1 %164, label %165, label %187

165:                                              ; preds = %163
  %166 = call noundef nonnull align 4 dereferenceable(4) ptr @_ZNKSt16reverse_iteratorISt14_List_iteratorIiEEdeEv(ptr noundef nonnull align 8 dereferenceable(8) %7)
  %167 = load i32, ptr %166, align 4, !tbaa !8
  %168 = call noundef nonnull align 4 dereferenceable(4) ptr @_ZNKSt14_List_iteratorIiEdeEv(ptr noundef nonnull align 8 dereferenceable(8) %21) #3
  %169 = load i32, ptr %168, align 4, !tbaa !8
  %170 = call noundef zeroext i1 @_ZN12Transduction12TransductionIN6NewBdd3ManENS1_5ParamEjLj4294967295EE10TryConnectEiib(ptr noundef nonnull align 8 dereferenceable(456) %31, i32 noundef %167, i32 noundef %169, i1 noundef zeroext false)
  br i1 %170, label %177, label %171

171:                                              ; preds = %165
  %172 = call noundef nonnull align 4 dereferenceable(4) ptr @_ZNKSt16reverse_iteratorISt14_List_iteratorIiEEdeEv(ptr noundef nonnull align 8 dereferenceable(8) %7)
  %173 = load i32, ptr %172, align 4, !tbaa !8
  %174 = call noundef nonnull align 4 dereferenceable(4) ptr @_ZNKSt14_List_iteratorIiEdeEv(ptr noundef nonnull align 8 dereferenceable(8) %21) #3
  %175 = load i32, ptr %174, align 4, !tbaa !8
  %176 = call noundef zeroext i1 @_ZN12Transduction12TransductionIN6NewBdd3ManENS1_5ParamEjLj4294967295EE10TryConnectEiib(ptr noundef nonnull align 8 dereferenceable(456) %31, i32 noundef %173, i32 noundef %175, i1 noundef zeroext true)
  br i1 %176, label %177, label %186

177:                                              ; preds = %171, %165
  %178 = load i8, ptr %17, align 1, !tbaa !10, !range !12, !noundef !13
  %179 = trunc i8 %178 to i1
  %180 = zext i1 %179 to i32
  %181 = or i32 %180, 1
  %182 = icmp ne i32 %181, 0
  %183 = zext i1 %182 to i8
  store i8 %183, ptr %17, align 1, !tbaa !10
  %184 = load i32, ptr %5, align 4, !tbaa !8
  %185 = add nsw i32 %184, -1
  store i32 %185, ptr %5, align 4, !tbaa !8
  br label %186

186:                                              ; preds = %177, %171
  br label %187

187:                                              ; preds = %186, %163
  br label %188

188:                                              ; preds = %187
  %189 = call ptr @_ZNSt14_List_iteratorIiEppEi(ptr noundef nonnull align 8 dereferenceable(8) %21, i32 noundef 0) #3
  %190 = getelementptr inbounds nuw %"struct.std::_List_iterator", ptr %24, i32 0, i32 0
  store ptr %189, ptr %190, align 8
  br label %140, !llvm.loop !99

191:                                              ; preds = %144
  %192 = load i8, ptr %17, align 1, !tbaa !10, !range !12, !noundef !13
  %193 = trunc i8 %192 to i1
  br i1 %193, label %194, label %248

194:                                              ; preds = %191
  %195 = load i8, ptr %4, align 1, !tbaa !10, !range !12, !noundef !13
  %196 = trunc i8 %195 to i1
  br i1 %196, label %197, label %203

197:                                              ; preds = %194
  call void @_ZN12Transduction12TransductionIN6NewBdd3ManENS1_5ParamEjLj4294967295EE5BuildEb(ptr noundef nonnull align 8 dereferenceable(456) %31, i1 noundef zeroext true)
  %198 = call noundef nonnull align 4 dereferenceable(4) ptr @_ZNKSt16reverse_iteratorISt14_List_iteratorIiEEdeEv(ptr noundef nonnull align 8 dereferenceable(8) %7)
  %199 = load i32, ptr %198, align 4, !tbaa !8
  %200 = call noundef i32 @_ZN12Transduction12TransductionIN6NewBdd3ManENS1_5ParamEjLj4294967295EE4MspfEbii(ptr noundef nonnull align 8 dereferenceable(456) %31, i1 noundef zeroext true, i32 noundef %199, i32 noundef -1)
  %201 = load i32, ptr %5, align 4, !tbaa !8
  %202 = add nsw i32 %201, %200
  store i32 %202, ptr %5, align 4, !tbaa !8
  br label %219

203:                                              ; preds = %194
  call void @llvm.lifetime.start.p0(i64 16, ptr %25) #3
  %204 = getelementptr inbounds nuw %"class.Transduction::Transduction", ptr %31, i32 0, i32 19
  %205 = call noundef nonnull align 4 dereferenceable(4) ptr @_ZNKSt16reverse_iteratorISt14_List_iteratorIiEEdeEv(ptr noundef nonnull align 8 dereferenceable(8) %7)
  %206 = load i32, ptr %205, align 4, !tbaa !8
  %207 = sext i32 %206 to i64
  %208 = call { ptr, i64 } @_ZNSt6vectorIbSaIbEEixEm(ptr noundef nonnull align 8 dereferenceable(40) %204, i64 noundef %207)
  %209 = getelementptr inbounds nuw { ptr, i64 }, ptr %25, i32 0, i32 0
  %210 = extractvalue { ptr, i64 } %208, 0
  store ptr %210, ptr %209, align 8
  %211 = getelementptr inbounds nuw { ptr, i64 }, ptr %25, i32 0, i32 1
  %212 = extractvalue { ptr, i64 } %208, 1
  store i64 %212, ptr %211, align 8
  %213 = call noundef nonnull align 8 dereferenceable(16) ptr @_ZNSt14_Bit_referenceaSEb(ptr noundef nonnull align 8 dereferenceable(16) %25, i1 noundef zeroext true) #3
  call void @llvm.lifetime.end.p0(i64 16, ptr %25) #3
  %214 = call noundef nonnull align 4 dereferenceable(4) ptr @_ZNKSt16reverse_iteratorISt14_List_iteratorIiEEdeEv(ptr noundef nonnull align 8 dereferenceable(8) %7)
  %215 = load i32, ptr %214, align 4, !tbaa !8
  %216 = call noundef i32 @_ZN12Transduction12TransductionIN6NewBdd3ManENS1_5ParamEjLj4294967295EE4CspfEbii(ptr noundef nonnull align 8 dereferenceable(456) %31, i1 noundef zeroext true, i32 noundef %215, i32 noundef -1)
  %217 = load i32, ptr %5, align 4, !tbaa !8
  %218 = add nsw i32 %217, %216
  store i32 %218, ptr %5, align 4, !tbaa !8
  br label %219

219:                                              ; preds = %203, %197
  %220 = getelementptr inbounds nuw %"class.Transduction::Transduction", ptr %31, i32 0, i32 11
  %221 = call noundef nonnull align 4 dereferenceable(4) ptr @_ZNKSt16reverse_iteratorISt14_List_iteratorIiEEdeEv(ptr noundef nonnull align 8 dereferenceable(8) %7)
  %222 = load i32, ptr %221, align 4, !tbaa !8
  %223 = sext i32 %222 to i64
  %224 = call noundef nonnull align 8 dereferenceable(24) ptr @_ZNSt6vectorIS_IiSaIiEESaIS1_EEixEm(ptr noundef nonnull align 8 dereferenceable(24) %220, i64 noundef %223) #3
  %225 = call noundef zeroext i1 @_ZNKSt6vectorIiSaIiEE5emptyEv(ptr noundef nonnull align 8 dereferenceable(24) %224) #3
  br i1 %225, label %247, label %226

226:                                              ; preds = %219
  call void @llvm.lifetime.start.p0(i64 16, ptr %26) #3
  %227 = getelementptr inbounds nuw %"class.Transduction::Transduction", ptr %31, i32 0, i32 19
  %228 = call noundef nonnull align 4 dereferenceable(4) ptr @_ZNKSt16reverse_iteratorISt14_List_iteratorIiEEdeEv(ptr noundef nonnull align 8 dereferenceable(8) %7)
  %229 = load i32, ptr %228, align 4, !tbaa !8
  %230 = sext i32 %229 to i64
  %231 = call { ptr, i64 } @_ZNSt6vectorIbSaIbEEixEm(ptr noundef nonnull align 8 dereferenceable(40) %227, i64 noundef %230)
  %232 = getelementptr inbounds nuw { ptr, i64 }, ptr %26, i32 0, i32 0
  %233 = extractvalue { ptr, i64 } %231, 0
  store ptr %233, ptr %232, align 8
  %234 = getelementptr inbounds nuw { ptr, i64 }, ptr %26, i32 0, i32 1
  %235 = extractvalue { ptr, i64 } %231, 1
  store i64 %235, ptr %234, align 8
  %236 = call noundef nonnull align 8 dereferenceable(16) ptr @_ZNSt14_Bit_referenceaSEb(ptr noundef nonnull align 8 dereferenceable(16) %26, i1 noundef zeroext true) #3
  call void @llvm.lifetime.end.p0(i64 16, ptr %26) #3
  %237 = load i8, ptr %4, align 1, !tbaa !10, !range !12, !noundef !13
  %238 = trunc i8 %237 to i1
  br i1 %238, label %239, label %241

239:                                              ; preds = %226
  %240 = call noundef i32 @_ZN12Transduction12TransductionIN6NewBdd3ManENS1_5ParamEjLj4294967295EE4MspfEbii(ptr noundef nonnull align 8 dereferenceable(456) %31, i1 noundef zeroext true, i32 noundef -1, i32 noundef -1)
  br label %243

241:                                              ; preds = %226
  %242 = call noundef i32 @_ZN12Transduction12TransductionIN6NewBdd3ManENS1_5ParamEjLj4294967295EE4CspfEbii(ptr noundef nonnull align 8 dereferenceable(456) %31, i1 noundef zeroext true, i32 noundef -1, i32 noundef -1)
  br label %243

243:                                              ; preds = %241, %239
  %244 = phi i32 [ %240, %239 ], [ %242, %241 ]
  %245 = load i32, ptr %5, align 4, !tbaa !8
  %246 = add nsw i32 %245, %244
  store i32 %246, ptr %5, align 4, !tbaa !8
  br label %247

247:                                              ; preds = %243, %219
  br label %248

248:                                              ; preds = %247, %191
  call void @_ZNSt13_Bvector_baseISaIbEED2Ev(ptr noundef nonnull align 8 dereferenceable(40) %19) #3
  call void @llvm.lifetime.end.p0(i64 40, ptr %19) #3
  call void @llvm.lifetime.end.p0(i64 1, ptr %17) #3
  br label %249

249:                                              ; preds = %248, %87
  call void @llvm.lifetime.start.p0(i64 8, ptr %27) #3
  call void @_ZNSt16reverse_iteratorISt14_List_iteratorIiEEppEi(ptr dead_on_unwind writable sret(%"class.std::reverse_iterator") align 8 %27, ptr noundef nonnull align 8 dereferenceable(8) %7, i32 noundef 0)
  call void @llvm.lifetime.end.p0(i64 8, ptr %27) #3
  br label %41, !llvm.loop !100

250:                                              ; preds = %43
  %251 = call noundef i32 @_ZN12Transduction12TransductionIN6NewBdd3ManENS1_5ParamEjLj4294967295EE9DecomposeEv(ptr noundef nonnull align 8 dereferenceable(456) %31)
  %252 = load i32, ptr %5, align 4, !tbaa !8
  %253 = add nsw i32 %252, %251
  store i32 %253, ptr %5, align 4, !tbaa !8
  %254 = getelementptr inbounds nuw %"class.Transduction::Transduction", ptr %31, i32 0, i32 1
  %255 = load i32, ptr %254, align 8, !tbaa !35
  %256 = icmp ne i32 %255, 0
  br i1 %256, label %257, label %258

257:                                              ; preds = %250
  call void @llvm.lifetime.start.p0(i64 1, ptr %29) #3
  call void @_ZNSaIcEC2Ev(ptr noundef nonnull align 1 dereferenceable(1) %29) #3
  call void @_ZNSt7__cxx1112basic_stringIcSt11char_traitsIcESaIcEEC2IS3_EEPKcRKS3_(ptr noundef nonnull align 8 dereferenceable(32) %28, ptr noundef @.str.116, ptr noundef nonnull align 1 dereferenceable(1) %29)
  call void @_ZNK12Transduction12TransductionIN6NewBdd3ManENS1_5ParamEjLj4294967295EE10PrintStatsENSt7__cxx1112basic_stringIcSt11char_traitsIcESaIcEEEbi(ptr noundef nonnull align 8 dereferenceable(456) %31, ptr noundef %28, i1 noundef zeroext true, i32 noundef 11)
  call void @_ZNSt7__cxx1112basic_stringIcSt11char_traitsIcESaIcEED2Ev(ptr noundef nonnull align 8 dereferenceable(32) %28) #3
  call void @_ZNSt15__new_allocatorIcED2Ev(ptr noundef nonnull align 1 dereferenceable(1) %29) #3
  call void @llvm.lifetime.end.p0(i64 1, ptr %29) #3
  br label %258

258:                                              ; preds = %257, %250
  %259 = load i32, ptr %5, align 4, !tbaa !8
  store i32 1, ptr %9, align 4
  call void @_ZNSt7__cxx1110_List_baseIiSaIiEED2Ev(ptr noundef nonnull align 8 dereferenceable(24) %6) #3
  call void @llvm.lifetime.end.p0(i64 24, ptr %6) #3
  call void @llvm.lifetime.end.p0(i64 4, ptr %5) #3
  ret i32 %259
}

; Function Attrs: mustprogress nounwind uwtable
define linkonce_odr noundef i32 @_ZN12Transduction12TransductionIN6NewBdd3ManENS1_5ParamEjLj4294967295EE11RepeatResubEbb(ptr noundef nonnull align 8 dereferenceable(456) %0, i1 noundef zeroext %1, i1 noundef zeroext %2) #4 comdat align 2 {
  %4 = alloca ptr, align 8
  %5 = alloca i8, align 1
  %6 = alloca i8, align 1
  %7 = alloca i32, align 4
  %8 = alloca i32, align 4
  %9 = alloca i32, align 4
  store ptr %0, ptr %4, align 8, !tbaa !33
  %10 = zext i1 %1 to i8
  store i8 %10, ptr %5, align 1, !tbaa !10
  %11 = zext i1 %2 to i8
  store i8 %11, ptr %6, align 1, !tbaa !10
  %12 = load ptr, ptr %4, align 8
  call void @llvm.lifetime.start.p0(i64 4, ptr %7) #3
  store i32 0, ptr %7, align 4, !tbaa !8
  br label %13

13:                                               ; preds = %35, %3
  call void @llvm.lifetime.start.p0(i64 4, ptr %8) #3
  %14 = load i8, ptr %5, align 1, !tbaa !10, !range !12, !noundef !13
  %15 = trunc i8 %14 to i1
  br i1 %15, label %16, label %20

16:                                               ; preds = %13
  %17 = load i8, ptr %6, align 1, !tbaa !10, !range !12, !noundef !13
  %18 = trunc i8 %17 to i1
  %19 = call noundef i32 @_ZN12Transduction12TransductionIN6NewBdd3ManENS1_5ParamEjLj4294967295EE9ResubMonoEb(ptr noundef nonnull align 8 dereferenceable(456) %12, i1 noundef zeroext %18)
  br label %24

20:                                               ; preds = %13
  %21 = load i8, ptr %6, align 1, !tbaa !10, !range !12, !noundef !13
  %22 = trunc i8 %21 to i1
  %23 = call noundef i32 @_ZN12Transduction12TransductionIN6NewBdd3ManENS1_5ParamEjLj4294967295EE5ResubEb(ptr noundef nonnull align 8 dereferenceable(456) %12, i1 noundef zeroext %22)
  br label %24

24:                                               ; preds = %20, %16
  %25 = phi i32 [ %19, %16 ], [ %23, %20 ]
  store i32 %25, ptr %8, align 4, !tbaa !8
  %26 = load i32, ptr %8, align 4, !tbaa !8
  %27 = icmp ne i32 %26, 0
  br i1 %27, label %29, label %28

28:                                               ; preds = %24
  store i32 3, ptr %9, align 4
  br label %33

29:                                               ; preds = %24
  %30 = load i32, ptr %8, align 4, !tbaa !8
  %31 = load i32, ptr %7, align 4, !tbaa !8
  %32 = add nsw i32 %31, %30
  store i32 %32, ptr %7, align 4, !tbaa !8
  store i32 0, ptr %9, align 4
  br label %33

33:                                               ; preds = %29, %28
  call void @llvm.lifetime.end.p0(i64 4, ptr %8) #3
  %34 = load i32, ptr %9, align 4
  switch i32 %34, label %38 [
    i32 0, label %35
    i32 3, label %36
  ]

35:                                               ; preds = %33
  br label %13, !llvm.loop !101

36:                                               ; preds = %33
  %37 = load i32, ptr %7, align 4, !tbaa !8
  store i32 1, ptr %9, align 4
  call void @llvm.lifetime.end.p0(i64 4, ptr %7) #3
  ret i32 %37

38:                                               ; preds = %33
  unreachable
}

; Function Attrs: mustprogress nounwind uwtable
define linkonce_odr noundef i32 @_ZN12Transduction12TransductionIN6NewBdd3ManENS1_5ParamEjLj4294967295EE11RepeatInnerEbb(ptr noundef nonnull align 8 dereferenceable(456) %0, i1 noundef zeroext %1, i1 noundef zeroext %2) #4 comdat align 2 {
  %4 = alloca ptr, align 8
  %5 = alloca i8, align 1
  %6 = alloca i8, align 1
  %7 = alloca i32, align 4
  %8 = alloca i32, align 4
  %9 = alloca i32, align 4
  store ptr %0, ptr %4, align 8, !tbaa !33
  %10 = zext i1 %1 to i8
  store i8 %10, ptr %5, align 1, !tbaa !10
  %11 = zext i1 %2 to i8
  store i8 %11, ptr %6, align 1, !tbaa !10
  %12 = load ptr, ptr %4, align 8
  call void @llvm.lifetime.start.p0(i64 4, ptr %7) #3
  store i32 0, ptr %7, align 4, !tbaa !8
  br label %13

13:                                               ; preds = %34, %3
  call void @llvm.lifetime.start.p0(i64 4, ptr %8) #3
  %14 = load i8, ptr %5, align 1, !tbaa !10, !range !12, !noundef !13
  %15 = trunc i8 %14 to i1
  %16 = call noundef i32 @_ZN12Transduction12TransductionIN6NewBdd3ManENS1_5ParamEjLj4294967295EE11RepeatResubEbb(ptr noundef nonnull align 8 dereferenceable(456) %12, i1 noundef zeroext true, i1 noundef zeroext %15)
  %17 = load i8, ptr %5, align 1, !tbaa !10, !range !12, !noundef !13
  %18 = trunc i8 %17 to i1
  %19 = call noundef i32 @_ZN12Transduction12TransductionIN6NewBdd3ManENS1_5ParamEjLj4294967295EE11RepeatResubEbb(ptr noundef nonnull align 8 dereferenceable(456) %12, i1 noundef zeroext false, i1 noundef zeroext %18)
  %20 = add nsw i32 %16, %19
  store i32 %20, ptr %8, align 4, !tbaa !8
  %21 = load i32, ptr %8, align 4, !tbaa !8
  %22 = icmp ne i32 %21, 0
  br i1 %22, label %24, label %23

23:                                               ; preds = %13
  store i32 3, ptr %9, align 4
  br label %32

24:                                               ; preds = %13
  %25 = load i32, ptr %8, align 4, !tbaa !8
  %26 = load i32, ptr %7, align 4, !tbaa !8
  %27 = add nsw i32 %26, %25
  store i32 %27, ptr %7, align 4, !tbaa !8
  %28 = load i8, ptr %6, align 1, !tbaa !10, !range !12, !noundef !13
  %29 = trunc i8 %28 to i1
  br i1 %29, label %31, label %30

30:                                               ; preds = %24
  store i32 3, ptr %9, align 4
  br label %32

31:                                               ; preds = %24
  store i32 0, ptr %9, align 4
  br label %32

32:                                               ; preds = %31, %30, %23
  call void @llvm.lifetime.end.p0(i64 4, ptr %8) #3
  %33 = load i32, ptr %9, align 4
  switch i32 %33, label %37 [
    i32 0, label %34
    i32 3, label %35
  ]

34:                                               ; preds = %32
  br label %13, !llvm.loop !102

35:                                               ; preds = %32
  %36 = load i32, ptr %7, align 4, !tbaa !8
  store i32 1, ptr %9, align 4
  call void @llvm.lifetime.end.p0(i64 4, ptr %7) #3
  ret i32 %36

37:                                               ; preds = %32
  unreachable
}

; Function Attrs: nocallback nofree nosync nounwind willreturn memory(argmem: readwrite)
declare void @llvm.lifetime.end.p0(i64 immarg, ptr captures(none)) #5

; Function Attrs: mustprogress nounwind uwtable
define linkonce_odr noundef i32 @_ZN12Transduction12TransductionIN6NewBdd3ManENS1_5ParamEjLj4294967295EE11RepeatOuterEbbb(ptr noundef nonnull align 8 dereferenceable(456) %0, i1 noundef zeroext %1, i1 noundef zeroext %2, i1 noundef zeroext %3) #4 comdat align 2 {
  %5 = alloca ptr, align 8
  %6 = alloca i8, align 1
  %7 = alloca i8, align 1
  %8 = alloca i8, align 1
  %9 = alloca i32, align 4
  %10 = alloca i32, align 4
  %11 = alloca i32, align 4
  store ptr %0, ptr %5, align 8, !tbaa !33
  %12 = zext i1 %1 to i8
  store i8 %12, ptr %6, align 1, !tbaa !10
  %13 = zext i1 %2 to i8
  store i8 %13, ptr %7, align 1, !tbaa !10
  %14 = zext i1 %3 to i8
  store i8 %14, ptr %8, align 1, !tbaa !10
  %15 = load ptr, ptr %5, align 8
  call void @llvm.lifetime.start.p0(i64 4, ptr %9) #3
  store i32 0, ptr %9, align 4, !tbaa !8
  br label %16

16:                                               ; preds = %46, %4
  call void @llvm.lifetime.start.p0(i64 4, ptr %10) #3
  %17 = load i8, ptr %6, align 1, !tbaa !10, !range !12, !noundef !13
  %18 = trunc i8 %17 to i1
  br i1 %18, label %19, label %27

19:                                               ; preds = %16
  %20 = load i8, ptr %7, align 1, !tbaa !10, !range !12, !noundef !13
  %21 = trunc i8 %20 to i1
  %22 = call noundef i32 @_ZN12Transduction12TransductionIN6NewBdd3ManENS1_5ParamEjLj4294967295EE11RepeatInnerEbb(ptr noundef nonnull align 8 dereferenceable(456) %15, i1 noundef zeroext false, i1 noundef zeroext %21)
  %23 = load i8, ptr %7, align 1, !tbaa !10, !range !12, !noundef !13
  %24 = trunc i8 %23 to i1
  %25 = call noundef i32 @_ZN12Transduction12TransductionIN6NewBdd3ManENS1_5ParamEjLj4294967295EE11RepeatInnerEbb(ptr noundef nonnull align 8 dereferenceable(456) %15, i1 noundef zeroext true, i1 noundef zeroext %24)
  %26 = add nsw i32 %22, %25
  br label %31

27:                                               ; preds = %16
  %28 = load i8, ptr %7, align 1, !tbaa !10, !range !12, !noundef !13
  %29 = trunc i8 %28 to i1
  %30 = call noundef i32 @_ZN12Transduction12TransductionIN6NewBdd3ManENS1_5ParamEjLj4294967295EE11RepeatInnerEbb(ptr noundef nonnull align 8 dereferenceable(456) %15, i1 noundef zeroext false, i1 noundef zeroext %29)
  br label %31

31:                                               ; preds = %27, %19
  %32 = phi i32 [ %26, %19 ], [ %30, %27 ]
  store i32 %32, ptr %10, align 4, !tbaa !8
  %33 = load i32, ptr %10, align 4, !tbaa !8
  %34 = icmp ne i32 %33, 0
  br i1 %34, label %36, label %35

35:                                               ; preds = %31
  store i32 3, ptr %11, align 4
  br label %44

36:                                               ; preds = %31
  %37 = load i32, ptr %10, align 4, !tbaa !8
  %38 = load i32, ptr %9, align 4, !tbaa !8
  %39 = add nsw i32 %38, %37
  store i32 %39, ptr %9, align 4, !tbaa !8
  %40 = load i8, ptr %8, align 1, !tbaa !10, !range !12, !noundef !13
  %41 = trunc i8 %40 to i1
  br i1 %41, label %43, label %42

42:                                               ; preds = %36
  store i32 3, ptr %11, align 4
  br label %44

43:                                               ; preds = %36
  store i32 0, ptr %11, align 4
  br label %44

44:                                               ; preds = %43, %42, %35
  call void @llvm.lifetime.end.p0(i64 4, ptr %10) #3
  %45 = load i32, ptr %11, align 4
  switch i32 %45, label %49 [
    i32 0, label %46
    i32 3, label %47
  ]

46:                                               ; preds = %44
  br label %16, !llvm.loop !103

47:                                               ; preds = %44
  %48 = load i32, ptr %9, align 4, !tbaa !8
  store i32 1, ptr %11, align 4
  call void @llvm.lifetime.end.p0(i64 4, ptr %9) #3
  ret i32 %48

49:                                               ; preds = %44
  unreachable
}

; Function Attrs: mustprogress nounwind uwtable
define linkonce_odr noundef i32 @_ZN12Transduction12TransductionIN6NewBdd3ManENS1_5ParamEjLj4294967295EE9RepeatAllEbbbbb(ptr noundef nonnull align 8 dereferenceable(456) %0, i1 noundef zeroext %1, i1 noundef zeroext %2, i1 noundef zeroext %3, i1 noundef zeroext %4, i1 noundef zeroext %5) #4 comdat align 2 {
  %7 = alloca ptr, align 8
  %8 = alloca i8, align 1
  %9 = alloca i8, align 1
  %10 = alloca i8, align 1
  %11 = alloca i8, align 1
  %12 = alloca i8, align 1
  %13 = alloca %"class.Transduction::TransductionBackup", align 8
  %14 = alloca i32, align 4
  %15 = alloca i32, align 4
  store ptr %0, ptr %7, align 8, !tbaa !33
  %16 = zext i1 %1 to i8
  store i8 %16, ptr %8, align 1, !tbaa !10
  %17 = zext i1 %2 to i8
  store i8 %17, ptr %9, align 1, !tbaa !10
  %18 = zext i1 %3 to i8
  store i8 %18, ptr %10, align 1, !tbaa !10
  %19 = zext i1 %4 to i8
  store i8 %19, ptr %11, align 1, !tbaa !10
  %20 = zext i1 %5 to i8
  store i8 %20, ptr %12, align 1, !tbaa !10
  %21 = load ptr, ptr %7, align 8
  call void @llvm.lifetime.start.p0(i64 352, ptr %13) #3
  call void @_ZN12Transduction18TransductionBackupIN6NewBdd3ManEjLj4294967295EEC2Ev(ptr noundef nonnull align 8 dereferenceable(352) %13) #3
  call void @_ZNK12Transduction12TransductionIN6NewBdd3ManENS1_5ParamEjLj4294967295EE4SaveERNS_18TransductionBackupIS2_jLj4294967295EEE(ptr noundef nonnull align 8 dereferenceable(456) %21, ptr noundef nonnull align 8 dereferenceable(352) %13)
  call void @llvm.lifetime.start.p0(i64 4, ptr %14) #3
  store i32 0, ptr %14, align 4, !tbaa !8
  call void @llvm.lifetime.start.p0(i64 4, ptr %15) #3
  store i32 0, ptr %15, align 4, !tbaa !8
  %22 = load i8, ptr %8, align 1, !tbaa !10, !range !12, !noundef !13
  %23 = trunc i8 %22 to i1
  br i1 %23, label %24, label %28

24:                                               ; preds = %6
  %25 = load i8, ptr %9, align 1, !tbaa !10, !range !12, !noundef !13
  %26 = trunc i8 %25 to i1
  %27 = call noundef i32 @_ZN12Transduction12TransductionIN6NewBdd3ManENS1_5ParamEjLj4294967295EE11ResubSharedEb(ptr noundef nonnull align 8 dereferenceable(456) %21, i1 noundef zeroext %26)
  store i32 %27, ptr %15, align 4, !tbaa !8
  br label %28

28:                                               ; preds = %24, %6
  %29 = load i8, ptr %10, align 1, !tbaa !10, !range !12, !noundef !13
  %30 = trunc i8 %29 to i1
  %31 = load i8, ptr %11, align 1, !tbaa !10, !range !12, !noundef !13
  %32 = trunc i8 %31 to i1
  %33 = load i8, ptr %12, align 1, !tbaa !10, !range !12, !noundef !13
  %34 = trunc i8 %33 to i1
  %35 = call noundef i32 @_ZN12Transduction12TransductionIN6NewBdd3ManENS1_5ParamEjLj4294967295EE11RepeatOuterEbbb(ptr noundef nonnull align 8 dereferenceable(456) %21, i1 noundef zeroext %30, i1 noundef zeroext %32, i1 noundef zeroext %34)
  %36 = load i32, ptr %15, align 4, !tbaa !8
  %37 = add nsw i32 %36, %35
  store i32 %37, ptr %15, align 4, !tbaa !8
  %38 = load i32, ptr %15, align 4, !tbaa !8
  %39 = icmp sgt i32 %38, 0
  br i1 %39, label %40, label %42

40:                                               ; preds = %28
  %41 = load i32, ptr %15, align 4, !tbaa !8
  store i32 %41, ptr %14, align 4, !tbaa !8
  call void @_ZNK12Transduction12TransductionIN6NewBdd3ManENS1_5ParamEjLj4294967295EE4SaveERNS_18TransductionBackupIS2_jLj4294967295EEE(ptr noundef nonnull align 8 dereferenceable(456) %21, ptr noundef nonnull align 8 dereferenceable(352) %13)
  store i32 0, ptr %15, align 4, !tbaa !8
  br label %42

42:                                               ; preds = %40, %28
  br label %43

43:                                               ; preds = %65, %42
  br label %44

44:                                               ; preds = %43
  %45 = load i8, ptr %9, align 1, !tbaa !10, !range !12, !noundef !13
  %46 = trunc i8 %45 to i1
  %47 = call noundef i32 @_ZN12Transduction12TransductionIN6NewBdd3ManENS1_5ParamEjLj4294967295EE11ResubSharedEb(ptr noundef nonnull align 8 dereferenceable(456) %21, i1 noundef zeroext %46)
  %48 = load i8, ptr %10, align 1, !tbaa !10, !range !12, !noundef !13
  %49 = trunc i8 %48 to i1
  %50 = load i8, ptr %11, align 1, !tbaa !10, !range !12, !noundef !13
  %51 = trunc i8 %50 to i1
  %52 = load i8, ptr %12, align 1, !tbaa !10, !range !12, !noundef !13
  %53 = trunc i8 %52 to i1
  %54 = call noundef i32 @_ZN12Transduction12TransductionIN6NewBdd3ManENS1_5ParamEjLj4294967295EE11RepeatOuterEbbb(ptr noundef nonnull align 8 dereferenceable(456) %21, i1 noundef zeroext %49, i1 noundef zeroext %51, i1 noundef zeroext %53)
  %55 = add nsw i32 %47, %54
  %56 = load i32, ptr %15, align 4, !tbaa !8
  %57 = add nsw i32 %56, %55
  store i32 %57, ptr %15, align 4, !tbaa !8
  %58 = load i32, ptr %15, align 4, !tbaa !8
  %59 = icmp sgt i32 %58, 0
  br i1 %59, label %60, label %64

60:                                               ; preds = %44
  %61 = load i32, ptr %15, align 4, !tbaa !8
  %62 = load i32, ptr %14, align 4, !tbaa !8
  %63 = add nsw i32 %62, %61
  store i32 %63, ptr %14, align 4, !tbaa !8
  call void @_ZNK12Transduction12TransductionIN6NewBdd3ManENS1_5ParamEjLj4294967295EE4SaveERNS_18TransductionBackupIS2_jLj4294967295EEE(ptr noundef nonnull align 8 dereferenceable(456) %21, ptr noundef nonnull align 8 dereferenceable(352) %13)
  store i32 0, ptr %15, align 4, !tbaa !8
  br label %65

64:                                               ; preds = %44
  call void @_ZN12Transduction12TransductionIN6NewBdd3ManENS1_5ParamEjLj4294967295EE4LoadERKNS_18TransductionBackupIS2_jLj4294967295EEE(ptr noundef nonnull align 8 dereferenceable(456) %21, ptr noundef nonnull align 8 dereferenceable(352) %13)
  br label %66

65:                                               ; preds = %60
  br label %43, !llvm.loop !104

66:                                               ; preds = %64
  %67 = load i32, ptr %14, align 4, !tbaa !8
  call void @llvm.lifetime.end.p0(i64 4, ptr %15) #3
  call void @llvm.lifetime.end.p0(i64 4, ptr %14) #3
  call void @_ZN12Transduction18TransductionBackupIN6NewBdd3ManEjLj4294967295EED2Ev(ptr noundef nonnull align 8 dereferenceable(352) %13) #3
  call void @llvm.lifetime.end.p0(i64 352, ptr %13) #3
  ret i32 %67
}

; Function Attrs: inlinehint mustprogress nounwind uwtable
define available_externally noundef nonnull align 8 dereferenceable(8) ptr @_ZStlsISt11char_traitsIcEERSt13basic_ostreamIcT_ES5_PKc(ptr noundef nonnull align 8 dereferenceable(8) %0, ptr noundef %1) #6 {
  %3 = alloca ptr, align 8
  %4 = alloca ptr, align 8
  store ptr %0, ptr %3, align 8, !tbaa !105
  store ptr %1, ptr %4, align 8, !tbaa !107
  %5 = load ptr, ptr %4, align 8, !tbaa !107
  %6 = icmp ne ptr %5, null
  br i1 %6, label %13, label %7

7:                                                ; preds = %2
  %8 = load ptr, ptr %3, align 8, !tbaa !105
  %9 = load ptr, ptr %8, align 8, !tbaa !109
  %10 = getelementptr i8, ptr %9, i64 -24
  %11 = load i64, ptr %10, align 8
  %12 = getelementptr inbounds i8, ptr %8, i64 %11
  call void @_ZNSt9basic_iosIcSt11char_traitsIcEE8setstateESt12_Ios_Iostate(ptr noundef nonnull align 8 dereferenceable(264) %12, i32 noundef 1)
  br label %19

13:                                               ; preds = %2
  %14 = load ptr, ptr %3, align 8, !tbaa !105
  %15 = load ptr, ptr %4, align 8, !tbaa !107
  %16 = load ptr, ptr %4, align 8, !tbaa !107
  %17 = call noundef i64 @_ZNSt11char_traitsIcE6lengthEPKc(ptr noundef %16)
  %18 = call noundef nonnull align 8 dereferenceable(8) ptr @_ZSt16__ostream_insertIcSt11char_traitsIcEERSt13basic_ostreamIT_T0_ES6_PKS3_l(ptr noundef nonnull align 8 dereferenceable(8) %14, ptr noundef %15, i64 noundef %17)
  br label %19

19:                                               ; preds = %13, %7
  %20 = load ptr, ptr %3, align 8, !tbaa !105
  ret ptr %20
}

declare noundef nonnull align 8 dereferenceable(8) ptr @_ZNSolsEi(ptr noundef nonnull align 8 dereferenceable(8), i32 noundef) #1

; Function Attrs: mustprogress nounwind uwtable
define available_externally noundef nonnull align 8 dereferenceable(8) ptr @_ZNSolsEPFRSoS_E(ptr noundef nonnull align 8 dereferenceable(8) %0, ptr noundef %1) #4 align 2 {
  %3 = alloca ptr, align 8
  %4 = alloca ptr, align 8
  store ptr %0, ptr %3, align 8, !tbaa !105
  store ptr %1, ptr %4, align 8, !tbaa !111
  %5 = load ptr, ptr %3, align 8
  %6 = load ptr, ptr %4, align 8, !tbaa !111
  %7 = call noundef nonnull align 8 dereferenceable(8) ptr %6(ptr noundef nonnull align 8 dereferenceable(8) %5)
  ret ptr %7
}

; Function Attrs: inlinehint mustprogress nounwind uwtable
define available_externally noundef nonnull align 8 dereferenceable(8) ptr @_ZSt4endlIcSt11char_traitsIcEERSt13basic_ostreamIT_T0_ES6_(ptr noundef nonnull align 8 dereferenceable(8) %0) #6 {
  %2 = alloca ptr, align 8
  store ptr %0, ptr %2, align 8, !tbaa !105
  %3 = load ptr, ptr %2, align 8, !tbaa !105
  %4 = load ptr, ptr %2, align 8, !tbaa !105
  %5 = load ptr, ptr %4, align 8, !tbaa !109
  %6 = getelementptr i8, ptr %5, i64 -24
  %7 = load i64, ptr %6, align 8
  %8 = getelementptr inbounds i8, ptr %4, i64 %7
  %9 = call noundef signext i8 @_ZNKSt9basic_iosIcSt11char_traitsIcEE5widenEc(ptr noundef nonnull align 8 dereferenceable(264) %8, i8 noundef signext 10)
  %10 = call noundef nonnull align 8 dereferenceable(8) ptr @_ZNSo3putEc(ptr noundef nonnull align 8 dereferenceable(8) %3, i8 noundef signext %9)
  %11 = call noundef nonnull align 8 dereferenceable(8) ptr @_ZSt5flushIcSt11char_traitsIcEERSt13basic_ostreamIT_T0_ES6_(ptr noundef nonnull align 8 dereferenceable(8) %10)
  ret ptr %11
}

; Function Attrs: mustprogress nounwind uwtable
define linkonce_odr noundef ptr @_ZNK12Transduction12TransductionIN6NewBdd3ManENS1_5ParamEjLj4294967295EE11GenerateAigEv(ptr noundef nonnull align 8 dereferenceable(456) %0) #4 comdat align 2 {
  %2 = alloca ptr, align 8
  %3 = alloca ptr, align 8
  %4 = alloca ptr, align 8
  %5 = alloca %"class.std::vector", align 8
  %6 = alloca %"class.std::allocator", align 1
  %7 = alloca i32, align 4
  %8 = alloca %"struct.std::_List_const_iterator", align 8
  %9 = alloca %"struct.std::_List_const_iterator", align 8
  %10 = alloca i32, align 4
  %11 = alloca i32, align 4
  %12 = alloca i32, align 4
  %13 = alloca i32, align 4
  %14 = alloca i32, align 4
  %15 = alloca i32, align 4
  %16 = alloca i32, align 4
  %17 = alloca i32, align 4
  %18 = alloca i32, align 4
  %19 = alloca %"struct.std::_List_const_iterator", align 8
  %20 = alloca i32, align 4
  %21 = alloca i32, align 4
  %22 = alloca i32, align 4
  store ptr %0, ptr %2, align 8, !tbaa !33
  %23 = load ptr, ptr %2, align 8
  call void @llvm.lifetime.start.p0(i64 8, ptr %3) #3
  call void @llvm.lifetime.start.p0(i64 8, ptr %4) #3
  %24 = getelementptr inbounds nuw %"class.Transduction::Transduction", ptr %23, i32 0, i32 7
  %25 = call noundef i64 @_ZNKSt6vectorIiSaIiEE4sizeEv(ptr noundef nonnull align 8 dereferenceable(24) %24) #3
  %26 = add i64 1, %25
  %27 = call noundef i32 @_ZNK12Transduction12TransductionIN6NewBdd3ManENS1_5ParamEjLj4294967295EE10CountNodesEv(ptr noundef nonnull align 8 dereferenceable(456) %23)
  %28 = sext i32 %27 to i64
  %29 = add i64 %26, %28
  %30 = getelementptr inbounds nuw %"class.Transduction::Transduction", ptr %23, i32 0, i32 8
  %31 = call noundef i64 @_ZNKSt6vectorIiSaIiEE4sizeEv(ptr noundef nonnull align 8 dereferenceable(24) %30) #3
  %32 = add i64 %29, %31
  %33 = trunc i64 %32 to i32
  %34 = call ptr @Gia_ManStart(i32 noundef %33)
  store ptr %34, ptr %3, align 8, !tbaa !3
  %35 = load ptr, ptr %3, align 8, !tbaa !3
  call void @Gia_ManHashAlloc(ptr noundef %35)
  call void @llvm.lifetime.start.p0(i64 24, ptr %5) #3
  %36 = getelementptr inbounds nuw %"class.Transduction::Transduction", ptr %23, i32 0, i32 4
  %37 = load i32, ptr %36, align 4, !tbaa !90
  %38 = sext i32 %37 to i64
  call void @llvm.lifetime.start.p0(i64 1, ptr %6) #3
  call void @_ZNSaIiEC2Ev(ptr noundef nonnull align 1 dereferenceable(1) %6) #3
  call void @_ZNSt6vectorIiSaIiEEC2EmRKS0_(ptr noundef nonnull align 8 dereferenceable(24) %5, i64 noundef %38, ptr noundef nonnull align 1 dereferenceable(1) %6)
  call void @_ZNSt15__new_allocatorIiED2Ev(ptr noundef nonnull align 1 dereferenceable(1) %6) #3
  call void @llvm.lifetime.end.p0(i64 1, ptr %6) #3
  %39 = call noundef i32 @_ZL16Gia_ManConst0Litv()
  %40 = call noundef nonnull align 4 dereferenceable(4) ptr @_ZNSt6vectorIiSaIiEEixEm(ptr noundef nonnull align 8 dereferenceable(24) %5, i64 noundef 0) #3
  store i32 %39, ptr %40, align 4, !tbaa !8
  call void @llvm.lifetime.start.p0(i64 4, ptr %7) #3
  store i32 0, ptr %7, align 4, !tbaa !8
  br label %41

41:                                               ; preds = %55, %1
  %42 = load i32, ptr %7, align 4, !tbaa !8
  %43 = zext i32 %42 to i64
  %44 = getelementptr inbounds nuw %"class.Transduction::Transduction", ptr %23, i32 0, i32 7
  %45 = call noundef i64 @_ZNKSt6vectorIiSaIiEE4sizeEv(ptr noundef nonnull align 8 dereferenceable(24) %44) #3
  %46 = icmp ult i64 %43, %45
  br i1 %46, label %48, label %47

47:                                               ; preds = %41
  call void @llvm.lifetime.end.p0(i64 4, ptr %7) #3
  br label %58

48:                                               ; preds = %41
  %49 = load ptr, ptr %3, align 8, !tbaa !3
  %50 = call noundef i32 @_ZL15Gia_ManAppendCiP10Gia_Man_t_(ptr noundef %49)
  %51 = load i32, ptr %7, align 4, !tbaa !8
  %52 = add i32 %51, 1
  %53 = zext i32 %52 to i64
  %54 = call noundef nonnull align 4 dereferenceable(4) ptr @_ZNSt6vectorIiSaIiEEixEm(ptr noundef nonnull align 8 dereferenceable(24) %5, i64 noundef %53) #3
  store i32 %50, ptr %54, align 4, !tbaa !8
  br label %55

55:                                               ; preds = %48
  %56 = load i32, ptr %7, align 4, !tbaa !8
  %57 = add i32 %56, 1
  store i32 %57, ptr %7, align 4, !tbaa !8
  br label %41, !llvm.loop !112

58:                                               ; preds = %47
  call void @llvm.lifetime.start.p0(i64 8, ptr %8) #3
  %59 = getelementptr inbounds nuw %"class.Transduction::Transduction", ptr %23, i32 0, i32 9
  %60 = call ptr @_ZNKSt7__cxx114listIiSaIiEE5beginEv(ptr noundef nonnull align 8 dereferenceable(24) %59) #3
  %61 = getelementptr inbounds nuw %"struct.std::_List_const_iterator", ptr %8, i32 0, i32 0
  store ptr %60, ptr %61, align 8
  br label %62

62:                                               ; preds = %165, %58
  call void @llvm.lifetime.start.p0(i64 8, ptr %9) #3
  %63 = getelementptr inbounds nuw %"class.Transduction::Transduction", ptr %23, i32 0, i32 9
  %64 = call ptr @_ZNKSt7__cxx114listIiSaIiEE3endEv(ptr noundef nonnull align 8 dereferenceable(24) %63) #3
  %65 = getelementptr inbounds nuw %"struct.std::_List_const_iterator", ptr %9, i32 0, i32 0
  store ptr %64, ptr %65, align 8
  %66 = call noundef zeroext i1 @_ZStneRKSt20_List_const_iteratorIiES2_(ptr noundef nonnull align 8 dereferenceable(8) %8, ptr noundef nonnull align 8 dereferenceable(8) %9) #3
  call void @llvm.lifetime.end.p0(i64 8, ptr %9) #3
  br i1 %66, label %68, label %67

67:                                               ; preds = %62
  store i32 5, ptr %10, align 4
  call void @llvm.lifetime.end.p0(i64 8, ptr %8) #3
  br label %168

68:                                               ; preds = %62
  call void @llvm.lifetime.start.p0(i64 4, ptr %11) #3
  %69 = getelementptr inbounds nuw %"class.Transduction::Transduction", ptr %23, i32 0, i32 10
  %70 = call noundef nonnull align 4 dereferenceable(4) ptr @_ZNKSt20_List_const_iteratorIiEdeEv(ptr noundef nonnull align 8 dereferenceable(8) %8) #3
  %71 = load i32, ptr %70, align 4, !tbaa !8
  %72 = sext i32 %71 to i64
  %73 = call noundef nonnull align 8 dereferenceable(24) ptr @_ZNKSt6vectorIS_IiSaIiEESaIS1_EEixEm(ptr noundef nonnull align 8 dereferenceable(24) %69, i64 noundef %72) #3
  %74 = call noundef nonnull align 4 dereferenceable(4) ptr @_ZNKSt6vectorIiSaIiEEixEm(ptr noundef nonnull align 8 dereferenceable(24) %73, i64 noundef 0) #3
  %75 = load i32, ptr %74, align 4, !tbaa !8
  %76 = ashr i32 %75, 1
  store i32 %76, ptr %11, align 4, !tbaa !8
  call void @llvm.lifetime.start.p0(i64 4, ptr %12) #3
  %77 = getelementptr inbounds nuw %"class.Transduction::Transduction", ptr %23, i32 0, i32 10
  %78 = call noundef nonnull align 4 dereferenceable(4) ptr @_ZNKSt20_List_const_iteratorIiEdeEv(ptr noundef nonnull align 8 dereferenceable(8) %8) #3
  %79 = load i32, ptr %78, align 4, !tbaa !8
  %80 = sext i32 %79 to i64
  %81 = call noundef nonnull align 8 dereferenceable(24) ptr @_ZNKSt6vectorIS_IiSaIiEESaIS1_EEixEm(ptr noundef nonnull align 8 dereferenceable(24) %77, i64 noundef %80) #3
  %82 = call noundef nonnull align 4 dereferenceable(4) ptr @_ZNKSt6vectorIiSaIiEEixEm(ptr noundef nonnull align 8 dereferenceable(24) %81, i64 noundef 1) #3
  %83 = load i32, ptr %82, align 4, !tbaa !8
  %84 = ashr i32 %83, 1
  store i32 %84, ptr %12, align 4, !tbaa !8
  call void @llvm.lifetime.start.p0(i64 4, ptr %13) #3
  %85 = getelementptr inbounds nuw %"class.Transduction::Transduction", ptr %23, i32 0, i32 10
  %86 = call noundef nonnull align 4 dereferenceable(4) ptr @_ZNKSt20_List_const_iteratorIiEdeEv(ptr noundef nonnull align 8 dereferenceable(8) %8) #3
  %87 = load i32, ptr %86, align 4, !tbaa !8
  %88 = sext i32 %87 to i64
  %89 = call noundef nonnull align 8 dereferenceable(24) ptr @_ZNKSt6vectorIS_IiSaIiEESaIS1_EEixEm(ptr noundef nonnull align 8 dereferenceable(24) %85, i64 noundef %88) #3
  %90 = call noundef nonnull align 4 dereferenceable(4) ptr @_ZNKSt6vectorIiSaIiEEixEm(ptr noundef nonnull align 8 dereferenceable(24) %89, i64 noundef 0) #3
  %91 = load i32, ptr %90, align 4, !tbaa !8
  %92 = and i32 %91, 1
  store i32 %92, ptr %13, align 4, !tbaa !8
  call void @llvm.lifetime.start.p0(i64 4, ptr %14) #3
  %93 = getelementptr inbounds nuw %"class.Transduction::Transduction", ptr %23, i32 0, i32 10
  %94 = call noundef nonnull align 4 dereferenceable(4) ptr @_ZNKSt20_List_const_iteratorIiEdeEv(ptr noundef nonnull align 8 dereferenceable(8) %8) #3
  %95 = load i32, ptr %94, align 4, !tbaa !8
  %96 = sext i32 %95 to i64
  %97 = call noundef nonnull align 8 dereferenceable(24) ptr @_ZNKSt6vectorIS_IiSaIiEESaIS1_EEixEm(ptr noundef nonnull align 8 dereferenceable(24) %93, i64 noundef %96) #3
  %98 = call noundef nonnull align 4 dereferenceable(4) ptr @_ZNKSt6vectorIiSaIiEEixEm(ptr noundef nonnull align 8 dereferenceable(24) %97, i64 noundef 1) #3
  %99 = load i32, ptr %98, align 4, !tbaa !8
  %100 = and i32 %99, 1
  store i32 %100, ptr %14, align 4, !tbaa !8
  call void @llvm.lifetime.start.p0(i64 4, ptr %15) #3
  %101 = load ptr, ptr %3, align 8, !tbaa !3
  %102 = load i32, ptr %11, align 4, !tbaa !8
  %103 = sext i32 %102 to i64
  %104 = call noundef nonnull align 4 dereferenceable(4) ptr @_ZNSt6vectorIiSaIiEEixEm(ptr noundef nonnull align 8 dereferenceable(24) %5, i64 noundef %103) #3
  %105 = load i32, ptr %104, align 4, !tbaa !8
  %106 = load i32, ptr %13, align 4, !tbaa !8
  %107 = call noundef i32 @_ZL14Abc_LitNotCondii(i32 noundef %105, i32 noundef %106)
  %108 = load i32, ptr %12, align 4, !tbaa !8
  %109 = sext i32 %108 to i64
  %110 = call noundef nonnull align 4 dereferenceable(4) ptr @_ZNSt6vectorIiSaIiEEixEm(ptr noundef nonnull align 8 dereferenceable(24) %5, i64 noundef %109) #3
  %111 = load i32, ptr %110, align 4, !tbaa !8
  %112 = load i32, ptr %14, align 4, !tbaa !8
  %113 = call noundef i32 @_ZL14Abc_LitNotCondii(i32 noundef %111, i32 noundef %112)
  %114 = call i32 @Gia_ManHashAnd(ptr noundef %101, i32 noundef %107, i32 noundef %113)
  store i32 %114, ptr %15, align 4, !tbaa !8
  call void @llvm.lifetime.start.p0(i64 4, ptr %16) #3
  store i32 2, ptr %16, align 4, !tbaa !8
  br label %115

115:                                              ; preds = %156, %68
  %116 = load i32, ptr %16, align 4, !tbaa !8
  %117 = zext i32 %116 to i64
  %118 = getelementptr inbounds nuw %"class.Transduction::Transduction", ptr %23, i32 0, i32 10
  %119 = call noundef nonnull align 4 dereferenceable(4) ptr @_ZNKSt20_List_const_iteratorIiEdeEv(ptr noundef nonnull align 8 dereferenceable(8) %8) #3
  %120 = load i32, ptr %119, align 4, !tbaa !8
  %121 = sext i32 %120 to i64
  %122 = call noundef nonnull align 8 dereferenceable(24) ptr @_ZNKSt6vectorIS_IiSaIiEESaIS1_EEixEm(ptr noundef nonnull align 8 dereferenceable(24) %118, i64 noundef %121) #3
  %123 = call noundef i64 @_ZNKSt6vectorIiSaIiEE4sizeEv(ptr noundef nonnull align 8 dereferenceable(24) %122) #3
  %124 = icmp ult i64 %117, %123
  br i1 %124, label %126, label %125

125:                                              ; preds = %115
  store i32 8, ptr %10, align 4
  call void @llvm.lifetime.end.p0(i64 4, ptr %16) #3
  br label %159

126:                                              ; preds = %115
  call void @llvm.lifetime.start.p0(i64 4, ptr %17) #3
  %127 = getelementptr inbounds nuw %"class.Transduction::Transduction", ptr %23, i32 0, i32 10
  %128 = call noundef nonnull align 4 dereferenceable(4) ptr @_ZNKSt20_List_const_iteratorIiEdeEv(ptr noundef nonnull align 8 dereferenceable(8) %8) #3
  %129 = load i32, ptr %128, align 4, !tbaa !8
  %130 = sext i32 %129 to i64
  %131 = call noundef nonnull align 8 dereferenceable(24) ptr @_ZNKSt6vectorIS_IiSaIiEESaIS1_EEixEm(ptr noundef nonnull align 8 dereferenceable(24) %127, i64 noundef %130) #3
  %132 = load i32, ptr %16, align 4, !tbaa !8
  %133 = zext i32 %132 to i64
  %134 = call noundef nonnull align 4 dereferenceable(4) ptr @_ZNKSt6vectorIiSaIiEEixEm(ptr noundef nonnull align 8 dereferenceable(24) %131, i64 noundef %133) #3
  %135 = load i32, ptr %134, align 4, !tbaa !8
  %136 = ashr i32 %135, 1
  store i32 %136, ptr %17, align 4, !tbaa !8
  call void @llvm.lifetime.start.p0(i64 4, ptr %18) #3
  %137 = getelementptr inbounds nuw %"class.Transduction::Transduction", ptr %23, i32 0, i32 10
  %138 = call noundef nonnull align 4 dereferenceable(4) ptr @_ZNKSt20_List_const_iteratorIiEdeEv(ptr noundef nonnull align 8 dereferenceable(8) %8) #3
  %139 = load i32, ptr %138, align 4, !tbaa !8
  %140 = sext i32 %139 to i64
  %141 = call noundef nonnull align 8 dereferenceable(24) ptr @_ZNKSt6vectorIS_IiSaIiEESaIS1_EEixEm(ptr noundef nonnull align 8 dereferenceable(24) %137, i64 noundef %140) #3
  %142 = load i32, ptr %16, align 4, !tbaa !8
  %143 = zext i32 %142 to i64
  %144 = call noundef nonnull align 4 dereferenceable(4) ptr @_ZNKSt6vectorIiSaIiEEixEm(ptr noundef nonnull align 8 dereferenceable(24) %141, i64 noundef %143) #3
  %145 = load i32, ptr %144, align 4, !tbaa !8
  %146 = and i32 %145, 1
  store i32 %146, ptr %18, align 4, !tbaa !8
  %147 = load ptr, ptr %3, align 8, !tbaa !3
  %148 = load i32, ptr %15, align 4, !tbaa !8
  %149 = load i32, ptr %17, align 4, !tbaa !8
  %150 = sext i32 %149 to i64
  %151 = call noundef nonnull align 4 dereferenceable(4) ptr @_ZNSt6vectorIiSaIiEEixEm(ptr noundef nonnull align 8 dereferenceable(24) %5, i64 noundef %150) #3
  %152 = load i32, ptr %151, align 4, !tbaa !8
  %153 = load i32, ptr %18, align 4, !tbaa !8
  %154 = call noundef i32 @_ZL14Abc_LitNotCondii(i32 noundef %152, i32 noundef %153)
  %155 = call i32 @Gia_ManHashAnd(ptr noundef %147, i32 noundef %148, i32 noundef %154)
  store i32 %155, ptr %15, align 4, !tbaa !8
  call void @llvm.lifetime.end.p0(i64 4, ptr %18) #3
  call void @llvm.lifetime.end.p0(i64 4, ptr %17) #3
  br label %156

156:                                              ; preds = %126
  %157 = load i32, ptr %16, align 4, !tbaa !8
  %158 = add i32 %157, 1
  store i32 %158, ptr %16, align 4, !tbaa !8
  br label %115, !llvm.loop !113

159:                                              ; preds = %125
  %160 = load i32, ptr %15, align 4, !tbaa !8
  %161 = call noundef nonnull align 4 dereferenceable(4) ptr @_ZNKSt20_List_const_iteratorIiEdeEv(ptr noundef nonnull align 8 dereferenceable(8) %8) #3
  %162 = load i32, ptr %161, align 4, !tbaa !8
  %163 = sext i32 %162 to i64
  %164 = call noundef nonnull align 4 dereferenceable(4) ptr @_ZNSt6vectorIiSaIiEEixEm(ptr noundef nonnull align 8 dereferenceable(24) %5, i64 noundef %163) #3
  store i32 %160, ptr %164, align 4, !tbaa !8
  call void @llvm.lifetime.end.p0(i64 4, ptr %15) #3
  call void @llvm.lifetime.end.p0(i64 4, ptr %14) #3
  call void @llvm.lifetime.end.p0(i64 4, ptr %13) #3
  call void @llvm.lifetime.end.p0(i64 4, ptr %12) #3
  call void @llvm.lifetime.end.p0(i64 4, ptr %11) #3
  br label %165

165:                                              ; preds = %159
  %166 = call ptr @_ZNSt20_List_const_iteratorIiEppEi(ptr noundef nonnull align 8 dereferenceable(8) %8, i32 noundef 0) #3
  %167 = getelementptr inbounds nuw %"struct.std::_List_const_iterator", ptr %19, i32 0, i32 0
  store ptr %166, ptr %167, align 8
  br label %62, !llvm.loop !114

168:                                              ; preds = %67
  call void @llvm.lifetime.start.p0(i64 4, ptr %20) #3
  store i32 0, ptr %20, align 4, !tbaa !8
  br label %169

169:                                              ; preds = %207, %168
  %170 = load i32, ptr %20, align 4, !tbaa !8
  %171 = zext i32 %170 to i64
  %172 = getelementptr inbounds nuw %"class.Transduction::Transduction", ptr %23, i32 0, i32 8
  %173 = call noundef i64 @_ZNKSt6vectorIiSaIiEE4sizeEv(ptr noundef nonnull align 8 dereferenceable(24) %172) #3
  %174 = icmp ult i64 %171, %173
  br i1 %174, label %176, label %175

175:                                              ; preds = %169
  store i32 11, ptr %10, align 4
  call void @llvm.lifetime.end.p0(i64 4, ptr %20) #3
  br label %210

176:                                              ; preds = %169
  call void @llvm.lifetime.start.p0(i64 4, ptr %21) #3
  %177 = getelementptr inbounds nuw %"class.Transduction::Transduction", ptr %23, i32 0, i32 10
  %178 = getelementptr inbounds nuw %"class.Transduction::Transduction", ptr %23, i32 0, i32 8
  %179 = load i32, ptr %20, align 4, !tbaa !8
  %180 = zext i32 %179 to i64
  %181 = call noundef nonnull align 4 dereferenceable(4) ptr @_ZNKSt6vectorIiSaIiEEixEm(ptr noundef nonnull align 8 dereferenceable(24) %178, i64 noundef %180) #3
  %182 = load i32, ptr %181, align 4, !tbaa !8
  %183 = sext i32 %182 to i64
  %184 = call noundef nonnull align 8 dereferenceable(24) ptr @_ZNKSt6vectorIS_IiSaIiEESaIS1_EEixEm(ptr noundef nonnull align 8 dereferenceable(24) %177, i64 noundef %183) #3
  %185 = call noundef nonnull align 4 dereferenceable(4) ptr @_ZNKSt6vectorIiSaIiEEixEm(ptr noundef nonnull align 8 dereferenceable(24) %184, i64 noundef 0) #3
  %186 = load i32, ptr %185, align 4, !tbaa !8
  %187 = ashr i32 %186, 1
  store i32 %187, ptr %21, align 4, !tbaa !8
  call void @llvm.lifetime.start.p0(i64 4, ptr %22) #3
  %188 = getelementptr inbounds nuw %"class.Transduction::Transduction", ptr %23, i32 0, i32 10
  %189 = getelementptr inbounds nuw %"class.Transduction::Transduction", ptr %23, i32 0, i32 8
  %190 = load i32, ptr %20, align 4, !tbaa !8
  %191 = zext i32 %190 to i64
  %192 = call noundef nonnull align 4 dereferenceable(4) ptr @_ZNKSt6vectorIiSaIiEEixEm(ptr noundef nonnull align 8 dereferenceable(24) %189, i64 noundef %191) #3
  %193 = load i32, ptr %192, align 4, !tbaa !8
  %194 = sext i32 %193 to i64
  %195 = call noundef nonnull align 8 dereferenceable(24) ptr @_ZNKSt6vectorIS_IiSaIiEESaIS1_EEixEm(ptr noundef nonnull align 8 dereferenceable(24) %188, i64 noundef %194) #3
  %196 = call noundef nonnull align 4 dereferenceable(4) ptr @_ZNKSt6vectorIiSaIiEEixEm(ptr noundef nonnull align 8 dereferenceable(24) %195, i64 noundef 0) #3
  %197 = load i32, ptr %196, align 4, !tbaa !8
  %198 = and i32 %197, 1
  store i32 %198, ptr %22, align 4, !tbaa !8
  %199 = load ptr, ptr %3, align 8, !tbaa !3
  %200 = load i32, ptr %21, align 4, !tbaa !8
  %201 = sext i32 %200 to i64
  %202 = call noundef nonnull align 4 dereferenceable(4) ptr @_ZNSt6vectorIiSaIiEEixEm(ptr noundef nonnull align 8 dereferenceable(24) %5, i64 noundef %201) #3
  %203 = load i32, ptr %202, align 4, !tbaa !8
  %204 = load i32, ptr %22, align 4, !tbaa !8
  %205 = call noundef i32 @_ZL14Abc_LitNotCondii(i32 noundef %203, i32 noundef %204)
  %206 = call noundef i32 @_ZL15Gia_ManAppendCoP10Gia_Man_t_i(ptr noundef %199, i32 noundef %205)
  call void @llvm.lifetime.end.p0(i64 4, ptr %22) #3
  call void @llvm.lifetime.end.p0(i64 4, ptr %21) #3
  br label %207

207:                                              ; preds = %176
  %208 = load i32, ptr %20, align 4, !tbaa !8
  %209 = add i32 %208, 1
  store i32 %209, ptr %20, align 4, !tbaa !8
  br label %169, !llvm.loop !115

210:                                              ; preds = %175
  %211 = load ptr, ptr %3, align 8, !tbaa !3
  store ptr %211, ptr %4, align 8, !tbaa !3
  %212 = call ptr @Gia_ManCleanup(ptr noundef %211)
  store ptr %212, ptr %3, align 8, !tbaa !3
  %213 = load ptr, ptr %4, align 8, !tbaa !3
  call void @Gia_ManStop(ptr noundef %213)
  %214 = load ptr, ptr %3, align 8, !tbaa !3
  store i32 1, ptr %10, align 4
  call void @_ZNSt6vectorIiSaIiEED2Ev(ptr noundef nonnull align 8 dereferenceable(24) %5) #3
  call void @llvm.lifetime.end.p0(i64 24, ptr %5) #3
  call void @llvm.lifetime.end.p0(i64 8, ptr %4) #3
  call void @llvm.lifetime.end.p0(i64 8, ptr %3) #3
  ret ptr %214
}

; Function Attrs: mustprogress nounwind uwtable
define linkonce_odr void @_ZN12Transduction12TransductionIN6NewBdd3ManENS1_5ParamEjLj4294967295EED2Ev(ptr noundef nonnull align 8 dereferenceable(456) %0) unnamed_addr #4 comdat align 2 {
  %2 = alloca ptr, align 8
  %3 = alloca %"class.std::__cxx11::basic_string", align 8
  %4 = alloca %"class.std::allocator.34", align 1
  store ptr %0, ptr %2, align 8, !tbaa !33
  %5 = load ptr, ptr %2, align 8
  %6 = getelementptr inbounds nuw %"class.Transduction::Transduction", ptr %5, i32 0, i32 1
  %7 = load i32, ptr %6, align 8, !tbaa !35
  %8 = icmp ne i32 %7, 0
  br i1 %8, label %9, label %10

9:                                                ; preds = %1
  call void @llvm.lifetime.start.p0(i64 1, ptr %4) #3
  call void @_ZNSaIcEC2Ev(ptr noundef nonnull align 1 dereferenceable(1) %4) #3
  call void @_ZNSt7__cxx1112basic_stringIcSt11char_traitsIcESaIcEEC2IS3_EEPKcRKS3_(ptr noundef nonnull align 8 dereferenceable(32) %3, ptr noundef @.str.77, ptr noundef nonnull align 1 dereferenceable(1) %4)
  call void @_ZNK12Transduction12TransductionIN6NewBdd3ManENS1_5ParamEjLj4294967295EE10PrintStatsENSt7__cxx1112basic_stringIcSt11char_traitsIcESaIcEEEbi(ptr noundef nonnull align 8 dereferenceable(456) %5, ptr noundef %3, i1 noundef zeroext true, i32 noundef 11)
  call void @_ZNSt7__cxx1112basic_stringIcSt11char_traitsIcESaIcEED2Ev(ptr noundef nonnull align 8 dereferenceable(32) %3) #3
  call void @_ZNSt15__new_allocatorIcED2Ev(ptr noundef nonnull align 1 dereferenceable(1) %4) #3
  call void @llvm.lifetime.end.p0(i64 1, ptr %4) #3
  br label %10

10:                                               ; preds = %9, %1
  %11 = getelementptr inbounds nuw %"class.Transduction::Transduction", ptr %5, i32 0, i32 15
  call void @_ZNK12Transduction7ManUtilIN6NewBdd3ManEjLj4294967295EE6DelVecERSt6vectorIjSaIjEE(ptr noundef nonnull align 8 dereferenceable(8) %5, ptr noundef nonnull align 8 dereferenceable(24) %11)
  %12 = getelementptr inbounds nuw %"class.Transduction::Transduction", ptr %5, i32 0, i32 16
  call void @_ZNK12Transduction7ManUtilIN6NewBdd3ManEjLj4294967295EE6DelVecERSt6vectorIjSaIjEE(ptr noundef nonnull align 8 dereferenceable(8) %5, ptr noundef nonnull align 8 dereferenceable(24) %12)
  %13 = getelementptr inbounds nuw %"class.Transduction::Transduction", ptr %5, i32 0, i32 17
  call void @_ZNK12Transduction7ManUtilIN6NewBdd3ManEjLj4294967295EE6DelVecERSt6vectorIS4_IjSaIjEESaIS6_EE(ptr noundef nonnull align 8 dereferenceable(8) %5, ptr noundef nonnull align 8 dereferenceable(24) %13)
  %14 = getelementptr inbounds nuw %"class.Transduction::Transduction", ptr %5, i32 0, i32 21
  call void @_ZNK12Transduction7ManUtilIN6NewBdd3ManEjLj4294967295EE6DelVecERSt6vectorIjSaIjEE(ptr noundef nonnull align 8 dereferenceable(8) %5, ptr noundef nonnull align 8 dereferenceable(24) %14)
  %15 = getelementptr inbounds nuw %"class.Transduction::ManUtil", ptr %5, i32 0, i32 0
  %16 = load ptr, ptr %15, align 8, !tbaa !80
  %17 = icmp eq ptr %16, null
  br i1 %17, label %19, label %18

18:                                               ; preds = %10
  call void @_ZN6NewBdd3ManD2Ev(ptr noundef nonnull align 8 dereferenceable(384) %16) #3
  call void @_ZdlPvm(ptr noundef %16, i64 noundef 384) #21
  br label %19

19:                                               ; preds = %18, %10
  %20 = getelementptr inbounds nuw %"class.Transduction::Transduction", ptr %5, i32 0, i32 21
  call void @_ZNSt6vectorIjSaIjEED2Ev(ptr noundef nonnull align 8 dereferenceable(24) %20) #3
  %21 = getelementptr inbounds nuw %"class.Transduction::Transduction", ptr %5, i32 0, i32 20
  call void @_ZNSt13_Bvector_baseISaIbEED2Ev(ptr noundef nonnull align 8 dereferenceable(40) %21) #3
  %22 = getelementptr inbounds nuw %"class.Transduction::Transduction", ptr %5, i32 0, i32 19
  call void @_ZNSt13_Bvector_baseISaIbEED2Ev(ptr noundef nonnull align 8 dereferenceable(40) %22) #3
  %23 = getelementptr inbounds nuw %"class.Transduction::Transduction", ptr %5, i32 0, i32 18
  call void @_ZNSt13_Bvector_baseISaIbEED2Ev(ptr noundef nonnull align 8 dereferenceable(40) %23) #3
  %24 = getelementptr inbounds nuw %"class.Transduction::Transduction", ptr %5, i32 0, i32 17
  call void @_ZNSt6vectorIS_IjSaIjEESaIS1_EED2Ev(ptr noundef nonnull align 8 dereferenceable(24) %24) #3
  %25 = getelementptr inbounds nuw %"class.Transduction::Transduction", ptr %5, i32 0, i32 16
  call void @_ZNSt6vectorIjSaIjEED2Ev(ptr noundef nonnull align 8 dereferenceable(24) %25) #3
  %26 = getelementptr inbounds nuw %"class.Transduction::Transduction", ptr %5, i32 0, i32 15
  call void @_ZNSt6vectorIjSaIjEED2Ev(ptr noundef nonnull align 8 dereferenceable(24) %26) #3
  %27 = getelementptr inbounds nuw %"class.Transduction::Transduction", ptr %5, i32 0, i32 14
  call void @_ZNSt6vectorIS_IiSaIiEESaIS1_EED2Ev(ptr noundef nonnull align 8 dereferenceable(24) %27) #3
  %28 = getelementptr inbounds nuw %"class.Transduction::Transduction", ptr %5, i32 0, i32 13
  call void @_ZNSt6vectorIiSaIiEED2Ev(ptr noundef nonnull align 8 dereferenceable(24) %28) #3
  %29 = getelementptr inbounds nuw %"class.Transduction::Transduction", ptr %5, i32 0, i32 12
  call void @_ZNSt6vectorIiSaIiEED2Ev(ptr noundef nonnull align 8 dereferenceable(24) %29) #3
  %30 = getelementptr inbounds nuw %"class.Transduction::Transduction", ptr %5, i32 0, i32 11
  call void @_ZNSt6vectorIS_IiSaIiEESaIS1_EED2Ev(ptr noundef nonnull align 8 dereferenceable(24) %30) #3
  %31 = getelementptr inbounds nuw %"class.Transduction::Transduction", ptr %5, i32 0, i32 10
  call void @_ZNSt6vectorIS_IiSaIiEESaIS1_EED2Ev(ptr noundef nonnull align 8 dereferenceable(24) %31) #3
  %32 = getelementptr inbounds nuw %"class.Transduction::Transduction", ptr %5, i32 0, i32 9
  call void @_ZNSt7__cxx1110_List_baseIiSaIiEED2Ev(ptr noundef nonnull align 8 dereferenceable(24) %32) #3
  %33 = getelementptr inbounds nuw %"class.Transduction::Transduction", ptr %5, i32 0, i32 8
  call void @_ZNSt6vectorIiSaIiEED2Ev(ptr noundef nonnull align 8 dereferenceable(24) %33) #3
  %34 = getelementptr inbounds nuw %"class.Transduction::Transduction", ptr %5, i32 0, i32 7
  call void @_ZNSt6vectorIiSaIiEED2Ev(ptr noundef nonnull align 8 dereferenceable(24) %34) #3
  ret void
}

; Function Attrs: mustprogress nounwind uwtable
define ptr @Gia_ManTransductionTt(ptr noundef %0, i32 noundef %1, i32 noundef %2, i32 noundef %3, i32 noundef %4, i32 noundef %5, i32 noundef %6, i32 noundef %7, ptr noundef %8, i32 noundef %9, i32 noundef %10) #4 {
  %12 = alloca ptr, align 8
  %13 = alloca i32, align 4
  %14 = alloca i32, align 4
  %15 = alloca i32, align 4
  %16 = alloca i32, align 4
  %17 = alloca i32, align 4
  %18 = alloca i32, align 4
  %19 = alloca i32, align 4
  %20 = alloca ptr, align 8
  %21 = alloca i32, align 4
  %22 = alloca i32, align 4
  %23 = alloca %"struct.NewTt::Param", align 8
  %24 = alloca %"class.Transduction::Transduction.22", align 8
  %25 = alloca i32, align 4
  %26 = alloca i8, align 1
  %27 = alloca i8, align 1
  %28 = alloca i8, align 1
  %29 = alloca i8, align 1
  %30 = alloca i8, align 1
  %31 = alloca i8, align 1
  %32 = alloca i8, align 1
  store ptr %0, ptr %12, align 8, !tbaa !3
  store i32 %1, ptr %13, align 4, !tbaa !8
  store i32 %2, ptr %14, align 4, !tbaa !8
  store i32 %3, ptr %15, align 4, !tbaa !8
  store i32 %4, ptr %16, align 4, !tbaa !8
  store i32 %5, ptr %17, align 4, !tbaa !8
  store i32 %6, ptr %18, align 4, !tbaa !8
  store i32 %7, ptr %19, align 4, !tbaa !8
  store ptr %8, ptr %20, align 8, !tbaa !3
  store i32 %9, ptr %21, align 4, !tbaa !8
  store i32 %10, ptr %22, align 4, !tbaa !8
  %33 = load i32, ptr %15, align 4, !tbaa !8
  %34 = icmp ne i32 %33, 0
  br i1 %34, label %35, label %42

35:                                               ; preds = %11
  %36 = load i32, ptr %15, align 4, !tbaa !8
  call void @srand(i32 noundef %36) #3
  %37 = call i32 @rand() #3
  %38 = srem i32 %37, 4
  store i32 %38, ptr %16, align 4, !tbaa !8
  %39 = call i32 @rand() #3
  store i32 %39, ptr %17, align 4, !tbaa !8
  %40 = call i32 @rand() #3
  %41 = srem i32 %40, 16
  store i32 %41, ptr %18, align 4, !tbaa !8
  br label %42

42:                                               ; preds = %35, %11
  call void @llvm.lifetime.start.p0(i64 32, ptr %23) #3
  call void @_ZN5NewTt5ParamC2Ev(ptr noundef nonnull align 8 dereferenceable(32) %23)
  call void @llvm.lifetime.start.p0(i64 456, ptr %24) #3
  %43 = load ptr, ptr %12, align 8, !tbaa !3
  %44 = load i32, ptr %22, align 4, !tbaa !8
  %45 = load i32, ptr %21, align 4, !tbaa !8
  %46 = icmp ne i32 %45, 0
  %47 = load i32, ptr %16, align 4, !tbaa !8
  %48 = load i32, ptr %17, align 4, !tbaa !8
  %49 = load i32, ptr %19, align 4, !tbaa !8
  %50 = icmp ne i32 %49, 0
  %51 = load ptr, ptr %20, align 8, !tbaa !3
  call void @_ZN12Transduction12TransductionIN5NewTt3ManENS1_5ParamEjLj4294967295EEC2EP10Gia_Man_t_ibiibS6_RS3_(ptr noundef nonnull align 8 dereferenceable(456) %24, ptr noundef %43, i32 noundef %44, i1 noundef zeroext %46, i32 noundef %47, i32 noundef %48, i1 noundef zeroext %50, ptr noundef %51, ptr noundef nonnull align 8 dereferenceable(32) %23)
  call void @llvm.lifetime.start.p0(i64 4, ptr %25) #3
  %52 = call noundef i32 @_ZNK12Transduction12TransductionIN5NewTt3ManENS1_5ParamEjLj4294967295EE10CountWiresEv(ptr noundef nonnull align 8 dereferenceable(456) %24)
  store i32 %52, ptr %25, align 4, !tbaa !8
  %53 = load i32, ptr %13, align 4, !tbaa !8
  switch i32 %53, label %167 [
    i32 0, label %54
    i32 1, label %65
    i32 2, label %71
    i32 3, label %77
    i32 4, label %83
    i32 5, label %89
    i32 6, label %95
    i32 7, label %108
    i32 8, label %128
  ]

54:                                               ; preds = %42
  %55 = load i32, ptr %14, align 4, !tbaa !8
  %56 = icmp ne i32 %55, 0
  br i1 %56, label %57, label %59

57:                                               ; preds = %54
  %58 = call noundef i32 @_ZN12Transduction12TransductionIN5NewTt3ManENS1_5ParamEjLj4294967295EE4MspfEv(ptr noundef nonnull align 8 dereferenceable(456) %24)
  br label %61

59:                                               ; preds = %54
  %60 = call noundef i32 @_ZN12Transduction12TransductionIN5NewTt3ManENS1_5ParamEjLj4294967295EE4CspfEv(ptr noundef nonnull align 8 dereferenceable(456) %24)
  br label %61

61:                                               ; preds = %59, %57
  %62 = phi i32 [ %58, %57 ], [ %60, %59 ]
  %63 = load i32, ptr %25, align 4, !tbaa !8
  %64 = sub nsw i32 %63, %62
  store i32 %64, ptr %25, align 4, !tbaa !8
  br label %172

65:                                               ; preds = %42
  %66 = load i32, ptr %14, align 4, !tbaa !8
  %67 = icmp ne i32 %66, 0
  %68 = call noundef i32 @_ZN12Transduction12TransductionIN5NewTt3ManENS1_5ParamEjLj4294967295EE5ResubEb(ptr noundef nonnull align 8 dereferenceable(456) %24, i1 noundef zeroext %67)
  %69 = load i32, ptr %25, align 4, !tbaa !8
  %70 = sub nsw i32 %69, %68
  store i32 %70, ptr %25, align 4, !tbaa !8
  br label %172

71:                                               ; preds = %42
  %72 = load i32, ptr %14, align 4, !tbaa !8
  %73 = icmp ne i32 %72, 0
  %74 = call noundef i32 @_ZN12Transduction12TransductionIN5NewTt3ManENS1_5ParamEjLj4294967295EE9ResubMonoEb(ptr noundef nonnull align 8 dereferenceable(456) %24, i1 noundef zeroext %73)
  %75 = load i32, ptr %25, align 4, !tbaa !8
  %76 = sub nsw i32 %75, %74
  store i32 %76, ptr %25, align 4, !tbaa !8
  br label %172

77:                                               ; preds = %42
  %78 = load i32, ptr %14, align 4, !tbaa !8
  %79 = icmp ne i32 %78, 0
  %80 = call noundef i32 @_ZN12Transduction12TransductionIN5NewTt3ManENS1_5ParamEjLj4294967295EE11ResubSharedEb(ptr noundef nonnull align 8 dereferenceable(456) %24, i1 noundef zeroext %79)
  %81 = load i32, ptr %25, align 4, !tbaa !8
  %82 = sub nsw i32 %81, %80
  store i32 %82, ptr %25, align 4, !tbaa !8
  br label %172

83:                                               ; preds = %42
  %84 = load i32, ptr %14, align 4, !tbaa !8
  %85 = icmp ne i32 %84, 0
  %86 = call noundef i32 @_ZN12Transduction12TransductionIN5NewTt3ManENS1_5ParamEjLj4294967295EE11RepeatResubEbb(ptr noundef nonnull align 8 dereferenceable(456) %24, i1 noundef zeroext false, i1 noundef zeroext %85)
  %87 = load i32, ptr %25, align 4, !tbaa !8
  %88 = sub nsw i32 %87, %86
  store i32 %88, ptr %25, align 4, !tbaa !8
  br label %172

89:                                               ; preds = %42
  %90 = load i32, ptr %14, align 4, !tbaa !8
  %91 = icmp ne i32 %90, 0
  %92 = call noundef i32 @_ZN12Transduction12TransductionIN5NewTt3ManENS1_5ParamEjLj4294967295EE11RepeatResubEbb(ptr noundef nonnull align 8 dereferenceable(456) %24, i1 noundef zeroext true, i1 noundef zeroext %91)
  %93 = load i32, ptr %25, align 4, !tbaa !8
  %94 = sub nsw i32 %93, %92
  store i32 %94, ptr %25, align 4, !tbaa !8
  br label %172

95:                                               ; preds = %42
  call void @llvm.lifetime.start.p0(i64 1, ptr %26) #3
  %96 = load i32, ptr %18, align 4, !tbaa !8
  %97 = sdiv i32 %96, 4
  %98 = srem i32 %97, 2
  %99 = icmp ne i32 %98, 0
  %100 = zext i1 %99 to i8
  store i8 %100, ptr %26, align 1, !tbaa !10
  %101 = load i32, ptr %14, align 4, !tbaa !8
  %102 = icmp ne i32 %101, 0
  %103 = load i8, ptr %26, align 1, !tbaa !10, !range !12, !noundef !13
  %104 = trunc i8 %103 to i1
  %105 = call noundef i32 @_ZN12Transduction12TransductionIN5NewTt3ManENS1_5ParamEjLj4294967295EE11RepeatInnerEbb(ptr noundef nonnull align 8 dereferenceable(456) %24, i1 noundef zeroext %102, i1 noundef zeroext %104)
  %106 = load i32, ptr %25, align 4, !tbaa !8
  %107 = sub nsw i32 %106, %105
  store i32 %107, ptr %25, align 4, !tbaa !8
  call void @llvm.lifetime.end.p0(i64 1, ptr %26) #3
  br label %172

108:                                              ; preds = %42
  call void @llvm.lifetime.start.p0(i64 1, ptr %27) #3
  %109 = load i32, ptr %18, align 4, !tbaa !8
  %110 = sdiv i32 %109, 4
  %111 = srem i32 %110, 2
  %112 = icmp ne i32 %111, 0
  %113 = zext i1 %112 to i8
  store i8 %113, ptr %27, align 1, !tbaa !10
  call void @llvm.lifetime.start.p0(i64 1, ptr %28) #3
  %114 = load i32, ptr %18, align 4, !tbaa !8
  %115 = sdiv i32 %114, 8
  %116 = srem i32 %115, 2
  %117 = icmp ne i32 %116, 0
  %118 = zext i1 %117 to i8
  store i8 %118, ptr %28, align 1, !tbaa !10
  %119 = load i32, ptr %14, align 4, !tbaa !8
  %120 = icmp ne i32 %119, 0
  %121 = load i8, ptr %27, align 1, !tbaa !10, !range !12, !noundef !13
  %122 = trunc i8 %121 to i1
  %123 = load i8, ptr %28, align 1, !tbaa !10, !range !12, !noundef !13
  %124 = trunc i8 %123 to i1
  %125 = call noundef i32 @_ZN12Transduction12TransductionIN5NewTt3ManENS1_5ParamEjLj4294967295EE11RepeatOuterEbbb(ptr noundef nonnull align 8 dereferenceable(456) %24, i1 noundef zeroext %120, i1 noundef zeroext %122, i1 noundef zeroext %124)
  %126 = load i32, ptr %25, align 4, !tbaa !8
  %127 = sub nsw i32 %126, %125
  store i32 %127, ptr %25, align 4, !tbaa !8
  call void @llvm.lifetime.end.p0(i64 1, ptr %28) #3
  call void @llvm.lifetime.end.p0(i64 1, ptr %27) #3
  br label %172

128:                                              ; preds = %42
  call void @llvm.lifetime.start.p0(i64 1, ptr %29) #3
  %129 = load i32, ptr %18, align 4, !tbaa !8
  %130 = srem i32 %129, 2
  %131 = icmp ne i32 %130, 0
  %132 = zext i1 %131 to i8
  store i8 %132, ptr %29, align 1, !tbaa !10
  call void @llvm.lifetime.start.p0(i64 1, ptr %30) #3
  %133 = load i32, ptr %14, align 4, !tbaa !8
  %134 = icmp ne i32 %133, 0
  br i1 %134, label %135, label %139

135:                                              ; preds = %128
  %136 = load i32, ptr %18, align 4, !tbaa !8
  %137 = sdiv i32 %136, 2
  %138 = srem i32 %137, 2
  br label %140

139:                                              ; preds = %128
  br label %140

140:                                              ; preds = %139, %135
  %141 = phi i32 [ %138, %135 ], [ 0, %139 ]
  %142 = icmp ne i32 %141, 0
  %143 = zext i1 %142 to i8
  store i8 %143, ptr %30, align 1, !tbaa !10
  call void @llvm.lifetime.start.p0(i64 1, ptr %31) #3
  %144 = load i32, ptr %18, align 4, !tbaa !8
  %145 = sdiv i32 %144, 4
  %146 = srem i32 %145, 2
  %147 = icmp ne i32 %146, 0
  %148 = zext i1 %147 to i8
  store i8 %148, ptr %31, align 1, !tbaa !10
  call void @llvm.lifetime.start.p0(i64 1, ptr %32) #3
  %149 = load i32, ptr %18, align 4, !tbaa !8
  %150 = sdiv i32 %149, 8
  %151 = srem i32 %150, 2
  %152 = icmp ne i32 %151, 0
  %153 = zext i1 %152 to i8
  store i8 %153, ptr %32, align 1, !tbaa !10
  %154 = load i8, ptr %29, align 1, !tbaa !10, !range !12, !noundef !13
  %155 = trunc i8 %154 to i1
  %156 = load i8, ptr %30, align 1, !tbaa !10, !range !12, !noundef !13
  %157 = trunc i8 %156 to i1
  %158 = load i32, ptr %14, align 4, !tbaa !8
  %159 = icmp ne i32 %158, 0
  %160 = load i8, ptr %31, align 1, !tbaa !10, !range !12, !noundef !13
  %161 = trunc i8 %160 to i1
  %162 = load i8, ptr %32, align 1, !tbaa !10, !range !12, !noundef !13
  %163 = trunc i8 %162 to i1
  %164 = call noundef i32 @_ZN12Transduction12TransductionIN5NewTt3ManENS1_5ParamEjLj4294967295EE9RepeatAllEbbbbb(ptr noundef nonnull align 8 dereferenceable(456) %24, i1 noundef zeroext %155, i1 noundef zeroext %157, i1 noundef zeroext %159, i1 noundef zeroext %161, i1 noundef zeroext %163)
  %165 = load i32, ptr %25, align 4, !tbaa !8
  %166 = sub nsw i32 %165, %164
  store i32 %166, ptr %25, align 4, !tbaa !8
  call void @llvm.lifetime.end.p0(i64 1, ptr %32) #3
  call void @llvm.lifetime.end.p0(i64 1, ptr %31) #3
  call void @llvm.lifetime.end.p0(i64 1, ptr %30) #3
  call void @llvm.lifetime.end.p0(i64 1, ptr %29) #3
  br label %172

167:                                              ; preds = %42
  %168 = call noundef nonnull align 8 dereferenceable(8) ptr @_ZStlsISt11char_traitsIcEERSt13basic_ostreamIcT_ES5_PKc(ptr noundef nonnull align 8 dereferenceable(8) @_ZSt4cout, ptr noundef @.str)
  %169 = load i32, ptr %13, align 4, !tbaa !8
  %170 = call noundef nonnull align 8 dereferenceable(8) ptr @_ZNSolsEi(ptr noundef nonnull align 8 dereferenceable(8) %168, i32 noundef %169)
  %171 = call noundef nonnull align 8 dereferenceable(8) ptr @_ZNSolsEPFRSoS_E(ptr noundef nonnull align 8 dereferenceable(8) %170, ptr noundef @_ZSt4endlIcSt11char_traitsIcEERSt13basic_ostreamIT_T0_ES6_)
  br label %172

172:                                              ; preds = %167, %140, %108, %95, %89, %83, %77, %71, %65, %61
  %173 = call noundef ptr @_ZNK12Transduction12TransductionIN5NewTt3ManENS1_5ParamEjLj4294967295EE11GenerateAigEv(ptr noundef nonnull align 8 dereferenceable(456) %24)
  call void @llvm.lifetime.end.p0(i64 4, ptr %25) #3
  call void @_ZN12Transduction12TransductionIN5NewTt3ManENS1_5ParamEjLj4294967295EED2Ev(ptr noundef nonnull align 8 dereferenceable(456) %24) #3
  call void @llvm.lifetime.end.p0(i64 456, ptr %24) #3
  call void @llvm.lifetime.end.p0(i64 32, ptr %23) #3
  ret ptr %173
}

; Function Attrs: mustprogress nounwind uwtable
define linkonce_odr void @_ZN5NewTt5ParamC2Ev(ptr noundef nonnull align 8 dereferenceable(32) %0) unnamed_addr #4 comdat align 2 {
  %2 = alloca ptr, align 8
  store ptr %0, ptr %2, align 8, !tbaa !116
  %3 = load ptr, ptr %2, align 8
  %4 = getelementptr inbounds nuw %"struct.NewTt::Param", ptr %3, i32 0, i32 0
  store i32 15, ptr %4, align 8, !tbaa !118
  %5 = getelementptr inbounds nuw %"struct.NewTt::Param", ptr %3, i32 0, i32 1
  store i32 20, ptr %5, align 4, !tbaa !120
  %6 = getelementptr inbounds nuw %"struct.NewTt::Param", ptr %3, i32 0, i32 2
  store i32 0, ptr %6, align 8, !tbaa !121
  %7 = getelementptr inbounds nuw %"struct.NewTt::Param", ptr %3, i32 0, i32 3
  store i8 0, ptr %7, align 4, !tbaa !122
  %8 = getelementptr inbounds nuw %"struct.NewTt::Param", ptr %3, i32 0, i32 4
  store i32 0, ptr %8, align 8, !tbaa !123
  %9 = call noundef i32 @_ZN5NewTtL7BvarMaxEv()
  %10 = getelementptr inbounds nuw %"struct.NewTt::Param", ptr %3, i32 0, i32 5
  store i32 %9, ptr %10, align 4, !tbaa !124
  ret void
}

; Function Attrs: mustprogress nounwind uwtable
define linkonce_odr void @_ZN12Transduction12TransductionIN5NewTt3ManENS1_5ParamEjLj4294967295EEC2EP10Gia_Man_t_ibiibS6_RS3_(ptr noundef nonnull align 8 dereferenceable(456) %0, ptr noundef %1, i32 noundef %2, i1 noundef zeroext %3, i32 noundef %4, i32 noundef %5, i1 noundef zeroext %6, ptr noundef %7, ptr noundef nonnull align 8 dereferenceable(32) %8) unnamed_addr #4 comdat align 2 {
  %10 = alloca ptr, align 8
  %11 = alloca ptr, align 8
  %12 = alloca i32, align 4
  %13 = alloca i8, align 1
  %14 = alloca i32, align 4
  %15 = alloca i32, align 4
  %16 = alloca i8, align 1
  %17 = alloca ptr, align 8
  %18 = alloca ptr, align 8
  %19 = alloca %"struct.NewTt::Param", align 8
  %20 = alloca i32, align 4
  %21 = alloca %"class.std::vector.8", align 8
  %22 = alloca i32, align 4
  %23 = alloca i32, align 4
  %24 = alloca i32, align 4
  %25 = alloca i32, align 4
  %26 = alloca %"class.std::__cxx11::basic_string", align 8
  %27 = alloca %"class.std::allocator.34", align 1
  store ptr %0, ptr %10, align 8, !tbaa !125
  store ptr %1, ptr %11, align 8, !tbaa !3
  store i32 %2, ptr %12, align 4, !tbaa !8
  %28 = zext i1 %3 to i8
  store i8 %28, ptr %13, align 1, !tbaa !10
  store i32 %4, ptr %14, align 4, !tbaa !8
  store i32 %5, ptr %15, align 4, !tbaa !8
  %29 = zext i1 %6 to i8
  store i8 %29, ptr %16, align 1, !tbaa !10
  store ptr %7, ptr %17, align 8, !tbaa !3
  store ptr %8, ptr %18, align 8, !tbaa !116
  %30 = load ptr, ptr %10, align 8
  %31 = getelementptr inbounds nuw %"class.Transduction::Transduction.22", ptr %30, i32 0, i32 1
  %32 = load i32, ptr %12, align 4, !tbaa !8
  store i32 %32, ptr %31, align 8, !tbaa !127
  %33 = getelementptr inbounds nuw %"class.Transduction::Transduction.22", ptr %30, i32 0, i32 2
  %34 = load i32, ptr %14, align 4, !tbaa !8
  store i32 %34, ptr %33, align 4, !tbaa !131
  %35 = getelementptr inbounds nuw %"class.Transduction::Transduction.22", ptr %30, i32 0, i32 3
  %36 = load i8, ptr %16, align 1, !tbaa !10, !range !12, !noundef !13
  %37 = trunc i8 %36 to i1
  %38 = zext i1 %37 to i8
  store i8 %38, ptr %35, align 8, !tbaa !132
  %39 = getelementptr inbounds nuw %"class.Transduction::Transduction.22", ptr %30, i32 0, i32 7
  call void @_ZNSt6vectorIiSaIiEEC2Ev(ptr noundef nonnull align 8 dereferenceable(24) %39) #3
  %40 = getelementptr inbounds nuw %"class.Transduction::Transduction.22", ptr %30, i32 0, i32 8
  call void @_ZNSt6vectorIiSaIiEEC2Ev(ptr noundef nonnull align 8 dereferenceable(24) %40) #3
  %41 = getelementptr inbounds nuw %"class.Transduction::Transduction.22", ptr %30, i32 0, i32 9
  call void @_ZNSt7__cxx114listIiSaIiEEC2Ev(ptr noundef nonnull align 8 dereferenceable(24) %41) #3
  %42 = getelementptr inbounds nuw %"class.Transduction::Transduction.22", ptr %30, i32 0, i32 10
  call void @_ZNSt6vectorIS_IiSaIiEESaIS1_EEC2Ev(ptr noundef nonnull align 8 dereferenceable(24) %42) #3
  %43 = getelementptr inbounds nuw %"class.Transduction::Transduction.22", ptr %30, i32 0, i32 11
  call void @_ZNSt6vectorIS_IiSaIiEESaIS1_EEC2Ev(ptr noundef nonnull align 8 dereferenceable(24) %43) #3
  %44 = getelementptr inbounds nuw %"class.Transduction::Transduction.22", ptr %30, i32 0, i32 12
  call void @_ZNSt6vectorIiSaIiEEC2Ev(ptr noundef nonnull align 8 dereferenceable(24) %44) #3
  %45 = getelementptr inbounds nuw %"class.Transduction::Transduction.22", ptr %30, i32 0, i32 13
  call void @_ZNSt6vectorIiSaIiEEC2Ev(ptr noundef nonnull align 8 dereferenceable(24) %45) #3
  %46 = getelementptr inbounds nuw %"class.Transduction::Transduction.22", ptr %30, i32 0, i32 14
  call void @_ZNSt6vectorIS_IiSaIiEESaIS1_EEC2Ev(ptr noundef nonnull align 8 dereferenceable(24) %46) #3
  %47 = getelementptr inbounds nuw %"class.Transduction::Transduction.22", ptr %30, i32 0, i32 15
  call void @_ZNSt6vectorIjSaIjEEC2Ev(ptr noundef nonnull align 8 dereferenceable(24) %47) #3
  %48 = getelementptr inbounds nuw %"class.Transduction::Transduction.22", ptr %30, i32 0, i32 16
  call void @_ZNSt6vectorIjSaIjEEC2Ev(ptr noundef nonnull align 8 dereferenceable(24) %48) #3
  %49 = getelementptr inbounds nuw %"class.Transduction::Transduction.22", ptr %30, i32 0, i32 17
  call void @_ZNSt6vectorIS_IjSaIjEESaIS1_EEC2Ev(ptr noundef nonnull align 8 dereferenceable(24) %49) #3
  %50 = getelementptr inbounds nuw %"class.Transduction::Transduction.22", ptr %30, i32 0, i32 18
  call void @_ZNSt6vectorIbSaIbEEC2Ev(ptr noundef nonnull align 8 dereferenceable(40) %50) #3
  %51 = getelementptr inbounds nuw %"class.Transduction::Transduction.22", ptr %30, i32 0, i32 19
  call void @_ZNSt6vectorIbSaIbEEC2Ev(ptr noundef nonnull align 8 dereferenceable(40) %51) #3
  %52 = getelementptr inbounds nuw %"class.Transduction::Transduction.22", ptr %30, i32 0, i32 20
  call void @_ZNSt6vectorIbSaIbEEC2Ev(ptr noundef nonnull align 8 dereferenceable(40) %52) #3
  %53 = getelementptr inbounds nuw %"class.Transduction::Transduction.22", ptr %30, i32 0, i32 21
  call void @_ZNSt6vectorIjSaIjEEC2Ev(ptr noundef nonnull align 8 dereferenceable(24) %53) #3
  %54 = getelementptr inbounds nuw %"class.Transduction::Transduction.22", ptr %30, i32 0, i32 22
  %55 = load i8, ptr %13, align 1, !tbaa !10, !range !12, !noundef !13
  %56 = trunc i8 %55 to i1
  %57 = zext i1 %56 to i8
  store i8 %57, ptr %54, align 8, !tbaa !133
  %58 = call noundef i64 @_ZL9Abc_Clockv()
  %59 = getelementptr inbounds nuw %"class.Transduction::Transduction.22", ptr %30, i32 0, i32 23
  store i64 %58, ptr %59, align 8, !tbaa !134
  %60 = load ptr, ptr %18, align 8, !tbaa !116
  %61 = getelementptr inbounds nuw %"struct.NewTt::Param", ptr %60, i32 0, i32 4
  store i32 1, ptr %61, align 8, !tbaa !123
  %62 = load ptr, ptr %18, align 8, !tbaa !116
  %63 = getelementptr inbounds nuw %"struct.NewTt::Param", ptr %62, i32 0, i32 5
  store i32 4000, ptr %63, align 4, !tbaa !124
  %64 = load i32, ptr %14, align 4, !tbaa !8
  %65 = icmp ne i32 %64, 0
  br i1 %65, label %66, label %72

66:                                               ; preds = %9
  %67 = load i32, ptr %14, align 4, !tbaa !8
  %68 = icmp slt i32 %67, 4
  br i1 %68, label %69, label %72

69:                                               ; preds = %66
  %70 = load ptr, ptr %18, align 8, !tbaa !116
  %71 = getelementptr inbounds nuw %"struct.NewTt::Param", ptr %70, i32 0, i32 3
  store i8 1, ptr %71, align 4, !tbaa !122
  br label %72

72:                                               ; preds = %69, %66, %9
  %73 = call noalias noundef nonnull ptr @_Znwm(i64 noundef 112) #20
  %74 = load ptr, ptr %11, align 8, !tbaa !3
  %75 = call noundef i32 @_ZL12Gia_ManCiNumP10Gia_Man_t_(ptr noundef %74)
  %76 = load ptr, ptr %18, align 8, !tbaa !116
  call void @llvm.memcpy.p0.p0.i64(ptr align 8 %19, ptr align 8 %76, i64 32, i1 false), !tbaa.struct !135
  call void @_ZN5NewTt3ManC2EiNS_5ParamE(ptr noundef nonnull align 8 dereferenceable(112) %73, i32 noundef %75, ptr noundef byval(%"struct.NewTt::Param") align 8 %19)
  %77 = getelementptr inbounds nuw %"class.Transduction::ManUtil.23", ptr %30, i32 0, i32 0
  store ptr %73, ptr %77, align 8, !tbaa !137
  %78 = load ptr, ptr %11, align 8, !tbaa !3
  call void @_ZN12Transduction12TransductionIN5NewTt3ManENS1_5ParamEjLj4294967295EE9ImportAigEP10Gia_Man_t_(ptr noundef nonnull align 8 dereferenceable(456) %30, ptr noundef %78)
  %79 = getelementptr inbounds nuw %"class.Transduction::Transduction.22", ptr %30, i32 0, i32 15
  %80 = call noundef nonnull align 4 dereferenceable(4) ptr @_ZNSt6vectorIjSaIjEEixEm(ptr noundef nonnull align 8 dereferenceable(24) %79, i64 noundef 0) #3
  %81 = getelementptr inbounds nuw %"class.Transduction::ManUtil.23", ptr %30, i32 0, i32 0
  %82 = load ptr, ptr %81, align 8, !tbaa !137
  %83 = call noundef i32 @_ZNK5NewTt3Man6Const0Ev(ptr noundef nonnull align 8 dereferenceable(112) %82)
  call void @_ZNK12Transduction7ManUtilIN5NewTt3ManEjLj4294967295EE6UpdateERjj(ptr noundef nonnull align 8 dereferenceable(8) %30, ptr noundef nonnull align 4 dereferenceable(4) %80, i32 noundef %83)
  call void @llvm.lifetime.start.p0(i64 4, ptr %20) #3
  store i32 0, ptr %20, align 4, !tbaa !8
  br label %84

84:                                               ; preds = %101, %72
  %85 = load i32, ptr %20, align 4, !tbaa !8
  %86 = zext i32 %85 to i64
  %87 = getelementptr inbounds nuw %"class.Transduction::Transduction.22", ptr %30, i32 0, i32 7
  %88 = call noundef i64 @_ZNKSt6vectorIiSaIiEE4sizeEv(ptr noundef nonnull align 8 dereferenceable(24) %87) #3
  %89 = icmp ult i64 %86, %88
  br i1 %89, label %91, label %90

90:                                               ; preds = %84
  call void @llvm.lifetime.end.p0(i64 4, ptr %20) #3
  br label %104

91:                                               ; preds = %84
  %92 = getelementptr inbounds nuw %"class.Transduction::Transduction.22", ptr %30, i32 0, i32 15
  %93 = load i32, ptr %20, align 4, !tbaa !8
  %94 = add i32 %93, 1
  %95 = zext i32 %94 to i64
  %96 = call noundef nonnull align 4 dereferenceable(4) ptr @_ZNSt6vectorIjSaIjEEixEm(ptr noundef nonnull align 8 dereferenceable(24) %92, i64 noundef %95) #3
  %97 = getelementptr inbounds nuw %"class.Transduction::ManUtil.23", ptr %30, i32 0, i32 0
  %98 = load ptr, ptr %97, align 8, !tbaa !137
  %99 = load i32, ptr %20, align 4, !tbaa !8
  %100 = call noundef i32 @_ZNK5NewTt3Man6IthVarEi(ptr noundef nonnull align 8 dereferenceable(112) %98, i32 noundef %99)
  call void @_ZNK12Transduction7ManUtilIN5NewTt3ManEjLj4294967295EE6UpdateERjj(ptr noundef nonnull align 8 dereferenceable(8) %30, ptr noundef nonnull align 4 dereferenceable(4) %96, i32 noundef %100)
  br label %101

101:                                              ; preds = %91
  %102 = load i32, ptr %20, align 4, !tbaa !8
  %103 = add i32 %102, 1
  store i32 %103, ptr %20, align 4, !tbaa !8
  br label %84, !llvm.loop !138

104:                                              ; preds = %90
  %105 = getelementptr inbounds nuw %"class.Transduction::Transduction.22", ptr %30, i32 0, i32 5
  store i32 -1, ptr %105, align 8, !tbaa !139
  call void @_ZN12Transduction12TransductionIN5NewTt3ManENS1_5ParamEjLj4294967295EE5BuildEb(ptr noundef nonnull align 8 dereferenceable(456) %30, i1 noundef zeroext false)
  %106 = getelementptr inbounds nuw %"class.Transduction::ManUtil.23", ptr %30, i32 0, i32 0
  %107 = load ptr, ptr %106, align 8, !tbaa !137
  call void @_ZN5NewTt3Man7ReorderEv(ptr noundef nonnull align 8 dereferenceable(112) %107)
  %108 = getelementptr inbounds nuw %"class.Transduction::ManUtil.23", ptr %30, i32 0, i32 0
  %109 = load ptr, ptr %108, align 8, !tbaa !137
  call void @_ZN5NewTt3Man10TurnOffReoEv(ptr noundef nonnull align 8 dereferenceable(112) %109)
  %110 = load ptr, ptr %17, align 8, !tbaa !3
  %111 = icmp ne ptr %110, null
  br i1 %111, label %112, label %147

112:                                              ; preds = %104
  call void @llvm.lifetime.start.p0(i64 24, ptr %21) #3
  call void @_ZNSt6vectorIjSaIjEEC2Ev(ptr noundef nonnull align 8 dereferenceable(24) %21) #3
  %113 = load ptr, ptr %17, align 8, !tbaa !3
  call void @_ZN12Transduction12TransductionIN5NewTt3ManENS1_5ParamEjLj4294967295EE7Aig2BddEP10Gia_Man_t_RSt6vectorIjSaIjEE(ptr noundef nonnull align 8 dereferenceable(456) %30, ptr noundef %113, ptr noundef nonnull align 8 dereferenceable(24) %21)
  call void @llvm.lifetime.start.p0(i64 4, ptr %22) #3
  store i32 0, ptr %22, align 4, !tbaa !8
  br label %114

114:                                              ; preds = %143, %112
  %115 = load i32, ptr %22, align 4, !tbaa !8
  %116 = zext i32 %115 to i64
  %117 = getelementptr inbounds nuw %"class.Transduction::Transduction.22", ptr %30, i32 0, i32 8
  %118 = call noundef i64 @_ZNKSt6vectorIiSaIiEE4sizeEv(ptr noundef nonnull align 8 dereferenceable(24) %117) #3
  %119 = icmp ult i64 %116, %118
  br i1 %119, label %121, label %120

120:                                              ; preds = %114
  call void @llvm.lifetime.end.p0(i64 4, ptr %22) #3
  br label %146

121:                                              ; preds = %114
  %122 = call noundef i64 @_ZNKSt6vectorIjSaIjEE4sizeEv(ptr noundef nonnull align 8 dereferenceable(24) %21) #3
  %123 = icmp eq i64 %122, 1
  br i1 %123, label %124, label %127

124:                                              ; preds = %121
  %125 = call noundef nonnull align 4 dereferenceable(4) ptr @_ZNSt6vectorIjSaIjEEixEm(ptr noundef nonnull align 8 dereferenceable(24) %21, i64 noundef 0) #3
  %126 = load i32, ptr %125, align 4, !tbaa !8
  br label %132

127:                                              ; preds = %121
  %128 = load i32, ptr %22, align 4, !tbaa !8
  %129 = zext i32 %128 to i64
  %130 = call noundef nonnull align 4 dereferenceable(4) ptr @_ZNSt6vectorIjSaIjEEixEm(ptr noundef nonnull align 8 dereferenceable(24) %21, i64 noundef %129) #3
  %131 = load i32, ptr %130, align 4, !tbaa !8
  br label %132

132:                                              ; preds = %127, %124
  %133 = phi i32 [ %126, %124 ], [ %131, %127 ]
  %134 = getelementptr inbounds nuw %"class.Transduction::Transduction.22", ptr %30, i32 0, i32 17
  %135 = getelementptr inbounds nuw %"class.Transduction::Transduction.22", ptr %30, i32 0, i32 8
  %136 = load i32, ptr %22, align 4, !tbaa !8
  %137 = zext i32 %136 to i64
  %138 = call noundef nonnull align 4 dereferenceable(4) ptr @_ZNSt6vectorIiSaIiEEixEm(ptr noundef nonnull align 8 dereferenceable(24) %135, i64 noundef %137) #3
  %139 = load i32, ptr %138, align 4, !tbaa !8
  %140 = sext i32 %139 to i64
  %141 = call noundef nonnull align 8 dereferenceable(24) ptr @_ZNSt6vectorIS_IjSaIjEESaIS1_EEixEm(ptr noundef nonnull align 8 dereferenceable(24) %134, i64 noundef %140) #3
  %142 = call noundef nonnull align 4 dereferenceable(4) ptr @_ZNSt6vectorIjSaIjEEixEm(ptr noundef nonnull align 8 dereferenceable(24) %141, i64 noundef 0) #3
  store i32 %133, ptr %142, align 4, !tbaa !8
  br label %143

143:                                              ; preds = %132
  %144 = load i32, ptr %22, align 4, !tbaa !8
  %145 = add i32 %144, 1
  store i32 %145, ptr %22, align 4, !tbaa !8
  br label %114, !llvm.loop !140

146:                                              ; preds = %120
  call void @_ZNSt6vectorIjSaIjEED2Ev(ptr noundef nonnull align 8 dereferenceable(24) %21) #3
  call void @llvm.lifetime.end.p0(i64 24, ptr %21) #3
  br label %172

147:                                              ; preds = %104
  call void @llvm.lifetime.start.p0(i64 4, ptr %23) #3
  store i32 0, ptr %23, align 4, !tbaa !8
  br label %148

148:                                              ; preds = %168, %147
  %149 = load i32, ptr %23, align 4, !tbaa !8
  %150 = zext i32 %149 to i64
  %151 = getelementptr inbounds nuw %"class.Transduction::Transduction.22", ptr %30, i32 0, i32 8
  %152 = call noundef i64 @_ZNKSt6vectorIiSaIiEE4sizeEv(ptr noundef nonnull align 8 dereferenceable(24) %151) #3
  %153 = icmp ult i64 %150, %152
  br i1 %153, label %155, label %154

154:                                              ; preds = %148
  call void @llvm.lifetime.end.p0(i64 4, ptr %23) #3
  br label %171

155:                                              ; preds = %148
  %156 = getelementptr inbounds nuw %"class.Transduction::Transduction.22", ptr %30, i32 0, i32 17
  %157 = getelementptr inbounds nuw %"class.Transduction::Transduction.22", ptr %30, i32 0, i32 8
  %158 = load i32, ptr %23, align 4, !tbaa !8
  %159 = zext i32 %158 to i64
  %160 = call noundef nonnull align 4 dereferenceable(4) ptr @_ZNSt6vectorIiSaIiEEixEm(ptr noundef nonnull align 8 dereferenceable(24) %157, i64 noundef %159) #3
  %161 = load i32, ptr %160, align 4, !tbaa !8
  %162 = sext i32 %161 to i64
  %163 = call noundef nonnull align 8 dereferenceable(24) ptr @_ZNSt6vectorIS_IjSaIjEESaIS1_EEixEm(ptr noundef nonnull align 8 dereferenceable(24) %156, i64 noundef %162) #3
  %164 = call noundef nonnull align 4 dereferenceable(4) ptr @_ZNSt6vectorIjSaIjEEixEm(ptr noundef nonnull align 8 dereferenceable(24) %163, i64 noundef 0) #3
  %165 = getelementptr inbounds nuw %"class.Transduction::ManUtil.23", ptr %30, i32 0, i32 0
  %166 = load ptr, ptr %165, align 8, !tbaa !137
  %167 = call noundef i32 @_ZNK5NewTt3Man6Const0Ev(ptr noundef nonnull align 8 dereferenceable(112) %166)
  call void @_ZNK12Transduction7ManUtilIN5NewTt3ManEjLj4294967295EE6UpdateERjj(ptr noundef nonnull align 8 dereferenceable(8) %30, ptr noundef nonnull align 4 dereferenceable(4) %164, i32 noundef %167)
  br label %168

168:                                              ; preds = %155
  %169 = load i32, ptr %23, align 4, !tbaa !8
  %170 = add i32 %169, 1
  store i32 %170, ptr %23, align 4, !tbaa !8
  br label %148, !llvm.loop !141

171:                                              ; preds = %154
  br label %172

172:                                              ; preds = %171, %146
  call void @_ZN12Transduction12TransductionIN5NewTt3ManENS1_5ParamEjLj4294967295EE18RemoveConstOutputsEv(ptr noundef nonnull align 8 dereferenceable(456) %30)
  %173 = getelementptr inbounds nuw %"class.Transduction::Transduction.22", ptr %30, i32 0, i32 21
  %174 = getelementptr inbounds nuw %"class.Transduction::Transduction.22", ptr %30, i32 0, i32 8
  %175 = call noundef i64 @_ZNKSt6vectorIiSaIiEE4sizeEv(ptr noundef nonnull align 8 dereferenceable(24) %174) #3
  call void @llvm.lifetime.start.p0(i64 4, ptr %24) #3
  store i32 -1, ptr %24, align 4, !tbaa !8
  call void @_ZNSt6vectorIjSaIjEE6resizeEmRKj(ptr noundef nonnull align 8 dereferenceable(24) %173, i64 noundef %175, ptr noundef nonnull align 4 dereferenceable(4) %24)
  call void @llvm.lifetime.end.p0(i64 4, ptr %24) #3
  call void @llvm.lifetime.start.p0(i64 4, ptr %25) #3
  store i32 0, ptr %25, align 4, !tbaa !8
  br label %176

176:                                              ; preds = %194, %172
  %177 = load i32, ptr %25, align 4, !tbaa !8
  %178 = zext i32 %177 to i64
  %179 = getelementptr inbounds nuw %"class.Transduction::Transduction.22", ptr %30, i32 0, i32 8
  %180 = call noundef i64 @_ZNKSt6vectorIiSaIiEE4sizeEv(ptr noundef nonnull align 8 dereferenceable(24) %179) #3
  %181 = icmp ult i64 %178, %180
  br i1 %181, label %183, label %182

182:                                              ; preds = %176
  call void @llvm.lifetime.end.p0(i64 4, ptr %25) #3
  br label %197

183:                                              ; preds = %176
  %184 = getelementptr inbounds nuw %"class.Transduction::Transduction.22", ptr %30, i32 0, i32 21
  %185 = load i32, ptr %25, align 4, !tbaa !8
  %186 = zext i32 %185 to i64
  %187 = call noundef nonnull align 4 dereferenceable(4) ptr @_ZNSt6vectorIjSaIjEEixEm(ptr noundef nonnull align 8 dereferenceable(24) %184, i64 noundef %186) #3
  %188 = getelementptr inbounds nuw %"class.Transduction::Transduction.22", ptr %30, i32 0, i32 8
  %189 = load i32, ptr %25, align 4, !tbaa !8
  %190 = zext i32 %189 to i64
  %191 = call noundef nonnull align 4 dereferenceable(4) ptr @_ZNSt6vectorIiSaIiEEixEm(ptr noundef nonnull align 8 dereferenceable(24) %188, i64 noundef %190) #3
  %192 = load i32, ptr %191, align 4, !tbaa !8
  %193 = call noundef i32 @_ZNK12Transduction12TransductionIN5NewTt3ManENS1_5ParamEjLj4294967295EE5LitFiEii(ptr noundef nonnull align 8 dereferenceable(456) %30, i32 noundef %192, i32 noundef 0)
  call void @_ZNK12Transduction7ManUtilIN5NewTt3ManEjLj4294967295EE6UpdateERjj(ptr noundef nonnull align 8 dereferenceable(8) %30, ptr noundef nonnull align 4 dereferenceable(4) %187, i32 noundef %193)
  br label %194

194:                                              ; preds = %183
  %195 = load i32, ptr %25, align 4, !tbaa !8
  %196 = add i32 %195, 1
  store i32 %196, ptr %25, align 4, !tbaa !8
  br label %176, !llvm.loop !142

197:                                              ; preds = %182
  %198 = getelementptr inbounds nuw %"class.Transduction::Transduction.22", ptr %30, i32 0, i32 6
  store i32 0, ptr %198, align 4, !tbaa !143
  %199 = load i32, ptr %15, align 4, !tbaa !8
  %200 = icmp ne i32 %199, 0
  br i1 %200, label %201, label %203

201:                                              ; preds = %197
  %202 = load i32, ptr %15, align 4, !tbaa !8
  call void @_ZN12Transduction12TransductionIN5NewTt3ManENS1_5ParamEjLj4294967295EE10ShufflePisEi(ptr noundef nonnull align 8 dereferenceable(456) %30, i32 noundef %202)
  br label %203

203:                                              ; preds = %201, %197
  %204 = load i8, ptr %16, align 1, !tbaa !10, !range !12, !noundef !13
  %205 = trunc i8 %204 to i1
  br i1 %205, label %206, label %207

206:                                              ; preds = %203
  call void @_ZN12Transduction12TransductionIN5NewTt3ManENS1_5ParamEjLj4294967295EE12ComputeLevelEv(ptr noundef nonnull align 8 dereferenceable(456) %30)
  br label %207

207:                                              ; preds = %206, %203
  %208 = load i32, ptr %12, align 4, !tbaa !8
  %209 = icmp ne i32 %208, 0
  br i1 %209, label %210, label %211

210:                                              ; preds = %207
  call void @llvm.lifetime.start.p0(i64 1, ptr %27) #3
  call void @_ZNSaIcEC2Ev(ptr noundef nonnull align 1 dereferenceable(1) %27) #3
  call void @_ZNSt7__cxx1112basic_stringIcSt11char_traitsIcESaIcEEC2IS3_EEPKcRKS3_(ptr noundef nonnull align 8 dereferenceable(32) %26, ptr noundef @.str.1, ptr noundef nonnull align 1 dereferenceable(1) %27)
  call void @_ZNK12Transduction12TransductionIN5NewTt3ManENS1_5ParamEjLj4294967295EE10PrintStatsENSt7__cxx1112basic_stringIcSt11char_traitsIcESaIcEEEbi(ptr noundef nonnull align 8 dereferenceable(456) %30, ptr noundef %26, i1 noundef zeroext true, i32 noundef 11)
  call void @_ZNSt7__cxx1112basic_stringIcSt11char_traitsIcESaIcEED2Ev(ptr noundef nonnull align 8 dereferenceable(32) %26) #3
  call void @_ZNSt15__new_allocatorIcED2Ev(ptr noundef nonnull align 1 dereferenceable(1) %27) #3
  call void @llvm.lifetime.end.p0(i64 1, ptr %27) #3
  br label %211

211:                                              ; preds = %210, %207
  ret void
}

; Function Attrs: inlinehint mustprogress nounwind uwtable
define linkonce_odr noundef i32 @_ZNK12Transduction12TransductionIN5NewTt3ManENS1_5ParamEjLj4294967295EE10CountWiresEv(ptr noundef nonnull align 8 dereferenceable(456) %0) #6 comdat align 2 {
  %2 = alloca ptr, align 8
  %3 = alloca i32, align 4
  %4 = alloca %"struct.std::_List_const_iterator", align 8
  %5 = alloca %"struct.std::_List_const_iterator", align 8
  %6 = alloca %"struct.std::_List_const_iterator", align 8
  store ptr %0, ptr %2, align 8, !tbaa !125
  %7 = load ptr, ptr %2, align 8
  call void @llvm.lifetime.start.p0(i64 4, ptr %3) #3
  store i32 0, ptr %3, align 4, !tbaa !8
  call void @llvm.lifetime.start.p0(i64 8, ptr %4) #3
  %8 = getelementptr inbounds nuw %"class.Transduction::Transduction.22", ptr %7, i32 0, i32 9
  %9 = call ptr @_ZNKSt7__cxx114listIiSaIiEE5beginEv(ptr noundef nonnull align 8 dereferenceable(24) %8) #3
  %10 = getelementptr inbounds nuw %"struct.std::_List_const_iterator", ptr %4, i32 0, i32 0
  store ptr %9, ptr %10, align 8
  br label %11

11:                                               ; preds = %28, %1
  call void @llvm.lifetime.start.p0(i64 8, ptr %5) #3
  %12 = getelementptr inbounds nuw %"class.Transduction::Transduction.22", ptr %7, i32 0, i32 9
  %13 = call ptr @_ZNKSt7__cxx114listIiSaIiEE3endEv(ptr noundef nonnull align 8 dereferenceable(24) %12) #3
  %14 = getelementptr inbounds nuw %"struct.std::_List_const_iterator", ptr %5, i32 0, i32 0
  store ptr %13, ptr %14, align 8
  %15 = call noundef zeroext i1 @_ZStneRKSt20_List_const_iteratorIiES2_(ptr noundef nonnull align 8 dereferenceable(8) %4, ptr noundef nonnull align 8 dereferenceable(8) %5) #3
  call void @llvm.lifetime.end.p0(i64 8, ptr %5) #3
  br i1 %15, label %17, label %16

16:                                               ; preds = %11
  call void @llvm.lifetime.end.p0(i64 8, ptr %4) #3
  br label %31

17:                                               ; preds = %11
  %18 = getelementptr inbounds nuw %"class.Transduction::Transduction.22", ptr %7, i32 0, i32 10
  %19 = call noundef nonnull align 4 dereferenceable(4) ptr @_ZNKSt20_List_const_iteratorIiEdeEv(ptr noundef nonnull align 8 dereferenceable(8) %4) #3
  %20 = load i32, ptr %19, align 4, !tbaa !8
  %21 = sext i32 %20 to i64
  %22 = call noundef nonnull align 8 dereferenceable(24) ptr @_ZNKSt6vectorIS_IiSaIiEESaIS1_EEixEm(ptr noundef nonnull align 8 dereferenceable(24) %18, i64 noundef %21) #3
  %23 = call noundef i64 @_ZNKSt6vectorIiSaIiEE4sizeEv(ptr noundef nonnull align 8 dereferenceable(24) %22) #3
  %24 = load i32, ptr %3, align 4, !tbaa !8
  %25 = sext i32 %24 to i64
  %26 = add i64 %25, %23
  %27 = trunc i64 %26 to i32
  store i32 %27, ptr %3, align 4, !tbaa !8
  br label %28

28:                                               ; preds = %17
  %29 = call ptr @_ZNSt20_List_const_iteratorIiEppEi(ptr noundef nonnull align 8 dereferenceable(8) %4, i32 noundef 0) #3
  %30 = getelementptr inbounds nuw %"struct.std::_List_const_iterator", ptr %6, i32 0, i32 0
  store ptr %29, ptr %30, align 8
  br label %11, !llvm.loop !144

31:                                               ; preds = %16
  %32 = load i32, ptr %3, align 4, !tbaa !8
  call void @llvm.lifetime.end.p0(i64 4, ptr %3) #3
  ret i32 %32
}

; Function Attrs: mustprogress nounwind uwtable
define linkonce_odr noundef i32 @_ZN12Transduction12TransductionIN5NewTt3ManENS1_5ParamEjLj4294967295EE4MspfEv(ptr noundef nonnull align 8 dereferenceable(456) %0) #4 comdat align 2 {
  %2 = alloca ptr, align 8
  store ptr %0, ptr %2, align 8, !tbaa !125
  %3 = load ptr, ptr %2, align 8
  %4 = call noundef i32 @_ZN12Transduction12TransductionIN5NewTt3ManENS1_5ParamEjLj4294967295EE4MspfEbii(ptr noundef nonnull align 8 dereferenceable(456) %3, i1 noundef zeroext true, i32 noundef -1, i32 noundef -1)
  ret i32 %4
}

; Function Attrs: mustprogress nounwind uwtable
define linkonce_odr noundef i32 @_ZN12Transduction12TransductionIN5NewTt3ManENS1_5ParamEjLj4294967295EE4CspfEv(ptr noundef nonnull align 8 dereferenceable(456) %0) #4 comdat align 2 {
  %2 = alloca ptr, align 8
  store ptr %0, ptr %2, align 8, !tbaa !125
  %3 = load ptr, ptr %2, align 8
  %4 = call noundef i32 @_ZN12Transduction12TransductionIN5NewTt3ManENS1_5ParamEjLj4294967295EE4CspfEbii(ptr noundef nonnull align 8 dereferenceable(456) %3, i1 noundef zeroext true, i32 noundef -1, i32 noundef -1)
  ret i32 %4
}

; Function Attrs: mustprogress nounwind uwtable
define linkonce_odr noundef i32 @_ZN12Transduction12TransductionIN5NewTt3ManENS1_5ParamEjLj4294967295EE5ResubEb(ptr noundef nonnull align 8 dereferenceable(456) %0, i1 noundef zeroext %1) #4 comdat align 2 {
  %3 = alloca ptr, align 8
  %4 = alloca i8, align 1
  %5 = alloca i32, align 4
  %6 = alloca i32, align 4
  %7 = alloca %"class.Transduction::TransductionBackup.59", align 8
  %8 = alloca i32, align 4
  %9 = alloca %"class.std::__cxx11::list", align 8
  %10 = alloca %"class.std::reverse_iterator", align 8
  %11 = alloca %"class.std::reverse_iterator", align 8
  %12 = alloca i32, align 4
  %13 = alloca %"class.std::__cxx11::basic_stringstream", align 8
  %14 = alloca %"struct.std::_Setw", align 4
  %15 = alloca %"struct.std::_Setw", align 4
  %16 = alloca %"class.std::reverse_iterator", align 8
  %17 = alloca %"class.std::reverse_iterator", align 8
  %18 = alloca %"struct.std::_Setw", align 4
  %19 = alloca %"class.std::__cxx11::basic_string", align 8
  %20 = alloca %"class.std::vector.18", align 8
  %21 = alloca i32, align 4
  %22 = alloca i8, align 1
  %23 = alloca %"class.std::vector.18", align 8
  %24 = alloca %"class.std::allocator.45", align 1
  %25 = alloca %"class.std::__cxx11::list", align 8
  %26 = alloca %"struct.std::_List_iterator", align 8
  %27 = alloca %"struct.std::_List_iterator", align 8
  %28 = alloca %"struct.std::_Bit_reference", align 8
  %29 = alloca %"struct.std::_List_iterator", align 8
  %30 = alloca %"struct.std::_Bit_reference", align 8
  %31 = alloca %"struct.std::_Bit_reference", align 8
  %32 = alloca %"struct.std::_List_iterator", align 8
  %33 = alloca %"struct.std::_List_iterator", align 8
  %34 = alloca %"struct.std::_List_iterator", align 8
  %35 = alloca i32, align 4
  %36 = alloca %"class.std::reverse_iterator", align 8
  %37 = alloca %"class.std::__cxx11::basic_string", align 8
  %38 = alloca %"class.std::allocator.34", align 1
  store ptr %0, ptr %3, align 8, !tbaa !125
  %39 = zext i1 %1 to i8
  store i8 %39, ptr %4, align 1, !tbaa !10
  %40 = load ptr, ptr %3, align 8
  call void @llvm.lifetime.start.p0(i64 4, ptr %5) #3
  %41 = load i8, ptr %4, align 1, !tbaa !10, !range !12, !noundef !13
  %42 = trunc i8 %41 to i1
  br i1 %42, label %43, label %45

43:                                               ; preds = %2
  %44 = call noundef i32 @_ZN12Transduction12TransductionIN5NewTt3ManENS1_5ParamEjLj4294967295EE4MspfEbii(ptr noundef nonnull align 8 dereferenceable(456) %40, i1 noundef zeroext true, i32 noundef -1, i32 noundef -1)
  br label %47

45:                                               ; preds = %2
  %46 = call noundef i32 @_ZN12Transduction12TransductionIN5NewTt3ManENS1_5ParamEjLj4294967295EE4CspfEbii(ptr noundef nonnull align 8 dereferenceable(456) %40, i1 noundef zeroext true, i32 noundef -1, i32 noundef -1)
  br label %47

47:                                               ; preds = %45, %43
  %48 = phi i32 [ %44, %43 ], [ %46, %45 ]
  store i32 %48, ptr %5, align 4, !tbaa !8
  call void @llvm.lifetime.start.p0(i64 4, ptr %6) #3
  %49 = call noundef i32 @_ZNK12Transduction12TransductionIN5NewTt3ManENS1_5ParamEjLj4294967295EE10CountNodesEv(ptr noundef nonnull align 8 dereferenceable(456) %40)
  store i32 %49, ptr %6, align 4, !tbaa !8
  call void @llvm.lifetime.start.p0(i64 352, ptr %7) #3
  call void @_ZN12Transduction18TransductionBackupIN5NewTt3ManEjLj4294967295EEC2Ev(ptr noundef nonnull align 8 dereferenceable(352) %7) #3
  call void @_ZNK12Transduction12TransductionIN5NewTt3ManENS1_5ParamEjLj4294967295EE4SaveERNS_18TransductionBackupIS2_jLj4294967295EEE(ptr noundef nonnull align 8 dereferenceable(456) %40, ptr noundef nonnull align 8 dereferenceable(352) %7)
  call void @llvm.lifetime.start.p0(i64 4, ptr %8) #3
  %50 = load i32, ptr %5, align 4, !tbaa !8
  store i32 %50, ptr %8, align 4, !tbaa !8
  call void @llvm.lifetime.start.p0(i64 24, ptr %9) #3
  %51 = getelementptr inbounds nuw %"class.Transduction::Transduction.22", ptr %40, i32 0, i32 9
  call void @_ZNSt7__cxx114listIiSaIiEEC2ERKS2_(ptr noundef nonnull align 8 dereferenceable(24) %9, ptr noundef nonnull align 8 dereferenceable(24) %51)
  call void @llvm.lifetime.start.p0(i64 8, ptr %10) #3
  call void @_ZNSt7__cxx114listIiSaIiEE6rbeginEv(ptr dead_on_unwind writable sret(%"class.std::reverse_iterator") align 8 %10, ptr noundef nonnull align 8 dereferenceable(24) %9) #3
  br label %52

52:                                               ; preds = %395, %47
  call void @llvm.lifetime.start.p0(i64 8, ptr %11) #3
  call void @_ZNSt7__cxx114listIiSaIiEE4rendEv(ptr dead_on_unwind writable sret(%"class.std::reverse_iterator") align 8 %11, ptr noundef nonnull align 8 dereferenceable(24) %9) #3
  %53 = call noundef zeroext i1 @_ZStneISt14_List_iteratorIiEEbRKSt16reverse_iteratorIT_ES6_(ptr noundef nonnull align 8 dereferenceable(8) %10, ptr noundef nonnull align 8 dereferenceable(8) %11)
  call void @llvm.lifetime.end.p0(i64 8, ptr %11) #3
  br i1 %53, label %55, label %54

54:                                               ; preds = %52
  store i32 2, ptr %12, align 4
  call void @llvm.lifetime.end.p0(i64 8, ptr %10) #3
  br label %396

55:                                               ; preds = %52
  %56 = getelementptr inbounds nuw %"class.Transduction::Transduction.22", ptr %40, i32 0, i32 1
  %57 = load i32, ptr %56, align 8, !tbaa !127
  %58 = icmp sgt i32 %57, 1
  br i1 %58, label %59, label %91

59:                                               ; preds = %55
  call void @llvm.lifetime.start.p0(i64 392, ptr %13) #3
  call void @_ZNSt7__cxx1118basic_stringstreamIcSt11char_traitsIcESaIcEEC1Ev(ptr noundef nonnull align 8 dereferenceable(128) %13)
  %60 = getelementptr inbounds i8, ptr %13, i64 16
  %61 = call noundef nonnull align 8 dereferenceable(8) ptr @_ZStlsISt11char_traitsIcEERSt13basic_ostreamIcT_ES5_PKc(ptr noundef nonnull align 8 dereferenceable(8) %60, ptr noundef @.str.104)
  %62 = call i32 @_ZSt4setwi(i32 noundef 5)
  %63 = getelementptr inbounds nuw %"struct.std::_Setw", ptr %14, i32 0, i32 0
  store i32 %62, ptr %63, align 4
  %64 = getelementptr inbounds nuw %"struct.std::_Setw", ptr %14, i32 0, i32 0
  %65 = load i32, ptr %64, align 4
  %66 = call noundef nonnull align 8 dereferenceable(8) ptr @_ZStlsIcSt11char_traitsIcEERSt13basic_ostreamIT_T0_ES6_St5_Setw(ptr noundef nonnull align 8 dereferenceable(8) %61, i32 %65)
  %67 = call noundef nonnull align 4 dereferenceable(4) ptr @_ZNKSt16reverse_iteratorISt14_List_iteratorIiEEdeEv(ptr noundef nonnull align 8 dereferenceable(8) %10)
  %68 = load i32, ptr %67, align 4, !tbaa !8
  %69 = call noundef nonnull align 8 dereferenceable(8) ptr @_ZNSolsEi(ptr noundef nonnull align 8 dereferenceable(8) %66, i32 noundef %68)
  %70 = call noundef nonnull align 8 dereferenceable(8) ptr @_ZStlsISt11char_traitsIcEERSt13basic_ostreamIcT_ES5_PKc(ptr noundef nonnull align 8 dereferenceable(8) %69, ptr noundef @.str.87)
  %71 = call i32 @_ZSt4setwi(i32 noundef 5)
  %72 = getelementptr inbounds nuw %"struct.std::_Setw", ptr %15, i32 0, i32 0
  store i32 %71, ptr %72, align 4
  %73 = getelementptr inbounds nuw %"struct.std::_Setw", ptr %15, i32 0, i32 0
  %74 = load i32, ptr %73, align 4
  %75 = call noundef nonnull align 8 dereferenceable(8) ptr @_ZStlsIcSt11char_traitsIcEERSt13basic_ostreamIT_T0_ES6_St5_Setw(ptr noundef nonnull align 8 dereferenceable(8) %70, i32 %74)
  call void @_ZNSt7__cxx114listIiSaIiEE6rbeginEv(ptr dead_on_unwind writable sret(%"class.std::reverse_iterator") align 8 %16, ptr noundef nonnull align 8 dereferenceable(24) %9) #3
  call void @_ZNSt16reverse_iteratorISt14_List_iteratorIiEEC2ERKS2_(ptr noundef nonnull align 8 dereferenceable(8) %17, ptr noundef nonnull align 8 dereferenceable(8) %10) #3
  %76 = call noundef i64 @_ZSt8distanceISt16reverse_iteratorISt14_List_iteratorIiEEENSt15iterator_traitsIT_E15difference_typeES5_S5_(ptr noundef %16, ptr noundef %17)
  %77 = add nsw i64 %76, 1
  %78 = call noundef nonnull align 8 dereferenceable(8) ptr @_ZNSolsEl(ptr noundef nonnull align 8 dereferenceable(8) %75, i64 noundef %77)
  %79 = call noundef nonnull align 8 dereferenceable(8) ptr @_ZStlsISt11char_traitsIcEERSt13basic_ostreamIcT_ES5_PKc(ptr noundef nonnull align 8 dereferenceable(8) %78, ptr noundef @.str.88)
  %80 = call i32 @_ZSt4setwi(i32 noundef 5)
  %81 = getelementptr inbounds nuw %"struct.std::_Setw", ptr %18, i32 0, i32 0
  store i32 %80, ptr %81, align 4
  %82 = getelementptr inbounds nuw %"struct.std::_Setw", ptr %18, i32 0, i32 0
  %83 = load i32, ptr %82, align 4
  %84 = call noundef nonnull align 8 dereferenceable(8) ptr @_ZStlsIcSt11char_traitsIcEERSt13basic_ostreamIT_T0_ES6_St5_Setw(ptr noundef nonnull align 8 dereferenceable(8) %79, i32 %83)
  %85 = call noundef i64 @_ZNKSt7__cxx114listIiSaIiEE4sizeEv(ptr noundef nonnull align 8 dereferenceable(24) %9) #3
  %86 = call noundef nonnull align 8 dereferenceable(8) ptr @_ZNSolsEm(ptr noundef nonnull align 8 dereferenceable(8) %84, i64 noundef %85)
  %87 = call noundef nonnull align 8 dereferenceable(8) ptr @_ZStlsISt11char_traitsIcEERSt13basic_ostreamIcT_ES5_PKc(ptr noundef nonnull align 8 dereferenceable(8) %86, ptr noundef @.str.37)
  call void @_ZNKSt7__cxx1118basic_stringstreamIcSt11char_traitsIcESaIcEE3strEv(ptr dead_on_unwind writable sret(%"class.std::__cxx11::basic_string") align 8 %19, ptr noundef nonnull align 8 dereferenceable(128) %13)
  %88 = getelementptr inbounds nuw %"class.Transduction::Transduction.22", ptr %40, i32 0, i32 1
  %89 = load i32, ptr %88, align 8, !tbaa !127
  %90 = icmp sgt i32 %89, 2
  call void @_ZNK12Transduction12TransductionIN5NewTt3ManENS1_5ParamEjLj4294967295EE10PrintStatsENSt7__cxx1112basic_stringIcSt11char_traitsIcESaIcEEEbi(ptr noundef nonnull align 8 dereferenceable(456) %40, ptr noundef %19, i1 noundef zeroext %90, i32 noundef 0)
  call void @_ZNSt7__cxx1112basic_stringIcSt11char_traitsIcESaIcEED2Ev(ptr noundef nonnull align 8 dereferenceable(32) %19) #3
  call void @_ZNSt7__cxx1118basic_stringstreamIcSt11char_traitsIcESaIcEED1Ev(ptr noundef nonnull align 8 dereferenceable(128) %13) #3
  call void @llvm.lifetime.end.p0(i64 392, ptr %13) #3
  br label %91

91:                                               ; preds = %59, %55
  %92 = getelementptr inbounds nuw %"class.Transduction::Transduction.22", ptr %40, i32 0, i32 11
  %93 = call noundef nonnull align 4 dereferenceable(4) ptr @_ZNKSt16reverse_iteratorISt14_List_iteratorIiEEdeEv(ptr noundef nonnull align 8 dereferenceable(8) %10)
  %94 = load i32, ptr %93, align 4, !tbaa !8
  %95 = sext i32 %94 to i64
  %96 = call noundef nonnull align 8 dereferenceable(24) ptr @_ZNSt6vectorIS_IiSaIiEESaIS1_EEixEm(ptr noundef nonnull align 8 dereferenceable(24) %92, i64 noundef %95) #3
  %97 = call noundef zeroext i1 @_ZNKSt6vectorIiSaIiEE5emptyEv(ptr noundef nonnull align 8 dereferenceable(24) %96) #3
  br i1 %97, label %98, label %99

98:                                               ; preds = %91
  br label %395

99:                                               ; preds = %91
  %100 = call noundef nonnull align 4 dereferenceable(4) ptr @_ZNKSt16reverse_iteratorISt14_List_iteratorIiEEdeEv(ptr noundef nonnull align 8 dereferenceable(8) %10)
  %101 = load i32, ptr %100, align 4, !tbaa !8
  %102 = call noundef i32 @_ZN12Transduction12TransductionIN5NewTt3ManENS1_5ParamEjLj4294967295EE15TrivialMergeOneEi(ptr noundef nonnull align 8 dereferenceable(456) %40, i32 noundef %101)
  %103 = load i32, ptr %5, align 4, !tbaa !8
  %104 = add nsw i32 %103, %102
  store i32 %104, ptr %5, align 4, !tbaa !8
  call void @llvm.lifetime.start.p0(i64 40, ptr %20) #3
  call void @_ZNSt6vectorIbSaIbEEC2Ev(ptr noundef nonnull align 8 dereferenceable(40) %20) #3
  %105 = getelementptr inbounds nuw %"class.Transduction::Transduction.22", ptr %40, i32 0, i32 3
  %106 = load i8, ptr %105, align 8, !tbaa !132, !range !12, !noundef !13
  %107 = trunc i8 %106 to i1
  br i1 %107, label %108, label %172

108:                                              ; preds = %99
  call void @llvm.lifetime.start.p0(i64 4, ptr %21) #3
  store i32 0, ptr %21, align 4, !tbaa !8
  br label %109

109:                                              ; preds = %135, %108
  %110 = load i32, ptr %21, align 4, !tbaa !8
  %111 = zext i32 %110 to i64
  %112 = getelementptr inbounds nuw %"class.Transduction::Transduction.22", ptr %40, i32 0, i32 10
  %113 = call noundef nonnull align 4 dereferenceable(4) ptr @_ZNKSt16reverse_iteratorISt14_List_iteratorIiEEdeEv(ptr noundef nonnull align 8 dereferenceable(8) %10)
  %114 = load i32, ptr %113, align 4, !tbaa !8
  %115 = sext i32 %114 to i64
  %116 = call noundef nonnull align 8 dereferenceable(24) ptr @_ZNSt6vectorIS_IiSaIiEESaIS1_EEixEm(ptr noundef nonnull align 8 dereferenceable(24) %112, i64 noundef %115) #3
  %117 = call noundef i64 @_ZNKSt6vectorIiSaIiEE4sizeEv(ptr noundef nonnull align 8 dereferenceable(24) %116) #3
  %118 = icmp ult i64 %111, %117
  br i1 %118, label %120, label %119

119:                                              ; preds = %109
  store i32 5, ptr %12, align 4
  call void @llvm.lifetime.end.p0(i64 4, ptr %21) #3
  br label %138

120:                                              ; preds = %109
  %121 = getelementptr inbounds nuw %"class.Transduction::Transduction.22", ptr %40, i32 0, i32 12
  %122 = getelementptr inbounds nuw %"class.Transduction::Transduction.22", ptr %40, i32 0, i32 10
  %123 = call noundef nonnull align 4 dereferenceable(4) ptr @_ZNKSt16reverse_iteratorISt14_List_iteratorIiEEdeEv(ptr noundef nonnull align 8 dereferenceable(8) %10)
  %124 = load i32, ptr %123, align 4, !tbaa !8
  %125 = sext i32 %124 to i64
  %126 = call noundef nonnull align 8 dereferenceable(24) ptr @_ZNSt6vectorIS_IiSaIiEESaIS1_EEixEm(ptr noundef nonnull align 8 dereferenceable(24) %122, i64 noundef %125) #3
  %127 = load i32, ptr %21, align 4, !tbaa !8
  %128 = zext i32 %127 to i64
  %129 = call noundef nonnull align 4 dereferenceable(4) ptr @_ZNSt6vectorIiSaIiEEixEm(ptr noundef nonnull align 8 dereferenceable(24) %126, i64 noundef %128) #3
  %130 = load i32, ptr %129, align 4, !tbaa !8
  %131 = ashr i32 %130, 1
  %132 = sext i32 %131 to i64
  %133 = call noundef nonnull align 4 dereferenceable(4) ptr @_ZNSt6vectorIiSaIiEEixEm(ptr noundef nonnull align 8 dereferenceable(24) %121, i64 noundef %132) #3
  %134 = load i32, ptr %133, align 4, !tbaa !8
  call void @_ZN12Transduction12TransductionIN5NewTt3ManENS1_5ParamEjLj4294967295EE3addERSt6vectorIbSaIbEEj(ptr noundef nonnull align 8 dereferenceable(456) %40, ptr noundef nonnull align 8 dereferenceable(40) %20, i32 noundef %134)
  br label %135

135:                                              ; preds = %120
  %136 = load i32, ptr %21, align 4, !tbaa !8
  %137 = add i32 %136, 1
  store i32 %137, ptr %21, align 4, !tbaa !8
  br label %109, !llvm.loop !145

138:                                              ; preds = %119
  %139 = call noundef i64 @_ZNKSt6vectorIbSaIbEE4sizeEv(ptr noundef nonnull align 8 dereferenceable(40) %20) #3
  %140 = trunc i64 %139 to i32
  %141 = getelementptr inbounds nuw %"class.Transduction::Transduction.22", ptr %40, i32 0, i32 12
  %142 = call noundef nonnull align 4 dereferenceable(4) ptr @_ZNKSt16reverse_iteratorISt14_List_iteratorIiEEdeEv(ptr noundef nonnull align 8 dereferenceable(8) %10)
  %143 = load i32, ptr %142, align 4, !tbaa !8
  %144 = sext i32 %143 to i64
  %145 = call noundef nonnull align 4 dereferenceable(4) ptr @_ZNSt6vectorIiSaIiEEixEm(ptr noundef nonnull align 8 dereferenceable(24) %141, i64 noundef %144) #3
  %146 = load i32, ptr %145, align 4, !tbaa !8
  %147 = getelementptr inbounds nuw %"class.Transduction::Transduction.22", ptr %40, i32 0, i32 13
  %148 = call noundef nonnull align 4 dereferenceable(4) ptr @_ZNKSt16reverse_iteratorISt14_List_iteratorIiEEdeEv(ptr noundef nonnull align 8 dereferenceable(8) %10)
  %149 = load i32, ptr %148, align 4, !tbaa !8
  %150 = sext i32 %149 to i64
  %151 = call noundef nonnull align 4 dereferenceable(4) ptr @_ZNSt6vectorIiSaIiEEixEm(ptr noundef nonnull align 8 dereferenceable(24) %147, i64 noundef %150) #3
  %152 = load i32, ptr %151, align 4, !tbaa !8
  %153 = add nsw i32 %146, %152
  %154 = icmp sgt i32 %140, %153
  br i1 %154, label %155, label %157

155:                                              ; preds = %138
  call void @_ZN12Transduction12TransductionIN5NewTt3ManENS1_5ParamEjLj4294967295EE4LoadERKNS_18TransductionBackupIS2_jLj4294967295EEE(ptr noundef nonnull align 8 dereferenceable(456) %40, ptr noundef nonnull align 8 dereferenceable(352) %7)
  %156 = load i32, ptr %8, align 4, !tbaa !8
  store i32 %156, ptr %5, align 4, !tbaa !8
  store i32 4, ptr %12, align 4
  br label %392

157:                                              ; preds = %138
  %158 = getelementptr inbounds nuw %"class.Transduction::Transduction.22", ptr %40, i32 0, i32 12
  %159 = call noundef nonnull align 4 dereferenceable(4) ptr @_ZNKSt16reverse_iteratorISt14_List_iteratorIiEEdeEv(ptr noundef nonnull align 8 dereferenceable(8) %10)
  %160 = load i32, ptr %159, align 4, !tbaa !8
  %161 = sext i32 %160 to i64
  %162 = call noundef nonnull align 4 dereferenceable(4) ptr @_ZNSt6vectorIiSaIiEEixEm(ptr noundef nonnull align 8 dereferenceable(24) %158, i64 noundef %161) #3
  %163 = load i32, ptr %162, align 4, !tbaa !8
  %164 = getelementptr inbounds nuw %"class.Transduction::Transduction.22", ptr %40, i32 0, i32 13
  %165 = call noundef nonnull align 4 dereferenceable(4) ptr @_ZNKSt16reverse_iteratorISt14_List_iteratorIiEEdeEv(ptr noundef nonnull align 8 dereferenceable(8) %10)
  %166 = load i32, ptr %165, align 4, !tbaa !8
  %167 = sext i32 %166 to i64
  %168 = call noundef nonnull align 4 dereferenceable(4) ptr @_ZNSt6vectorIiSaIiEEixEm(ptr noundef nonnull align 8 dereferenceable(24) %164, i64 noundef %167) #3
  %169 = load i32, ptr %168, align 4, !tbaa !8
  %170 = add nsw i32 %163, %169
  %171 = sext i32 %170 to i64
  call void @_ZNSt6vectorIbSaIbEE6resizeEmb(ptr noundef nonnull align 8 dereferenceable(40) %20, i64 noundef %171, i1 noundef zeroext false)
  br label %172

172:                                              ; preds = %157, %99
  call void @llvm.lifetime.start.p0(i64 1, ptr %22) #3
  store i8 0, ptr %22, align 1, !tbaa !10
  call void @llvm.lifetime.start.p0(i64 40, ptr %23) #3
  %173 = getelementptr inbounds nuw %"class.Transduction::Transduction.22", ptr %40, i32 0, i32 4
  %174 = load i32, ptr %173, align 4, !tbaa !146
  %175 = sext i32 %174 to i64
  call void @llvm.lifetime.start.p0(i64 1, ptr %24) #3
  call void @_ZNSaIbEC2Ev(ptr noundef nonnull align 1 dereferenceable(1) %24) #3
  call void @_ZNSt6vectorIbSaIbEEC2EmRKS0_(ptr noundef nonnull align 8 dereferenceable(40) %23, i64 noundef %175, ptr noundef nonnull align 1 dereferenceable(1) %24)
  call void @_ZNSt15__new_allocatorIbED2Ev(ptr noundef nonnull align 1 dereferenceable(1) %24) #3
  call void @llvm.lifetime.end.p0(i64 1, ptr %24) #3
  %176 = call noundef nonnull align 4 dereferenceable(4) ptr @_ZNKSt16reverse_iteratorISt14_List_iteratorIiEEdeEv(ptr noundef nonnull align 8 dereferenceable(8) %10)
  %177 = load i32, ptr %176, align 4, !tbaa !8
  call void @_ZNK12Transduction12TransductionIN5NewTt3ManENS1_5ParamEjLj4294967295EE14MarkFoCone_recERSt6vectorIbSaIbEEi(ptr noundef nonnull align 8 dereferenceable(456) %40, ptr noundef nonnull align 8 dereferenceable(40) %23, i32 noundef %177)
  call void @llvm.lifetime.start.p0(i64 24, ptr %25) #3
  %178 = getelementptr inbounds nuw %"class.Transduction::Transduction.22", ptr %40, i32 0, i32 9
  call void @_ZNSt7__cxx114listIiSaIiEEC2ERKS2_(ptr noundef nonnull align 8 dereferenceable(24) %25, ptr noundef nonnull align 8 dereferenceable(24) %178)
  call void @llvm.lifetime.start.p0(i64 8, ptr %26) #3
  %179 = call ptr @_ZNSt7__cxx114listIiSaIiEE5beginEv(ptr noundef nonnull align 8 dereferenceable(24) %25) #3
  %180 = getelementptr inbounds nuw %"struct.std::_List_iterator", ptr %26, i32 0, i32 0
  store ptr %179, ptr %180, align 8
  br label %181

181:                                              ; preds = %269, %172
  call void @llvm.lifetime.start.p0(i64 8, ptr %27) #3
  %182 = call ptr @_ZNSt7__cxx114listIiSaIiEE3endEv(ptr noundef nonnull align 8 dereferenceable(24) %25) #3
  %183 = getelementptr inbounds nuw %"struct.std::_List_iterator", ptr %27, i32 0, i32 0
  store ptr %182, ptr %183, align 8
  %184 = call noundef zeroext i1 @_ZStneRKSt14_List_iteratorIiES2_(ptr noundef nonnull align 8 dereferenceable(8) %26, ptr noundef nonnull align 8 dereferenceable(8) %27) #3
  call void @llvm.lifetime.end.p0(i64 8, ptr %27) #3
  br i1 %184, label %186, label %185

185:                                              ; preds = %181
  store i32 8, ptr %12, align 4
  br label %272

186:                                              ; preds = %181
  %187 = getelementptr inbounds nuw %"class.Transduction::Transduction.22", ptr %40, i32 0, i32 3
  %188 = load i8, ptr %187, align 8, !tbaa !132, !range !12, !noundef !13
  %189 = trunc i8 %188 to i1
  br i1 %189, label %190, label %208

190:                                              ; preds = %186
  %191 = call noundef i64 @_ZNKSt6vectorIbSaIbEE4sizeEv(ptr noundef nonnull align 8 dereferenceable(40) %20) #3
  %192 = trunc i64 %191 to i32
  %193 = getelementptr inbounds nuw %"class.Transduction::Transduction.22", ptr %40, i32 0, i32 12
  %194 = call noundef nonnull align 4 dereferenceable(4) ptr @_ZNKSt16reverse_iteratorISt14_List_iteratorIiEEdeEv(ptr noundef nonnull align 8 dereferenceable(8) %10)
  %195 = load i32, ptr %194, align 4, !tbaa !8
  %196 = sext i32 %195 to i64
  %197 = call noundef nonnull align 4 dereferenceable(4) ptr @_ZNSt6vectorIiSaIiEEixEm(ptr noundef nonnull align 8 dereferenceable(24) %193, i64 noundef %196) #3
  %198 = load i32, ptr %197, align 4, !tbaa !8
  %199 = getelementptr inbounds nuw %"class.Transduction::Transduction.22", ptr %40, i32 0, i32 13
  %200 = call noundef nonnull align 4 dereferenceable(4) ptr @_ZNKSt16reverse_iteratorISt14_List_iteratorIiEEdeEv(ptr noundef nonnull align 8 dereferenceable(8) %10)
  %201 = load i32, ptr %200, align 4, !tbaa !8
  %202 = sext i32 %201 to i64
  %203 = call noundef nonnull align 4 dereferenceable(4) ptr @_ZNSt6vectorIiSaIiEEixEm(ptr noundef nonnull align 8 dereferenceable(24) %199, i64 noundef %202) #3
  %204 = load i32, ptr %203, align 4, !tbaa !8
  %205 = add nsw i32 %198, %204
  %206 = icmp sgt i32 %192, %205
  br i1 %206, label %207, label %208

207:                                              ; preds = %190
  store i32 8, ptr %12, align 4
  br label %272

208:                                              ; preds = %190, %186
  call void @llvm.lifetime.start.p0(i64 16, ptr %28) #3
  %209 = call noundef nonnull align 4 dereferenceable(4) ptr @_ZNKSt14_List_iteratorIiEdeEv(ptr noundef nonnull align 8 dereferenceable(8) %26) #3
  %210 = load i32, ptr %209, align 4, !tbaa !8
  %211 = sext i32 %210 to i64
  %212 = call { ptr, i64 } @_ZNSt6vectorIbSaIbEEixEm(ptr noundef nonnull align 8 dereferenceable(40) %23, i64 noundef %211)
  %213 = getelementptr inbounds nuw { ptr, i64 }, ptr %28, i32 0, i32 0
  %214 = extractvalue { ptr, i64 } %212, 0
  store ptr %214, ptr %213, align 8
  %215 = getelementptr inbounds nuw { ptr, i64 }, ptr %28, i32 0, i32 1
  %216 = extractvalue { ptr, i64 } %212, 1
  store i64 %216, ptr %215, align 8
  %217 = call noundef zeroext i1 @_ZNKSt14_Bit_referencecvbEv(ptr noundef nonnull align 8 dereferenceable(16) %28) #3
  br i1 %217, label %226, label %218

218:                                              ; preds = %208
  %219 = getelementptr inbounds nuw %"class.Transduction::Transduction.22", ptr %40, i32 0, i32 11
  %220 = call noundef nonnull align 4 dereferenceable(4) ptr @_ZNKSt14_List_iteratorIiEdeEv(ptr noundef nonnull align 8 dereferenceable(8) %26) #3
  %221 = load i32, ptr %220, align 4, !tbaa !8
  %222 = sext i32 %221 to i64
  %223 = call noundef nonnull align 8 dereferenceable(24) ptr @_ZNSt6vectorIS_IiSaIiEESaIS1_EEixEm(ptr noundef nonnull align 8 dereferenceable(24) %219, i64 noundef %222) #3
  %224 = call noundef zeroext i1 @_ZNKSt6vectorIiSaIiEE5emptyEv(ptr noundef nonnull align 8 dereferenceable(24) %223) #3
  %225 = xor i1 %224, true
  br label %226

226:                                              ; preds = %218, %208
  %227 = phi i1 [ false, %208 ], [ %225, %218 ]
  call void @llvm.lifetime.end.p0(i64 16, ptr %28) #3
  br i1 %227, label %228, label %268

228:                                              ; preds = %226
  %229 = getelementptr inbounds nuw %"class.Transduction::Transduction.22", ptr %40, i32 0, i32 3
  %230 = load i8, ptr %229, align 8, !tbaa !132, !range !12, !noundef !13
  %231 = trunc i8 %230 to i1
  br i1 %231, label %232, label %240

232:                                              ; preds = %228
  %233 = getelementptr inbounds nuw %"class.Transduction::Transduction.22", ptr %40, i32 0, i32 12
  %234 = call noundef nonnull align 4 dereferenceable(4) ptr @_ZNKSt14_List_iteratorIiEdeEv(ptr noundef nonnull align 8 dereferenceable(8) %26) #3
  %235 = load i32, ptr %234, align 4, !tbaa !8
  %236 = sext i32 %235 to i64
  %237 = call noundef nonnull align 4 dereferenceable(4) ptr @_ZNSt6vectorIiSaIiEEixEm(ptr noundef nonnull align 8 dereferenceable(24) %233, i64 noundef %236) #3
  %238 = load i32, ptr %237, align 4, !tbaa !8
  %239 = call noundef zeroext i1 @_ZN12Transduction12TransductionIN5NewTt3ManENS1_5ParamEjLj4294967295EE8noexcessERKSt6vectorIbSaIbEEj(ptr noundef nonnull align 8 dereferenceable(456) %40, ptr noundef nonnull align 8 dereferenceable(40) %20, i32 noundef %238)
  br i1 %239, label %240, label %267

240:                                              ; preds = %232, %228
  %241 = call noundef nonnull align 4 dereferenceable(4) ptr @_ZNKSt16reverse_iteratorISt14_List_iteratorIiEEdeEv(ptr noundef nonnull align 8 dereferenceable(8) %10)
  %242 = load i32, ptr %241, align 4, !tbaa !8
  %243 = call noundef nonnull align 4 dereferenceable(4) ptr @_ZNKSt14_List_iteratorIiEdeEv(ptr noundef nonnull align 8 dereferenceable(8) %26) #3
  %244 = load i32, ptr %243, align 4, !tbaa !8
  %245 = call noundef zeroext i1 @_ZN12Transduction12TransductionIN5NewTt3ManENS1_5ParamEjLj4294967295EE10TryConnectEiib(ptr noundef nonnull align 8 dereferenceable(456) %40, i32 noundef %242, i32 noundef %244, i1 noundef zeroext false)
  br i1 %245, label %252, label %246

246:                                              ; preds = %240
  %247 = call noundef nonnull align 4 dereferenceable(4) ptr @_ZNKSt16reverse_iteratorISt14_List_iteratorIiEEdeEv(ptr noundef nonnull align 8 dereferenceable(8) %10)
  %248 = load i32, ptr %247, align 4, !tbaa !8
  %249 = call noundef nonnull align 4 dereferenceable(4) ptr @_ZNKSt14_List_iteratorIiEdeEv(ptr noundef nonnull align 8 dereferenceable(8) %26) #3
  %250 = load i32, ptr %249, align 4, !tbaa !8
  %251 = call noundef zeroext i1 @_ZN12Transduction12TransductionIN5NewTt3ManENS1_5ParamEjLj4294967295EE10TryConnectEiib(ptr noundef nonnull align 8 dereferenceable(456) %40, i32 noundef %248, i32 noundef %250, i1 noundef zeroext true)
  br i1 %251, label %252, label %266

252:                                              ; preds = %246, %240
  store i8 1, ptr %22, align 1, !tbaa !10
  %253 = load i32, ptr %5, align 4, !tbaa !8
  %254 = add nsw i32 %253, -1
  store i32 %254, ptr %5, align 4, !tbaa !8
  %255 = getelementptr inbounds nuw %"class.Transduction::Transduction.22", ptr %40, i32 0, i32 3
  %256 = load i8, ptr %255, align 8, !tbaa !132, !range !12, !noundef !13
  %257 = trunc i8 %256 to i1
  br i1 %257, label %258, label %265

258:                                              ; preds = %252
  %259 = getelementptr inbounds nuw %"class.Transduction::Transduction.22", ptr %40, i32 0, i32 12
  %260 = call noundef nonnull align 4 dereferenceable(4) ptr @_ZNKSt14_List_iteratorIiEdeEv(ptr noundef nonnull align 8 dereferenceable(8) %26) #3
  %261 = load i32, ptr %260, align 4, !tbaa !8
  %262 = sext i32 %261 to i64
  %263 = call noundef nonnull align 4 dereferenceable(4) ptr @_ZNSt6vectorIiSaIiEEixEm(ptr noundef nonnull align 8 dereferenceable(24) %259, i64 noundef %262) #3
  %264 = load i32, ptr %263, align 4, !tbaa !8
  call void @_ZN12Transduction12TransductionIN5NewTt3ManENS1_5ParamEjLj4294967295EE3addERSt6vectorIbSaIbEEj(ptr noundef nonnull align 8 dereferenceable(456) %40, ptr noundef nonnull align 8 dereferenceable(40) %20, i32 noundef %264)
  br label %265

265:                                              ; preds = %258, %252
  br label %266

266:                                              ; preds = %265, %246
  br label %267

267:                                              ; preds = %266, %232
  br label %268

268:                                              ; preds = %267, %226
  br label %269

269:                                              ; preds = %268
  %270 = call ptr @_ZNSt14_List_iteratorIiEppEi(ptr noundef nonnull align 8 dereferenceable(8) %26, i32 noundef 0) #3
  %271 = getelementptr inbounds nuw %"struct.std::_List_iterator", ptr %29, i32 0, i32 0
  store ptr %270, ptr %271, align 8
  br label %181, !llvm.loop !147

272:                                              ; preds = %207, %185
  call void @llvm.lifetime.end.p0(i64 8, ptr %26) #3
  br label %273

273:                                              ; preds = %272
  %274 = load i8, ptr %22, align 1, !tbaa !10, !range !12, !noundef !13
  %275 = trunc i8 %274 to i1
  br i1 %275, label %276, label %330

276:                                              ; preds = %273
  %277 = load i8, ptr %4, align 1, !tbaa !10, !range !12, !noundef !13
  %278 = trunc i8 %277 to i1
  br i1 %278, label %279, label %285

279:                                              ; preds = %276
  call void @_ZN12Transduction12TransductionIN5NewTt3ManENS1_5ParamEjLj4294967295EE5BuildEb(ptr noundef nonnull align 8 dereferenceable(456) %40, i1 noundef zeroext true)
  %280 = call noundef nonnull align 4 dereferenceable(4) ptr @_ZNKSt16reverse_iteratorISt14_List_iteratorIiEEdeEv(ptr noundef nonnull align 8 dereferenceable(8) %10)
  %281 = load i32, ptr %280, align 4, !tbaa !8
  %282 = call noundef i32 @_ZN12Transduction12TransductionIN5NewTt3ManENS1_5ParamEjLj4294967295EE4MspfEbii(ptr noundef nonnull align 8 dereferenceable(456) %40, i1 noundef zeroext true, i32 noundef %281, i32 noundef -1)
  %283 = load i32, ptr %5, align 4, !tbaa !8
  %284 = add nsw i32 %283, %282
  store i32 %284, ptr %5, align 4, !tbaa !8
  br label %301

285:                                              ; preds = %276
  call void @llvm.lifetime.start.p0(i64 16, ptr %30) #3
  %286 = getelementptr inbounds nuw %"class.Transduction::Transduction.22", ptr %40, i32 0, i32 19
  %287 = call noundef nonnull align 4 dereferenceable(4) ptr @_ZNKSt16reverse_iteratorISt14_List_iteratorIiEEdeEv(ptr noundef nonnull align 8 dereferenceable(8) %10)
  %288 = load i32, ptr %287, align 4, !tbaa !8
  %289 = sext i32 %288 to i64
  %290 = call { ptr, i64 } @_ZNSt6vectorIbSaIbEEixEm(ptr noundef nonnull align 8 dereferenceable(40) %286, i64 noundef %289)
  %291 = getelementptr inbounds nuw { ptr, i64 }, ptr %30, i32 0, i32 0
  %292 = extractvalue { ptr, i64 } %290, 0
  store ptr %292, ptr %291, align 8
  %293 = getelementptr inbounds nuw { ptr, i64 }, ptr %30, i32 0, i32 1
  %294 = extractvalue { ptr, i64 } %290, 1
  store i64 %294, ptr %293, align 8
  %295 = call noundef nonnull align 8 dereferenceable(16) ptr @_ZNSt14_Bit_referenceaSEb(ptr noundef nonnull align 8 dereferenceable(16) %30, i1 noundef zeroext true) #3
  call void @llvm.lifetime.end.p0(i64 16, ptr %30) #3
  %296 = call noundef nonnull align 4 dereferenceable(4) ptr @_ZNKSt16reverse_iteratorISt14_List_iteratorIiEEdeEv(ptr noundef nonnull align 8 dereferenceable(8) %10)
  %297 = load i32, ptr %296, align 4, !tbaa !8
  %298 = call noundef i32 @_ZN12Transduction12TransductionIN5NewTt3ManENS1_5ParamEjLj4294967295EE4CspfEbii(ptr noundef nonnull align 8 dereferenceable(456) %40, i1 noundef zeroext true, i32 noundef %297, i32 noundef -1)
  %299 = load i32, ptr %5, align 4, !tbaa !8
  %300 = add nsw i32 %299, %298
  store i32 %300, ptr %5, align 4, !tbaa !8
  br label %301

301:                                              ; preds = %285, %279
  %302 = getelementptr inbounds nuw %"class.Transduction::Transduction.22", ptr %40, i32 0, i32 11
  %303 = call noundef nonnull align 4 dereferenceable(4) ptr @_ZNKSt16reverse_iteratorISt14_List_iteratorIiEEdeEv(ptr noundef nonnull align 8 dereferenceable(8) %10)
  %304 = load i32, ptr %303, align 4, !tbaa !8
  %305 = sext i32 %304 to i64
  %306 = call noundef nonnull align 8 dereferenceable(24) ptr @_ZNSt6vectorIS_IiSaIiEESaIS1_EEixEm(ptr noundef nonnull align 8 dereferenceable(24) %302, i64 noundef %305) #3
  %307 = call noundef zeroext i1 @_ZNKSt6vectorIiSaIiEE5emptyEv(ptr noundef nonnull align 8 dereferenceable(24) %306) #3
  br i1 %307, label %329, label %308

308:                                              ; preds = %301
  call void @llvm.lifetime.start.p0(i64 16, ptr %31) #3
  %309 = getelementptr inbounds nuw %"class.Transduction::Transduction.22", ptr %40, i32 0, i32 19
  %310 = call noundef nonnull align 4 dereferenceable(4) ptr @_ZNKSt16reverse_iteratorISt14_List_iteratorIiEEdeEv(ptr noundef nonnull align 8 dereferenceable(8) %10)
  %311 = load i32, ptr %310, align 4, !tbaa !8
  %312 = sext i32 %311 to i64
  %313 = call { ptr, i64 } @_ZNSt6vectorIbSaIbEEixEm(ptr noundef nonnull align 8 dereferenceable(40) %309, i64 noundef %312)
  %314 = getelementptr inbounds nuw { ptr, i64 }, ptr %31, i32 0, i32 0
  %315 = extractvalue { ptr, i64 } %313, 0
  store ptr %315, ptr %314, align 8
  %316 = getelementptr inbounds nuw { ptr, i64 }, ptr %31, i32 0, i32 1
  %317 = extractvalue { ptr, i64 } %313, 1
  store i64 %317, ptr %316, align 8
  %318 = call noundef nonnull align 8 dereferenceable(16) ptr @_ZNSt14_Bit_referenceaSEb(ptr noundef nonnull align 8 dereferenceable(16) %31, i1 noundef zeroext true) #3
  call void @llvm.lifetime.end.p0(i64 16, ptr %31) #3
  %319 = load i8, ptr %4, align 1, !tbaa !10, !range !12, !noundef !13
  %320 = trunc i8 %319 to i1
  br i1 %320, label %321, label %323

321:                                              ; preds = %308
  %322 = call noundef i32 @_ZN12Transduction12TransductionIN5NewTt3ManENS1_5ParamEjLj4294967295EE4MspfEbii(ptr noundef nonnull align 8 dereferenceable(456) %40, i1 noundef zeroext true, i32 noundef -1, i32 noundef -1)
  br label %325

323:                                              ; preds = %308
  %324 = call noundef i32 @_ZN12Transduction12TransductionIN5NewTt3ManENS1_5ParamEjLj4294967295EE4CspfEbii(ptr noundef nonnull align 8 dereferenceable(456) %40, i1 noundef zeroext true, i32 noundef -1, i32 noundef -1)
  br label %325

325:                                              ; preds = %323, %321
  %326 = phi i32 [ %322, %321 ], [ %324, %323 ]
  %327 = load i32, ptr %5, align 4, !tbaa !8
  %328 = add nsw i32 %327, %326
  store i32 %328, ptr %5, align 4, !tbaa !8
  br label %329

329:                                              ; preds = %325, %301
  br label %330

330:                                              ; preds = %329, %273
  %331 = load i32, ptr %6, align 4, !tbaa !8
  %332 = call noundef i32 @_ZNK12Transduction12TransductionIN5NewTt3ManENS1_5ParamEjLj4294967295EE10CountNodesEv(ptr noundef nonnull align 8 dereferenceable(456) %40)
  %333 = icmp slt i32 %331, %332
  br i1 %333, label %334, label %336

334:                                              ; preds = %330
  call void @_ZN12Transduction12TransductionIN5NewTt3ManENS1_5ParamEjLj4294967295EE4LoadERKNS_18TransductionBackupIS2_jLj4294967295EEE(ptr noundef nonnull align 8 dereferenceable(456) %40, ptr noundef nonnull align 8 dereferenceable(352) %7)
  %335 = load i32, ptr %8, align 4, !tbaa !8
  store i32 %335, ptr %5, align 4, !tbaa !8
  store i32 4, ptr %12, align 4
  br label %391

336:                                              ; preds = %330
  %337 = getelementptr inbounds nuw %"class.Transduction::Transduction.22", ptr %40, i32 0, i32 11
  %338 = call noundef nonnull align 4 dereferenceable(4) ptr @_ZNKSt16reverse_iteratorISt14_List_iteratorIiEEdeEv(ptr noundef nonnull align 8 dereferenceable(8) %10)
  %339 = load i32, ptr %338, align 4, !tbaa !8
  %340 = sext i32 %339 to i64
  %341 = call noundef nonnull align 8 dereferenceable(24) ptr @_ZNSt6vectorIS_IiSaIiEESaIS1_EEixEm(ptr noundef nonnull align 8 dereferenceable(24) %337, i64 noundef %340) #3
  %342 = call noundef zeroext i1 @_ZNKSt6vectorIiSaIiEE5emptyEv(ptr noundef nonnull align 8 dereferenceable(24) %341) #3
  br i1 %342, label %388, label %343

343:                                              ; preds = %336
  %344 = getelementptr inbounds nuw %"class.Transduction::Transduction.22", ptr %40, i32 0, i32 10
  %345 = call noundef nonnull align 4 dereferenceable(4) ptr @_ZNKSt16reverse_iteratorISt14_List_iteratorIiEEdeEv(ptr noundef nonnull align 8 dereferenceable(8) %10)
  %346 = load i32, ptr %345, align 4, !tbaa !8
  %347 = sext i32 %346 to i64
  %348 = call noundef nonnull align 8 dereferenceable(24) ptr @_ZNSt6vectorIS_IiSaIiEESaIS1_EEixEm(ptr noundef nonnull align 8 dereferenceable(24) %344, i64 noundef %347) #3
  %349 = call noundef i64 @_ZNKSt6vectorIiSaIiEE4sizeEv(ptr noundef nonnull align 8 dereferenceable(24) %348) #3
  %350 = icmp ugt i64 %349, 2
  br i1 %350, label %351, label %388

351:                                              ; preds = %343
  call void @llvm.lifetime.start.p0(i64 8, ptr %32) #3
  %352 = getelementptr inbounds nuw %"class.Transduction::Transduction.22", ptr %40, i32 0, i32 9
  %353 = call ptr @_ZNSt7__cxx114listIiSaIiEE5beginEv(ptr noundef nonnull align 8 dereferenceable(24) %352) #3
  %354 = getelementptr inbounds nuw %"struct.std::_List_iterator", ptr %33, i32 0, i32 0
  store ptr %353, ptr %354, align 8
  %355 = getelementptr inbounds nuw %"class.Transduction::Transduction.22", ptr %40, i32 0, i32 9
  %356 = call ptr @_ZNSt7__cxx114listIiSaIiEE3endEv(ptr noundef nonnull align 8 dereferenceable(24) %355) #3
  %357 = getelementptr inbounds nuw %"struct.std::_List_iterator", ptr %34, i32 0, i32 0
  store ptr %356, ptr %357, align 8
  %358 = call noundef nonnull align 4 dereferenceable(4) ptr @_ZNKSt16reverse_iteratorISt14_List_iteratorIiEEdeEv(ptr noundef nonnull align 8 dereferenceable(8) %10)
  %359 = getelementptr inbounds nuw %"struct.std::_List_iterator", ptr %33, i32 0, i32 0
  %360 = load ptr, ptr %359, align 8
  %361 = getelementptr inbounds nuw %"struct.std::_List_iterator", ptr %34, i32 0, i32 0
  %362 = load ptr, ptr %361, align 8
  %363 = call ptr @_ZSt4findISt14_List_iteratorIiEiET_S2_S2_RKT0_(ptr %360, ptr %362, ptr noundef nonnull align 4 dereferenceable(4) %358)
  %364 = getelementptr inbounds nuw %"struct.std::_List_iterator", ptr %32, i32 0, i32 0
  store ptr %363, ptr %364, align 8
  call void @llvm.lifetime.start.p0(i64 4, ptr %35) #3
  %365 = getelementptr inbounds nuw %"class.Transduction::Transduction.22", ptr %40, i32 0, i32 4
  %366 = load i32, ptr %365, align 4, !tbaa !146
  store i32 %366, ptr %35, align 4, !tbaa !8
  %367 = getelementptr inbounds nuw %"class.Transduction::Transduction.22", ptr %40, i32 0, i32 3
  %368 = load i8, ptr %367, align 8, !tbaa !132, !range !12, !noundef !13
  %369 = trunc i8 %368 to i1
  br i1 %369, label %370, label %383

370:                                              ; preds = %351
  %371 = call noundef i32 @_ZN12Transduction12TransductionIN5NewTt3ManENS1_5ParamEjLj4294967295EE20BalancedDecomposeOneERKSt14_List_iteratorIiERi(ptr noundef nonnull align 8 dereferenceable(456) %40, ptr noundef nonnull align 8 dereferenceable(8) %32, ptr noundef nonnull align 4 dereferenceable(4) %35)
  %372 = load i8, ptr %4, align 1, !tbaa !10, !range !12, !noundef !13
  %373 = trunc i8 %372 to i1
  br i1 %373, label %374, label %376

374:                                              ; preds = %370
  %375 = call noundef i32 @_ZN12Transduction12TransductionIN5NewTt3ManENS1_5ParamEjLj4294967295EE4MspfEbii(ptr noundef nonnull align 8 dereferenceable(456) %40, i1 noundef zeroext true, i32 noundef -1, i32 noundef -1)
  br label %378

376:                                              ; preds = %370
  %377 = call noundef i32 @_ZN12Transduction12TransductionIN5NewTt3ManENS1_5ParamEjLj4294967295EE4CspfEbii(ptr noundef nonnull align 8 dereferenceable(456) %40, i1 noundef zeroext true, i32 noundef -1, i32 noundef -1)
  br label %378

378:                                              ; preds = %376, %374
  %379 = phi i32 [ %375, %374 ], [ %377, %376 ]
  %380 = add nsw i32 %371, %379
  %381 = load i32, ptr %5, align 4, !tbaa !8
  %382 = add nsw i32 %381, %380
  store i32 %382, ptr %5, align 4, !tbaa !8
  br label %387

383:                                              ; preds = %351
  %384 = call noundef i32 @_ZN12Transduction12TransductionIN5NewTt3ManENS1_5ParamEjLj4294967295EE19TrivialDecomposeOneERKSt14_List_iteratorIiERi(ptr noundef nonnull align 8 dereferenceable(456) %40, ptr noundef nonnull align 8 dereferenceable(8) %32, ptr noundef nonnull align 4 dereferenceable(4) %35)
  %385 = load i32, ptr %5, align 4, !tbaa !8
  %386 = add nsw i32 %385, %384
  store i32 %386, ptr %5, align 4, !tbaa !8
  br label %387

387:                                              ; preds = %383, %378
  call void @llvm.lifetime.end.p0(i64 4, ptr %35) #3
  call void @llvm.lifetime.end.p0(i64 8, ptr %32) #3
  br label %388

388:                                              ; preds = %387, %343, %336
  %389 = call noundef i32 @_ZNK12Transduction12TransductionIN5NewTt3ManENS1_5ParamEjLj4294967295EE10CountNodesEv(ptr noundef nonnull align 8 dereferenceable(456) %40)
  store i32 %389, ptr %6, align 4, !tbaa !8
  call void @_ZNK12Transduction12TransductionIN5NewTt3ManENS1_5ParamEjLj4294967295EE4SaveERNS_18TransductionBackupIS2_jLj4294967295EEE(ptr noundef nonnull align 8 dereferenceable(456) %40, ptr noundef nonnull align 8 dereferenceable(352) %7)
  %390 = load i32, ptr %5, align 4, !tbaa !8
  store i32 %390, ptr %8, align 4, !tbaa !8
  store i32 0, ptr %12, align 4
  br label %391

391:                                              ; preds = %388, %334
  call void @_ZNSt7__cxx1110_List_baseIiSaIiEED2Ev(ptr noundef nonnull align 8 dereferenceable(24) %25) #3
  call void @llvm.lifetime.end.p0(i64 24, ptr %25) #3
  call void @_ZNSt13_Bvector_baseISaIbEED2Ev(ptr noundef nonnull align 8 dereferenceable(40) %23) #3
  call void @llvm.lifetime.end.p0(i64 40, ptr %23) #3
  call void @llvm.lifetime.end.p0(i64 1, ptr %22) #3
  br label %392

392:                                              ; preds = %391, %155
  call void @_ZNSt13_Bvector_baseISaIbEED2Ev(ptr noundef nonnull align 8 dereferenceable(40) %20) #3
  call void @llvm.lifetime.end.p0(i64 40, ptr %20) #3
  %393 = load i32, ptr %12, align 4
  switch i32 %393, label %403 [
    i32 0, label %394
    i32 4, label %395
  ]

394:                                              ; preds = %392
  br label %395

395:                                              ; preds = %394, %392, %98
  call void @llvm.lifetime.start.p0(i64 8, ptr %36) #3
  call void @_ZNSt16reverse_iteratorISt14_List_iteratorIiEEppEi(ptr dead_on_unwind writable sret(%"class.std::reverse_iterator") align 8 %36, ptr noundef nonnull align 8 dereferenceable(8) %10, i32 noundef 0)
  call void @llvm.lifetime.end.p0(i64 8, ptr %36) #3
  br label %52, !llvm.loop !148

396:                                              ; preds = %54
  %397 = getelementptr inbounds nuw %"class.Transduction::Transduction.22", ptr %40, i32 0, i32 1
  %398 = load i32, ptr %397, align 8, !tbaa !127
  %399 = icmp ne i32 %398, 0
  br i1 %399, label %400, label %401

400:                                              ; preds = %396
  call void @llvm.lifetime.start.p0(i64 1, ptr %38) #3
  call void @_ZNSaIcEC2Ev(ptr noundef nonnull align 1 dereferenceable(1) %38) #3
  call void @_ZNSt7__cxx1112basic_stringIcSt11char_traitsIcESaIcEEC2IS3_EEPKcRKS3_(ptr noundef nonnull align 8 dereferenceable(32) %37, ptr noundef @.str.105, ptr noundef nonnull align 1 dereferenceable(1) %38)
  call void @_ZNK12Transduction12TransductionIN5NewTt3ManENS1_5ParamEjLj4294967295EE10PrintStatsENSt7__cxx1112basic_stringIcSt11char_traitsIcESaIcEEEbi(ptr noundef nonnull align 8 dereferenceable(456) %40, ptr noundef %37, i1 noundef zeroext true, i32 noundef 11)
  call void @_ZNSt7__cxx1112basic_stringIcSt11char_traitsIcESaIcEED2Ev(ptr noundef nonnull align 8 dereferenceable(32) %37) #3
  call void @_ZNSt15__new_allocatorIcED2Ev(ptr noundef nonnull align 1 dereferenceable(1) %38) #3
  call void @llvm.lifetime.end.p0(i64 1, ptr %38) #3
  br label %401

401:                                              ; preds = %400, %396
  %402 = load i32, ptr %5, align 4, !tbaa !8
  store i32 1, ptr %12, align 4
  call void @_ZNSt7__cxx1110_List_baseIiSaIiEED2Ev(ptr noundef nonnull align 8 dereferenceable(24) %9) #3
  call void @llvm.lifetime.end.p0(i64 24, ptr %9) #3
  call void @llvm.lifetime.end.p0(i64 4, ptr %8) #3
  call void @_ZN12Transduction18TransductionBackupIN5NewTt3ManEjLj4294967295EED2Ev(ptr noundef nonnull align 8 dereferenceable(352) %7) #3
  call void @llvm.lifetime.end.p0(i64 352, ptr %7) #3
  call void @llvm.lifetime.end.p0(i64 4, ptr %6) #3
  call void @llvm.lifetime.end.p0(i64 4, ptr %5) #3
  ret i32 %402

403:                                              ; preds = %392
  unreachable
}

; Function Attrs: mustprogress nounwind uwtable
define linkonce_odr noundef i32 @_ZN12Transduction12TransductionIN5NewTt3ManENS1_5ParamEjLj4294967295EE9ResubMonoEb(ptr noundef nonnull align 8 dereferenceable(456) %0, i1 noundef zeroext %1) #4 comdat align 2 {
  %3 = alloca ptr, align 8
  %4 = alloca i8, align 1
  %5 = alloca i32, align 4
  %6 = alloca %"class.std::__cxx11::list", align 8
  %7 = alloca %"class.std::reverse_iterator", align 8
  %8 = alloca %"class.std::reverse_iterator", align 8
  %9 = alloca i32, align 4
  %10 = alloca %"class.std::__cxx11::basic_stringstream", align 8
  %11 = alloca %"struct.std::_Setw", align 4
  %12 = alloca %"struct.std::_Setw", align 4
  %13 = alloca %"class.std::reverse_iterator", align 8
  %14 = alloca %"class.std::reverse_iterator", align 8
  %15 = alloca %"struct.std::_Setw", align 4
  %16 = alloca %"class.std::__cxx11::basic_string", align 8
  %17 = alloca %"class.Transduction::TransductionBackup.59", align 8
  %18 = alloca i32, align 4
  %19 = alloca i32, align 4
  %20 = alloca %"class.std::__cxx11::basic_stringstream", align 8
  %21 = alloca %"struct.std::_Setw", align 4
  %22 = alloca %"class.std::__cxx11::basic_string", align 8
  %23 = alloca i32, align 4
  %24 = alloca %"struct.std::_Bit_reference", align 8
  %25 = alloca %"struct.std::_Bit_reference", align 8
  %26 = alloca %"class.std::vector.18", align 8
  %27 = alloca %"class.std::allocator.45", align 1
  %28 = alloca %"class.std::__cxx11::list", align 8
  %29 = alloca %"struct.std::_List_iterator", align 8
  %30 = alloca %"struct.std::_List_iterator", align 8
  %31 = alloca %"class.std::__cxx11::basic_stringstream", align 8
  %32 = alloca %"struct.std::_Setw", align 4
  %33 = alloca %"struct.std::_Setw", align 4
  %34 = alloca %"struct.std::_List_iterator", align 8
  %35 = alloca %"struct.std::_List_iterator", align 8
  %36 = alloca %"struct.std::_Setw", align 4
  %37 = alloca %"class.std::__cxx11::basic_string", align 8
  %38 = alloca %"struct.std::_Bit_reference", align 8
  %39 = alloca i32, align 4
  %40 = alloca %"struct.std::_Bit_reference", align 8
  %41 = alloca %"struct.std::_Bit_reference", align 8
  %42 = alloca %"struct.std::_List_iterator", align 8
  %43 = alloca %"struct.std::_List_iterator", align 8
  %44 = alloca %"struct.std::_List_iterator", align 8
  %45 = alloca %"struct.std::_List_iterator", align 8
  %46 = alloca i32, align 4
  %47 = alloca %"class.std::reverse_iterator", align 8
  %48 = alloca %"class.std::__cxx11::basic_string", align 8
  %49 = alloca %"class.std::allocator.34", align 1
  store ptr %0, ptr %3, align 8, !tbaa !125
  %50 = zext i1 %1 to i8
  store i8 %50, ptr %4, align 1, !tbaa !10
  %51 = load ptr, ptr %3, align 8
  call void @llvm.lifetime.start.p0(i64 4, ptr %5) #3
  %52 = load i8, ptr %4, align 1, !tbaa !10, !range !12, !noundef !13
  %53 = trunc i8 %52 to i1
  br i1 %53, label %54, label %56

54:                                               ; preds = %2
  %55 = call noundef i32 @_ZN12Transduction12TransductionIN5NewTt3ManENS1_5ParamEjLj4294967295EE4MspfEbii(ptr noundef nonnull align 8 dereferenceable(456) %51, i1 noundef zeroext true, i32 noundef -1, i32 noundef -1)
  br label %58

56:                                               ; preds = %2
  %57 = call noundef i32 @_ZN12Transduction12TransductionIN5NewTt3ManENS1_5ParamEjLj4294967295EE4CspfEbii(ptr noundef nonnull align 8 dereferenceable(456) %51, i1 noundef zeroext true, i32 noundef -1, i32 noundef -1)
  br label %58

58:                                               ; preds = %56, %54
  %59 = phi i32 [ %55, %54 ], [ %57, %56 ]
  store i32 %59, ptr %5, align 4, !tbaa !8
  call void @llvm.lifetime.start.p0(i64 24, ptr %6) #3
  %60 = getelementptr inbounds nuw %"class.Transduction::Transduction.22", ptr %51, i32 0, i32 9
  call void @_ZNSt7__cxx114listIiSaIiEEC2ERKS2_(ptr noundef nonnull align 8 dereferenceable(24) %6, ptr noundef nonnull align 8 dereferenceable(24) %60)
  call void @llvm.lifetime.start.p0(i64 8, ptr %7) #3
  call void @_ZNSt7__cxx114listIiSaIiEE6rbeginEv(ptr dead_on_unwind writable sret(%"class.std::reverse_iterator") align 8 %7, ptr noundef nonnull align 8 dereferenceable(24) %6) #3
  br label %61

61:                                               ; preds = %500, %58
  call void @llvm.lifetime.start.p0(i64 8, ptr %8) #3
  call void @_ZNSt7__cxx114listIiSaIiEE4rendEv(ptr dead_on_unwind writable sret(%"class.std::reverse_iterator") align 8 %8, ptr noundef nonnull align 8 dereferenceable(24) %6) #3
  %62 = call noundef zeroext i1 @_ZStneISt14_List_iteratorIiEEbRKSt16reverse_iteratorIT_ES6_(ptr noundef nonnull align 8 dereferenceable(8) %7, ptr noundef nonnull align 8 dereferenceable(8) %8)
  call void @llvm.lifetime.end.p0(i64 8, ptr %8) #3
  br i1 %62, label %64, label %63

63:                                               ; preds = %61
  store i32 2, ptr %9, align 4
  call void @llvm.lifetime.end.p0(i64 8, ptr %7) #3
  br label %501

64:                                               ; preds = %61
  %65 = getelementptr inbounds nuw %"class.Transduction::Transduction.22", ptr %51, i32 0, i32 1
  %66 = load i32, ptr %65, align 8, !tbaa !127
  %67 = icmp sgt i32 %66, 1
  br i1 %67, label %68, label %100

68:                                               ; preds = %64
  call void @llvm.lifetime.start.p0(i64 392, ptr %10) #3
  call void @_ZNSt7__cxx1118basic_stringstreamIcSt11char_traitsIcESaIcEEC1Ev(ptr noundef nonnull align 8 dereferenceable(128) %10)
  %69 = getelementptr inbounds i8, ptr %10, i64 16
  %70 = call noundef nonnull align 8 dereferenceable(8) ptr @_ZStlsISt11char_traitsIcEERSt13basic_ostreamIcT_ES5_PKc(ptr noundef nonnull align 8 dereferenceable(8) %69, ptr noundef @.str.111)
  %71 = call i32 @_ZSt4setwi(i32 noundef 5)
  %72 = getelementptr inbounds nuw %"struct.std::_Setw", ptr %11, i32 0, i32 0
  store i32 %71, ptr %72, align 4
  %73 = getelementptr inbounds nuw %"struct.std::_Setw", ptr %11, i32 0, i32 0
  %74 = load i32, ptr %73, align 4
  %75 = call noundef nonnull align 8 dereferenceable(8) ptr @_ZStlsIcSt11char_traitsIcEERSt13basic_ostreamIT_T0_ES6_St5_Setw(ptr noundef nonnull align 8 dereferenceable(8) %70, i32 %74)
  %76 = call noundef nonnull align 4 dereferenceable(4) ptr @_ZNKSt16reverse_iteratorISt14_List_iteratorIiEEdeEv(ptr noundef nonnull align 8 dereferenceable(8) %7)
  %77 = load i32, ptr %76, align 4, !tbaa !8
  %78 = call noundef nonnull align 8 dereferenceable(8) ptr @_ZNSolsEi(ptr noundef nonnull align 8 dereferenceable(8) %75, i32 noundef %77)
  %79 = call noundef nonnull align 8 dereferenceable(8) ptr @_ZStlsISt11char_traitsIcEERSt13basic_ostreamIcT_ES5_PKc(ptr noundef nonnull align 8 dereferenceable(8) %78, ptr noundef @.str.87)
  %80 = call i32 @_ZSt4setwi(i32 noundef 5)
  %81 = getelementptr inbounds nuw %"struct.std::_Setw", ptr %12, i32 0, i32 0
  store i32 %80, ptr %81, align 4
  %82 = getelementptr inbounds nuw %"struct.std::_Setw", ptr %12, i32 0, i32 0
  %83 = load i32, ptr %82, align 4
  %84 = call noundef nonnull align 8 dereferenceable(8) ptr @_ZStlsIcSt11char_traitsIcEERSt13basic_ostreamIT_T0_ES6_St5_Setw(ptr noundef nonnull align 8 dereferenceable(8) %79, i32 %83)
  call void @_ZNSt7__cxx114listIiSaIiEE6rbeginEv(ptr dead_on_unwind writable sret(%"class.std::reverse_iterator") align 8 %13, ptr noundef nonnull align 8 dereferenceable(24) %6) #3
  call void @_ZNSt16reverse_iteratorISt14_List_iteratorIiEEC2ERKS2_(ptr noundef nonnull align 8 dereferenceable(8) %14, ptr noundef nonnull align 8 dereferenceable(8) %7) #3
  %85 = call noundef i64 @_ZSt8distanceISt16reverse_iteratorISt14_List_iteratorIiEEENSt15iterator_traitsIT_E15difference_typeES5_S5_(ptr noundef %13, ptr noundef %14)
  %86 = add nsw i64 %85, 1
  %87 = call noundef nonnull align 8 dereferenceable(8) ptr @_ZNSolsEl(ptr noundef nonnull align 8 dereferenceable(8) %84, i64 noundef %86)
  %88 = call noundef nonnull align 8 dereferenceable(8) ptr @_ZStlsISt11char_traitsIcEERSt13basic_ostreamIcT_ES5_PKc(ptr noundef nonnull align 8 dereferenceable(8) %87, ptr noundef @.str.88)
  %89 = call i32 @_ZSt4setwi(i32 noundef 5)
  %90 = getelementptr inbounds nuw %"struct.std::_Setw", ptr %15, i32 0, i32 0
  store i32 %89, ptr %90, align 4
  %91 = getelementptr inbounds nuw %"struct.std::_Setw", ptr %15, i32 0, i32 0
  %92 = load i32, ptr %91, align 4
  %93 = call noundef nonnull align 8 dereferenceable(8) ptr @_ZStlsIcSt11char_traitsIcEERSt13basic_ostreamIT_T0_ES6_St5_Setw(ptr noundef nonnull align 8 dereferenceable(8) %88, i32 %92)
  %94 = call noundef i64 @_ZNKSt7__cxx114listIiSaIiEE4sizeEv(ptr noundef nonnull align 8 dereferenceable(24) %6) #3
  %95 = call noundef nonnull align 8 dereferenceable(8) ptr @_ZNSolsEm(ptr noundef nonnull align 8 dereferenceable(8) %93, i64 noundef %94)
  %96 = call noundef nonnull align 8 dereferenceable(8) ptr @_ZStlsISt11char_traitsIcEERSt13basic_ostreamIcT_ES5_PKc(ptr noundef nonnull align 8 dereferenceable(8) %95, ptr noundef @.str.37)
  call void @_ZNKSt7__cxx1118basic_stringstreamIcSt11char_traitsIcESaIcEE3strEv(ptr dead_on_unwind writable sret(%"class.std::__cxx11::basic_string") align 8 %16, ptr noundef nonnull align 8 dereferenceable(128) %10)
  %97 = getelementptr inbounds nuw %"class.Transduction::Transduction.22", ptr %51, i32 0, i32 1
  %98 = load i32, ptr %97, align 8, !tbaa !127
  %99 = icmp sgt i32 %98, 2
  call void @_ZNK12Transduction12TransductionIN5NewTt3ManENS1_5ParamEjLj4294967295EE10PrintStatsENSt7__cxx1112basic_stringIcSt11char_traitsIcESaIcEEEbi(ptr noundef nonnull align 8 dereferenceable(456) %51, ptr noundef %16, i1 noundef zeroext %99, i32 noundef 0)
  call void @_ZNSt7__cxx1112basic_stringIcSt11char_traitsIcESaIcEED2Ev(ptr noundef nonnull align 8 dereferenceable(32) %16) #3
  call void @_ZNSt7__cxx1118basic_stringstreamIcSt11char_traitsIcESaIcEED1Ev(ptr noundef nonnull align 8 dereferenceable(128) %10) #3
  call void @llvm.lifetime.end.p0(i64 392, ptr %10) #3
  br label %100

100:                                              ; preds = %68, %64
  %101 = getelementptr inbounds nuw %"class.Transduction::Transduction.22", ptr %51, i32 0, i32 11
  %102 = call noundef nonnull align 4 dereferenceable(4) ptr @_ZNKSt16reverse_iteratorISt14_List_iteratorIiEEdeEv(ptr noundef nonnull align 8 dereferenceable(8) %7)
  %103 = load i32, ptr %102, align 4, !tbaa !8
  %104 = sext i32 %103 to i64
  %105 = call noundef nonnull align 8 dereferenceable(24) ptr @_ZNSt6vectorIS_IiSaIiEESaIS1_EEixEm(ptr noundef nonnull align 8 dereferenceable(24) %101, i64 noundef %104) #3
  %106 = call noundef zeroext i1 @_ZNKSt6vectorIiSaIiEE5emptyEv(ptr noundef nonnull align 8 dereferenceable(24) %105) #3
  br i1 %106, label %107, label %108

107:                                              ; preds = %100
  br label %500

108:                                              ; preds = %100
  %109 = call noundef nonnull align 4 dereferenceable(4) ptr @_ZNKSt16reverse_iteratorISt14_List_iteratorIiEEdeEv(ptr noundef nonnull align 8 dereferenceable(8) %7)
  %110 = load i32, ptr %109, align 4, !tbaa !8
  %111 = call noundef i32 @_ZN12Transduction12TransductionIN5NewTt3ManENS1_5ParamEjLj4294967295EE15TrivialMergeOneEi(ptr noundef nonnull align 8 dereferenceable(456) %51, i32 noundef %110)
  %112 = load i32, ptr %5, align 4, !tbaa !8
  %113 = add nsw i32 %112, %111
  store i32 %113, ptr %5, align 4, !tbaa !8
  call void @llvm.lifetime.start.p0(i64 352, ptr %17) #3
  call void @_ZN12Transduction18TransductionBackupIN5NewTt3ManEjLj4294967295EEC2Ev(ptr noundef nonnull align 8 dereferenceable(352) %17) #3
  call void @_ZNK12Transduction12TransductionIN5NewTt3ManENS1_5ParamEjLj4294967295EE4SaveERNS_18TransductionBackupIS2_jLj4294967295EEE(ptr noundef nonnull align 8 dereferenceable(456) %51, ptr noundef nonnull align 8 dereferenceable(352) %17)
  call void @llvm.lifetime.start.p0(i64 4, ptr %18) #3
  %114 = load i32, ptr %5, align 4, !tbaa !8
  store i32 %114, ptr %18, align 4, !tbaa !8
  call void @llvm.lifetime.start.p0(i64 4, ptr %19) #3
  store i32 0, ptr %19, align 4, !tbaa !8
  br label %115

115:                                              ; preds = %250, %108
  %116 = load i32, ptr %19, align 4, !tbaa !8
  %117 = zext i32 %116 to i64
  %118 = getelementptr inbounds nuw %"class.Transduction::Transduction.22", ptr %51, i32 0, i32 7
  %119 = call noundef i64 @_ZNKSt6vectorIiSaIiEE4sizeEv(ptr noundef nonnull align 8 dereferenceable(24) %118) #3
  %120 = icmp ult i64 %117, %119
  br i1 %120, label %122, label %121

121:                                              ; preds = %115
  store i32 5, ptr %9, align 4
  br label %253

122:                                              ; preds = %115
  %123 = getelementptr inbounds nuw %"class.Transduction::Transduction.22", ptr %51, i32 0, i32 11
  %124 = call noundef nonnull align 4 dereferenceable(4) ptr @_ZNKSt16reverse_iteratorISt14_List_iteratorIiEEdeEv(ptr noundef nonnull align 8 dereferenceable(8) %7)
  %125 = load i32, ptr %124, align 4, !tbaa !8
  %126 = sext i32 %125 to i64
  %127 = call noundef nonnull align 8 dereferenceable(24) ptr @_ZNSt6vectorIS_IiSaIiEESaIS1_EEixEm(ptr noundef nonnull align 8 dereferenceable(24) %123, i64 noundef %126) #3
  %128 = call noundef zeroext i1 @_ZNKSt6vectorIiSaIiEE5emptyEv(ptr noundef nonnull align 8 dereferenceable(24) %127) #3
  br i1 %128, label %129, label %130

129:                                              ; preds = %122
  store i32 5, ptr %9, align 4
  br label %253

130:                                              ; preds = %122
  %131 = getelementptr inbounds nuw %"class.Transduction::Transduction.22", ptr %51, i32 0, i32 1
  %132 = load i32, ptr %131, align 8, !tbaa !127
  %133 = icmp sgt i32 %132, 2
  br i1 %133, label %134, label %147

134:                                              ; preds = %130
  call void @llvm.lifetime.start.p0(i64 392, ptr %20) #3
  call void @_ZNSt7__cxx1118basic_stringstreamIcSt11char_traitsIcESaIcEEC1Ev(ptr noundef nonnull align 8 dereferenceable(128) %20)
  %135 = getelementptr inbounds i8, ptr %20, i64 16
  %136 = call noundef nonnull align 8 dereferenceable(8) ptr @_ZStlsISt11char_traitsIcEERSt13basic_ostreamIcT_ES5_PKc(ptr noundef nonnull align 8 dereferenceable(8) %135, ptr noundef @.str.112)
  %137 = call i32 @_ZSt4setwi(i32 noundef 2)
  %138 = getelementptr inbounds nuw %"struct.std::_Setw", ptr %21, i32 0, i32 0
  store i32 %137, ptr %138, align 4
  %139 = getelementptr inbounds nuw %"struct.std::_Setw", ptr %21, i32 0, i32 0
  %140 = load i32, ptr %139, align 4
  %141 = call noundef nonnull align 8 dereferenceable(8) ptr @_ZStlsIcSt11char_traitsIcEERSt13basic_ostreamIT_T0_ES6_St5_Setw(ptr noundef nonnull align 8 dereferenceable(8) %136, i32 %140)
  %142 = load i32, ptr %19, align 4, !tbaa !8
  %143 = call noundef nonnull align 8 dereferenceable(8) ptr @_ZNSolsEj(ptr noundef nonnull align 8 dereferenceable(8) %141, i32 noundef %142)
  call void @_ZNKSt7__cxx1118basic_stringstreamIcSt11char_traitsIcESaIcEE3strEv(ptr dead_on_unwind writable sret(%"class.std::__cxx11::basic_string") align 8 %22, ptr noundef nonnull align 8 dereferenceable(128) %20)
  %144 = getelementptr inbounds nuw %"class.Transduction::Transduction.22", ptr %51, i32 0, i32 1
  %145 = load i32, ptr %144, align 8, !tbaa !127
  %146 = icmp sgt i32 %145, 3
  call void @_ZNK12Transduction12TransductionIN5NewTt3ManENS1_5ParamEjLj4294967295EE10PrintStatsENSt7__cxx1112basic_stringIcSt11char_traitsIcESaIcEEEbi(ptr noundef nonnull align 8 dereferenceable(456) %51, ptr noundef %22, i1 noundef zeroext %146, i32 noundef 0)
  call void @_ZNSt7__cxx1112basic_stringIcSt11char_traitsIcESaIcEED2Ev(ptr noundef nonnull align 8 dereferenceable(32) %22) #3
  call void @_ZNSt7__cxx1118basic_stringstreamIcSt11char_traitsIcESaIcEED1Ev(ptr noundef nonnull align 8 dereferenceable(128) %20) #3
  call void @llvm.lifetime.end.p0(i64 392, ptr %20) #3
  br label %147

147:                                              ; preds = %134, %130
  %148 = call noundef nonnull align 4 dereferenceable(4) ptr @_ZNKSt16reverse_iteratorISt14_List_iteratorIiEEdeEv(ptr noundef nonnull align 8 dereferenceable(8) %7)
  %149 = load i32, ptr %148, align 4, !tbaa !8
  %150 = getelementptr inbounds nuw %"class.Transduction::Transduction.22", ptr %51, i32 0, i32 7
  %151 = load i32, ptr %19, align 4, !tbaa !8
  %152 = zext i32 %151 to i64
  %153 = call noundef nonnull align 4 dereferenceable(4) ptr @_ZNSt6vectorIiSaIiEEixEm(ptr noundef nonnull align 8 dereferenceable(24) %150, i64 noundef %152) #3
  %154 = load i32, ptr %153, align 4, !tbaa !8
  %155 = call noundef zeroext i1 @_ZN12Transduction12TransductionIN5NewTt3ManENS1_5ParamEjLj4294967295EE10TryConnectEiib(ptr noundef nonnull align 8 dereferenceable(456) %51, i32 noundef %149, i32 noundef %154, i1 noundef zeroext false)
  br i1 %155, label %165, label %156

156:                                              ; preds = %147
  %157 = call noundef nonnull align 4 dereferenceable(4) ptr @_ZNKSt16reverse_iteratorISt14_List_iteratorIiEEdeEv(ptr noundef nonnull align 8 dereferenceable(8) %7)
  %158 = load i32, ptr %157, align 4, !tbaa !8
  %159 = getelementptr inbounds nuw %"class.Transduction::Transduction.22", ptr %51, i32 0, i32 7
  %160 = load i32, ptr %19, align 4, !tbaa !8
  %161 = zext i32 %160 to i64
  %162 = call noundef nonnull align 4 dereferenceable(4) ptr @_ZNSt6vectorIiSaIiEEixEm(ptr noundef nonnull align 8 dereferenceable(24) %159, i64 noundef %161) #3
  %163 = load i32, ptr %162, align 4, !tbaa !8
  %164 = call noundef zeroext i1 @_ZN12Transduction12TransductionIN5NewTt3ManENS1_5ParamEjLj4294967295EE10TryConnectEiib(ptr noundef nonnull align 8 dereferenceable(456) %51, i32 noundef %158, i32 noundef %163, i1 noundef zeroext true)
  br i1 %164, label %165, label %249

165:                                              ; preds = %156, %147
  %166 = load i32, ptr %5, align 4, !tbaa !8
  %167 = add nsw i32 %166, -1
  store i32 %167, ptr %5, align 4, !tbaa !8
  call void @llvm.lifetime.start.p0(i64 4, ptr %23) #3
  %168 = load i8, ptr %4, align 1, !tbaa !10, !range !12, !noundef !13
  %169 = trunc i8 %168 to i1
  br i1 %169, label %170, label %179

170:                                              ; preds = %165
  call void @_ZN12Transduction12TransductionIN5NewTt3ManENS1_5ParamEjLj4294967295EE5BuildEb(ptr noundef nonnull align 8 dereferenceable(456) %51, i1 noundef zeroext true)
  %171 = call noundef nonnull align 4 dereferenceable(4) ptr @_ZNKSt16reverse_iteratorISt14_List_iteratorIiEEdeEv(ptr noundef nonnull align 8 dereferenceable(8) %7)
  %172 = load i32, ptr %171, align 4, !tbaa !8
  %173 = getelementptr inbounds nuw %"class.Transduction::Transduction.22", ptr %51, i32 0, i32 7
  %174 = load i32, ptr %19, align 4, !tbaa !8
  %175 = zext i32 %174 to i64
  %176 = call noundef nonnull align 4 dereferenceable(4) ptr @_ZNSt6vectorIiSaIiEEixEm(ptr noundef nonnull align 8 dereferenceable(24) %173, i64 noundef %175) #3
  %177 = load i32, ptr %176, align 4, !tbaa !8
  %178 = call noundef i32 @_ZN12Transduction12TransductionIN5NewTt3ManENS1_5ParamEjLj4294967295EE4MspfEbii(ptr noundef nonnull align 8 dereferenceable(456) %51, i1 noundef zeroext true, i32 noundef %172, i32 noundef %177)
  store i32 %178, ptr %23, align 4, !tbaa !8
  br label %198

179:                                              ; preds = %165
  call void @llvm.lifetime.start.p0(i64 16, ptr %24) #3
  %180 = getelementptr inbounds nuw %"class.Transduction::Transduction.22", ptr %51, i32 0, i32 19
  %181 = call noundef nonnull align 4 dereferenceable(4) ptr @_ZNKSt16reverse_iteratorISt14_List_iteratorIiEEdeEv(ptr noundef nonnull align 8 dereferenceable(8) %7)
  %182 = load i32, ptr %181, align 4, !tbaa !8
  %183 = sext i32 %182 to i64
  %184 = call { ptr, i64 } @_ZNSt6vectorIbSaIbEEixEm(ptr noundef nonnull align 8 dereferenceable(40) %180, i64 noundef %183)
  %185 = getelementptr inbounds nuw { ptr, i64 }, ptr %24, i32 0, i32 0
  %186 = extractvalue { ptr, i64 } %184, 0
  store ptr %186, ptr %185, align 8
  %187 = getelementptr inbounds nuw { ptr, i64 }, ptr %24, i32 0, i32 1
  %188 = extractvalue { ptr, i64 } %184, 1
  store i64 %188, ptr %187, align 8
  %189 = call noundef nonnull align 8 dereferenceable(16) ptr @_ZNSt14_Bit_referenceaSEb(ptr noundef nonnull align 8 dereferenceable(16) %24, i1 noundef zeroext true) #3
  call void @llvm.lifetime.end.p0(i64 16, ptr %24) #3
  %190 = call noundef nonnull align 4 dereferenceable(4) ptr @_ZNKSt16reverse_iteratorISt14_List_iteratorIiEEdeEv(ptr noundef nonnull align 8 dereferenceable(8) %7)
  %191 = load i32, ptr %190, align 4, !tbaa !8
  %192 = getelementptr inbounds nuw %"class.Transduction::Transduction.22", ptr %51, i32 0, i32 7
  %193 = load i32, ptr %19, align 4, !tbaa !8
  %194 = zext i32 %193 to i64
  %195 = call noundef nonnull align 4 dereferenceable(4) ptr @_ZNSt6vectorIiSaIiEEixEm(ptr noundef nonnull align 8 dereferenceable(24) %192, i64 noundef %194) #3
  %196 = load i32, ptr %195, align 4, !tbaa !8
  %197 = call noundef i32 @_ZN12Transduction12TransductionIN5NewTt3ManENS1_5ParamEjLj4294967295EE4CspfEbii(ptr noundef nonnull align 8 dereferenceable(456) %51, i1 noundef zeroext true, i32 noundef %191, i32 noundef %196)
  store i32 %197, ptr %23, align 4, !tbaa !8
  br label %198

198:                                              ; preds = %179, %170
  %199 = load i32, ptr %23, align 4, !tbaa !8
  %200 = icmp ne i32 %199, 0
  br i1 %200, label %201, label %246

201:                                              ; preds = %198
  %202 = load i32, ptr %23, align 4, !tbaa !8
  %203 = load i32, ptr %5, align 4, !tbaa !8
  %204 = add nsw i32 %203, %202
  store i32 %204, ptr %5, align 4, !tbaa !8
  %205 = getelementptr inbounds nuw %"class.Transduction::Transduction.22", ptr %51, i32 0, i32 11
  %206 = call noundef nonnull align 4 dereferenceable(4) ptr @_ZNKSt16reverse_iteratorISt14_List_iteratorIiEEdeEv(ptr noundef nonnull align 8 dereferenceable(8) %7)
  %207 = load i32, ptr %206, align 4, !tbaa !8
  %208 = sext i32 %207 to i64
  %209 = call noundef nonnull align 8 dereferenceable(24) ptr @_ZNSt6vectorIS_IiSaIiEESaIS1_EEixEm(ptr noundef nonnull align 8 dereferenceable(24) %205, i64 noundef %208) #3
  %210 = call noundef zeroext i1 @_ZNKSt6vectorIiSaIiEE5emptyEv(ptr noundef nonnull align 8 dereferenceable(24) %209) #3
  br i1 %210, label %232, label %211

211:                                              ; preds = %201
  call void @llvm.lifetime.start.p0(i64 16, ptr %25) #3
  %212 = getelementptr inbounds nuw %"class.Transduction::Transduction.22", ptr %51, i32 0, i32 19
  %213 = call noundef nonnull align 4 dereferenceable(4) ptr @_ZNKSt16reverse_iteratorISt14_List_iteratorIiEEdeEv(ptr noundef nonnull align 8 dereferenceable(8) %7)
  %214 = load i32, ptr %213, align 4, !tbaa !8
  %215 = sext i32 %214 to i64
  %216 = call { ptr, i64 } @_ZNSt6vectorIbSaIbEEixEm(ptr noundef nonnull align 8 dereferenceable(40) %212, i64 noundef %215)
  %217 = getelementptr inbounds nuw { ptr, i64 }, ptr %25, i32 0, i32 0
  %218 = extractvalue { ptr, i64 } %216, 0
  store ptr %218, ptr %217, align 8
  %219 = getelementptr inbounds nuw { ptr, i64 }, ptr %25, i32 0, i32 1
  %220 = extractvalue { ptr, i64 } %216, 1
  store i64 %220, ptr %219, align 8
  %221 = call noundef nonnull align 8 dereferenceable(16) ptr @_ZNSt14_Bit_referenceaSEb(ptr noundef nonnull align 8 dereferenceable(16) %25, i1 noundef zeroext true) #3
  call void @llvm.lifetime.end.p0(i64 16, ptr %25) #3
  %222 = load i8, ptr %4, align 1, !tbaa !10, !range !12, !noundef !13
  %223 = trunc i8 %222 to i1
  br i1 %223, label %224, label %226

224:                                              ; preds = %211
  %225 = call noundef i32 @_ZN12Transduction12TransductionIN5NewTt3ManENS1_5ParamEjLj4294967295EE4MspfEbii(ptr noundef nonnull align 8 dereferenceable(456) %51, i1 noundef zeroext true, i32 noundef -1, i32 noundef -1)
  br label %228

226:                                              ; preds = %211
  %227 = call noundef i32 @_ZN12Transduction12TransductionIN5NewTt3ManENS1_5ParamEjLj4294967295EE4CspfEbii(ptr noundef nonnull align 8 dereferenceable(456) %51, i1 noundef zeroext true, i32 noundef -1, i32 noundef -1)
  br label %228

228:                                              ; preds = %226, %224
  %229 = phi i32 [ %225, %224 ], [ %227, %226 ]
  %230 = load i32, ptr %5, align 4, !tbaa !8
  %231 = add nsw i32 %230, %229
  store i32 %231, ptr %5, align 4, !tbaa !8
  br label %232

232:                                              ; preds = %228, %201
  %233 = getelementptr inbounds nuw %"class.Transduction::Transduction.22", ptr %51, i32 0, i32 3
  %234 = load i8, ptr %233, align 8, !tbaa !132, !range !12, !noundef !13
  %235 = trunc i8 %234 to i1
  br i1 %235, label %236, label %243

236:                                              ; preds = %232
  %237 = call noundef i32 @_ZNK12Transduction12TransductionIN5NewTt3ManENS1_5ParamEjLj4294967295EE11CountLevelsEv(ptr noundef nonnull align 8 dereferenceable(456) %51)
  %238 = getelementptr inbounds nuw %"class.Transduction::Transduction.22", ptr %51, i32 0, i32 5
  %239 = load i32, ptr %238, align 8, !tbaa !139
  %240 = icmp sgt i32 %237, %239
  br i1 %240, label %241, label %243

241:                                              ; preds = %236
  call void @_ZN12Transduction12TransductionIN5NewTt3ManENS1_5ParamEjLj4294967295EE4LoadERKNS_18TransductionBackupIS2_jLj4294967295EEE(ptr noundef nonnull align 8 dereferenceable(456) %51, ptr noundef nonnull align 8 dereferenceable(352) %17)
  %242 = load i32, ptr %18, align 4, !tbaa !8
  store i32 %242, ptr %5, align 4, !tbaa !8
  br label %245

243:                                              ; preds = %236, %232
  call void @_ZNK12Transduction12TransductionIN5NewTt3ManENS1_5ParamEjLj4294967295EE4SaveERNS_18TransductionBackupIS2_jLj4294967295EEE(ptr noundef nonnull align 8 dereferenceable(456) %51, ptr noundef nonnull align 8 dereferenceable(352) %17)
  %244 = load i32, ptr %5, align 4, !tbaa !8
  store i32 %244, ptr %18, align 4, !tbaa !8
  br label %245

245:                                              ; preds = %243, %241
  br label %248

246:                                              ; preds = %198
  call void @_ZN12Transduction12TransductionIN5NewTt3ManENS1_5ParamEjLj4294967295EE4LoadERKNS_18TransductionBackupIS2_jLj4294967295EEE(ptr noundef nonnull align 8 dereferenceable(456) %51, ptr noundef nonnull align 8 dereferenceable(352) %17)
  %247 = load i32, ptr %18, align 4, !tbaa !8
  store i32 %247, ptr %5, align 4, !tbaa !8
  br label %248

248:                                              ; preds = %246, %245
  call void @llvm.lifetime.end.p0(i64 4, ptr %23) #3
  br label %249

249:                                              ; preds = %248, %156
  br label %250

250:                                              ; preds = %249
  %251 = load i32, ptr %19, align 4, !tbaa !8
  %252 = add i32 %251, 1
  store i32 %252, ptr %19, align 4, !tbaa !8
  br label %115, !llvm.loop !149

253:                                              ; preds = %129, %121
  call void @llvm.lifetime.end.p0(i64 4, ptr %19) #3
  br label %254

254:                                              ; preds = %253
  %255 = getelementptr inbounds nuw %"class.Transduction::Transduction.22", ptr %51, i32 0, i32 11
  %256 = call noundef nonnull align 4 dereferenceable(4) ptr @_ZNKSt16reverse_iteratorISt14_List_iteratorIiEEdeEv(ptr noundef nonnull align 8 dereferenceable(8) %7)
  %257 = load i32, ptr %256, align 4, !tbaa !8
  %258 = sext i32 %257 to i64
  %259 = call noundef nonnull align 8 dereferenceable(24) ptr @_ZNSt6vectorIS_IiSaIiEESaIS1_EEixEm(ptr noundef nonnull align 8 dereferenceable(24) %255, i64 noundef %258) #3
  %260 = call noundef zeroext i1 @_ZNKSt6vectorIiSaIiEE5emptyEv(ptr noundef nonnull align 8 dereferenceable(24) %259) #3
  br i1 %260, label %261, label %262

261:                                              ; preds = %254
  store i32 4, ptr %9, align 4
  br label %497

262:                                              ; preds = %254
  call void @llvm.lifetime.start.p0(i64 40, ptr %26) #3
  %263 = getelementptr inbounds nuw %"class.Transduction::Transduction.22", ptr %51, i32 0, i32 4
  %264 = load i32, ptr %263, align 4, !tbaa !146
  %265 = sext i32 %264 to i64
  call void @llvm.lifetime.start.p0(i64 1, ptr %27) #3
  call void @_ZNSaIbEC2Ev(ptr noundef nonnull align 1 dereferenceable(1) %27) #3
  call void @_ZNSt6vectorIbSaIbEEC2EmRKS0_(ptr noundef nonnull align 8 dereferenceable(40) %26, i64 noundef %265, ptr noundef nonnull align 1 dereferenceable(1) %27)
  call void @_ZNSt15__new_allocatorIbED2Ev(ptr noundef nonnull align 1 dereferenceable(1) %27) #3
  call void @llvm.lifetime.end.p0(i64 1, ptr %27) #3
  %266 = call noundef nonnull align 4 dereferenceable(4) ptr @_ZNKSt16reverse_iteratorISt14_List_iteratorIiEEdeEv(ptr noundef nonnull align 8 dereferenceable(8) %7)
  %267 = load i32, ptr %266, align 4, !tbaa !8
  call void @_ZNK12Transduction12TransductionIN5NewTt3ManENS1_5ParamEjLj4294967295EE14MarkFoCone_recERSt6vectorIbSaIbEEi(ptr noundef nonnull align 8 dereferenceable(456) %51, ptr noundef nonnull align 8 dereferenceable(40) %26, i32 noundef %267)
  call void @llvm.lifetime.start.p0(i64 24, ptr %28) #3
  %268 = getelementptr inbounds nuw %"class.Transduction::Transduction.22", ptr %51, i32 0, i32 9
  call void @_ZNSt7__cxx114listIiSaIiEEC2ERKS2_(ptr noundef nonnull align 8 dereferenceable(24) %28, ptr noundef nonnull align 8 dereferenceable(24) %268)
  call void @llvm.lifetime.start.p0(i64 8, ptr %29) #3
  %269 = call ptr @_ZNSt7__cxx114listIiSaIiEE5beginEv(ptr noundef nonnull align 8 dereferenceable(24) %28) #3
  %270 = getelementptr inbounds nuw %"struct.std::_List_iterator", ptr %29, i32 0, i32 0
  store ptr %269, ptr %270, align 8
  br label %271

271:                                              ; preds = %438, %262
  call void @llvm.lifetime.start.p0(i64 8, ptr %30) #3
  %272 = call ptr @_ZNSt7__cxx114listIiSaIiEE3endEv(ptr noundef nonnull align 8 dereferenceable(24) %28) #3
  %273 = getelementptr inbounds nuw %"struct.std::_List_iterator", ptr %30, i32 0, i32 0
  store ptr %272, ptr %273, align 8
  %274 = call noundef zeroext i1 @_ZStneRKSt14_List_iteratorIiES2_(ptr noundef nonnull align 8 dereferenceable(8) %29, ptr noundef nonnull align 8 dereferenceable(8) %30) #3
  call void @llvm.lifetime.end.p0(i64 8, ptr %30) #3
  br i1 %274, label %276, label %275

275:                                              ; preds = %271
  store i32 8, ptr %9, align 4
  br label %441

276:                                              ; preds = %271
  %277 = getelementptr inbounds nuw %"class.Transduction::Transduction.22", ptr %51, i32 0, i32 11
  %278 = call noundef nonnull align 4 dereferenceable(4) ptr @_ZNKSt16reverse_iteratorISt14_List_iteratorIiEEdeEv(ptr noundef nonnull align 8 dereferenceable(8) %7)
  %279 = load i32, ptr %278, align 4, !tbaa !8
  %280 = sext i32 %279 to i64
  %281 = call noundef nonnull align 8 dereferenceable(24) ptr @_ZNSt6vectorIS_IiSaIiEESaIS1_EEixEm(ptr noundef nonnull align 8 dereferenceable(24) %277, i64 noundef %280) #3
  %282 = call noundef zeroext i1 @_ZNKSt6vectorIiSaIiEE5emptyEv(ptr noundef nonnull align 8 dereferenceable(24) %281) #3
  br i1 %282, label %283, label %284

283:                                              ; preds = %276
  store i32 8, ptr %9, align 4
  br label %441

284:                                              ; preds = %276
  %285 = getelementptr inbounds nuw %"class.Transduction::Transduction.22", ptr %51, i32 0, i32 1
  %286 = load i32, ptr %285, align 8, !tbaa !127
  %287 = icmp sgt i32 %286, 2
  br i1 %287, label %288, label %326

288:                                              ; preds = %284
  call void @llvm.lifetime.start.p0(i64 392, ptr %31) #3
  call void @_ZNSt7__cxx1118basic_stringstreamIcSt11char_traitsIcESaIcEEC1Ev(ptr noundef nonnull align 8 dereferenceable(128) %31)
  %289 = getelementptr inbounds i8, ptr %31, i64 16
  %290 = call noundef nonnull align 8 dereferenceable(8) ptr @_ZStlsISt11char_traitsIcEERSt13basic_ostreamIcT_ES5_PKc(ptr noundef nonnull align 8 dereferenceable(8) %289, ptr noundef @.str.113)
  %291 = call i32 @_ZSt4setwi(i32 noundef 5)
  %292 = getelementptr inbounds nuw %"struct.std::_Setw", ptr %32, i32 0, i32 0
  store i32 %291, ptr %292, align 4
  %293 = getelementptr inbounds nuw %"struct.std::_Setw", ptr %32, i32 0, i32 0
  %294 = load i32, ptr %293, align 4
  %295 = call noundef nonnull align 8 dereferenceable(8) ptr @_ZStlsIcSt11char_traitsIcEERSt13basic_ostreamIT_T0_ES6_St5_Setw(ptr noundef nonnull align 8 dereferenceable(8) %290, i32 %294)
  %296 = call noundef nonnull align 4 dereferenceable(4) ptr @_ZNKSt14_List_iteratorIiEdeEv(ptr noundef nonnull align 8 dereferenceable(8) %29) #3
  %297 = load i32, ptr %296, align 4, !tbaa !8
  %298 = call noundef nonnull align 8 dereferenceable(8) ptr @_ZNSolsEi(ptr noundef nonnull align 8 dereferenceable(8) %295, i32 noundef %297)
  %299 = call noundef nonnull align 8 dereferenceable(8) ptr @_ZStlsISt11char_traitsIcEERSt13basic_ostreamIcT_ES5_PKc(ptr noundef nonnull align 8 dereferenceable(8) %298, ptr noundef @.str.87)
  %300 = call i32 @_ZSt4setwi(i32 noundef 5)
  %301 = getelementptr inbounds nuw %"struct.std::_Setw", ptr %33, i32 0, i32 0
  store i32 %300, ptr %301, align 4
  %302 = getelementptr inbounds nuw %"struct.std::_Setw", ptr %33, i32 0, i32 0
  %303 = load i32, ptr %302, align 4
  %304 = call noundef nonnull align 8 dereferenceable(8) ptr @_ZStlsIcSt11char_traitsIcEERSt13basic_ostreamIT_T0_ES6_St5_Setw(ptr noundef nonnull align 8 dereferenceable(8) %299, i32 %303)
  %305 = call ptr @_ZNSt7__cxx114listIiSaIiEE5beginEv(ptr noundef nonnull align 8 dereferenceable(24) %28) #3
  %306 = getelementptr inbounds nuw %"struct.std::_List_iterator", ptr %34, i32 0, i32 0
  store ptr %305, ptr %306, align 8
  call void @llvm.memcpy.p0.p0.i64(ptr align 8 %35, ptr align 8 %29, i64 8, i1 false), !tbaa.struct !94
  %307 = getelementptr inbounds nuw %"struct.std::_List_iterator", ptr %34, i32 0, i32 0
  %308 = load ptr, ptr %307, align 8
  %309 = getelementptr inbounds nuw %"struct.std::_List_iterator", ptr %35, i32 0, i32 0
  %310 = load ptr, ptr %309, align 8
  %311 = call noundef i64 @_ZSt8distanceISt14_List_iteratorIiEENSt15iterator_traitsIT_E15difference_typeES3_S3_(ptr %308, ptr %310)
  %312 = add nsw i64 %311, 1
  %313 = call noundef nonnull align 8 dereferenceable(8) ptr @_ZNSolsEl(ptr noundef nonnull align 8 dereferenceable(8) %304, i64 noundef %312)
  %314 = call noundef nonnull align 8 dereferenceable(8) ptr @_ZStlsISt11char_traitsIcEERSt13basic_ostreamIcT_ES5_PKc(ptr noundef nonnull align 8 dereferenceable(8) %313, ptr noundef @.str.88)
  %315 = call i32 @_ZSt4setwi(i32 noundef 5)
  %316 = getelementptr inbounds nuw %"struct.std::_Setw", ptr %36, i32 0, i32 0
  store i32 %315, ptr %316, align 4
  %317 = getelementptr inbounds nuw %"struct.std::_Setw", ptr %36, i32 0, i32 0
  %318 = load i32, ptr %317, align 4
  %319 = call noundef nonnull align 8 dereferenceable(8) ptr @_ZStlsIcSt11char_traitsIcEERSt13basic_ostreamIT_T0_ES6_St5_Setw(ptr noundef nonnull align 8 dereferenceable(8) %314, i32 %318)
  %320 = call noundef i64 @_ZNKSt7__cxx114listIiSaIiEE4sizeEv(ptr noundef nonnull align 8 dereferenceable(24) %28) #3
  %321 = call noundef nonnull align 8 dereferenceable(8) ptr @_ZNSolsEm(ptr noundef nonnull align 8 dereferenceable(8) %319, i64 noundef %320)
  %322 = call noundef nonnull align 8 dereferenceable(8) ptr @_ZStlsISt11char_traitsIcEERSt13basic_ostreamIcT_ES5_PKc(ptr noundef nonnull align 8 dereferenceable(8) %321, ptr noundef @.str.37)
  call void @_ZNKSt7__cxx1118basic_stringstreamIcSt11char_traitsIcESaIcEE3strEv(ptr dead_on_unwind writable sret(%"class.std::__cxx11::basic_string") align 8 %37, ptr noundef nonnull align 8 dereferenceable(128) %31)
  %323 = getelementptr inbounds nuw %"class.Transduction::Transduction.22", ptr %51, i32 0, i32 1
  %324 = load i32, ptr %323, align 8, !tbaa !127
  %325 = icmp sgt i32 %324, 3
  call void @_ZNK12Transduction12TransductionIN5NewTt3ManENS1_5ParamEjLj4294967295EE10PrintStatsENSt7__cxx1112basic_stringIcSt11char_traitsIcESaIcEEEbi(ptr noundef nonnull align 8 dereferenceable(456) %51, ptr noundef %37, i1 noundef zeroext %325, i32 noundef 0)
  call void @_ZNSt7__cxx1112basic_stringIcSt11char_traitsIcESaIcEED2Ev(ptr noundef nonnull align 8 dereferenceable(32) %37) #3
  call void @_ZNSt7__cxx1118basic_stringstreamIcSt11char_traitsIcESaIcEED1Ev(ptr noundef nonnull align 8 dereferenceable(128) %31) #3
  call void @llvm.lifetime.end.p0(i64 392, ptr %31) #3
  br label %326

326:                                              ; preds = %288, %284
  call void @llvm.lifetime.start.p0(i64 16, ptr %38) #3
  %327 = call noundef nonnull align 4 dereferenceable(4) ptr @_ZNKSt14_List_iteratorIiEdeEv(ptr noundef nonnull align 8 dereferenceable(8) %29) #3
  %328 = load i32, ptr %327, align 4, !tbaa !8
  %329 = sext i32 %328 to i64
  %330 = call { ptr, i64 } @_ZNSt6vectorIbSaIbEEixEm(ptr noundef nonnull align 8 dereferenceable(40) %26, i64 noundef %329)
  %331 = getelementptr inbounds nuw { ptr, i64 }, ptr %38, i32 0, i32 0
  %332 = extractvalue { ptr, i64 } %330, 0
  store ptr %332, ptr %331, align 8
  %333 = getelementptr inbounds nuw { ptr, i64 }, ptr %38, i32 0, i32 1
  %334 = extractvalue { ptr, i64 } %330, 1
  store i64 %334, ptr %333, align 8
  %335 = call noundef zeroext i1 @_ZNKSt14_Bit_referencecvbEv(ptr noundef nonnull align 8 dereferenceable(16) %38) #3
  br i1 %335, label %344, label %336

336:                                              ; preds = %326
  %337 = getelementptr inbounds nuw %"class.Transduction::Transduction.22", ptr %51, i32 0, i32 11
  %338 = call noundef nonnull align 4 dereferenceable(4) ptr @_ZNKSt14_List_iteratorIiEdeEv(ptr noundef nonnull align 8 dereferenceable(8) %29) #3
  %339 = load i32, ptr %338, align 4, !tbaa !8
  %340 = sext i32 %339 to i64
  %341 = call noundef nonnull align 8 dereferenceable(24) ptr @_ZNSt6vectorIS_IiSaIiEESaIS1_EEixEm(ptr noundef nonnull align 8 dereferenceable(24) %337, i64 noundef %340) #3
  %342 = call noundef zeroext i1 @_ZNKSt6vectorIiSaIiEE5emptyEv(ptr noundef nonnull align 8 dereferenceable(24) %341) #3
  %343 = xor i1 %342, true
  br label %344

344:                                              ; preds = %336, %326
  %345 = phi i1 [ false, %326 ], [ %343, %336 ]
  call void @llvm.lifetime.end.p0(i64 16, ptr %38) #3
  br i1 %345, label %346, label %437

346:                                              ; preds = %344
  %347 = call noundef nonnull align 4 dereferenceable(4) ptr @_ZNKSt16reverse_iteratorISt14_List_iteratorIiEEdeEv(ptr noundef nonnull align 8 dereferenceable(8) %7)
  %348 = load i32, ptr %347, align 4, !tbaa !8
  %349 = call noundef nonnull align 4 dereferenceable(4) ptr @_ZNKSt14_List_iteratorIiEdeEv(ptr noundef nonnull align 8 dereferenceable(8) %29) #3
  %350 = load i32, ptr %349, align 4, !tbaa !8
  %351 = call noundef zeroext i1 @_ZN12Transduction12TransductionIN5NewTt3ManENS1_5ParamEjLj4294967295EE10TryConnectEiib(ptr noundef nonnull align 8 dereferenceable(456) %51, i32 noundef %348, i32 noundef %350, i1 noundef zeroext false)
  br i1 %351, label %358, label %352

352:                                              ; preds = %346
  %353 = call noundef nonnull align 4 dereferenceable(4) ptr @_ZNKSt16reverse_iteratorISt14_List_iteratorIiEEdeEv(ptr noundef nonnull align 8 dereferenceable(8) %7)
  %354 = load i32, ptr %353, align 4, !tbaa !8
  %355 = call noundef nonnull align 4 dereferenceable(4) ptr @_ZNKSt14_List_iteratorIiEdeEv(ptr noundef nonnull align 8 dereferenceable(8) %29) #3
  %356 = load i32, ptr %355, align 4, !tbaa !8
  %357 = call noundef zeroext i1 @_ZN12Transduction12TransductionIN5NewTt3ManENS1_5ParamEjLj4294967295EE10TryConnectEiib(ptr noundef nonnull align 8 dereferenceable(456) %51, i32 noundef %354, i32 noundef %356, i1 noundef zeroext true)
  br i1 %357, label %358, label %436

358:                                              ; preds = %352, %346
  %359 = load i32, ptr %5, align 4, !tbaa !8
  %360 = add nsw i32 %359, -1
  store i32 %360, ptr %5, align 4, !tbaa !8
  call void @llvm.lifetime.start.p0(i64 4, ptr %39) #3
  %361 = load i8, ptr %4, align 1, !tbaa !10, !range !12, !noundef !13
  %362 = trunc i8 %361 to i1
  br i1 %362, label %363, label %369

363:                                              ; preds = %358
  call void @_ZN12Transduction12TransductionIN5NewTt3ManENS1_5ParamEjLj4294967295EE5BuildEb(ptr noundef nonnull align 8 dereferenceable(456) %51, i1 noundef zeroext true)
  %364 = call noundef nonnull align 4 dereferenceable(4) ptr @_ZNKSt16reverse_iteratorISt14_List_iteratorIiEEdeEv(ptr noundef nonnull align 8 dereferenceable(8) %7)
  %365 = load i32, ptr %364, align 4, !tbaa !8
  %366 = call noundef nonnull align 4 dereferenceable(4) ptr @_ZNKSt14_List_iteratorIiEdeEv(ptr noundef nonnull align 8 dereferenceable(8) %29) #3
  %367 = load i32, ptr %366, align 4, !tbaa !8
  %368 = call noundef i32 @_ZN12Transduction12TransductionIN5NewTt3ManENS1_5ParamEjLj4294967295EE4MspfEbii(ptr noundef nonnull align 8 dereferenceable(456) %51, i1 noundef zeroext true, i32 noundef %365, i32 noundef %367)
  store i32 %368, ptr %39, align 4, !tbaa !8
  br label %385

369:                                              ; preds = %358
  call void @llvm.lifetime.start.p0(i64 16, ptr %40) #3
  %370 = getelementptr inbounds nuw %"class.Transduction::Transduction.22", ptr %51, i32 0, i32 19
  %371 = call noundef nonnull align 4 dereferenceable(4) ptr @_ZNKSt16reverse_iteratorISt14_List_iteratorIiEEdeEv(ptr noundef nonnull align 8 dereferenceable(8) %7)
  %372 = load i32, ptr %371, align 4, !tbaa !8
  %373 = sext i32 %372 to i64
  %374 = call { ptr, i64 } @_ZNSt6vectorIbSaIbEEixEm(ptr noundef nonnull align 8 dereferenceable(40) %370, i64 noundef %373)
  %375 = getelementptr inbounds nuw { ptr, i64 }, ptr %40, i32 0, i32 0
  %376 = extractvalue { ptr, i64 } %374, 0
  store ptr %376, ptr %375, align 8
  %377 = getelementptr inbounds nuw { ptr, i64 }, ptr %40, i32 0, i32 1
  %378 = extractvalue { ptr, i64 } %374, 1
  store i64 %378, ptr %377, align 8
  %379 = call noundef nonnull align 8 dereferenceable(16) ptr @_ZNSt14_Bit_referenceaSEb(ptr noundef nonnull align 8 dereferenceable(16) %40, i1 noundef zeroext true) #3
  call void @llvm.lifetime.end.p0(i64 16, ptr %40) #3
  %380 = call noundef nonnull align 4 dereferenceable(4) ptr @_ZNKSt16reverse_iteratorISt14_List_iteratorIiEEdeEv(ptr noundef nonnull align 8 dereferenceable(8) %7)
  %381 = load i32, ptr %380, align 4, !tbaa !8
  %382 = call noundef nonnull align 4 dereferenceable(4) ptr @_ZNKSt14_List_iteratorIiEdeEv(ptr noundef nonnull align 8 dereferenceable(8) %29) #3
  %383 = load i32, ptr %382, align 4, !tbaa !8
  %384 = call noundef i32 @_ZN12Transduction12TransductionIN5NewTt3ManENS1_5ParamEjLj4294967295EE4CspfEbii(ptr noundef nonnull align 8 dereferenceable(456) %51, i1 noundef zeroext true, i32 noundef %381, i32 noundef %383)
  store i32 %384, ptr %39, align 4, !tbaa !8
  br label %385

385:                                              ; preds = %369, %363
  %386 = load i32, ptr %39, align 4, !tbaa !8
  %387 = icmp ne i32 %386, 0
  br i1 %387, label %388, label %433

388:                                              ; preds = %385
  %389 = load i32, ptr %39, align 4, !tbaa !8
  %390 = load i32, ptr %5, align 4, !tbaa !8
  %391 = add nsw i32 %390, %389
  store i32 %391, ptr %5, align 4, !tbaa !8
  %392 = getelementptr inbounds nuw %"class.Transduction::Transduction.22", ptr %51, i32 0, i32 11
  %393 = call noundef nonnull align 4 dereferenceable(4) ptr @_ZNKSt16reverse_iteratorISt14_List_iteratorIiEEdeEv(ptr noundef nonnull align 8 dereferenceable(8) %7)
  %394 = load i32, ptr %393, align 4, !tbaa !8
  %395 = sext i32 %394 to i64
  %396 = call noundef nonnull align 8 dereferenceable(24) ptr @_ZNSt6vectorIS_IiSaIiEESaIS1_EEixEm(ptr noundef nonnull align 8 dereferenceable(24) %392, i64 noundef %395) #3
  %397 = call noundef zeroext i1 @_ZNKSt6vectorIiSaIiEE5emptyEv(ptr noundef nonnull align 8 dereferenceable(24) %396) #3
  br i1 %397, label %419, label %398

398:                                              ; preds = %388
  call void @llvm.lifetime.start.p0(i64 16, ptr %41) #3
  %399 = getelementptr inbounds nuw %"class.Transduction::Transduction.22", ptr %51, i32 0, i32 19
  %400 = call noundef nonnull align 4 dereferenceable(4) ptr @_ZNKSt16reverse_iteratorISt14_List_iteratorIiEEdeEv(ptr noundef nonnull align 8 dereferenceable(8) %7)
  %401 = load i32, ptr %400, align 4, !tbaa !8
  %402 = sext i32 %401 to i64
  %403 = call { ptr, i64 } @_ZNSt6vectorIbSaIbEEixEm(ptr noundef nonnull align 8 dereferenceable(40) %399, i64 noundef %402)
  %404 = getelementptr inbounds nuw { ptr, i64 }, ptr %41, i32 0, i32 0
  %405 = extractvalue { ptr, i64 } %403, 0
  store ptr %405, ptr %404, align 8
  %406 = getelementptr inbounds nuw { ptr, i64 }, ptr %41, i32 0, i32 1
  %407 = extractvalue { ptr, i64 } %403, 1
  store i64 %407, ptr %406, align 8
  %408 = call noundef nonnull align 8 dereferenceable(16) ptr @_ZNSt14_Bit_referenceaSEb(ptr noundef nonnull align 8 dereferenceable(16) %41, i1 noundef zeroext true) #3
  call void @llvm.lifetime.end.p0(i64 16, ptr %41) #3
  %409 = load i8, ptr %4, align 1, !tbaa !10, !range !12, !noundef !13
  %410 = trunc i8 %409 to i1
  br i1 %410, label %411, label %413

411:                                              ; preds = %398
  %412 = call noundef i32 @_ZN12Transduction12TransductionIN5NewTt3ManENS1_5ParamEjLj4294967295EE4MspfEbii(ptr noundef nonnull align 8 dereferenceable(456) %51, i1 noundef zeroext true, i32 noundef -1, i32 noundef -1)
  br label %415

413:                                              ; preds = %398
  %414 = call noundef i32 @_ZN12Transduction12TransductionIN5NewTt3ManENS1_5ParamEjLj4294967295EE4CspfEbii(ptr noundef nonnull align 8 dereferenceable(456) %51, i1 noundef zeroext true, i32 noundef -1, i32 noundef -1)
  br label %415

415:                                              ; preds = %413, %411
  %416 = phi i32 [ %412, %411 ], [ %414, %413 ]
  %417 = load i32, ptr %5, align 4, !tbaa !8
  %418 = add nsw i32 %417, %416
  store i32 %418, ptr %5, align 4, !tbaa !8
  br label %419

419:                                              ; preds = %415, %388
  %420 = getelementptr inbounds nuw %"class.Transduction::Transduction.22", ptr %51, i32 0, i32 3
  %421 = load i8, ptr %420, align 8, !tbaa !132, !range !12, !noundef !13
  %422 = trunc i8 %421 to i1
  br i1 %422, label %423, label %430

423:                                              ; preds = %419
  %424 = call noundef i32 @_ZNK12Transduction12TransductionIN5NewTt3ManENS1_5ParamEjLj4294967295EE11CountLevelsEv(ptr noundef nonnull align 8 dereferenceable(456) %51)
  %425 = getelementptr inbounds nuw %"class.Transduction::Transduction.22", ptr %51, i32 0, i32 5
  %426 = load i32, ptr %425, align 8, !tbaa !139
  %427 = icmp sgt i32 %424, %426
  br i1 %427, label %428, label %430

428:                                              ; preds = %423
  call void @_ZN12Transduction12TransductionIN5NewTt3ManENS1_5ParamEjLj4294967295EE4LoadERKNS_18TransductionBackupIS2_jLj4294967295EEE(ptr noundef nonnull align 8 dereferenceable(456) %51, ptr noundef nonnull align 8 dereferenceable(352) %17)
  %429 = load i32, ptr %18, align 4, !tbaa !8
  store i32 %429, ptr %5, align 4, !tbaa !8
  br label %432

430:                                              ; preds = %423, %419
  call void @_ZNK12Transduction12TransductionIN5NewTt3ManENS1_5ParamEjLj4294967295EE4SaveERNS_18TransductionBackupIS2_jLj4294967295EEE(ptr noundef nonnull align 8 dereferenceable(456) %51, ptr noundef nonnull align 8 dereferenceable(352) %17)
  %431 = load i32, ptr %5, align 4, !tbaa !8
  store i32 %431, ptr %18, align 4, !tbaa !8
  br label %432

432:                                              ; preds = %430, %428
  br label %435

433:                                              ; preds = %385
  call void @_ZN12Transduction12TransductionIN5NewTt3ManENS1_5ParamEjLj4294967295EE4LoadERKNS_18TransductionBackupIS2_jLj4294967295EEE(ptr noundef nonnull align 8 dereferenceable(456) %51, ptr noundef nonnull align 8 dereferenceable(352) %17)
  %434 = load i32, ptr %18, align 4, !tbaa !8
  store i32 %434, ptr %5, align 4, !tbaa !8
  br label %435

435:                                              ; preds = %433, %432
  call void @llvm.lifetime.end.p0(i64 4, ptr %39) #3
  br label %436

436:                                              ; preds = %435, %352
  br label %437

437:                                              ; preds = %436, %344
  br label %438

438:                                              ; preds = %437
  %439 = call ptr @_ZNSt14_List_iteratorIiEppEi(ptr noundef nonnull align 8 dereferenceable(8) %29, i32 noundef 0) #3
  %440 = getelementptr inbounds nuw %"struct.std::_List_iterator", ptr %42, i32 0, i32 0
  store ptr %439, ptr %440, align 8
  br label %271, !llvm.loop !150

441:                                              ; preds = %283, %275
  call void @llvm.lifetime.end.p0(i64 8, ptr %29) #3
  br label %442

442:                                              ; preds = %441
  %443 = getelementptr inbounds nuw %"class.Transduction::Transduction.22", ptr %51, i32 0, i32 11
  %444 = call noundef nonnull align 4 dereferenceable(4) ptr @_ZNKSt16reverse_iteratorISt14_List_iteratorIiEEdeEv(ptr noundef nonnull align 8 dereferenceable(8) %7)
  %445 = load i32, ptr %444, align 4, !tbaa !8
  %446 = sext i32 %445 to i64
  %447 = call noundef nonnull align 8 dereferenceable(24) ptr @_ZNSt6vectorIS_IiSaIiEESaIS1_EEixEm(ptr noundef nonnull align 8 dereferenceable(24) %443, i64 noundef %446) #3
  %448 = call noundef zeroext i1 @_ZNKSt6vectorIiSaIiEE5emptyEv(ptr noundef nonnull align 8 dereferenceable(24) %447) #3
  br i1 %448, label %449, label %450

449:                                              ; preds = %442
  store i32 4, ptr %9, align 4
  br label %496

450:                                              ; preds = %442
  %451 = getelementptr inbounds nuw %"class.Transduction::Transduction.22", ptr %51, i32 0, i32 10
  %452 = call noundef nonnull align 4 dereferenceable(4) ptr @_ZNKSt16reverse_iteratorISt14_List_iteratorIiEEdeEv(ptr noundef nonnull align 8 dereferenceable(8) %7)
  %453 = load i32, ptr %452, align 4, !tbaa !8
  %454 = sext i32 %453 to i64
  %455 = call noundef nonnull align 8 dereferenceable(24) ptr @_ZNSt6vectorIS_IiSaIiEESaIS1_EEixEm(ptr noundef nonnull align 8 dereferenceable(24) %451, i64 noundef %454) #3
  %456 = call noundef i64 @_ZNKSt6vectorIiSaIiEE4sizeEv(ptr noundef nonnull align 8 dereferenceable(24) %455) #3
  %457 = icmp ugt i64 %456, 2
  br i1 %457, label %458, label %495

458:                                              ; preds = %450
  call void @llvm.lifetime.start.p0(i64 8, ptr %43) #3
  %459 = getelementptr inbounds nuw %"class.Transduction::Transduction.22", ptr %51, i32 0, i32 9
  %460 = call ptr @_ZNSt7__cxx114listIiSaIiEE5beginEv(ptr noundef nonnull align 8 dereferenceable(24) %459) #3
  %461 = getelementptr inbounds nuw %"struct.std::_List_iterator", ptr %44, i32 0, i32 0
  store ptr %460, ptr %461, align 8
  %462 = getelementptr inbounds nuw %"class.Transduction::Transduction.22", ptr %51, i32 0, i32 9
  %463 = call ptr @_ZNSt7__cxx114listIiSaIiEE3endEv(ptr noundef nonnull align 8 dereferenceable(24) %462) #3
  %464 = getelementptr inbounds nuw %"struct.std::_List_iterator", ptr %45, i32 0, i32 0
  store ptr %463, ptr %464, align 8
  %465 = call noundef nonnull align 4 dereferenceable(4) ptr @_ZNKSt16reverse_iteratorISt14_List_iteratorIiEEdeEv(ptr noundef nonnull align 8 dereferenceable(8) %7)
  %466 = getelementptr inbounds nuw %"struct.std::_List_iterator", ptr %44, i32 0, i32 0
  %467 = load ptr, ptr %466, align 8
  %468 = getelementptr inbounds nuw %"struct.std::_List_iterator", ptr %45, i32 0, i32 0
  %469 = load ptr, ptr %468, align 8
  %470 = call ptr @_ZSt4findISt14_List_iteratorIiEiET_S2_S2_RKT0_(ptr %467, ptr %469, ptr noundef nonnull align 4 dereferenceable(4) %465)
  %471 = getelementptr inbounds nuw %"struct.std::_List_iterator", ptr %43, i32 0, i32 0
  store ptr %470, ptr %471, align 8
  call void @llvm.lifetime.start.p0(i64 4, ptr %46) #3
  %472 = getelementptr inbounds nuw %"class.Transduction::Transduction.22", ptr %51, i32 0, i32 4
  %473 = load i32, ptr %472, align 4, !tbaa !146
  store i32 %473, ptr %46, align 4, !tbaa !8
  %474 = getelementptr inbounds nuw %"class.Transduction::Transduction.22", ptr %51, i32 0, i32 3
  %475 = load i8, ptr %474, align 8, !tbaa !132, !range !12, !noundef !13
  %476 = trunc i8 %475 to i1
  br i1 %476, label %477, label %490

477:                                              ; preds = %458
  %478 = call noundef i32 @_ZN12Transduction12TransductionIN5NewTt3ManENS1_5ParamEjLj4294967295EE20BalancedDecomposeOneERKSt14_List_iteratorIiERi(ptr noundef nonnull align 8 dereferenceable(456) %51, ptr noundef nonnull align 8 dereferenceable(8) %43, ptr noundef nonnull align 4 dereferenceable(4) %46)
  %479 = load i8, ptr %4, align 1, !tbaa !10, !range !12, !noundef !13
  %480 = trunc i8 %479 to i1
  br i1 %480, label %481, label %483

481:                                              ; preds = %477
  %482 = call noundef i32 @_ZN12Transduction12TransductionIN5NewTt3ManENS1_5ParamEjLj4294967295EE4MspfEbii(ptr noundef nonnull align 8 dereferenceable(456) %51, i1 noundef zeroext true, i32 noundef -1, i32 noundef -1)
  br label %485

483:                                              ; preds = %477
  %484 = call noundef i32 @_ZN12Transduction12TransductionIN5NewTt3ManENS1_5ParamEjLj4294967295EE4CspfEbii(ptr noundef nonnull align 8 dereferenceable(456) %51, i1 noundef zeroext true, i32 noundef -1, i32 noundef -1)
  br label %485

485:                                              ; preds = %483, %481
  %486 = phi i32 [ %482, %481 ], [ %484, %483 ]
  %487 = add nsw i32 %478, %486
  %488 = load i32, ptr %5, align 4, !tbaa !8
  %489 = add nsw i32 %488, %487
  store i32 %489, ptr %5, align 4, !tbaa !8
  br label %494

490:                                              ; preds = %458
  %491 = call noundef i32 @_ZN12Transduction12TransductionIN5NewTt3ManENS1_5ParamEjLj4294967295EE19TrivialDecomposeOneERKSt14_List_iteratorIiERi(ptr noundef nonnull align 8 dereferenceable(456) %51, ptr noundef nonnull align 8 dereferenceable(8) %43, ptr noundef nonnull align 4 dereferenceable(4) %46)
  %492 = load i32, ptr %5, align 4, !tbaa !8
  %493 = add nsw i32 %492, %491
  store i32 %493, ptr %5, align 4, !tbaa !8
  br label %494

494:                                              ; preds = %490, %485
  call void @llvm.lifetime.end.p0(i64 4, ptr %46) #3
  call void @llvm.lifetime.end.p0(i64 8, ptr %43) #3
  br label %495

495:                                              ; preds = %494, %450
  store i32 0, ptr %9, align 4
  br label %496

496:                                              ; preds = %495, %449
  call void @_ZNSt7__cxx1110_List_baseIiSaIiEED2Ev(ptr noundef nonnull align 8 dereferenceable(24) %28) #3
  call void @llvm.lifetime.end.p0(i64 24, ptr %28) #3
  call void @_ZNSt13_Bvector_baseISaIbEED2Ev(ptr noundef nonnull align 8 dereferenceable(40) %26) #3
  call void @llvm.lifetime.end.p0(i64 40, ptr %26) #3
  br label %497

497:                                              ; preds = %496, %261
  call void @llvm.lifetime.end.p0(i64 4, ptr %18) #3
  call void @_ZN12Transduction18TransductionBackupIN5NewTt3ManEjLj4294967295EED2Ev(ptr noundef nonnull align 8 dereferenceable(352) %17) #3
  call void @llvm.lifetime.end.p0(i64 352, ptr %17) #3
  %498 = load i32, ptr %9, align 4
  switch i32 %498, label %508 [
    i32 0, label %499
    i32 4, label %500
  ]

499:                                              ; preds = %497
  br label %500

500:                                              ; preds = %499, %497, %107
  call void @llvm.lifetime.start.p0(i64 8, ptr %47) #3
  call void @_ZNSt16reverse_iteratorISt14_List_iteratorIiEEppEi(ptr dead_on_unwind writable sret(%"class.std::reverse_iterator") align 8 %47, ptr noundef nonnull align 8 dereferenceable(8) %7, i32 noundef 0)
  call void @llvm.lifetime.end.p0(i64 8, ptr %47) #3
  br label %61, !llvm.loop !151

501:                                              ; preds = %63
  %502 = getelementptr inbounds nuw %"class.Transduction::Transduction.22", ptr %51, i32 0, i32 1
  %503 = load i32, ptr %502, align 8, !tbaa !127
  %504 = icmp ne i32 %503, 0
  br i1 %504, label %505, label %506

505:                                              ; preds = %501
  call void @llvm.lifetime.start.p0(i64 1, ptr %49) #3
  call void @_ZNSaIcEC2Ev(ptr noundef nonnull align 1 dereferenceable(1) %49) #3
  call void @_ZNSt7__cxx1112basic_stringIcSt11char_traitsIcESaIcEEC2IS3_EEPKcRKS3_(ptr noundef nonnull align 8 dereferenceable(32) %48, ptr noundef @.str.114, ptr noundef nonnull align 1 dereferenceable(1) %49)
  call void @_ZNK12Transduction12TransductionIN5NewTt3ManENS1_5ParamEjLj4294967295EE10PrintStatsENSt7__cxx1112basic_stringIcSt11char_traitsIcESaIcEEEbi(ptr noundef nonnull align 8 dereferenceable(456) %51, ptr noundef %48, i1 noundef zeroext true, i32 noundef 11)
  call void @_ZNSt7__cxx1112basic_stringIcSt11char_traitsIcESaIcEED2Ev(ptr noundef nonnull align 8 dereferenceable(32) %48) #3
  call void @_ZNSt15__new_allocatorIcED2Ev(ptr noundef nonnull align 1 dereferenceable(1) %49) #3
  call void @llvm.lifetime.end.p0(i64 1, ptr %49) #3
  br label %506

506:                                              ; preds = %505, %501
  %507 = load i32, ptr %5, align 4, !tbaa !8
  store i32 1, ptr %9, align 4
  call void @_ZNSt7__cxx1110_List_baseIiSaIiEED2Ev(ptr noundef nonnull align 8 dereferenceable(24) %6) #3
  call void @llvm.lifetime.end.p0(i64 24, ptr %6) #3
  call void @llvm.lifetime.end.p0(i64 4, ptr %5) #3
  ret i32 %507

508:                                              ; preds = %497
  unreachable
}

; Function Attrs: mustprogress nounwind uwtable
define linkonce_odr noundef i32 @_ZN12Transduction12TransductionIN5NewTt3ManENS1_5ParamEjLj4294967295EE11ResubSharedEb(ptr noundef nonnull align 8 dereferenceable(456) %0, i1 noundef zeroext %1) #4 comdat align 2 {
  %3 = alloca ptr, align 8
  %4 = alloca i8, align 1
  %5 = alloca i32, align 4
  %6 = alloca %"class.std::__cxx11::list", align 8
  %7 = alloca %"class.std::reverse_iterator", align 8
  %8 = alloca %"class.std::reverse_iterator", align 8
  %9 = alloca i32, align 4
  %10 = alloca %"class.std::__cxx11::basic_stringstream", align 8
  %11 = alloca %"struct.std::_Setw", align 4
  %12 = alloca %"struct.std::_Setw", align 4
  %13 = alloca %"class.std::reverse_iterator", align 8
  %14 = alloca %"class.std::reverse_iterator", align 8
  %15 = alloca %"struct.std::_Setw", align 4
  %16 = alloca %"class.std::__cxx11::basic_string", align 8
  %17 = alloca i8, align 1
  %18 = alloca i32, align 4
  %19 = alloca %"class.std::vector.18", align 8
  %20 = alloca %"class.std::allocator.45", align 1
  %21 = alloca %"struct.std::_List_iterator", align 8
  %22 = alloca %"struct.std::_List_iterator", align 8
  %23 = alloca %"struct.std::_Bit_reference", align 8
  %24 = alloca %"struct.std::_List_iterator", align 8
  %25 = alloca %"struct.std::_Bit_reference", align 8
  %26 = alloca %"struct.std::_Bit_reference", align 8
  %27 = alloca %"class.std::reverse_iterator", align 8
  %28 = alloca %"class.std::__cxx11::basic_string", align 8
  %29 = alloca %"class.std::allocator.34", align 1
  store ptr %0, ptr %3, align 8, !tbaa !125
  %30 = zext i1 %1 to i8
  store i8 %30, ptr %4, align 1, !tbaa !10
  %31 = load ptr, ptr %3, align 8
  call void @llvm.lifetime.start.p0(i64 4, ptr %5) #3
  %32 = load i8, ptr %4, align 1, !tbaa !10, !range !12, !noundef !13
  %33 = trunc i8 %32 to i1
  br i1 %33, label %34, label %36

34:                                               ; preds = %2
  %35 = call noundef i32 @_ZN12Transduction12TransductionIN5NewTt3ManENS1_5ParamEjLj4294967295EE4MspfEbii(ptr noundef nonnull align 8 dereferenceable(456) %31, i1 noundef zeroext true, i32 noundef -1, i32 noundef -1)
  br label %38

36:                                               ; preds = %2
  %37 = call noundef i32 @_ZN12Transduction12TransductionIN5NewTt3ManENS1_5ParamEjLj4294967295EE4CspfEbii(ptr noundef nonnull align 8 dereferenceable(456) %31, i1 noundef zeroext true, i32 noundef -1, i32 noundef -1)
  br label %38

38:                                               ; preds = %36, %34
  %39 = phi i32 [ %35, %34 ], [ %37, %36 ]
  store i32 %39, ptr %5, align 4, !tbaa !8
  call void @llvm.lifetime.start.p0(i64 24, ptr %6) #3
  %40 = getelementptr inbounds nuw %"class.Transduction::Transduction.22", ptr %31, i32 0, i32 9
  call void @_ZNSt7__cxx114listIiSaIiEEC2ERKS2_(ptr noundef nonnull align 8 dereferenceable(24) %6, ptr noundef nonnull align 8 dereferenceable(24) %40)
  call void @llvm.lifetime.start.p0(i64 8, ptr %7) #3
  call void @_ZNSt7__cxx114listIiSaIiEE6rbeginEv(ptr dead_on_unwind writable sret(%"class.std::reverse_iterator") align 8 %7, ptr noundef nonnull align 8 dereferenceable(24) %6) #3
  br label %41

41:                                               ; preds = %249, %38
  call void @llvm.lifetime.start.p0(i64 8, ptr %8) #3
  call void @_ZNSt7__cxx114listIiSaIiEE4rendEv(ptr dead_on_unwind writable sret(%"class.std::reverse_iterator") align 8 %8, ptr noundef nonnull align 8 dereferenceable(24) %6) #3
  %42 = call noundef zeroext i1 @_ZStneISt14_List_iteratorIiEEbRKSt16reverse_iteratorIT_ES6_(ptr noundef nonnull align 8 dereferenceable(8) %7, ptr noundef nonnull align 8 dereferenceable(8) %8)
  call void @llvm.lifetime.end.p0(i64 8, ptr %8) #3
  br i1 %42, label %44, label %43

43:                                               ; preds = %41
  store i32 2, ptr %9, align 4
  call void @llvm.lifetime.end.p0(i64 8, ptr %7) #3
  br label %250

44:                                               ; preds = %41
  %45 = getelementptr inbounds nuw %"class.Transduction::Transduction.22", ptr %31, i32 0, i32 1
  %46 = load i32, ptr %45, align 8, !tbaa !127
  %47 = icmp sgt i32 %46, 1
  br i1 %47, label %48, label %80

48:                                               ; preds = %44
  call void @llvm.lifetime.start.p0(i64 392, ptr %10) #3
  call void @_ZNSt7__cxx1118basic_stringstreamIcSt11char_traitsIcESaIcEEC1Ev(ptr noundef nonnull align 8 dereferenceable(128) %10)
  %49 = getelementptr inbounds i8, ptr %10, i64 16
  %50 = call noundef nonnull align 8 dereferenceable(8) ptr @_ZStlsISt11char_traitsIcEERSt13basic_ostreamIcT_ES5_PKc(ptr noundef nonnull align 8 dereferenceable(8) %49, ptr noundef @.str.115)
  %51 = call i32 @_ZSt4setwi(i32 noundef 5)
  %52 = getelementptr inbounds nuw %"struct.std::_Setw", ptr %11, i32 0, i32 0
  store i32 %51, ptr %52, align 4
  %53 = getelementptr inbounds nuw %"struct.std::_Setw", ptr %11, i32 0, i32 0
  %54 = load i32, ptr %53, align 4
  %55 = call noundef nonnull align 8 dereferenceable(8) ptr @_ZStlsIcSt11char_traitsIcEERSt13basic_ostreamIT_T0_ES6_St5_Setw(ptr noundef nonnull align 8 dereferenceable(8) %50, i32 %54)
  %56 = call noundef nonnull align 4 dereferenceable(4) ptr @_ZNKSt16reverse_iteratorISt14_List_iteratorIiEEdeEv(ptr noundef nonnull align 8 dereferenceable(8) %7)
  %57 = load i32, ptr %56, align 4, !tbaa !8
  %58 = call noundef nonnull align 8 dereferenceable(8) ptr @_ZNSolsEi(ptr noundef nonnull align 8 dereferenceable(8) %55, i32 noundef %57)
  %59 = call noundef nonnull align 8 dereferenceable(8) ptr @_ZStlsISt11char_traitsIcEERSt13basic_ostreamIcT_ES5_PKc(ptr noundef nonnull align 8 dereferenceable(8) %58, ptr noundef @.str.87)
  %60 = call i32 @_ZSt4setwi(i32 noundef 5)
  %61 = getelementptr inbounds nuw %"struct.std::_Setw", ptr %12, i32 0, i32 0
  store i32 %60, ptr %61, align 4
  %62 = getelementptr inbounds nuw %"struct.std::_Setw", ptr %12, i32 0, i32 0
  %63 = load i32, ptr %62, align 4
  %64 = call noundef nonnull align 8 dereferenceable(8) ptr @_ZStlsIcSt11char_traitsIcEERSt13basic_ostreamIT_T0_ES6_St5_Setw(ptr noundef nonnull align 8 dereferenceable(8) %59, i32 %63)
  call void @_ZNSt7__cxx114listIiSaIiEE6rbeginEv(ptr dead_on_unwind writable sret(%"class.std::reverse_iterator") align 8 %13, ptr noundef nonnull align 8 dereferenceable(24) %6) #3
  call void @_ZNSt16reverse_iteratorISt14_List_iteratorIiEEC2ERKS2_(ptr noundef nonnull align 8 dereferenceable(8) %14, ptr noundef nonnull align 8 dereferenceable(8) %7) #3
  %65 = call noundef i64 @_ZSt8distanceISt16reverse_iteratorISt14_List_iteratorIiEEENSt15iterator_traitsIT_E15difference_typeES5_S5_(ptr noundef %13, ptr noundef %14)
  %66 = add nsw i64 %65, 1
  %67 = call noundef nonnull align 8 dereferenceable(8) ptr @_ZNSolsEl(ptr noundef nonnull align 8 dereferenceable(8) %64, i64 noundef %66)
  %68 = call noundef nonnull align 8 dereferenceable(8) ptr @_ZStlsISt11char_traitsIcEERSt13basic_ostreamIcT_ES5_PKc(ptr noundef nonnull align 8 dereferenceable(8) %67, ptr noundef @.str.88)
  %69 = call i32 @_ZSt4setwi(i32 noundef 5)
  %70 = getelementptr inbounds nuw %"struct.std::_Setw", ptr %15, i32 0, i32 0
  store i32 %69, ptr %70, align 4
  %71 = getelementptr inbounds nuw %"struct.std::_Setw", ptr %15, i32 0, i32 0
  %72 = load i32, ptr %71, align 4
  %73 = call noundef nonnull align 8 dereferenceable(8) ptr @_ZStlsIcSt11char_traitsIcEERSt13basic_ostreamIT_T0_ES6_St5_Setw(ptr noundef nonnull align 8 dereferenceable(8) %68, i32 %72)
  %74 = call noundef i64 @_ZNKSt7__cxx114listIiSaIiEE4sizeEv(ptr noundef nonnull align 8 dereferenceable(24) %6) #3
  %75 = call noundef nonnull align 8 dereferenceable(8) ptr @_ZNSolsEm(ptr noundef nonnull align 8 dereferenceable(8) %73, i64 noundef %74)
  %76 = call noundef nonnull align 8 dereferenceable(8) ptr @_ZStlsISt11char_traitsIcEERSt13basic_ostreamIcT_ES5_PKc(ptr noundef nonnull align 8 dereferenceable(8) %75, ptr noundef @.str.37)
  call void @_ZNKSt7__cxx1118basic_stringstreamIcSt11char_traitsIcESaIcEE3strEv(ptr dead_on_unwind writable sret(%"class.std::__cxx11::basic_string") align 8 %16, ptr noundef nonnull align 8 dereferenceable(128) %10)
  %77 = getelementptr inbounds nuw %"class.Transduction::Transduction.22", ptr %31, i32 0, i32 1
  %78 = load i32, ptr %77, align 8, !tbaa !127
  %79 = icmp sgt i32 %78, 2
  call void @_ZNK12Transduction12TransductionIN5NewTt3ManENS1_5ParamEjLj4294967295EE10PrintStatsENSt7__cxx1112basic_stringIcSt11char_traitsIcESaIcEEEbi(ptr noundef nonnull align 8 dereferenceable(456) %31, ptr noundef %16, i1 noundef zeroext %79, i32 noundef 0)
  call void @_ZNSt7__cxx1112basic_stringIcSt11char_traitsIcESaIcEED2Ev(ptr noundef nonnull align 8 dereferenceable(32) %16) #3
  call void @_ZNSt7__cxx1118basic_stringstreamIcSt11char_traitsIcESaIcEED1Ev(ptr noundef nonnull align 8 dereferenceable(128) %10) #3
  call void @llvm.lifetime.end.p0(i64 392, ptr %10) #3
  br label %80

80:                                               ; preds = %48, %44
  %81 = getelementptr inbounds nuw %"class.Transduction::Transduction.22", ptr %31, i32 0, i32 11
  %82 = call noundef nonnull align 4 dereferenceable(4) ptr @_ZNKSt16reverse_iteratorISt14_List_iteratorIiEEdeEv(ptr noundef nonnull align 8 dereferenceable(8) %7)
  %83 = load i32, ptr %82, align 4, !tbaa !8
  %84 = sext i32 %83 to i64
  %85 = call noundef nonnull align 8 dereferenceable(24) ptr @_ZNSt6vectorIS_IiSaIiEESaIS1_EEixEm(ptr noundef nonnull align 8 dereferenceable(24) %81, i64 noundef %84) #3
  %86 = call noundef zeroext i1 @_ZNKSt6vectorIiSaIiEE5emptyEv(ptr noundef nonnull align 8 dereferenceable(24) %85) #3
  br i1 %86, label %87, label %88

87:                                               ; preds = %80
  br label %249

88:                                               ; preds = %80
  %89 = call noundef nonnull align 4 dereferenceable(4) ptr @_ZNKSt16reverse_iteratorISt14_List_iteratorIiEEdeEv(ptr noundef nonnull align 8 dereferenceable(8) %7)
  %90 = load i32, ptr %89, align 4, !tbaa !8
  %91 = call noundef i32 @_ZN12Transduction12TransductionIN5NewTt3ManENS1_5ParamEjLj4294967295EE15TrivialMergeOneEi(ptr noundef nonnull align 8 dereferenceable(456) %31, i32 noundef %90)
  %92 = load i32, ptr %5, align 4, !tbaa !8
  %93 = add nsw i32 %92, %91
  store i32 %93, ptr %5, align 4, !tbaa !8
  call void @llvm.lifetime.start.p0(i64 1, ptr %17) #3
  store i8 0, ptr %17, align 1, !tbaa !10
  call void @llvm.lifetime.start.p0(i64 4, ptr %18) #3
  store i32 0, ptr %18, align 4, !tbaa !8
  br label %94

94:                                               ; preds = %129, %88
  %95 = load i32, ptr %18, align 4, !tbaa !8
  %96 = zext i32 %95 to i64
  %97 = getelementptr inbounds nuw %"class.Transduction::Transduction.22", ptr %31, i32 0, i32 7
  %98 = call noundef i64 @_ZNKSt6vectorIiSaIiEE4sizeEv(ptr noundef nonnull align 8 dereferenceable(24) %97) #3
  %99 = icmp ult i64 %96, %98
  br i1 %99, label %101, label %100

100:                                              ; preds = %94
  store i32 5, ptr %9, align 4
  call void @llvm.lifetime.end.p0(i64 4, ptr %18) #3
  br label %132

101:                                              ; preds = %94
  %102 = call noundef nonnull align 4 dereferenceable(4) ptr @_ZNKSt16reverse_iteratorISt14_List_iteratorIiEEdeEv(ptr noundef nonnull align 8 dereferenceable(8) %7)
  %103 = load i32, ptr %102, align 4, !tbaa !8
  %104 = getelementptr inbounds nuw %"class.Transduction::Transduction.22", ptr %31, i32 0, i32 7
  %105 = load i32, ptr %18, align 4, !tbaa !8
  %106 = zext i32 %105 to i64
  %107 = call noundef nonnull align 4 dereferenceable(4) ptr @_ZNSt6vectorIiSaIiEEixEm(ptr noundef nonnull align 8 dereferenceable(24) %104, i64 noundef %106) #3
  %108 = load i32, ptr %107, align 4, !tbaa !8
  %109 = call noundef zeroext i1 @_ZN12Transduction12TransductionIN5NewTt3ManENS1_5ParamEjLj4294967295EE10TryConnectEiib(ptr noundef nonnull align 8 dereferenceable(456) %31, i32 noundef %103, i32 noundef %108, i1 noundef zeroext false)
  br i1 %109, label %119, label %110

110:                                              ; preds = %101
  %111 = call noundef nonnull align 4 dereferenceable(4) ptr @_ZNKSt16reverse_iteratorISt14_List_iteratorIiEEdeEv(ptr noundef nonnull align 8 dereferenceable(8) %7)
  %112 = load i32, ptr %111, align 4, !tbaa !8
  %113 = getelementptr inbounds nuw %"class.Transduction::Transduction.22", ptr %31, i32 0, i32 7
  %114 = load i32, ptr %18, align 4, !tbaa !8
  %115 = zext i32 %114 to i64
  %116 = call noundef nonnull align 4 dereferenceable(4) ptr @_ZNSt6vectorIiSaIiEEixEm(ptr noundef nonnull align 8 dereferenceable(24) %113, i64 noundef %115) #3
  %117 = load i32, ptr %116, align 4, !tbaa !8
  %118 = call noundef zeroext i1 @_ZN12Transduction12TransductionIN5NewTt3ManENS1_5ParamEjLj4294967295EE10TryConnectEiib(ptr noundef nonnull align 8 dereferenceable(456) %31, i32 noundef %112, i32 noundef %117, i1 noundef zeroext true)
  br i1 %118, label %119, label %128

119:                                              ; preds = %110, %101
  %120 = load i8, ptr %17, align 1, !tbaa !10, !range !12, !noundef !13
  %121 = trunc i8 %120 to i1
  %122 = zext i1 %121 to i32
  %123 = or i32 %122, 1
  %124 = icmp ne i32 %123, 0
  %125 = zext i1 %124 to i8
  store i8 %125, ptr %17, align 1, !tbaa !10
  %126 = load i32, ptr %5, align 4, !tbaa !8
  %127 = add nsw i32 %126, -1
  store i32 %127, ptr %5, align 4, !tbaa !8
  br label %128

128:                                              ; preds = %119, %110
  br label %129

129:                                              ; preds = %128
  %130 = load i32, ptr %18, align 4, !tbaa !8
  %131 = add i32 %130, 1
  store i32 %131, ptr %18, align 4, !tbaa !8
  br label %94, !llvm.loop !152

132:                                              ; preds = %100
  call void @llvm.lifetime.start.p0(i64 40, ptr %19) #3
  %133 = getelementptr inbounds nuw %"class.Transduction::Transduction.22", ptr %31, i32 0, i32 4
  %134 = load i32, ptr %133, align 4, !tbaa !146
  %135 = sext i32 %134 to i64
  call void @llvm.lifetime.start.p0(i64 1, ptr %20) #3
  call void @_ZNSaIbEC2Ev(ptr noundef nonnull align 1 dereferenceable(1) %20) #3
  call void @_ZNSt6vectorIbSaIbEEC2EmRKS0_(ptr noundef nonnull align 8 dereferenceable(40) %19, i64 noundef %135, ptr noundef nonnull align 1 dereferenceable(1) %20)
  call void @_ZNSt15__new_allocatorIbED2Ev(ptr noundef nonnull align 1 dereferenceable(1) %20) #3
  call void @llvm.lifetime.end.p0(i64 1, ptr %20) #3
  %136 = call noundef nonnull align 4 dereferenceable(4) ptr @_ZNKSt16reverse_iteratorISt14_List_iteratorIiEEdeEv(ptr noundef nonnull align 8 dereferenceable(8) %7)
  %137 = load i32, ptr %136, align 4, !tbaa !8
  call void @_ZNK12Transduction12TransductionIN5NewTt3ManENS1_5ParamEjLj4294967295EE14MarkFoCone_recERSt6vectorIbSaIbEEi(ptr noundef nonnull align 8 dereferenceable(456) %31, ptr noundef nonnull align 8 dereferenceable(40) %19, i32 noundef %137)
  call void @llvm.lifetime.start.p0(i64 8, ptr %21) #3
  %138 = call ptr @_ZNSt7__cxx114listIiSaIiEE5beginEv(ptr noundef nonnull align 8 dereferenceable(24) %6) #3
  %139 = getelementptr inbounds nuw %"struct.std::_List_iterator", ptr %21, i32 0, i32 0
  store ptr %138, ptr %139, align 8
  br label %140

140:                                              ; preds = %188, %132
  call void @llvm.lifetime.start.p0(i64 8, ptr %22) #3
  %141 = call ptr @_ZNSt7__cxx114listIiSaIiEE3endEv(ptr noundef nonnull align 8 dereferenceable(24) %6) #3
  %142 = getelementptr inbounds nuw %"struct.std::_List_iterator", ptr %22, i32 0, i32 0
  store ptr %141, ptr %142, align 8
  %143 = call noundef zeroext i1 @_ZStneRKSt14_List_iteratorIiES2_(ptr noundef nonnull align 8 dereferenceable(8) %21, ptr noundef nonnull align 8 dereferenceable(8) %22) #3
  call void @llvm.lifetime.end.p0(i64 8, ptr %22) #3
  br i1 %143, label %145, label %144

144:                                              ; preds = %140
  store i32 8, ptr %9, align 4
  call void @llvm.lifetime.end.p0(i64 8, ptr %21) #3
  br label %191

145:                                              ; preds = %140
  call void @llvm.lifetime.start.p0(i64 16, ptr %23) #3
  %146 = call noundef nonnull align 4 dereferenceable(4) ptr @_ZNKSt14_List_iteratorIiEdeEv(ptr noundef nonnull align 8 dereferenceable(8) %21) #3
  %147 = load i32, ptr %146, align 4, !tbaa !8
  %148 = sext i32 %147 to i64
  %149 = call { ptr, i64 } @_ZNSt6vectorIbSaIbEEixEm(ptr noundef nonnull align 8 dereferenceable(40) %19, i64 noundef %148)
  %150 = getelementptr inbounds nuw { ptr, i64 }, ptr %23, i32 0, i32 0
  %151 = extractvalue { ptr, i64 } %149, 0
  store ptr %151, ptr %150, align 8
  %152 = getelementptr inbounds nuw { ptr, i64 }, ptr %23, i32 0, i32 1
  %153 = extractvalue { ptr, i64 } %149, 1
  store i64 %153, ptr %152, align 8
  %154 = call noundef zeroext i1 @_ZNKSt14_Bit_referencecvbEv(ptr noundef nonnull align 8 dereferenceable(16) %23) #3
  br i1 %154, label %163, label %155

155:                                              ; preds = %145
  %156 = getelementptr inbounds nuw %"class.Transduction::Transduction.22", ptr %31, i32 0, i32 11
  %157 = call noundef nonnull align 4 dereferenceable(4) ptr @_ZNKSt14_List_iteratorIiEdeEv(ptr noundef nonnull align 8 dereferenceable(8) %21) #3
  %158 = load i32, ptr %157, align 4, !tbaa !8
  %159 = sext i32 %158 to i64
  %160 = call noundef nonnull align 8 dereferenceable(24) ptr @_ZNSt6vectorIS_IiSaIiEESaIS1_EEixEm(ptr noundef nonnull align 8 dereferenceable(24) %156, i64 noundef %159) #3
  %161 = call noundef zeroext i1 @_ZNKSt6vectorIiSaIiEE5emptyEv(ptr noundef nonnull align 8 dereferenceable(24) %160) #3
  %162 = xor i1 %161, true
  br label %163

163:                                              ; preds = %155, %145
  %164 = phi i1 [ false, %145 ], [ %162, %155 ]
  call void @llvm.lifetime.end.p0(i64 16, ptr %23) #3
  br i1 %164, label %165, label %187

165:                                              ; preds = %163
  %166 = call noundef nonnull align 4 dereferenceable(4) ptr @_ZNKSt16reverse_iteratorISt14_List_iteratorIiEEdeEv(ptr noundef nonnull align 8 dereferenceable(8) %7)
  %167 = load i32, ptr %166, align 4, !tbaa !8
  %168 = call noundef nonnull align 4 dereferenceable(4) ptr @_ZNKSt14_List_iteratorIiEdeEv(ptr noundef nonnull align 8 dereferenceable(8) %21) #3
  %169 = load i32, ptr %168, align 4, !tbaa !8
  %170 = call noundef zeroext i1 @_ZN12Transduction12TransductionIN5NewTt3ManENS1_5ParamEjLj4294967295EE10TryConnectEiib(ptr noundef nonnull align 8 dereferenceable(456) %31, i32 noundef %167, i32 noundef %169, i1 noundef zeroext false)
  br i1 %170, label %177, label %171

171:                                              ; preds = %165
  %172 = call noundef nonnull align 4 dereferenceable(4) ptr @_ZNKSt16reverse_iteratorISt14_List_iteratorIiEEdeEv(ptr noundef nonnull align 8 dereferenceable(8) %7)
  %173 = load i32, ptr %172, align 4, !tbaa !8
  %174 = call noundef nonnull align 4 dereferenceable(4) ptr @_ZNKSt14_List_iteratorIiEdeEv(ptr noundef nonnull align 8 dereferenceable(8) %21) #3
  %175 = load i32, ptr %174, align 4, !tbaa !8
  %176 = call noundef zeroext i1 @_ZN12Transduction12TransductionIN5NewTt3ManENS1_5ParamEjLj4294967295EE10TryConnectEiib(ptr noundef nonnull align 8 dereferenceable(456) %31, i32 noundef %173, i32 noundef %175, i1 noundef zeroext true)
  br i1 %176, label %177, label %186

177:                                              ; preds = %171, %165
  %178 = load i8, ptr %17, align 1, !tbaa !10, !range !12, !noundef !13
  %179 = trunc i8 %178 to i1
  %180 = zext i1 %179 to i32
  %181 = or i32 %180, 1
  %182 = icmp ne i32 %181, 0
  %183 = zext i1 %182 to i8
  store i8 %183, ptr %17, align 1, !tbaa !10
  %184 = load i32, ptr %5, align 4, !tbaa !8
  %185 = add nsw i32 %184, -1
  store i32 %185, ptr %5, align 4, !tbaa !8
  br label %186

186:                                              ; preds = %177, %171
  br label %187

187:                                              ; preds = %186, %163
  br label %188

188:                                              ; preds = %187
