target datalayout = "e-m:e-p270:32:32-p271:32:32-p272:64:64-i64:64-i128:128-f80:128-n8:16:32:64-S128"
target triple = "x86_64-pc-linux-gnu"

%"class.Gluco::BoolOption" = type <{ %"class.Gluco::Option", i8, [7 x i8] }>
%"class.Gluco::Option" = type { ptr, ptr, ptr, ptr, ptr }
%"class.Gluco::DoubleOption" = type { %"class.Gluco::Option", %"struct.Gluco::DoubleRange", double }
%"struct.Gluco::DoubleRange" = type <{ double, double, i8, i8, [6 x i8] }>
%"class.Gluco::IntOption" = type <{ %"class.Gluco::Option", %"struct.Gluco::IntRange", i32, [4 x i8] }>
%"struct.Gluco::IntRange" = type { i32, i32 }
%"class.Gluco::StringOption" = type { %"class.Gluco::Option", ptr }
%"struct.Gluco::Lit" = type { i32 }
%"class.Gluco::vec.8" = type { ptr, i32, i32 }
%"struct.Gluco::Solver::WatcherDeleted" = type { ptr }
%"struct.Gluco::Solver::VarOrderLt" = type { ptr }
%"class.Gluco::Solver" = type { ptr, i32, ptr, ptr, i32, i8, ptr, i64, %"class.Gluco::vec", %"class.Gluco::vec.0", i32, %"class.Gluco::vec.1", %"class.Gluco::vec.0", i32, i32, i32, double, double, double, double, i32, i32, i32, i32, i32, i32, double, double, double, double, i32, i32, i8, i8, double, ptr, i8, i64, i64, i64, i64, i64, i64, i64, i64, i64, i64, i64, i64, i64, i64, i64, i64, i64, i64, i64, i64, i64, i64, i32, i8, double, %"class.Gluco::vec.2", double, %"class.Gluco::OccLists", %"class.Gluco::OccLists", %"class.Gluco::vec.5", %"class.Gluco::vec.5", %"class.Gluco::vec.1", %"class.Gluco::vec.4", %"class.Gluco::vec.4", %"class.Gluco::vec.0", %"class.Gluco::vec", %"class.Gluco::vec", %"class.Gluco::vec.6", i32, i32, i64, %"class.Gluco::vec.0", %"class.Gluco::Heap", double, i8, %"class.Gluco::vec.5", %"class.Gluco::vec.0", %"class.Gluco::ClauseAllocator", i32, %"class.Gluco::bqueue", %"class.Gluco::bqueue", float, i32, %"class.Gluco::vec.4", %"class.Gluco::vec.0", %"class.Gluco::vec.0", %"class.Gluco::vec.0", i32, double, double, i32, i64, i64, i8, i32, i32, double, double, i32, i32, %"class.Gluco::vec", %"class.Gluco::vec" }
%"class.Gluco::vec.2" = type { ptr, i32, i32 }
%"class.Gluco::OccLists" = type { %"class.Gluco::vec.3", %"class.Gluco::vec.4", %"class.Gluco::vec.0", %"struct.Gluco::Solver::WatcherDeleted" }
%"class.Gluco::vec.3" = type { ptr, i32, i32 }
%"class.Gluco::vec.1" = type { ptr, i32, i32 }
%"class.Gluco::vec.6" = type { ptr, i32, i32 }
%"class.Gluco::Heap" = type { %"struct.Gluco::Solver::VarOrderLt", %"class.Gluco::vec", %"class.Gluco::vec" }
%"class.Gluco::vec.5" = type { ptr, i32, i32 }
%"class.Gluco::ClauseAllocator" = type { %"class.Gluco::RegionAllocator.base", i8, [3 x i8] }
%"class.Gluco::RegionAllocator.base" = type <{ ptr, i32, i32, i32 }>
%"class.Gluco::bqueue" = type { %"class.Gluco::vec.5", i32, i32, i64, i32, i32, i8, double, double }
%"class.Gluco::vec.4" = type { ptr, i32, i32 }
%"class.Gluco::vec.0" = type { ptr, i32, i32 }
%"class.Gluco::vec" = type { ptr, i32, i32 }
%"class.Gluco::RegionAllocator" = type <{ ptr, i32, i32, i32, [4 x i8] }>
%"class.Gluco::lbool" = type { i8 }
%"struct.Gluco::Solver::VarData" = type { i32, i32 }
%"struct.Gluco::Solver::Watcher" = type { i32, %"struct.Gluco::Lit" }
%"class.Gluco::Clause" = type { %struct.anon, [0 x %union.anon] }
%struct.anon = type <{ i64, i32 }>
%union.anon = type { %"struct.Gluco::Lit" }
%"class.Gluco::vec.7" = type { ptr, i32, i32 }
%struct.reduceDB_lt = type { ptr }
%struct.rusage = type { %struct.timeval, %struct.timeval, %union.anon.9, %union.anon.10, %union.anon.11, %union.anon.12, %union.anon.13, %union.anon.14, %union.anon.15, %union.anon.16, %union.anon.17, %union.anon.18, %union.anon.19, %union.anon.20, %union.anon.21, %union.anon.22 }
%struct.timeval = type { i64, i64 }
%union.anon.9 = type { i64 }
%union.anon.10 = type { i64 }
%union.anon.11 = type { i64 }
%union.anon.12 = type { i64 }
%union.anon.13 = type { i64 }
%union.anon.14 = type { i64 }
%union.anon.15 = type { i64 }
%union.anon.16 = type { i64 }
%union.anon.17 = type { i64 }
%union.anon.18 = type { i64 }
%union.anon.19 = type { i64 }
%union.anon.20 = type { i64 }
%union.anon.21 = type { i64 }
%union.anon.22 = type { i64 }
%struct.timespec = type { i64, i64 }
%"struct.Gluco::LessThan_default" = type { i8 }

$_ZN5Gluco10BoolOptionC2EPKcS2_S2_b = comdat any

$_ZN5Gluco11DoubleRangeC2Edbdb = comdat any

$_ZN5Gluco12DoubleOptionC2EPKcS2_S2_dNS_11DoubleRangeE = comdat any

$_ZN5Gluco8IntRangeC2Eii = comdat any

$_ZN5Gluco9IntOptionC2EPKcS2_S2_iNS_8IntRangeE = comdat any

$_ZN5Gluco12StringOptionC2EPKcS2_S2_S2_ = comdat any

$_ZN5Gluco6OptionD2Ev = comdat any

$_ZN5Gluco3vecIiEC2Ev = comdat any

$_ZN5Gluco3vecINS_3LitEEC2Ev = comdat any

$_ZN5Gluco3vecINS_5lboolEEC2Ev = comdat any

$_ZN5Gluco12DoubleOptioncvRdEv = comdat any

$_ZN5Gluco9IntOptioncvRiEv = comdat any

$_ZN5Gluco10BoolOptioncvRbEv = comdat any

$_ZN5Gluco3vecIdEC2Ev = comdat any

$_ZN5Gluco6Solver14WatcherDeletedC2ERKNS_15ClauseAllocatorE = comdat any

$_ZN5Gluco8OccListsINS_3LitENS_3vecINS_6Solver7WatcherEEENS3_14WatcherDeletedEEC2ERKS6_ = comdat any

$_ZN5Gluco3vecIjEC2Ev = comdat any

$_ZN5Gluco3vecIcEC2Ev = comdat any

$_ZN5Gluco3vecINS_6Solver7VarDataEEC2Ev = comdat any

$_ZN5Gluco6Solver10VarOrderLtC2ERKNS_3vecIdEE = comdat any

$_ZN5Gluco4HeapINS_6Solver10VarOrderLtEEC2ERKS2_ = comdat any

$_ZN5Gluco15ClauseAllocatorC2Ev = comdat any

$_ZN5Gluco6bqueueIjEC2Ev = comdat any

$_ZN5Gluco6bqueueIjE8initSizeEi = comdat any

$_ZN5Gluco12StringOptioncvRPKcEv = comdat any

$_ZN5Gluco3vecIiED2Ev = comdat any

$_ZN5Gluco3vecINS_3LitEED2Ev = comdat any

$_ZN5Gluco3vecIcED2Ev = comdat any

$_ZN5Gluco6bqueueIjED2Ev = comdat any

$_ZN5Gluco15RegionAllocatorIjED2Ev = comdat any

$_ZN5Gluco3vecIjED2Ev = comdat any

$_ZN5Gluco4HeapINS_6Solver10VarOrderLtEED2Ev = comdat any

$_ZN5Gluco3vecINS_6Solver7VarDataEED2Ev = comdat any

$_ZN5Gluco3vecINS_5lboolEED2Ev = comdat any

$_ZN5Gluco8OccListsINS_3LitENS_3vecINS_6Solver7WatcherEEENS3_14WatcherDeletedEED2Ev = comdat any

$_ZN5Gluco3vecIdED2Ev = comdat any

$_ZNK5Gluco6Solver5nVarsEv = comdat any

$_ZN5Gluco8OccListsINS_3LitENS_3vecINS_6Solver7WatcherEEENS3_14WatcherDeletedEE4initERKS1_ = comdat any

$_ZN5Gluco5mkLitEib = comdat any

$_ZN5Gluco3vecINS_5lboolEE4pushERKS1_ = comdat any

$_ZN5Gluco5lboolC2Eh = comdat any

$_ZN5Gluco3vecINS_6Solver7VarDataEE4pushERKS2_ = comdat any

$_ZN5Gluco6Solver9mkVarDataEji = comdat any

$_ZN5Gluco3vecIdE4pushERKd = comdat any

$_ZN5Gluco6Solver5drandERd = comdat any

$_ZN5Gluco3vecIcE4pushERKc = comdat any

$_ZN5Gluco3vecIjE4pushERKj = comdat any

$_ZN5Gluco3vecIcE4pushEv = comdat any

$_ZN5Gluco3vecINS_3LitEE8capacityEi = comdat any

$_ZN5Gluco6Solver14setDecisionVarEib = comdat any

$_ZN5Gluco4sortINS_3LitEEEvRNS_3vecIT_EE = comdat any

$_ZN5Gluco3vecINS_3LitEE5clearEb = comdat any

$_ZNK5Gluco3vecINS_3LitEE4sizeEv = comdat any

$_ZN5Gluco3vecINS_3LitEE4pushERKS1_ = comdat any

$_ZN5Gluco3vecINS_3LitEEixEi = comdat any

$_ZNK5Gluco6Solver5valueENS_3LitE = comdat any

$_ZNK5Gluco5lbooleqES0_ = comdat any

$_ZNK5Gluco3LiteqES0_ = comdat any

$_ZN5GlucocoENS_3LitE = comdat any

$_ZNK5Gluco5lboolneES0_ = comdat any

$_ZNK5Gluco3LitneES0_ = comdat any

$_ZN5Gluco3vecINS_3LitEE6shrinkEi = comdat any

$_ZN5Gluco3varENS_3LitE = comdat any

$_ZN5Gluco4signENS_3LitE = comdat any

$_ZN5Gluco15ClauseAllocator5allocINS_3vecINS_3LitEEEEEjRKT_b = comdat any

$_ZN5Gluco15ClauseAllocatorixEj = comdat any

$_ZNK5Gluco6Clause4sizeEv = comdat any

$_ZN5Gluco8OccListsINS_3LitENS_3vecINS_6Solver7WatcherEEENS3_14WatcherDeletedEEixERKS1_ = comdat any

$_ZNK5Gluco6ClauseixEi = comdat any

$_ZN5Gluco3vecINS_6Solver7WatcherEE4pushERKS2_ = comdat any

$_ZN5Gluco6Solver7WatcherC2EjNS_3LitE = comdat any

$_ZNK5Gluco6Clause6learntEv = comdat any

$_ZN5Gluco8OccListsINS_3LitENS_3vecINS_6Solver7WatcherEEENS3_14WatcherDeletedEE6smudgeERKS1_ = comdat any

$_ZN5Gluco6ClauseixEi = comdat any

$_ZNK5Gluco6Solver6lockedERKNS_6ClauseE = comdat any

$_ZN5Gluco3vecINS_6Solver7VarDataEEixEi = comdat any

$_ZN5Gluco6Clause4markEj = comdat any

$_ZN5Gluco15ClauseAllocator5free_Ej = comdat any

$_ZN5Gluco6Solver10computeLBDERKNS_3vecINS_3LitEEEi = comdat any

$_ZN5Gluco3vecIjEixEi = comdat any

$_ZNK5Gluco3vecINS_6Solver7WatcherEE4sizeEv = comdat any

$_ZN5Gluco3vecINS_6Solver7WatcherEEixEi = comdat any

$_ZNK5Gluco6Solver13decisionLevelEv = comdat any

$_ZN5Gluco3vecIiEixEi = comdat any

$_ZN5Gluco3vecINS_5lboolEEixEi = comdat any

$_ZN5Gluco3vecIiE4lastEv = comdat any

$_ZN5Gluco3vecIcEixEi = comdat any

$_ZN5Gluco6Solver14insertVarOrderEi = comdat any

$_ZN5Gluco3vecIiE6shrinkEi = comdat any

$_ZNK5Gluco3vecIiE4sizeEv = comdat any

$_ZNK5Gluco4HeapINS_6Solver10VarOrderLtEE5emptyEv = comdat any

$_ZNK5Gluco4HeapINS_6Solver10VarOrderLtEEixEi = comdat any

$_ZN5Gluco6Solver5irandERdi = comdat any

$_ZNK5Gluco4HeapINS_6Solver10VarOrderLtEE4sizeEv = comdat any

$_ZNK5Gluco6Solver5valueEi = comdat any

$_ZN5Gluco4HeapINS_6Solver10VarOrderLtEE9removeMinEv = comdat any

$_ZN5Gluco3vecINS_3LitEE4pushEv = comdat any

$_ZN5Gluco6Solver15claBumpActivityERNS_6ClauseE = comdat any

$_ZNK5Gluco6Clause3lbdEv = comdat any

$_ZN5Gluco6Solver10computeLBDERKNS_6ClauseE = comdat any

$_ZN5Gluco6Clause11setCanBeDelEb = comdat any

$_ZN5Gluco6Clause6setLBDEi = comdat any

$_ZNK5Gluco6Solver5levelEi = comdat any

$_ZN5Gluco6Solver10isSelectorEi = comdat any

$_ZN5Gluco6Solver15varBumpActivityEi = comdat any

$_ZNK5Gluco6Solver6reasonEi = comdat any

$_ZNK5Gluco3vecINS_3LitEE7copyTo_ERS2_ = comdat any

$_ZNK5Gluco6Solver13abstractLevelEi = comdat any

$_ZN5Gluco3vecINS_3LitEE4lastEv = comdat any

$_ZN5Gluco3vecINS_3LitEE3popEv = comdat any

$_ZN5Gluco5lboolC2Eb = comdat any

$_ZN5Gluco3vecINS_3LitEE5push_ERKS1_ = comdat any

$_ZN5Gluco8OccListsINS_3LitENS_3vecINS_6Solver7WatcherEEENS3_14WatcherDeletedEE8cleanAllEv = comdat any

$_ZN5Gluco3vecINS_6Solver7WatcherEEcvPS2_Ev = comdat any

$_ZN5Gluco3vecINS_6Solver7WatcherEE6shrinkEi = comdat any

$_ZN5Gluco4sortIj11reduceDB_ltEEvRNS_3vecIT_EET0_ = comdat any

$_ZN11reduceDB_ltC2ERN5Gluco15ClauseAllocatorE = comdat any

$_ZNK5Gluco3vecIjE4sizeEv = comdat any

$_ZN5Gluco3vecIjE4lastEv = comdat any

$_ZN5Gluco6Clause8canBeDelEv = comdat any

$_ZN5Gluco3vecIjE6shrinkEi = comdat any

$_ZN5Gluco6Solver12checkGarbageEv = comdat any

$_ZN5Gluco3vecIiE4pushERKi = comdat any

$_ZN5Gluco4HeapINS_6Solver10VarOrderLtEE5buildERNS_3vecIiEE = comdat any

$_ZNK5Gluco6Solver8nAssignsEv = comdat any

$_ZNK5Gluco6Solver8nClausesEv = comdat any

$_ZNK5Gluco6Solver8nLearntsEv = comdat any

$_ZN5Gluco6bqueueIjE4pushEj = comdat any

$_ZNK5Gluco6bqueueIjE7isvalidEv = comdat any

$_ZNK5Gluco6bqueueIjE6getavgEv = comdat any

$_ZN5Gluco6bqueueIjE9fastclearEv = comdat any

$_ZN5Gluco6Clause23setSizeWithoutSelectorsEj = comdat any

$_ZN5Gluco6Solver16varDecayActivityEv = comdat any

$_ZN5Gluco6Solver16claDecayActivityEv = comdat any

$_ZN5Gluco6Solver16newDecisionLevelEv = comdat any

$_ZNK5Gluco3vecIiEixEi = comdat any

$_ZSt3powIdiEN9__gnu_cxx9__promoteIDTplcvNS1_IT_Xsr3std12__is_integerIS2_EE7__valueEE6__typeELi0EcvNS1_IT0_Xsr3std12__is_integerIS5_EE7__valueEE6__typeELi0EEXsr3std12__is_integerIS8_EE7__valueEE6__typeES2_S5_ = comdat any

$_ZN5Gluco3vecINS_5lboolEE5clearEb = comdat any

$_ZNK5Gluco6bqueueIjE7maxSizeEv = comdat any

$_ZNK5Gluco6Solver12withinBudgetEv = comdat any

$_ZN5Gluco3vecINS_5lboolEE6growToEi = comdat any

$_ZN5Gluco15ClauseAllocator5relocERjRS0_ = comdat any

$_ZNK5Gluco6Clause7relocedEv = comdat any

$_ZNK5Gluco15RegionAllocatorIjE4sizeEv = comdat any

$_ZNK5Gluco15RegionAllocatorIjE6wastedEv = comdat any

$_ZN5Gluco15ClauseAllocatorC2Ej = comdat any

$_ZN5Gluco15ClauseAllocator6moveToERS0_ = comdat any

$_ZN5Gluco8OccListsINS_3LitENS_3vecINS_6Solver7WatcherEEENS3_14WatcherDeletedEE5clearEb = comdat any

$_ZN5Gluco4HeapINS_6Solver10VarOrderLtEE5clearEb = comdat any

$_ZN5Gluco6bqueueIjE5clearEb = comdat any

$_ZN5Gluco3vecIjE5clearEb = comdat any

$_ZN5Gluco3vecIdE5clearEb = comdat any

$_ZN5Gluco3vecIcE5clearEb = comdat any

$_ZN5Gluco3vecIiE5clearEb = comdat any

$_ZN5Gluco3vecINS_6Solver7VarDataEE5clearEb = comdat any

$_ZN5Gluco15RegionAllocatorIjE5clearEv = comdat any

$_ZN5Gluco6OptionC2EPKcS2_S2_S2_ = comdat any

$_ZN5Gluco10BoolOptionD0Ev = comdat any

$_ZN5Gluco10BoolOption5parseEPKc = comdat any

$_ZN5Gluco10BoolOption4helpEb = comdat any

$_ZN5Gluco6Option13getOptionListEv = comdat any

$_ZN5Gluco3vecIPNS_6OptionEE4pushERKS2_ = comdat any

$_ZN5Gluco6OptionD0Ev = comdat any

$_ZN5Gluco3vecIPNS_6OptionEEC2Ev = comdat any

$_ZN5Gluco3vecIPNS_6OptionEED2Ev = comdat any

$_ZN5Gluco3vecIPNS_6OptionEE5clearEb = comdat any

$_ZN5Gluco3vecIPNS_6OptionEE8capacityEi = comdat any

$_ZN5Gluco3vecIPNS_6OptionEE4imaxEii = comdat any

$_ZN5Gluco12DoubleOptionD0Ev = comdat any

$_ZN5Gluco12DoubleOption5parseEPKc = comdat any

$_ZN5Gluco12DoubleOption4helpEb = comdat any

$_ZN5Gluco9IntOptionD0Ev = comdat any

$_ZN5Gluco9IntOption5parseEPKc = comdat any

$_ZN5Gluco9IntOption4helpEb = comdat any

$_ZN5Gluco12StringOptionD0Ev = comdat any

$_ZN5Gluco12StringOption5parseEPKc = comdat any

$_ZN5Gluco12StringOption4helpEb = comdat any

$_ZN5Gluco15RegionAllocatorIjEC2Ej = comdat any

$_ZN5Gluco15RegionAllocatorIjE8capacityEj = comdat any

$_ZN5Gluco3vecINS0_INS_6Solver7WatcherEEEED2Ev = comdat any

$_ZN5Gluco3vecINS0_INS_6Solver7WatcherEEEE5clearEb = comdat any

$_ZN5Gluco3vecINS_6Solver7WatcherEED2Ev = comdat any

$_ZN5Gluco3vecINS_6Solver7WatcherEE5clearEb = comdat any

$_ZNK5Gluco3vecINS_6Solver7VarDataEE4sizeEv = comdat any

$_ZNK5Gluco3vecINS_5lboolEEixEi = comdat any

$_ZNK5Gluco5lbooleoEb = comdat any

$_ZN5Gluco15RegionAllocatorIjEixEj = comdat any

$_ZNK5Gluco15ClauseAllocator3leaEj = comdat any

$_ZNK5Gluco15RegionAllocatorIjE3leaEj = comdat any

$_ZN5Gluco15RegionAllocatorIjE5free_Ei = comdat any

$_ZN5Gluco15ClauseAllocator16clauseWord32SizeEib = comdat any

$_ZNK5Gluco6Clause9has_extraEv = comdat any

$_ZNK5Gluco3vecINS_3LitEEixEi = comdat any

$_ZNK5Gluco4HeapINS_6Solver10VarOrderLtEE6inHeapEi = comdat any

$_ZN5Gluco4HeapINS_6Solver10VarOrderLtEE6insertEi = comdat any

$_ZN5Gluco3vecIiE6growToEiRKi = comdat any

$_ZN5Gluco4HeapINS_6Solver10VarOrderLtEE11percolateUpEi = comdat any

$_ZN5Gluco3vecIiE8capacityEi = comdat any

$_ZN5Gluco3vecIiE4imaxEii = comdat any

$_ZN5Gluco4HeapINS_6Solver10VarOrderLtEE6parentEi = comdat any

$_ZNK5Gluco6Solver10VarOrderLtclEii = comdat any

$_ZNK5Gluco3vecIdEixEi = comdat any

$_ZN5Gluco6Clause8activityEv = comdat any

$_ZNK5Gluco6Clause20sizeWithoutSelectorsEv = comdat any

$_ZNK5Gluco3vecINS_6Solver7VarDataEEixEi = comdat any

$_ZN5Gluco6Solver15varBumpActivityEid = comdat any

$_ZN5Gluco3vecIdEixEi = comdat any

$_ZN5Gluco4HeapINS_6Solver10VarOrderLtEE8decreaseEi = comdat any

$_ZN5Gluco6Solver12checkGarbageEd = comdat any

$_ZNK5Gluco6Clause10relocationEv = comdat any

$_ZN5Gluco15ClauseAllocator5allocINS_6ClauseEEEjRKT_b = comdat any

$_ZN5Gluco6Clause8relocateEj = comdat any

$_ZNK5Gluco6Clause4markEv = comdat any

$_ZN5Gluco6Clause15calcAbstractionEv = comdat any

$_ZN5Gluco15RegionAllocatorIjE5allocEi = comdat any

$_ZN5Gluco15ClauseAllocator3leaEj = comdat any

$_ZN5Gluco6ClauseC2IS0_EERKT_bb = comdat any

$_ZN5Gluco15RegionAllocatorIjE3leaEj = comdat any

$_ZN5Gluco15RegionAllocatorIjE6moveToERS1_ = comdat any

$_ZN5Gluco3vecINS0_INS_6Solver7WatcherEEEEC2Ev = comdat any

$_ZN5Gluco6bqueueIjE6growToEi = comdat any

$_ZN5Gluco3vecIjE6growToEi = comdat any

$_ZN5Gluco3vecIjE8capacityEi = comdat any

$_ZN5Gluco3vecIjE4imaxEii = comdat any

$_ZN5Gluco3vecINS0_INS_6Solver7WatcherEEEE6growToEi = comdat any

$_ZN5Gluco5toIntENS_3LitE = comdat any

$_ZN5Gluco3vecIcE6growToEiRKc = comdat any

$_ZN5Gluco3vecINS0_INS_6Solver7WatcherEEEE8capacityEi = comdat any

$_ZN5Gluco3vecINS_6Solver7WatcherEEC2Ev = comdat any

$_ZN5Gluco3vecINS0_INS_6Solver7WatcherEEEE4imaxEii = comdat any

$_ZN5Gluco3vecIcE8capacityEi = comdat any

$_ZN5Gluco3vecIcE4imaxEii = comdat any

$_ZN5Gluco3vecINS_5lboolEE8capacityEi = comdat any

$_ZN5Gluco3vecINS_5lboolEE4imaxEii = comdat any

$_ZN5Gluco3vecINS_6Solver7VarDataEE8capacityEi = comdat any

$_ZN5Gluco3vecINS_6Solver7VarDataEE4imaxEii = comdat any

$_ZN5Gluco3vecIdE8capacityEi = comdat any

$_ZN5Gluco3vecIdE4imaxEii = comdat any

$_ZN5Gluco3vecINS_3LitEE4imaxEii = comdat any

$_ZN5Gluco4sortINS_3LitENS_16LessThan_defaultIS1_EEEEvRNS_3vecIT_EET0_ = comdat any

$_ZN5Gluco4sortINS_3LitENS_16LessThan_defaultIS1_EEEEvPT_iT0_ = comdat any

$_ZN5Gluco3vecINS_3LitEEcvPS1_Ev = comdat any

$_ZN5Gluco13selectionSortINS_3LitENS_16LessThan_defaultIS1_EEEEvPT_iT0_ = comdat any

$_ZN5Gluco16LessThan_defaultINS_3LitEEclES1_S1_ = comdat any

$_ZNK5Gluco3LitltES0_ = comdat any

$_ZN5Gluco6ClauseC2INS_3vecINS_3LitEEEEERKT_bb = comdat any

$_ZN5Gluco3vecINS0_INS_6Solver7WatcherEEEEixEi = comdat any

$_ZN5Gluco3vecINS_6Solver7WatcherEE8capacityEi = comdat any

$_ZN5Gluco3vecINS_6Solver7WatcherEE4imaxEii = comdat any

$_ZNK5Gluco6Solver7WatcherneERKS1_ = comdat any

$_ZN5Gluco3vecINS_6Solver7WatcherEE3popEv = comdat any

$_ZN5Gluco3vecIiE3popEv = comdat any

$_ZN5Gluco4HeapINS_6Solver10VarOrderLtEE13percolateDownEi = comdat any

$_ZN5Gluco4HeapINS_6Solver10VarOrderLtEE4leftEi = comdat any

$_ZN5Gluco4HeapINS_6Solver10VarOrderLtEE5rightEi = comdat any

$_ZN5Gluco3vecINS_3LitEE7shrink_Ei = comdat any

$_ZN5Gluco3vecINS_3LitEE6growToEi = comdat any

$_ZN5Gluco8OccListsINS_3LitENS_3vecINS_6Solver7WatcherEEENS3_14WatcherDeletedEE5cleanERKS1_ = comdat any

$_ZNK5Gluco6Solver14WatcherDeletedclERKNS0_7WatcherE = comdat any

$_ZNK5Gluco15ClauseAllocatorixEj = comdat any

$_ZNK5Gluco15RegionAllocatorIjEixEj = comdat any

$_ZN5Gluco4sortIj11reduceDB_ltEEvPT_iT0_ = comdat any

$_ZN5Gluco3vecIjEcvPjEv = comdat any

$_ZN5Gluco13selectionSortIj11reduceDB_ltEEvPT_iT0_ = comdat any

$_ZN11reduceDB_ltclEjj = comdat any

$_ZN5Gluco5lboolC2Ev = comdat any

$_ZN5Gluco3vecINS0_INS_6Solver7WatcherEEEE7shrink_Ei = comdat any

$_ZNK5Gluco3vecINS0_INS_6Solver7WatcherEEEE4sizeEv = comdat any

$_ZN5Gluco3vecIcE7shrink_Ei = comdat any

$_ZNK5Gluco3vecIcE4sizeEv = comdat any

$_ZTVN5Gluco10BoolOptionE = comdat any

$_ZTIN5Gluco10BoolOptionE = comdat any

$_ZTSN5Gluco10BoolOptionE = comdat any

$_ZTIN5Gluco6OptionE = comdat any

$_ZTSN5Gluco6OptionE = comdat any

$_ZTVN5Gluco6OptionE = comdat any

$_ZZN5Gluco6Option13getOptionListEvE7options = comdat any

$_ZGVZN5Gluco6Option13getOptionListEvE7options = comdat any

$_ZTVN5Gluco12DoubleOptionE = comdat any

$_ZTIN5Gluco12DoubleOptionE = comdat any

$_ZTSN5Gluco12DoubleOptionE = comdat any

$_ZTVN5Gluco9IntOptionE = comdat any

$_ZTIN5Gluco9IntOptionE = comdat any

$_ZTSN5Gluco9IntOptionE = comdat any

$_ZTVN5Gluco12StringOptionE = comdat any

$_ZTIN5Gluco12StringOptionE = comdat any

$_ZTSN5Gluco12StringOptionE = comdat any

@_ZL15opt_incremental = internal global %"class.Gluco::BoolOption" zeroinitializer, align 8
@_ZL4_cat = internal global ptr @.str.107, align 8
@.str = private unnamed_addr constant [12 x i8] c"incremental\00", align 1
@.str.1 = private unnamed_addr constant [28 x i8] c"Use incremental SAT solving\00", align 1
@__dso_handle = external hidden global i8
@_ZL5opt_K = internal global %"class.Gluco::DoubleOption" zeroinitializer, align 8
@_ZL3_cr = internal global ptr @.str.118, align 8
@.str.3 = private unnamed_addr constant [2 x i8] c"K\00", align 1
@.str.4 = private unnamed_addr constant [35 x i8] c"The constant used to force restart\00", align 1
@_ZL5opt_R = internal global %"class.Gluco::DoubleOption" zeroinitializer, align 8
@.str.6 = private unnamed_addr constant [2 x i8] c"R\00", align 1
@.str.7 = private unnamed_addr constant [35 x i8] c"The constant used to block restart\00", align 1
@_ZL18opt_size_lbd_queue = internal global %"class.Gluco::IntOption" zeroinitializer, align 8
@.str.9 = private unnamed_addr constant [11 x i8] c"szLBDQueue\00", align 1
@.str.10 = private unnamed_addr constant [46 x i8] c"The size of moving average for LBD (restarts)\00", align 1
@_ZL20opt_size_trail_queue = internal global %"class.Gluco::IntOption" zeroinitializer, align 8
@.str.12 = private unnamed_addr constant [13 x i8] c"szTrailQueue\00", align 1
@.str.13 = private unnamed_addr constant [54 x i8] c"The size of moving average for trail (block restarts)\00", align 1
@_ZL19opt_first_reduce_db = internal global %"class.Gluco::IntOption" zeroinitializer, align 8
@_ZL5_cred = internal global ptr @.str.131, align 8
@.str.15 = private unnamed_addr constant [14 x i8] c"firstReduceDB\00", align 1
@.str.16 = private unnamed_addr constant [51 x i8] c"The number of conflicts before the first reduce DB\00", align 1
@_ZL17opt_inc_reduce_db = internal global %"class.Gluco::IntOption" zeroinitializer, align 8
@.str.18 = private unnamed_addr constant [12 x i8] c"incReduceDB\00", align 1
@.str.19 = private unnamed_addr constant [24 x i8] c"Increment for reduce DB\00", align 1
@_ZL22opt_spec_inc_reduce_db = internal global %"class.Gluco::IntOption" zeroinitializer, align 8
@.str.21 = private unnamed_addr constant [19 x i8] c"specialIncReduceDB\00", align 1
@.str.22 = private unnamed_addr constant [32 x i8] c"Special increment for reduce DB\00", align 1
@_ZL24opt_lb_lbd_frozen_clause = internal global %"class.Gluco::IntOption" zeroinitializer, align 8
@.str.24 = private unnamed_addr constant [19 x i8] c"minLBDFrozenClause\00", align 1
@.str.25 = private unnamed_addr constant [71 x i8] c"Protect clauses if their LBD decrease and is lower than (for one turn)\00", align 1
@_ZL28opt_lb_size_minimzing_clause = internal global %"class.Gluco::IntOption" zeroinitializer, align 8
@_ZL3_cm = internal global ptr @.str.132, align 8
@.str.27 = private unnamed_addr constant [24 x i8] c"minSizeMinimizingClause\00", align 1
@.str.28 = private unnamed_addr constant [41 x i8] c"The min size required to minimize clause\00", align 1
@_ZL27opt_lb_lbd_minimzing_clause = internal global %"class.Gluco::IntOption" zeroinitializer, align 8
@.str.30 = private unnamed_addr constant [23 x i8] c"minLBDMinimizingClause\00", align 1
@.str.31 = private unnamed_addr constant [40 x i8] c"The min LBD required to minimize clause\00", align 1
@_ZL13opt_var_decay = internal global %"class.Gluco::DoubleOption" zeroinitializer, align 8
@.str.33 = private unnamed_addr constant [10 x i8] c"var-decay\00", align 1
@.str.34 = private unnamed_addr constant [35 x i8] c"The variable activity decay factor\00", align 1
@_ZL16opt_clause_decay = internal global %"class.Gluco::DoubleOption" zeroinitializer, align 8
@.str.36 = private unnamed_addr constant [10 x i8] c"cla-decay\00", align 1
@.str.37 = private unnamed_addr constant [33 x i8] c"The clause activity decay factor\00", align 1
@_ZL19opt_random_var_freq = internal global %"class.Gluco::DoubleOption" zeroinitializer, align 8
@.str.39 = private unnamed_addr constant [9 x i8] c"rnd-freq\00", align 1
@.str.40 = private unnamed_addr constant [82 x i8] c"The frequency with which the decision heuristic tries to choose a random variable\00", align 1
@_ZL15opt_random_seed = internal global %"class.Gluco::DoubleOption" zeroinitializer, align 8
@.str.42 = private unnamed_addr constant [9 x i8] c"rnd-seed\00", align 1
@.str.43 = private unnamed_addr constant [38 x i8] c"Used by the random variable selection\00", align 1
@_ZL14opt_ccmin_mode = internal global %"class.Gluco::IntOption" zeroinitializer, align 8
@.str.45 = private unnamed_addr constant [11 x i8] c"ccmin-mode\00", align 1
@.str.46 = private unnamed_addr constant [64 x i8] c"Controls conflict clause minimization (0=none, 1=basic, 2=deep)\00", align 1
@_ZL16opt_phase_saving = internal global %"class.Gluco::IntOption" zeroinitializer, align 8
@.str.48 = private unnamed_addr constant [13 x i8] c"phase-saving\00", align 1
@.str.49 = private unnamed_addr constant [63 x i8] c"Controls the level of phase saving (0=none, 1=limited, 2=full)\00", align 1
@_ZL16opt_rnd_init_act = internal global %"class.Gluco::BoolOption" zeroinitializer, align 8
@.str.51 = private unnamed_addr constant [9 x i8] c"rnd-init\00", align 1
@.str.52 = private unnamed_addr constant [31 x i8] c"Randomize the initial activity\00", align 1
@_ZL16opt_garbage_frac = internal global %"class.Gluco::DoubleOption" zeroinitializer, align 8
@.str.54 = private unnamed_addr constant [8 x i8] c"gc-frac\00", align 1
@.str.55 = private unnamed_addr constant [79 x i8] c"The fraction of wasted memory allowed before a garbage collection is triggered\00", align 1
@opt_certified_ = global %"class.Gluco::BoolOption" zeroinitializer, align 8
@_ZL10_certified = internal global ptr @.str.133, align 8
@.str.57 = private unnamed_addr constant [10 x i8] c"certified\00", align 1
@.str.58 = private unnamed_addr constant [34 x i8] c"Certified UNSAT using DRUP format\00", align 1
@opt_certified_file_ = global %"class.Gluco::StringOption" zeroinitializer, align 8
@.str.60 = private unnamed_addr constant [17 x i8] c"certified-output\00", align 1
@.str.61 = private unnamed_addr constant [28 x i8] c"Certified UNSAT output file\00", align 1
@.str.62 = private unnamed_addr constant [5 x i8] c"NULL\00", align 1
@_ZTVN5Gluco6SolverE = unnamed_addr constant { [6 x ptr] } { [6 x ptr] [ptr null, ptr @_ZTIN5Gluco6SolverE, ptr @_ZN5Gluco6SolverD1Ev, ptr @_ZN5Gluco6SolverD0Ev, ptr @_ZN5Gluco6Solver5resetEv, ptr @_ZN5Gluco6Solver14garbageCollectEv] }, align 8
@.str.63 = private unnamed_addr constant [12 x i8] c"/dev/stdout\00", align 1
@.str.64 = private unnamed_addr constant [3 x i8] c"wb\00", align 1
@_ZN5GlucoL9lit_UndefE = internal constant %"struct.Gluco::Lit" { i32 -2 }, align 4
@.str.65 = private unnamed_addr constant [4 x i8] c"%i \00", align 1
@.str.66 = private unnamed_addr constant [3 x i8] c"0\0A\00", align 1
@.str.67 = private unnamed_addr constant [3 x i8] c"d \00", align 1
@__const._ZN5Gluco6Solver7analyzeEjRNS_3vecINS_3LitEEES4_RiRjS6_.p = private unnamed_addr constant %"struct.Gluco::Lit" { i32 -2 }, align 4
@.str.68 = private unnamed_addr constant [69 x i8] c"c | %8d   %7d    %5d | %7d %8d %8d | %5d %8d   %6d %8d | %6.3f %% |\0A\00", align 1
@__const._ZN5Gluco6Solver6searchEi.next = private unnamed_addr constant %"struct.Gluco::Lit" { i32 -2 }, align 4
@.str.69 = private unnamed_addr constant [53 x i8] c"c---------- Glucose Stats -------------------------\0A\00", align 1
@.str.70 = private unnamed_addr constant [31 x i8] c"c restarts              : %ld\0A\00", align 1
@.str.71 = private unnamed_addr constant [31 x i8] c"c nb ReduceDB           : %ld\0A\00", align 1
@.str.72 = private unnamed_addr constant [31 x i8] c"c nb removed Clauses    : %ld\0A\00", align 1
@.str.73 = private unnamed_addr constant [31 x i8] c"c nb learnts DL2        : %ld\0A\00", align 1
@.str.74 = private unnamed_addr constant [31 x i8] c"c nb learnts size 2     : %ld\0A\00", align 1
@.str.75 = private unnamed_addr constant [31 x i8] c"c nb learnts size 1     : %ld\0A\00", align 1
@.str.76 = private unnamed_addr constant [31 x i8] c"c conflicts             : %ld\0A\00", align 1
@.str.77 = private unnamed_addr constant [31 x i8] c"c decisions             : %ld\0A\00", align 1
@.str.78 = private unnamed_addr constant [31 x i8] c"c propagations          : %ld\0A\00", align 1
@.str.79 = private unnamed_addr constant [44 x i8] c"c SAT Calls             : %d in %g seconds\0A\00", align 1
@.str.80 = private unnamed_addr constant [44 x i8] c"c UNSAT Calls           : %d in %g seconds\0A\00", align 1
@.str.81 = private unnamed_addr constant [53 x i8] c"c--------------------------------------------------\0A\00", align 1
@.str.82 = private unnamed_addr constant [62 x i8] c"Can not use incremental and certified unsat in the same time\0A\00", align 1
@.str.83 = private unnamed_addr constant [109 x i8] c"c ========================================[ MAGIC CONSTANTS ]==============================================\0A\00", align 1
@.str.84 = private unnamed_addr constant [109 x i8] c"c | Constants are supposed to work well together :-)                                                      |\0A\00", align 1
@.str.85 = private unnamed_addr constant [109 x i8] c"c | however, if you find better choices, please let us known...                                           |\0A\00", align 1
@.str.86 = private unnamed_addr constant [109 x i8] c"c |-------------------------------------------------------------------------------------------------------|\0A\00", align 1
@.str.87 = private unnamed_addr constant [109 x i8] c"c |                                |                                |                                     |\0A\00", align 1
@.str.88 = private unnamed_addr constant [109 x i8] c"c | - Restarts:                    | - Reduce Clause DB:            | - Minimize Asserting:               |\0A\00", align 1
@.str.89 = private unnamed_addr constant [103 x i8] c"c |   * LBD Queue    : %6d      |   * First     : %6d         |    * size < %3d                     |\0A\00", align 1
@.str.90 = private unnamed_addr constant [103 x i8] c"c |   * Trail  Queue : %6d      |   * Inc       : %6d         |    * lbd  < %3d                     |\0A\00", align 1
@.str.91 = private unnamed_addr constant [105 x i8] c"c |   * K            : %6.2f      |   * Special   : %6d         |                                     |\0A\00", align 1
@.str.92 = private unnamed_addr constant [109 x i8] c"c |   * R            : %6.2f      |   * Protected :  (lbd)< %2d     |                                     |\0A\00", align 1
@.str.93 = private unnamed_addr constant [106 x i8] c"c ==================================[ Search Statistics (every %6d conflicts) ]=========================\0A\00", align 1
@.str.94 = private unnamed_addr constant [109 x i8] c"c |                                                                                                       |\0A\00", align 1
@.str.95 = private unnamed_addr constant [109 x i8] c"c |          RESTARTS           |          ORIGINAL         |              LEARNT              | Progress |\0A\00", align 1
@.str.96 = private unnamed_addr constant [109 x i8] c"c |       NB   Blocked  Avg Cfc |    Vars  Clauses Literals |   Red   Learnts    LBD2  Removed |          |\0A\00", align 1
@.str.97 = private unnamed_addr constant [109 x i8] c"c =========================================================================================================\0A\00", align 1
@.str.98 = private unnamed_addr constant [6 x i8] c"%s%d \00", align 1
@.str.99 = private unnamed_addr constant [2 x i8] c"-\00", align 1
@.str.100 = private unnamed_addr constant [1 x i8] zeroinitializer, align 1
@stderr = external global ptr, align 8
@.str.101 = private unnamed_addr constant [24 x i8] c"could not open file %s\0A\00", align 1
@.str.102 = private unnamed_addr constant [20 x i8] c"p cnf 1 2\0A1 0\0A-1 0\0A\00", align 1
@.str.103 = private unnamed_addr constant [13 x i8] c"p cnf %d %d\0A\00", align 1
@.str.104 = private unnamed_addr constant [8 x i8] c"%s%d 0\0A\00", align 1
@.str.105 = private unnamed_addr constant [37 x i8] c"Wrote %d clauses with %d variables.\0A\00", align 1
@.str.106 = private unnamed_addr constant [65 x i8] c"|  Garbage collection:   %12d bytes => %12d bytes             |\0A\00", align 1
@_ZTIN5Gluco6SolverE = constant { ptr, ptr } { ptr getelementptr inbounds (ptr, ptr @_ZTVN10__cxxabiv117__class_type_infoE, i64 2), ptr @_ZTSN5Gluco6SolverE }, align 8
@_ZTVN10__cxxabiv117__class_type_infoE = external global [0 x ptr]
@_ZTSN5Gluco6SolverE = constant [16 x i8] c"N5Gluco6SolverE\00", align 1
@.str.107 = private unnamed_addr constant [5 x i8] c"CORE\00", align 1
@.str.108 = private unnamed_addr constant [7 x i8] c"<bool>\00", align 1
@_ZTVN5Gluco10BoolOptionE = linkonce_odr unnamed_addr constant { [6 x ptr] } { [6 x ptr] [ptr null, ptr @_ZTIN5Gluco10BoolOptionE, ptr @_ZN5Gluco6OptionD2Ev, ptr @_ZN5Gluco10BoolOptionD0Ev, ptr @_ZN5Gluco10BoolOption5parseEPKc, ptr @_ZN5Gluco10BoolOption4helpEb] }, comdat, align 8
@_ZTIN5Gluco10BoolOptionE = linkonce_odr constant { ptr, ptr, ptr } { ptr getelementptr inbounds (ptr, ptr @_ZTVN10__cxxabiv120__si_class_type_infoE, i64 2), ptr @_ZTSN5Gluco10BoolOptionE, ptr @_ZTIN5Gluco6OptionE }, comdat, align 8
@_ZTVN10__cxxabiv120__si_class_type_infoE = external global [0 x ptr]
@_ZTSN5Gluco10BoolOptionE = linkonce_odr constant [21 x i8] c"N5Gluco10BoolOptionE\00", comdat, align 1
@_ZTIN5Gluco6OptionE = linkonce_odr constant { ptr, ptr } { ptr getelementptr inbounds (ptr, ptr @_ZTVN10__cxxabiv117__class_type_infoE, i64 2), ptr @_ZTSN5Gluco6OptionE }, comdat, align 8
@_ZTSN5Gluco6OptionE = linkonce_odr constant [16 x i8] c"N5Gluco6OptionE\00", comdat, align 1
@_ZTVN5Gluco6OptionE = linkonce_odr unnamed_addr constant { [6 x ptr] } { [6 x ptr] [ptr null, ptr @_ZTIN5Gluco6OptionE, ptr @_ZN5Gluco6OptionD2Ev, ptr @_ZN5Gluco6OptionD0Ev, ptr @__cxa_pure_virtual, ptr @__cxa_pure_virtual] }, comdat, align 8
@_ZZN5Gluco6Option13getOptionListEvE7options = linkonce_odr global %"class.Gluco::vec.8" zeroinitializer, comdat, align 8
@_ZGVZN5Gluco6Option13getOptionListEvE7options = linkonce_odr global i64 0, comdat, align 8
@.str.109 = private unnamed_addr constant [15 x i8] c"Out of memory\0A\00", align 1
@.str.110 = private unnamed_addr constant [4 x i8] c"no-\00", align 1
@.str.111 = private unnamed_addr constant [14 x i8] c"  -%s, -no-%s\00", align 1
@.str.112 = private unnamed_addr constant [2 x i8] c" \00", align 1
@.str.113 = private unnamed_addr constant [15 x i8] c"(default: %s)\0A\00", align 1
@.str.114 = private unnamed_addr constant [3 x i8] c"on\00", align 1
@.str.115 = private unnamed_addr constant [4 x i8] c"off\00", align 1
@.str.116 = private unnamed_addr constant [13 x i8] c"\0A        %s\0A\00", align 1
@.str.117 = private unnamed_addr constant [2 x i8] c"\0A\00", align 1
@.str.118 = private unnamed_addr constant [16 x i8] c"CORE -- RESTART\00", align 1
@.str.119 = private unnamed_addr constant [9 x i8] c"<double>\00", align 1
@_ZTVN5Gluco12DoubleOptionE = linkonce_odr unnamed_addr constant { [6 x ptr] } { [6 x ptr] [ptr null, ptr @_ZTIN5Gluco12DoubleOptionE, ptr @_ZN5Gluco6OptionD2Ev, ptr @_ZN5Gluco12DoubleOptionD0Ev, ptr @_ZN5Gluco12DoubleOption5parseEPKc, ptr @_ZN5Gluco12DoubleOption4helpEb] }, comdat, align 8
@_ZTIN5Gluco12DoubleOptionE = linkonce_odr constant { ptr, ptr, ptr } { ptr getelementptr inbounds (ptr, ptr @_ZTVN10__cxxabiv120__si_class_type_infoE, i64 2), ptr @_ZTSN5Gluco12DoubleOptionE, ptr @_ZTIN5Gluco6OptionE }, comdat, align 8
@_ZTSN5Gluco12DoubleOptionE = linkonce_odr constant [23 x i8] c"N5Gluco12DoubleOptionE\00", comdat, align 1
@.str.120 = private unnamed_addr constant [2 x i8] c"=\00", align 1
@.str.121 = private unnamed_addr constant [49 x i8] c"ERROR! value <%s> is too large for option \22%s\22.\0A\00", align 1
@.str.122 = private unnamed_addr constant [49 x i8] c"ERROR! value <%s> is too small for option \22%s\22.\0A\00", align 1
@.str.123 = private unnamed_addr constant [50 x i8] c"  -%-12s = %-8s %c%4.2g .. %4.2g%c (default: %g)\0A\00", align 1
@.str.124 = private unnamed_addr constant [8 x i8] c"<int32>\00", align 1
@_ZTVN5Gluco9IntOptionE = linkonce_odr unnamed_addr constant { [6 x ptr] } { [6 x ptr] [ptr null, ptr @_ZTIN5Gluco9IntOptionE, ptr @_ZN5Gluco6OptionD2Ev, ptr @_ZN5Gluco9IntOptionD0Ev, ptr @_ZN5Gluco9IntOption5parseEPKc, ptr @_ZN5Gluco9IntOption4helpEb] }, comdat, align 8
@_ZTIN5Gluco9IntOptionE = linkonce_odr constant { ptr, ptr, ptr } { ptr getelementptr inbounds (ptr, ptr @_ZTVN10__cxxabiv120__si_class_type_infoE, i64 2), ptr @_ZTSN5Gluco9IntOptionE, ptr @_ZTIN5Gluco6OptionE }, comdat, align 8
@_ZTSN5Gluco9IntOptionE = linkonce_odr constant [19 x i8] c"N5Gluco9IntOptionE\00", comdat, align 1
@.str.125 = private unnamed_addr constant [18 x i8] c"  -%-12s = %-8s [\00", align 1
@.str.126 = private unnamed_addr constant [5 x i8] c"imin\00", align 1
@.str.127 = private unnamed_addr constant [4 x i8] c"%4d\00", align 1
@.str.128 = private unnamed_addr constant [5 x i8] c" .. \00", align 1
@.str.129 = private unnamed_addr constant [5 x i8] c"imax\00", align 1
@.str.130 = private unnamed_addr constant [17 x i8] c"] (default: %d)\0A\00", align 1
@.str.131 = private unnamed_addr constant [15 x i8] c"CORE -- REDUCE\00", align 1
@.str.132 = private unnamed_addr constant [17 x i8] c"CORE -- MINIMIZE\00", align 1
@.str.133 = private unnamed_addr constant [24 x i8] c"CORE -- CERTIFIED UNSAT\00", align 1
@.str.134 = private unnamed_addr constant [9 x i8] c"<string>\00", align 1
@_ZTVN5Gluco12StringOptionE = linkonce_odr unnamed_addr constant { [6 x ptr] } { [6 x ptr] [ptr null, ptr @_ZTIN5Gluco12StringOptionE, ptr @_ZN5Gluco6OptionD2Ev, ptr @_ZN5Gluco12StringOptionD0Ev, ptr @_ZN5Gluco12StringOption5parseEPKc, ptr @_ZN5Gluco12StringOption4helpEb] }, comdat, align 8
@_ZTIN5Gluco12StringOptionE = linkonce_odr constant { ptr, ptr, ptr } { ptr getelementptr inbounds (ptr, ptr @_ZTVN10__cxxabiv120__si_class_type_infoE, i64 2), ptr @_ZTSN5Gluco12StringOptionE, ptr @_ZTIN5Gluco6OptionE }, comdat, align 8
@_ZTSN5Gluco12StringOptionE = linkonce_odr constant [23 x i8] c"N5Gluco12StringOptionE\00", comdat, align 1
@.str.135 = private unnamed_addr constant [16 x i8] c"  -%-10s = %8s\0A\00", align 1
@llvm.global_ctors = appending global [1 x { i32, ptr, ptr }] [{ i32, ptr, ptr } { i32 65535, ptr @_GLOBAL__sub_I_Glucose.cpp, ptr null }]

@_ZN5Gluco6SolverC1Ev = unnamed_addr alias void (ptr), ptr @_ZN5Gluco6SolverC2Ev
@_ZN5Gluco6SolverD1Ev = unnamed_addr alias void (ptr), ptr @_ZN5Gluco6SolverD2Ev

; Function Attrs: nounwind uwtable
define internal void @__cxx_global_var_init() #0 section ".text.startup" {
  %1 = load ptr, ptr @_ZL4_cat, align 8, !tbaa !3
  call void @_ZN5Gluco10BoolOptionC2EPKcS2_S2_b(ptr noundef nonnull align 8 dereferenceable(41) @_ZL15opt_incremental, ptr noundef %1, ptr noundef @.str, ptr noundef @.str.1, i1 noundef zeroext false)
  %2 = call i32 @__cxa_atexit(ptr @_ZN5Gluco6OptionD2Ev, ptr @_ZL15opt_incremental, ptr @__dso_handle) #2
  ret void
}

; Function Attrs: mustprogress nounwind uwtable
define linkonce_odr void @_ZN5Gluco10BoolOptionC2EPKcS2_S2_b(ptr noundef nonnull align 8 dereferenceable(41) %0, ptr noundef %1, ptr noundef %2, ptr noundef %3, i1 noundef zeroext %4) unnamed_addr #1 comdat align 2 {
  %6 = alloca ptr, align 8
  %7 = alloca ptr, align 8
  %8 = alloca ptr, align 8
  %9 = alloca ptr, align 8
  %10 = alloca i8, align 1
  store ptr %0, ptr %6, align 8, !tbaa !8
  store ptr %1, ptr %7, align 8, !tbaa !3
  store ptr %2, ptr %8, align 8, !tbaa !3
  store ptr %3, ptr %9, align 8, !tbaa !3
  %11 = zext i1 %4 to i8
  store i8 %11, ptr %10, align 1, !tbaa !10
  %12 = load ptr, ptr %6, align 8
  %13 = load ptr, ptr %8, align 8, !tbaa !3
  %14 = load ptr, ptr %9, align 8, !tbaa !3
  %15 = load ptr, ptr %7, align 8, !tbaa !3
  call void @_ZN5Gluco6OptionC2EPKcS2_S2_S2_(ptr noundef nonnull align 8 dereferenceable(40) %12, ptr noundef %13, ptr noundef %14, ptr noundef %15, ptr noundef @.str.108)
  store ptr getelementptr inbounds inrange(-16, 32) ({ [6 x ptr] }, ptr @_ZTVN5Gluco10BoolOptionE, i32 0, i32 0, i32 2), ptr %12, align 8, !tbaa !12
  %16 = getelementptr inbounds nuw %"class.Gluco::BoolOption", ptr %12, i32 0, i32 1
  %17 = load i8, ptr %10, align 1, !tbaa !10, !range !14, !noundef !15
  %18 = trunc i8 %17 to i1
  %19 = zext i1 %18 to i8
  store i8 %19, ptr %16, align 8, !tbaa !16
  ret void
}

; Function Attrs: nounwind
declare i32 @__cxa_atexit(ptr, ptr, ptr) #2

; Function Attrs: nounwind uwtable
define internal void @__cxx_global_var_init.2() #0 section ".text.startup" {
  %1 = alloca %"struct.Gluco::DoubleRange", align 8
  %2 = load ptr, ptr @_ZL3_cr, align 8, !tbaa !3
  call void @_ZN5Gluco11DoubleRangeC2Edbdb(ptr noundef nonnull align 8 dereferenceable(18) %1, double noundef 0.000000e+00, i1 noundef zeroext false, double noundef 1.000000e+00, i1 noundef zeroext false)
  call void @_ZN5Gluco12DoubleOptionC2EPKcS2_S2_dNS_11DoubleRangeE(ptr noundef nonnull align 8 dereferenceable(72) @_ZL5opt_K, ptr noundef %2, ptr noundef @.str.3, ptr noundef @.str.4, double noundef 8.000000e-01, ptr noundef byval(%"struct.Gluco::DoubleRange") align 8 %1)
  %3 = call i32 @__cxa_atexit(ptr @_ZN5Gluco6OptionD2Ev, ptr @_ZL5opt_K, ptr @__dso_handle) #2
  ret void
}

; Function Attrs: mustprogress nounwind uwtable
define linkonce_odr void @_ZN5Gluco11DoubleRangeC2Edbdb(ptr noundef nonnull align 8 dereferenceable(18) %0, double noundef %1, i1 noundef zeroext %2, double noundef %3, i1 noundef zeroext %4) unnamed_addr #1 comdat align 2 {
  %6 = alloca ptr, align 8
  %7 = alloca double, align 8
  %8 = alloca i8, align 1
  %9 = alloca double, align 8
  %10 = alloca i8, align 1
  store ptr %0, ptr %6, align 8, !tbaa !19
  store double %1, ptr %7, align 8, !tbaa !21
  %11 = zext i1 %2 to i8
  store i8 %11, ptr %8, align 1, !tbaa !10
  store double %3, ptr %9, align 8, !tbaa !21
  %12 = zext i1 %4 to i8
  store i8 %12, ptr %10, align 1, !tbaa !10
  %13 = load ptr, ptr %6, align 8
  %14 = getelementptr inbounds nuw %"struct.Gluco::DoubleRange", ptr %13, i32 0, i32 0
  %15 = load double, ptr %7, align 8, !tbaa !21
  store double %15, ptr %14, align 8, !tbaa !23
  %16 = getelementptr inbounds nuw %"struct.Gluco::DoubleRange", ptr %13, i32 0, i32 1
  %17 = load double, ptr %9, align 8, !tbaa !21
  store double %17, ptr %16, align 8, !tbaa !25
  %18 = getelementptr inbounds nuw %"struct.Gluco::DoubleRange", ptr %13, i32 0, i32 2
  %19 = load i8, ptr %8, align 1, !tbaa !10, !range !14, !noundef !15
  %20 = trunc i8 %19 to i1
  %21 = zext i1 %20 to i8
  store i8 %21, ptr %18, align 8, !tbaa !26
  %22 = getelementptr inbounds nuw %"struct.Gluco::DoubleRange", ptr %13, i32 0, i32 3
  %23 = load i8, ptr %10, align 1, !tbaa !10, !range !14, !noundef !15
  %24 = trunc i8 %23 to i1
  %25 = zext i1 %24 to i8
  store i8 %25, ptr %22, align 1, !tbaa !27
  ret void
}

; Function Attrs: mustprogress nounwind uwtable
define linkonce_odr void @_ZN5Gluco12DoubleOptionC2EPKcS2_S2_dNS_11DoubleRangeE(ptr noundef nonnull align 8 dereferenceable(72) %0, ptr noundef %1, ptr noundef %2, ptr noundef %3, double noundef %4, ptr noundef byval(%"struct.Gluco::DoubleRange") align 8 %5) unnamed_addr #1 comdat align 2 {
  %7 = alloca ptr, align 8
  %8 = alloca ptr, align 8
  %9 = alloca ptr, align 8
  %10 = alloca ptr, align 8
  %11 = alloca double, align 8
  store ptr %0, ptr %7, align 8, !tbaa !28
  store ptr %1, ptr %8, align 8, !tbaa !3
  store ptr %2, ptr %9, align 8, !tbaa !3
  store ptr %3, ptr %10, align 8, !tbaa !3
  store double %4, ptr %11, align 8, !tbaa !21
  %12 = load ptr, ptr %7, align 8
  %13 = load ptr, ptr %9, align 8, !tbaa !3
  %14 = load ptr, ptr %10, align 8, !tbaa !3
  %15 = load ptr, ptr %8, align 8, !tbaa !3
  call void @_ZN5Gluco6OptionC2EPKcS2_S2_S2_(ptr noundef nonnull align 8 dereferenceable(40) %12, ptr noundef %13, ptr noundef %14, ptr noundef %15, ptr noundef @.str.119)
  store ptr getelementptr inbounds inrange(-16, 32) ({ [6 x ptr] }, ptr @_ZTVN5Gluco12DoubleOptionE, i32 0, i32 0, i32 2), ptr %12, align 8, !tbaa !12
  %16 = getelementptr inbounds nuw %"class.Gluco::DoubleOption", ptr %12, i32 0, i32 1
  call void @llvm.memcpy.p0.p0.i64(ptr align 8 %16, ptr align 8 %5, i64 24, i1 false), !tbaa.struct !30
  %17 = getelementptr inbounds nuw %"class.Gluco::DoubleOption", ptr %12, i32 0, i32 2
  %18 = load double, ptr %11, align 8, !tbaa !21
  store double %18, ptr %17, align 8, !tbaa !31
  ret void
}

; Function Attrs: nounwind uwtable
define internal void @__cxx_global_var_init.5() #0 section ".text.startup" {
  %1 = alloca %"struct.Gluco::DoubleRange", align 8
  %2 = load ptr, ptr @_ZL3_cr, align 8, !tbaa !3
  call void @_ZN5Gluco11DoubleRangeC2Edbdb(ptr noundef nonnull align 8 dereferenceable(18) %1, double noundef 1.000000e+00, i1 noundef zeroext false, double noundef 5.000000e+00, i1 noundef zeroext false)
  call void @_ZN5Gluco12DoubleOptionC2EPKcS2_S2_dNS_11DoubleRangeE(ptr noundef nonnull align 8 dereferenceable(72) @_ZL5opt_R, ptr noundef %2, ptr noundef @.str.6, ptr noundef @.str.7, double noundef 1.400000e+00, ptr noundef byval(%"struct.Gluco::DoubleRange") align 8 %1)
  %3 = call i32 @__cxa_atexit(ptr @_ZN5Gluco6OptionD2Ev, ptr @_ZL5opt_R, ptr @__dso_handle) #2
  ret void
}

; Function Attrs: nounwind uwtable
define internal void @__cxx_global_var_init.8() #0 section ".text.startup" {
  %1 = alloca %"struct.Gluco::IntRange", align 4
  %2 = load ptr, ptr @_ZL3_cr, align 8, !tbaa !3
  call void @_ZN5Gluco8IntRangeC2Eii(ptr noundef nonnull align 4 dereferenceable(8) %1, i32 noundef 10, i32 noundef 2147483647)
  %3 = load i64, ptr %1, align 4
  call void @_ZN5Gluco9IntOptionC2EPKcS2_S2_iNS_8IntRangeE(ptr noundef nonnull align 8 dereferenceable(52) @_ZL18opt_size_lbd_queue, ptr noundef %2, ptr noundef @.str.9, ptr noundef @.str.10, i32 noundef 50, i64 %3)
  %4 = call i32 @__cxa_atexit(ptr @_ZN5Gluco6OptionD2Ev, ptr @_ZL18opt_size_lbd_queue, ptr @__dso_handle) #2
  ret void
}

; Function Attrs: mustprogress nounwind uwtable
define linkonce_odr void @_ZN5Gluco8IntRangeC2Eii(ptr noundef nonnull align 4 dereferenceable(8) %0, i32 noundef %1, i32 noundef %2) unnamed_addr #1 comdat align 2 {
  %4 = alloca ptr, align 8
  %5 = alloca i32, align 4
  %6 = alloca i32, align 4
  store ptr %0, ptr %4, align 8, !tbaa !33
  store i32 %1, ptr %5, align 4, !tbaa !35
  store i32 %2, ptr %6, align 4, !tbaa !35
  %7 = load ptr, ptr %4, align 8
  %8 = getelementptr inbounds nuw %"struct.Gluco::IntRange", ptr %7, i32 0, i32 0
  %9 = load i32, ptr %5, align 4, !tbaa !35
  store i32 %9, ptr %8, align 4, !tbaa !37
  %10 = getelementptr inbounds nuw %"struct.Gluco::IntRange", ptr %7, i32 0, i32 1
  %11 = load i32, ptr %6, align 4, !tbaa !35
  store i32 %11, ptr %10, align 4, !tbaa !39
  ret void
}

; Function Attrs: mustprogress nounwind uwtable
define linkonce_odr void @_ZN5Gluco9IntOptionC2EPKcS2_S2_iNS_8IntRangeE(ptr noundef nonnull align 8 dereferenceable(52) %0, ptr noundef %1, ptr noundef %2, ptr noundef %3, i32 noundef %4, i64 %5) unnamed_addr #1 comdat align 2 {
  %7 = alloca %"struct.Gluco::IntRange", align 4
  %8 = alloca ptr, align 8
  %9 = alloca ptr, align 8
  %10 = alloca ptr, align 8
  %11 = alloca ptr, align 8
  %12 = alloca i32, align 4
  store i64 %5, ptr %7, align 4
  store ptr %0, ptr %8, align 8, !tbaa !40
  store ptr %1, ptr %9, align 8, !tbaa !3
  store ptr %2, ptr %10, align 8, !tbaa !3
  store ptr %3, ptr %11, align 8, !tbaa !3
  store i32 %4, ptr %12, align 4, !tbaa !35
  %13 = load ptr, ptr %8, align 8
  %14 = load ptr, ptr %10, align 8, !tbaa !3
  %15 = load ptr, ptr %11, align 8, !tbaa !3
  %16 = load ptr, ptr %9, align 8, !tbaa !3
  call void @_ZN5Gluco6OptionC2EPKcS2_S2_S2_(ptr noundef nonnull align 8 dereferenceable(40) %13, ptr noundef %14, ptr noundef %15, ptr noundef %16, ptr noundef @.str.124)
  store ptr getelementptr inbounds inrange(-16, 32) ({ [6 x ptr] }, ptr @_ZTVN5Gluco9IntOptionE, i32 0, i32 0, i32 2), ptr %13, align 8, !tbaa !12
  %17 = getelementptr inbounds nuw %"class.Gluco::IntOption", ptr %13, i32 0, i32 1
  call void @llvm.memcpy.p0.p0.i64(ptr align 8 %17, ptr align 4 %7, i64 8, i1 false), !tbaa.struct !42
  %18 = getelementptr inbounds nuw %"class.Gluco::IntOption", ptr %13, i32 0, i32 2
  %19 = load i32, ptr %12, align 4, !tbaa !35
  store i32 %19, ptr %18, align 8, !tbaa !43
  ret void
}

; Function Attrs: nounwind uwtable
define internal void @__cxx_global_var_init.11() #0 section ".text.startup" {
  %1 = alloca %"struct.Gluco::IntRange", align 4
  %2 = load ptr, ptr @_ZL3_cr, align 8, !tbaa !3
  call void @_ZN5Gluco8IntRangeC2Eii(ptr noundef nonnull align 4 dereferenceable(8) %1, i32 noundef 10, i32 noundef 2147483647)
  %3 = load i64, ptr %1, align 4
  call void @_ZN5Gluco9IntOptionC2EPKcS2_S2_iNS_8IntRangeE(ptr noundef nonnull align 8 dereferenceable(52) @_ZL20opt_size_trail_queue, ptr noundef %2, ptr noundef @.str.12, ptr noundef @.str.13, i32 noundef 5000, i64 %3)
  %4 = call i32 @__cxa_atexit(ptr @_ZN5Gluco6OptionD2Ev, ptr @_ZL20opt_size_trail_queue, ptr @__dso_handle) #2
  ret void
}

; Function Attrs: nounwind uwtable
define internal void @__cxx_global_var_init.14() #0 section ".text.startup" {
  %1 = alloca %"struct.Gluco::IntRange", align 4
  %2 = load ptr, ptr @_ZL5_cred, align 8, !tbaa !3
  call void @_ZN5Gluco8IntRangeC2Eii(ptr noundef nonnull align 4 dereferenceable(8) %1, i32 noundef 0, i32 noundef 2147483647)
  %3 = load i64, ptr %1, align 4
  call void @_ZN5Gluco9IntOptionC2EPKcS2_S2_iNS_8IntRangeE(ptr noundef nonnull align 8 dereferenceable(52) @_ZL19opt_first_reduce_db, ptr noundef %2, ptr noundef @.str.15, ptr noundef @.str.16, i32 noundef 2000, i64 %3)
  %4 = call i32 @__cxa_atexit(ptr @_ZN5Gluco6OptionD2Ev, ptr @_ZL19opt_first_reduce_db, ptr @__dso_handle) #2
  ret void
}

; Function Attrs: nounwind uwtable
define internal void @__cxx_global_var_init.17() #0 section ".text.startup" {
  %1 = alloca %"struct.Gluco::IntRange", align 4
  %2 = load ptr, ptr @_ZL5_cred, align 8, !tbaa !3
  call void @_ZN5Gluco8IntRangeC2Eii(ptr noundef nonnull align 4 dereferenceable(8) %1, i32 noundef 0, i32 noundef 2147483647)
  %3 = load i64, ptr %1, align 4
  call void @_ZN5Gluco9IntOptionC2EPKcS2_S2_iNS_8IntRangeE(ptr noundef nonnull align 8 dereferenceable(52) @_ZL17opt_inc_reduce_db, ptr noundef %2, ptr noundef @.str.18, ptr noundef @.str.19, i32 noundef 300, i64 %3)
  %4 = call i32 @__cxa_atexit(ptr @_ZN5Gluco6OptionD2Ev, ptr @_ZL17opt_inc_reduce_db, ptr @__dso_handle) #2
  ret void
}

; Function Attrs: nounwind uwtable
define internal void @__cxx_global_var_init.20() #0 section ".text.startup" {
  %1 = alloca %"struct.Gluco::IntRange", align 4
  %2 = load ptr, ptr @_ZL5_cred, align 8, !tbaa !3
  call void @_ZN5Gluco8IntRangeC2Eii(ptr noundef nonnull align 4 dereferenceable(8) %1, i32 noundef 0, i32 noundef 2147483647)
  %3 = load i64, ptr %1, align 4
  call void @_ZN5Gluco9IntOptionC2EPKcS2_S2_iNS_8IntRangeE(ptr noundef nonnull align 8 dereferenceable(52) @_ZL22opt_spec_inc_reduce_db, ptr noundef %2, ptr noundef @.str.21, ptr noundef @.str.22, i32 noundef 1000, i64 %3)
  %4 = call i32 @__cxa_atexit(ptr @_ZN5Gluco6OptionD2Ev, ptr @_ZL22opt_spec_inc_reduce_db, ptr @__dso_handle) #2
  ret void
}

; Function Attrs: nounwind uwtable
define internal void @__cxx_global_var_init.23() #0 section ".text.startup" {
  %1 = alloca %"struct.Gluco::IntRange", align 4
  %2 = load ptr, ptr @_ZL5_cred, align 8, !tbaa !3
  call void @_ZN5Gluco8IntRangeC2Eii(ptr noundef nonnull align 4 dereferenceable(8) %1, i32 noundef 0, i32 noundef 2147483647)
  %3 = load i64, ptr %1, align 4
  call void @_ZN5Gluco9IntOptionC2EPKcS2_S2_iNS_8IntRangeE(ptr noundef nonnull align 8 dereferenceable(52) @_ZL24opt_lb_lbd_frozen_clause, ptr noundef %2, ptr noundef @.str.24, ptr noundef @.str.25, i32 noundef 30, i64 %3)
  %4 = call i32 @__cxa_atexit(ptr @_ZN5Gluco6OptionD2Ev, ptr @_ZL24opt_lb_lbd_frozen_clause, ptr @__dso_handle) #2
  ret void
}

; Function Attrs: nounwind uwtable
define internal void @__cxx_global_var_init.26() #0 section ".text.startup" {
  %1 = alloca %"struct.Gluco::IntRange", align 4
  %2 = load ptr, ptr @_ZL3_cm, align 8, !tbaa !3
  call void @_ZN5Gluco8IntRangeC2Eii(ptr noundef nonnull align 4 dereferenceable(8) %1, i32 noundef 3, i32 noundef 2147483647)
  %3 = load i64, ptr %1, align 4
  call void @_ZN5Gluco9IntOptionC2EPKcS2_S2_iNS_8IntRangeE(ptr noundef nonnull align 8 dereferenceable(52) @_ZL28opt_lb_size_minimzing_clause, ptr noundef %2, ptr noundef @.str.27, ptr noundef @.str.28, i32 noundef 30, i64 %3)
  %4 = call i32 @__cxa_atexit(ptr @_ZN5Gluco6OptionD2Ev, ptr @_ZL28opt_lb_size_minimzing_clause, ptr @__dso_handle) #2
  ret void
}

; Function Attrs: nounwind uwtable
define internal void @__cxx_global_var_init.29() #0 section ".text.startup" {
  %1 = alloca %"struct.Gluco::IntRange", align 4
  %2 = load ptr, ptr @_ZL3_cm, align 8, !tbaa !3
  call void @_ZN5Gluco8IntRangeC2Eii(ptr noundef nonnull align 4 dereferenceable(8) %1, i32 noundef 3, i32 noundef 2147483647)
  %3 = load i64, ptr %1, align 4
  call void @_ZN5Gluco9IntOptionC2EPKcS2_S2_iNS_8IntRangeE(ptr noundef nonnull align 8 dereferenceable(52) @_ZL27opt_lb_lbd_minimzing_clause, ptr noundef %2, ptr noundef @.str.30, ptr noundef @.str.31, i32 noundef 6, i64 %3)
  %4 = call i32 @__cxa_atexit(ptr @_ZN5Gluco6OptionD2Ev, ptr @_ZL27opt_lb_lbd_minimzing_clause, ptr @__dso_handle) #2
  ret void
}

; Function Attrs: nounwind uwtable
define internal void @__cxx_global_var_init.32() #0 section ".text.startup" {
  %1 = alloca %"struct.Gluco::DoubleRange", align 8
  %2 = load ptr, ptr @_ZL4_cat, align 8, !tbaa !3
  call void @_ZN5Gluco11DoubleRangeC2Edbdb(ptr noundef nonnull align 8 dereferenceable(18) %1, double noundef 0.000000e+00, i1 noundef zeroext false, double noundef 1.000000e+00, i1 noundef zeroext false)
  call void @_ZN5Gluco12DoubleOptionC2EPKcS2_S2_dNS_11DoubleRangeE(ptr noundef nonnull align 8 dereferenceable(72) @_ZL13opt_var_decay, ptr noundef %2, ptr noundef @.str.33, ptr noundef @.str.34, double noundef 8.000000e-01, ptr noundef byval(%"struct.Gluco::DoubleRange") align 8 %1)
  %3 = call i32 @__cxa_atexit(ptr @_ZN5Gluco6OptionD2Ev, ptr @_ZL13opt_var_decay, ptr @__dso_handle) #2
  ret void
}

; Function Attrs: nounwind uwtable
define internal void @__cxx_global_var_init.35() #0 section ".text.startup" {
  %1 = alloca %"struct.Gluco::DoubleRange", align 8
  %2 = load ptr, ptr @_ZL4_cat, align 8, !tbaa !3
  call void @_ZN5Gluco11DoubleRangeC2Edbdb(ptr noundef nonnull align 8 dereferenceable(18) %1, double noundef 0.000000e+00, i1 noundef zeroext false, double noundef 1.000000e+00, i1 noundef zeroext false)
  call void @_ZN5Gluco12DoubleOptionC2EPKcS2_S2_dNS_11DoubleRangeE(ptr noundef nonnull align 8 dereferenceable(72) @_ZL16opt_clause_decay, ptr noundef %2, ptr noundef @.str.36, ptr noundef @.str.37, double noundef 0x3FEFF7CED916872B, ptr noundef byval(%"struct.Gluco::DoubleRange") align 8 %1)
  %3 = call i32 @__cxa_atexit(ptr @_ZN5Gluco6OptionD2Ev, ptr @_ZL16opt_clause_decay, ptr @__dso_handle) #2
  ret void
}

; Function Attrs: nounwind uwtable
define internal void @__cxx_global_var_init.38() #0 section ".text.startup" {
  %1 = alloca %"struct.Gluco::DoubleRange", align 8
  %2 = load ptr, ptr @_ZL4_cat, align 8, !tbaa !3
  call void @_ZN5Gluco11DoubleRangeC2Edbdb(ptr noundef nonnull align 8 dereferenceable(18) %1, double noundef 0.000000e+00, i1 noundef zeroext true, double noundef 1.000000e+00, i1 noundef zeroext true)
  call void @_ZN5Gluco12DoubleOptionC2EPKcS2_S2_dNS_11DoubleRangeE(ptr noundef nonnull align 8 dereferenceable(72) @_ZL19opt_random_var_freq, ptr noundef %2, ptr noundef @.str.39, ptr noundef @.str.40, double noundef 0.000000e+00, ptr noundef byval(%"struct.Gluco::DoubleRange") align 8 %1)
  %3 = call i32 @__cxa_atexit(ptr @_ZN5Gluco6OptionD2Ev, ptr @_ZL19opt_random_var_freq, ptr @__dso_handle) #2
  ret void
}

; Function Attrs: nounwind uwtable
define internal void @__cxx_global_var_init.41() #0 section ".text.startup" {
  %1 = alloca %"struct.Gluco::DoubleRange", align 8
  %2 = load ptr, ptr @_ZL4_cat, align 8, !tbaa !3
  call void @_ZN5Gluco11DoubleRangeC2Edbdb(ptr noundef nonnull align 8 dereferenceable(18) %1, double noundef 0.000000e+00, i1 noundef zeroext false, double noundef 0x7FF0000000000000, i1 noundef zeroext false)
  call void @_ZN5Gluco12DoubleOptionC2EPKcS2_S2_dNS_11DoubleRangeE(ptr noundef nonnull align 8 dereferenceable(72) @_ZL15opt_random_seed, ptr noundef %2, ptr noundef @.str.42, ptr noundef @.str.43, double noundef 0x4195D9C3F4000000, ptr noundef byval(%"struct.Gluco::DoubleRange") align 8 %1)
  %3 = call i32 @__cxa_atexit(ptr @_ZN5Gluco6OptionD2Ev, ptr @_ZL15opt_random_seed, ptr @__dso_handle) #2
  ret void
}

; Function Attrs: nounwind uwtable
define internal void @__cxx_global_var_init.44() #0 section ".text.startup" {
  %1 = alloca %"struct.Gluco::IntRange", align 4
  %2 = load ptr, ptr @_ZL4_cat, align 8, !tbaa !3
  call void @_ZN5Gluco8IntRangeC2Eii(ptr noundef nonnull align 4 dereferenceable(8) %1, i32 noundef 0, i32 noundef 2)
  %3 = load i64, ptr %1, align 4
  call void @_ZN5Gluco9IntOptionC2EPKcS2_S2_iNS_8IntRangeE(ptr noundef nonnull align 8 dereferenceable(52) @_ZL14opt_ccmin_mode, ptr noundef %2, ptr noundef @.str.45, ptr noundef @.str.46, i32 noundef 2, i64 %3)
  %4 = call i32 @__cxa_atexit(ptr @_ZN5Gluco6OptionD2Ev, ptr @_ZL14opt_ccmin_mode, ptr @__dso_handle) #2
  ret void
}

; Function Attrs: nounwind uwtable
define internal void @__cxx_global_var_init.47() #0 section ".text.startup" {
  %1 = alloca %"struct.Gluco::IntRange", align 4
  %2 = load ptr, ptr @_ZL4_cat, align 8, !tbaa !3
  call void @_ZN5Gluco8IntRangeC2Eii(ptr noundef nonnull align 4 dereferenceable(8) %1, i32 noundef 0, i32 noundef 2)
  %3 = load i64, ptr %1, align 4
  call void @_ZN5Gluco9IntOptionC2EPKcS2_S2_iNS_8IntRangeE(ptr noundef nonnull align 8 dereferenceable(52) @_ZL16opt_phase_saving, ptr noundef %2, ptr noundef @.str.48, ptr noundef @.str.49, i32 noundef 2, i64 %3)
  %4 = call i32 @__cxa_atexit(ptr @_ZN5Gluco6OptionD2Ev, ptr @_ZL16opt_phase_saving, ptr @__dso_handle) #2
  ret void
}

; Function Attrs: nounwind uwtable
define internal void @__cxx_global_var_init.50() #0 section ".text.startup" {
  %1 = load ptr, ptr @_ZL4_cat, align 8, !tbaa !3
  call void @_ZN5Gluco10BoolOptionC2EPKcS2_S2_b(ptr noundef nonnull align 8 dereferenceable(41) @_ZL16opt_rnd_init_act, ptr noundef %1, ptr noundef @.str.51, ptr noundef @.str.52, i1 noundef zeroext false)
  %2 = call i32 @__cxa_atexit(ptr @_ZN5Gluco6OptionD2Ev, ptr @_ZL16opt_rnd_init_act, ptr @__dso_handle) #2
  ret void
}

; Function Attrs: nounwind uwtable
define internal void @__cxx_global_var_init.53() #0 section ".text.startup" {
  %1 = alloca %"struct.Gluco::DoubleRange", align 8
  %2 = load ptr, ptr @_ZL4_cat, align 8, !tbaa !3
  call void @_ZN5Gluco11DoubleRangeC2Edbdb(ptr noundef nonnull align 8 dereferenceable(18) %1, double noundef 0.000000e+00, i1 noundef zeroext false, double noundef 0x7FF0000000000000, i1 noundef zeroext false)
  call void @_ZN5Gluco12DoubleOptionC2EPKcS2_S2_dNS_11DoubleRangeE(ptr noundef nonnull align 8 dereferenceable(72) @_ZL16opt_garbage_frac, ptr noundef %2, ptr noundef @.str.54, ptr noundef @.str.55, double noundef 2.000000e-01, ptr noundef byval(%"struct.Gluco::DoubleRange") align 8 %1)
  %3 = call i32 @__cxa_atexit(ptr @_ZN5Gluco6OptionD2Ev, ptr @_ZL16opt_garbage_frac, ptr @__dso_handle) #2
  ret void
}

; Function Attrs: nounwind uwtable
define internal void @__cxx_global_var_init.56() #0 section ".text.startup" {
  %1 = load ptr, ptr @_ZL10_certified, align 8, !tbaa !3
  call void @_ZN5Gluco10BoolOptionC2EPKcS2_S2_b(ptr noundef nonnull align 8 dereferenceable(41) @opt_certified_, ptr noundef %1, ptr noundef @.str.57, ptr noundef @.str.58, i1 noundef zeroext false)
  %2 = call i32 @__cxa_atexit(ptr @_ZN5Gluco6OptionD2Ev, ptr @opt_certified_, ptr @__dso_handle) #2
  ret void
}

; Function Attrs: nounwind uwtable
define internal void @__cxx_global_var_init.59() #0 section ".text.startup" {
  %1 = load ptr, ptr @_ZL10_certified, align 8, !tbaa !3
  call void @_ZN5Gluco12StringOptionC2EPKcS2_S2_S2_(ptr noundef nonnull align 8 dereferenceable(48) @opt_certified_file_, ptr noundef %1, ptr noundef @.str.60, ptr noundef @.str.61, ptr noundef @.str.62)
  %2 = call i32 @__cxa_atexit(ptr @_ZN5Gluco6OptionD2Ev, ptr @opt_certified_file_, ptr @__dso_handle) #2
  ret void
}

; Function Attrs: mustprogress nounwind uwtable
define linkonce_odr void @_ZN5Gluco12StringOptionC2EPKcS2_S2_S2_(ptr noundef nonnull align 8 dereferenceable(48) %0, ptr noundef %1, ptr noundef %2, ptr noundef %3, ptr noundef %4) unnamed_addr #1 comdat align 2 {
  %6 = alloca ptr, align 8
  %7 = alloca ptr, align 8
  %8 = alloca ptr, align 8
  %9 = alloca ptr, align 8
  %10 = alloca ptr, align 8
  store ptr %0, ptr %6, align 8, !tbaa !45
  store ptr %1, ptr %7, align 8, !tbaa !3
  store ptr %2, ptr %8, align 8, !tbaa !3
  store ptr %3, ptr %9, align 8, !tbaa !3
  store ptr %4, ptr %10, align 8, !tbaa !3
  %11 = load ptr, ptr %6, align 8
  %12 = load ptr, ptr %8, align 8, !tbaa !3
  %13 = load ptr, ptr %9, align 8, !tbaa !3
  %14 = load ptr, ptr %7, align 8, !tbaa !3
  call void @_ZN5Gluco6OptionC2EPKcS2_S2_S2_(ptr noundef nonnull align 8 dereferenceable(40) %11, ptr noundef %12, ptr noundef %13, ptr noundef %14, ptr noundef @.str.134)
  store ptr getelementptr inbounds inrange(-16, 32) ({ [6 x ptr] }, ptr @_ZTVN5Gluco12StringOptionE, i32 0, i32 0, i32 2), ptr %11, align 8, !tbaa !12
  %15 = getelementptr inbounds nuw %"class.Gluco::StringOption", ptr %11, i32 0, i32 1
  %16 = load ptr, ptr %10, align 8, !tbaa !3
  store ptr %16, ptr %15, align 8, !tbaa !47
  ret void
}

; Function Attrs: mustprogress nounwind uwtable
define linkonce_odr void @_ZN5Gluco6OptionD2Ev(ptr noundef nonnull align 8 dereferenceable(40) %0) unnamed_addr #1 comdat align 2 {
  %2 = alloca ptr, align 8
  store ptr %0, ptr %2, align 8, !tbaa !49
  ret void
}

; Function Attrs: mustprogress nounwind uwtable
define void @_ZN5Gluco6SolverC2Ev(ptr noundef nonnull align 8 dereferenceable(1216) %0) unnamed_addr #1 align 2 {
  %2 = alloca ptr, align 8
  %3 = alloca %"struct.Gluco::Solver::WatcherDeleted", align 8
  %4 = alloca %"struct.Gluco::Solver::WatcherDeleted", align 8
  %5 = alloca %"struct.Gluco::Solver::VarOrderLt", align 8
  store ptr %0, ptr %2, align 8, !tbaa !51
  %6 = load ptr, ptr %2, align 8
  store ptr getelementptr inbounds inrange(-16, 32) ({ [6 x ptr] }, ptr @_ZTVN5Gluco6SolverE, i32 0, i32 0, i32 2), ptr %6, align 8, !tbaa !12
  %7 = getelementptr inbounds nuw %"class.Gluco::Solver", ptr %6, i32 0, i32 1
  store i32 0, ptr %7, align 8, !tbaa !53
  %8 = getelementptr inbounds nuw %"class.Gluco::Solver", ptr %6, i32 0, i32 3
  store ptr null, ptr %8, align 8, !tbaa !81
  %9 = getelementptr inbounds nuw %"class.Gluco::Solver", ptr %6, i32 0, i32 4
  store i32 1000, ptr %9, align 8, !tbaa !82
  %10 = getelementptr inbounds nuw %"class.Gluco::Solver", ptr %6, i32 0, i32 5
  store i8 0, ptr %10, align 4, !tbaa !83
  %11 = getelementptr inbounds nuw %"class.Gluco::Solver", ptr %6, i32 0, i32 6
  store ptr null, ptr %11, align 8, !tbaa !84
  %12 = getelementptr inbounds nuw %"class.Gluco::Solver", ptr %6, i32 0, i32 7
  store i64 0, ptr %12, align 8, !tbaa !85
  %13 = getelementptr inbounds nuw %"class.Gluco::Solver", ptr %6, i32 0, i32 8
  call void @_ZN5Gluco3vecIiEC2Ev(ptr noundef nonnull align 8 dereferenceable(16) %13)
  %14 = getelementptr inbounds nuw %"class.Gluco::Solver", ptr %6, i32 0, i32 9
  call void @_ZN5Gluco3vecINS_3LitEEC2Ev(ptr noundef nonnull align 8 dereferenceable(16) %14)
  %15 = getelementptr inbounds nuw %"class.Gluco::Solver", ptr %6, i32 0, i32 11
  call void @_ZN5Gluco3vecINS_5lboolEEC2Ev(ptr noundef nonnull align 8 dereferenceable(16) %15)
  %16 = getelementptr inbounds nuw %"class.Gluco::Solver", ptr %6, i32 0, i32 12
  call void @_ZN5Gluco3vecINS_3LitEEC2Ev(ptr noundef nonnull align 8 dereferenceable(16) %16)
  %17 = getelementptr inbounds nuw %"class.Gluco::Solver", ptr %6, i32 0, i32 13
  store i32 0, ptr %17, align 8, !tbaa !86
  %18 = getelementptr inbounds nuw %"class.Gluco::Solver", ptr %6, i32 0, i32 14
  store i32 10000, ptr %18, align 4, !tbaa !87
  %19 = getelementptr inbounds nuw %"class.Gluco::Solver", ptr %6, i32 0, i32 15
  store i32 0, ptr %19, align 8, !tbaa !88
  %20 = getelementptr inbounds nuw %"class.Gluco::Solver", ptr %6, i32 0, i32 16
  %21 = call noundef nonnull align 8 dereferenceable(8) ptr @_ZN5Gluco12DoubleOptioncvRdEv(ptr noundef nonnull align 8 dereferenceable(72) @_ZL5opt_K)
  %22 = load double, ptr %21, align 8, !tbaa !21
  store double %22, ptr %20, align 8, !tbaa !89
  %23 = getelementptr inbounds nuw %"class.Gluco::Solver", ptr %6, i32 0, i32 17
  %24 = call noundef nonnull align 8 dereferenceable(8) ptr @_ZN5Gluco12DoubleOptioncvRdEv(ptr noundef nonnull align 8 dereferenceable(72) @_ZL5opt_R)
  %25 = load double, ptr %24, align 8, !tbaa !21
  store double %25, ptr %23, align 8, !tbaa !90
  %26 = getelementptr inbounds nuw %"class.Gluco::Solver", ptr %6, i32 0, i32 18
  %27 = call noundef nonnull align 4 dereferenceable(4) ptr @_ZN5Gluco9IntOptioncvRiEv(ptr noundef nonnull align 8 dereferenceable(52) @_ZL18opt_size_lbd_queue)
  %28 = load i32, ptr %27, align 4, !tbaa !35
  %29 = sitofp i32 %28 to double
  store double %29, ptr %26, align 8, !tbaa !91
  %30 = getelementptr inbounds nuw %"class.Gluco::Solver", ptr %6, i32 0, i32 19
  %31 = call noundef nonnull align 4 dereferenceable(4) ptr @_ZN5Gluco9IntOptioncvRiEv(ptr noundef nonnull align 8 dereferenceable(52) @_ZL20opt_size_trail_queue)
  %32 = load i32, ptr %31, align 4, !tbaa !35
  %33 = sitofp i32 %32 to double
  store double %33, ptr %30, align 8, !tbaa !92
  %34 = getelementptr inbounds nuw %"class.Gluco::Solver", ptr %6, i32 0, i32 20
  %35 = call noundef nonnull align 4 dereferenceable(4) ptr @_ZN5Gluco9IntOptioncvRiEv(ptr noundef nonnull align 8 dereferenceable(52) @_ZL19opt_first_reduce_db)
  %36 = load i32, ptr %35, align 4, !tbaa !35
  store i32 %36, ptr %34, align 8, !tbaa !93
  %37 = getelementptr inbounds nuw %"class.Gluco::Solver", ptr %6, i32 0, i32 21
  %38 = call noundef nonnull align 4 dereferenceable(4) ptr @_ZN5Gluco9IntOptioncvRiEv(ptr noundef nonnull align 8 dereferenceable(52) @_ZL17opt_inc_reduce_db)
  %39 = load i32, ptr %38, align 4, !tbaa !35
  store i32 %39, ptr %37, align 4, !tbaa !94
  %40 = getelementptr inbounds nuw %"class.Gluco::Solver", ptr %6, i32 0, i32 22
  %41 = call noundef nonnull align 4 dereferenceable(4) ptr @_ZN5Gluco9IntOptioncvRiEv(ptr noundef nonnull align 8 dereferenceable(52) @_ZL22opt_spec_inc_reduce_db)
  %42 = load i32, ptr %41, align 4, !tbaa !35
  store i32 %42, ptr %40, align 8, !tbaa !95
  %43 = getelementptr inbounds nuw %"class.Gluco::Solver", ptr %6, i32 0, i32 23
  %44 = call noundef nonnull align 4 dereferenceable(4) ptr @_ZN5Gluco9IntOptioncvRiEv(ptr noundef nonnull align 8 dereferenceable(52) @_ZL24opt_lb_lbd_frozen_clause)
  %45 = load i32, ptr %44, align 4, !tbaa !35
  store i32 %45, ptr %43, align 4, !tbaa !96
  %46 = getelementptr inbounds nuw %"class.Gluco::Solver", ptr %6, i32 0, i32 24
  %47 = call noundef nonnull align 4 dereferenceable(4) ptr @_ZN5Gluco9IntOptioncvRiEv(ptr noundef nonnull align 8 dereferenceable(52) @_ZL28opt_lb_size_minimzing_clause)
  %48 = load i32, ptr %47, align 4, !tbaa !35
  store i32 %48, ptr %46, align 8, !tbaa !97
  %49 = getelementptr inbounds nuw %"class.Gluco::Solver", ptr %6, i32 0, i32 25
  %50 = call noundef nonnull align 4 dereferenceable(4) ptr @_ZN5Gluco9IntOptioncvRiEv(ptr noundef nonnull align 8 dereferenceable(52) @_ZL27opt_lb_lbd_minimzing_clause)
  %51 = load i32, ptr %50, align 4, !tbaa !35
  store i32 %51, ptr %49, align 4, !tbaa !98
  %52 = getelementptr inbounds nuw %"class.Gluco::Solver", ptr %6, i32 0, i32 26
  %53 = call noundef nonnull align 8 dereferenceable(8) ptr @_ZN5Gluco12DoubleOptioncvRdEv(ptr noundef nonnull align 8 dereferenceable(72) @_ZL13opt_var_decay)
  %54 = load double, ptr %53, align 8, !tbaa !21
  store double %54, ptr %52, align 8, !tbaa !99
  %55 = getelementptr inbounds nuw %"class.Gluco::Solver", ptr %6, i32 0, i32 27
  %56 = call noundef nonnull align 8 dereferenceable(8) ptr @_ZN5Gluco12DoubleOptioncvRdEv(ptr noundef nonnull align 8 dereferenceable(72) @_ZL16opt_clause_decay)
  %57 = load double, ptr %56, align 8, !tbaa !21
  store double %57, ptr %55, align 8, !tbaa !100
  %58 = getelementptr inbounds nuw %"class.Gluco::Solver", ptr %6, i32 0, i32 28
  %59 = call noundef nonnull align 8 dereferenceable(8) ptr @_ZN5Gluco12DoubleOptioncvRdEv(ptr noundef nonnull align 8 dereferenceable(72) @_ZL19opt_random_var_freq)
  %60 = load double, ptr %59, align 8, !tbaa !21
  store double %60, ptr %58, align 8, !tbaa !101
  %61 = getelementptr inbounds nuw %"class.Gluco::Solver", ptr %6, i32 0, i32 29
  %62 = call noundef nonnull align 8 dereferenceable(8) ptr @_ZN5Gluco12DoubleOptioncvRdEv(ptr noundef nonnull align 8 dereferenceable(72) @_ZL15opt_random_seed)
  %63 = load double, ptr %62, align 8, !tbaa !21
  store double %63, ptr %61, align 8, !tbaa !102
  %64 = getelementptr inbounds nuw %"class.Gluco::Solver", ptr %6, i32 0, i32 30
  %65 = call noundef nonnull align 4 dereferenceable(4) ptr @_ZN5Gluco9IntOptioncvRiEv(ptr noundef nonnull align 8 dereferenceable(52) @_ZL14opt_ccmin_mode)
  %66 = load i32, ptr %65, align 4, !tbaa !35
  store i32 %66, ptr %64, align 8, !tbaa !103
  %67 = getelementptr inbounds nuw %"class.Gluco::Solver", ptr %6, i32 0, i32 31
  %68 = call noundef nonnull align 4 dereferenceable(4) ptr @_ZN5Gluco9IntOptioncvRiEv(ptr noundef nonnull align 8 dereferenceable(52) @_ZL16opt_phase_saving)
  %69 = load i32, ptr %68, align 4, !tbaa !35
  store i32 %69, ptr %67, align 4, !tbaa !104
  %70 = getelementptr inbounds nuw %"class.Gluco::Solver", ptr %6, i32 0, i32 32
  store i8 0, ptr %70, align 8, !tbaa !105
  %71 = getelementptr inbounds nuw %"class.Gluco::Solver", ptr %6, i32 0, i32 33
  %72 = call noundef nonnull align 1 dereferenceable(1) ptr @_ZN5Gluco10BoolOptioncvRbEv(ptr noundef nonnull align 8 dereferenceable(41) @_ZL16opt_rnd_init_act)
  %73 = load i8, ptr %72, align 1, !tbaa !10, !range !14, !noundef !15
  %74 = trunc i8 %73 to i1
  %75 = zext i1 %74 to i8
  store i8 %75, ptr %71, align 1, !tbaa !106
  %76 = getelementptr inbounds nuw %"class.Gluco::Solver", ptr %6, i32 0, i32 34
  %77 = call noundef nonnull align 8 dereferenceable(8) ptr @_ZN5Gluco12DoubleOptioncvRdEv(ptr noundef nonnull align 8 dereferenceable(72) @_ZL16opt_garbage_frac)
  %78 = load double, ptr %77, align 8, !tbaa !21
  store double %78, ptr %76, align 8, !tbaa !107
  %79 = getelementptr inbounds nuw %"class.Gluco::Solver", ptr %6, i32 0, i32 35
  store ptr null, ptr %79, align 8, !tbaa !108
  %80 = getelementptr inbounds nuw %"class.Gluco::Solver", ptr %6, i32 0, i32 36
  %81 = call noundef nonnull align 1 dereferenceable(1) ptr @_ZN5Gluco10BoolOptioncvRbEv(ptr noundef nonnull align 8 dereferenceable(41) @opt_certified_)
  %82 = load i8, ptr %81, align 1, !tbaa !10, !range !14, !noundef !15
  %83 = trunc i8 %82 to i1
  %84 = zext i1 %83 to i8
  store i8 %84, ptr %80, align 8, !tbaa !109
  %85 = getelementptr inbounds nuw %"class.Gluco::Solver", ptr %6, i32 0, i32 37
  store i64 0, ptr %85, align 8, !tbaa !110
  %86 = getelementptr inbounds nuw %"class.Gluco::Solver", ptr %6, i32 0, i32 38
  store i64 0, ptr %86, align 8, !tbaa !111
  %87 = getelementptr inbounds nuw %"class.Gluco::Solver", ptr %6, i32 0, i32 39
  store i64 0, ptr %87, align 8, !tbaa !112
  %88 = getelementptr inbounds nuw %"class.Gluco::Solver", ptr %6, i32 0, i32 40
  store i64 0, ptr %88, align 8, !tbaa !113
  %89 = getelementptr inbounds nuw %"class.Gluco::Solver", ptr %6, i32 0, i32 41
  store i64 0, ptr %89, align 8, !tbaa !114
  %90 = getelementptr inbounds nuw %"class.Gluco::Solver", ptr %6, i32 0, i32 42
  store i64 0, ptr %90, align 8, !tbaa !115
  %91 = getelementptr inbounds nuw %"class.Gluco::Solver", ptr %6, i32 0, i32 43
  store i64 0, ptr %91, align 8, !tbaa !116
  %92 = getelementptr inbounds nuw %"class.Gluco::Solver", ptr %6, i32 0, i32 44
  store i64 0, ptr %92, align 8, !tbaa !117
  %93 = getelementptr inbounds nuw %"class.Gluco::Solver", ptr %6, i32 0, i32 45
  store i64 0, ptr %93, align 8, !tbaa !118
  %94 = getelementptr inbounds nuw %"class.Gluco::Solver", ptr %6, i32 0, i32 46
  store i64 0, ptr %94, align 8, !tbaa !119
  %95 = getelementptr inbounds nuw %"class.Gluco::Solver", ptr %6, i32 0, i32 47
  store i64 0, ptr %95, align 8, !tbaa !120
  %96 = getelementptr inbounds nuw %"class.Gluco::Solver", ptr %6, i32 0, i32 48
  store i64 0, ptr %96, align 8, !tbaa !121
  %97 = getelementptr inbounds nuw %"class.Gluco::Solver", ptr %6, i32 0, i32 49
  store i64 0, ptr %97, align 8, !tbaa !122
  %98 = getelementptr inbounds nuw %"class.Gluco::Solver", ptr %6, i32 0, i32 50
  store i64 0, ptr %98, align 8, !tbaa !123
  %99 = getelementptr inbounds nuw %"class.Gluco::Solver", ptr %6, i32 0, i32 51
  store i64 0, ptr %99, align 8, !tbaa !124
  %100 = getelementptr inbounds nuw %"class.Gluco::Solver", ptr %6, i32 0, i32 52
  store i64 0, ptr %100, align 8, !tbaa !125
  %101 = getelementptr inbounds nuw %"class.Gluco::Solver", ptr %6, i32 0, i32 53
  store i64 0, ptr %101, align 8, !tbaa !126
  %102 = getelementptr inbounds nuw %"class.Gluco::Solver", ptr %6, i32 0, i32 54
  store i64 0, ptr %102, align 8, !tbaa !127
  %103 = getelementptr inbounds nuw %"class.Gluco::Solver", ptr %6, i32 0, i32 55
  store i64 0, ptr %103, align 8, !tbaa !128
  %104 = getelementptr inbounds nuw %"class.Gluco::Solver", ptr %6, i32 0, i32 56
  store i64 0, ptr %104, align 8, !tbaa !129
  %105 = getelementptr inbounds nuw %"class.Gluco::Solver", ptr %6, i32 0, i32 57
  store i64 0, ptr %105, align 8, !tbaa !130
  %106 = getelementptr inbounds nuw %"class.Gluco::Solver", ptr %6, i32 0, i32 58
  store i64 1, ptr %106, align 8, !tbaa !131
  %107 = getelementptr inbounds nuw %"class.Gluco::Solver", ptr %6, i32 0, i32 60
  store i8 1, ptr %107, align 4, !tbaa !132
  %108 = getelementptr inbounds nuw %"class.Gluco::Solver", ptr %6, i32 0, i32 61
  store double 1.000000e+00, ptr %108, align 8, !tbaa !133
  %109 = getelementptr inbounds nuw %"class.Gluco::Solver", ptr %6, i32 0, i32 62
  call void @_ZN5Gluco3vecIdEC2Ev(ptr noundef nonnull align 8 dereferenceable(16) %109)
  %110 = getelementptr inbounds nuw %"class.Gluco::Solver", ptr %6, i32 0, i32 63
  store double 1.000000e+00, ptr %110, align 8, !tbaa !134
  %111 = getelementptr inbounds nuw %"class.Gluco::Solver", ptr %6, i32 0, i32 64
  call void @llvm.lifetime.start.p0(i64 8, ptr %3) #2
  %112 = getelementptr inbounds nuw %"class.Gluco::Solver", ptr %6, i32 0, i32 84
  call void @_ZN5Gluco6Solver14WatcherDeletedC2ERKNS_15ClauseAllocatorE(ptr noundef nonnull align 8 dereferenceable(8) %3, ptr noundef nonnull align 8 dereferenceable(21) %112)
  call void @_ZN5Gluco8OccListsINS_3LitENS_3vecINS_6Solver7WatcherEEENS3_14WatcherDeletedEEC2ERKS6_(ptr noundef nonnull align 8 dereferenceable(56) %111, ptr noundef nonnull align 8 dereferenceable(8) %3)
  call void @llvm.lifetime.end.p0(i64 8, ptr %3) #2
  %113 = getelementptr inbounds nuw %"class.Gluco::Solver", ptr %6, i32 0, i32 65
  call void @llvm.lifetime.start.p0(i64 8, ptr %4) #2
  %114 = getelementptr inbounds nuw %"class.Gluco::Solver", ptr %6, i32 0, i32 84
  call void @_ZN5Gluco6Solver14WatcherDeletedC2ERKNS_15ClauseAllocatorE(ptr noundef nonnull align 8 dereferenceable(8) %4, ptr noundef nonnull align 8 dereferenceable(21) %114)
  call void @_ZN5Gluco8OccListsINS_3LitENS_3vecINS_6Solver7WatcherEEENS3_14WatcherDeletedEEC2ERKS6_(ptr noundef nonnull align 8 dereferenceable(56) %113, ptr noundef nonnull align 8 dereferenceable(8) %4)
  call void @llvm.lifetime.end.p0(i64 8, ptr %4) #2
  %115 = getelementptr inbounds nuw %"class.Gluco::Solver", ptr %6, i32 0, i32 66
  call void @_ZN5Gluco3vecIjEC2Ev(ptr noundef nonnull align 8 dereferenceable(16) %115)
  %116 = getelementptr inbounds nuw %"class.Gluco::Solver", ptr %6, i32 0, i32 67
  call void @_ZN5Gluco3vecIjEC2Ev(ptr noundef nonnull align 8 dereferenceable(16) %116)
  %117 = getelementptr inbounds nuw %"class.Gluco::Solver", ptr %6, i32 0, i32 68
  call void @_ZN5Gluco3vecINS_5lboolEEC2Ev(ptr noundef nonnull align 8 dereferenceable(16) %117)
  %118 = getelementptr inbounds nuw %"class.Gluco::Solver", ptr %6, i32 0, i32 69
  call void @_ZN5Gluco3vecIcEC2Ev(ptr noundef nonnull align 8 dereferenceable(16) %118)
  %119 = getelementptr inbounds nuw %"class.Gluco::Solver", ptr %6, i32 0, i32 70
  call void @_ZN5Gluco3vecIcEC2Ev(ptr noundef nonnull align 8 dereferenceable(16) %119)
  %120 = getelementptr inbounds nuw %"class.Gluco::Solver", ptr %6, i32 0, i32 71
  call void @_ZN5Gluco3vecINS_3LitEEC2Ev(ptr noundef nonnull align 8 dereferenceable(16) %120)
  %121 = getelementptr inbounds nuw %"class.Gluco::Solver", ptr %6, i32 0, i32 72
  call void @_ZN5Gluco3vecIiEC2Ev(ptr noundef nonnull align 8 dereferenceable(16) %121)
  %122 = getelementptr inbounds nuw %"class.Gluco::Solver", ptr %6, i32 0, i32 73
  call void @_ZN5Gluco3vecIiEC2Ev(ptr noundef nonnull align 8 dereferenceable(16) %122)
  %123 = getelementptr inbounds nuw %"class.Gluco::Solver", ptr %6, i32 0, i32 74
  call void @_ZN5Gluco3vecINS_6Solver7VarDataEEC2Ev(ptr noundef nonnull align 8 dereferenceable(16) %123)
  %124 = getelementptr inbounds nuw %"class.Gluco::Solver", ptr %6, i32 0, i32 75
  store i32 0, ptr %124, align 8, !tbaa !135
  %125 = getelementptr inbounds nuw %"class.Gluco::Solver", ptr %6, i32 0, i32 76
  store i32 -1, ptr %125, align 4, !tbaa !136
  %126 = getelementptr inbounds nuw %"class.Gluco::Solver", ptr %6, i32 0, i32 77
  store i64 0, ptr %126, align 8, !tbaa !137
  %127 = getelementptr inbounds nuw %"class.Gluco::Solver", ptr %6, i32 0, i32 78
  call void @_ZN5Gluco3vecINS_3LitEEC2Ev(ptr noundef nonnull align 8 dereferenceable(16) %127)
  %128 = getelementptr inbounds nuw %"class.Gluco::Solver", ptr %6, i32 0, i32 79
  call void @llvm.lifetime.start.p0(i64 8, ptr %5) #2
  %129 = getelementptr inbounds nuw %"class.Gluco::Solver", ptr %6, i32 0, i32 62
  call void @_ZN5Gluco6Solver10VarOrderLtC2ERKNS_3vecIdEE(ptr noundef nonnull align 8 dereferenceable(8) %5, ptr noundef nonnull align 8 dereferenceable(16) %129)
  call void @_ZN5Gluco4HeapINS_6Solver10VarOrderLtEEC2ERKS2_(ptr noundef nonnull align 8 dereferenceable(40) %128, ptr noundef nonnull align 8 dereferenceable(8) %5)
  call void @llvm.lifetime.end.p0(i64 8, ptr %5) #2
  %130 = getelementptr inbounds nuw %"class.Gluco::Solver", ptr %6, i32 0, i32 80
  store double 0.000000e+00, ptr %130, align 8, !tbaa !138
  %131 = getelementptr inbounds nuw %"class.Gluco::Solver", ptr %6, i32 0, i32 81
  store i8 1, ptr %131, align 8, !tbaa !139
  %132 = getelementptr inbounds nuw %"class.Gluco::Solver", ptr %6, i32 0, i32 82
  call void @_ZN5Gluco3vecIjEC2Ev(ptr noundef nonnull align 8 dereferenceable(16) %132)
  %133 = getelementptr inbounds nuw %"class.Gluco::Solver", ptr %6, i32 0, i32 83
  call void @_ZN5Gluco3vecINS_3LitEEC2Ev(ptr noundef nonnull align 8 dereferenceable(16) %133)
  %134 = getelementptr inbounds nuw %"class.Gluco::Solver", ptr %6, i32 0, i32 84
  call void @_ZN5Gluco15ClauseAllocatorC2Ev(ptr noundef nonnull align 8 dereferenceable(21) %134)
  %135 = getelementptr inbounds nuw %"class.Gluco::Solver", ptr %6, i32 0, i32 86
  call void @_ZN5Gluco6bqueueIjEC2Ev(ptr noundef nonnull align 8 dereferenceable(64) %135)
  %136 = getelementptr inbounds nuw %"class.Gluco::Solver", ptr %6, i32 0, i32 87
  call void @_ZN5Gluco6bqueueIjEC2Ev(ptr noundef nonnull align 8 dereferenceable(64) %136)
  %137 = getelementptr inbounds nuw %"class.Gluco::Solver", ptr %6, i32 0, i32 90
  call void @_ZN5Gluco3vecIcEC2Ev(ptr noundef nonnull align 8 dereferenceable(16) %137)
  %138 = getelementptr inbounds nuw %"class.Gluco::Solver", ptr %6, i32 0, i32 91
  call void @_ZN5Gluco3vecINS_3LitEEC2Ev(ptr noundef nonnull align 8 dereferenceable(16) %138)
  %139 = getelementptr inbounds nuw %"class.Gluco::Solver", ptr %6, i32 0, i32 92
  call void @_ZN5Gluco3vecINS_3LitEEC2Ev(ptr noundef nonnull align 8 dereferenceable(16) %139)
  %140 = getelementptr inbounds nuw %"class.Gluco::Solver", ptr %6, i32 0, i32 93
  call void @_ZN5Gluco3vecINS_3LitEEC2Ev(ptr noundef nonnull align 8 dereferenceable(16) %140)
  %141 = getelementptr inbounds nuw %"class.Gluco::Solver", ptr %6, i32 0, i32 98
  store i64 -1, ptr %141, align 8, !tbaa !140
  %142 = getelementptr inbounds nuw %"class.Gluco::Solver", ptr %6, i32 0, i32 99
  store i64 -1, ptr %142, align 8, !tbaa !141
  %143 = getelementptr inbounds nuw %"class.Gluco::Solver", ptr %6, i32 0, i32 100
  store i8 0, ptr %143, align 8, !tbaa !142
  %144 = getelementptr inbounds nuw %"class.Gluco::Solver", ptr %6, i32 0, i32 101
  %145 = call noundef nonnull align 1 dereferenceable(1) ptr @_ZN5Gluco10BoolOptioncvRbEv(ptr noundef nonnull align 8 dereferenceable(41) @_ZL15opt_incremental)
  %146 = load i8, ptr %145, align 1, !tbaa !10, !range !14, !noundef !15
  %147 = trunc i8 %146 to i1
  %148 = zext i1 %147 to i32
  store i32 %148, ptr %144, align 4, !tbaa !143
  %149 = getelementptr inbounds nuw %"class.Gluco::Solver", ptr %6, i32 0, i32 102
  store i32 2147483647, ptr %149, align 8, !tbaa !144
  %150 = getelementptr inbounds nuw %"class.Gluco::Solver", ptr %6, i32 0, i32 107
  call void @_ZN5Gluco3vecIiEC2Ev(ptr noundef nonnull align 8 dereferenceable(16) %150)
  %151 = getelementptr inbounds nuw %"class.Gluco::Solver", ptr %6, i32 0, i32 108
  call void @_ZN5Gluco3vecIiEC2Ev(ptr noundef nonnull align 8 dereferenceable(16) %151)
  %152 = getelementptr inbounds nuw %"class.Gluco::Solver", ptr %6, i32 0, i32 94
  store i32 0, ptr %152, align 8, !tbaa !145
  %153 = getelementptr inbounds nuw %"class.Gluco::Solver", ptr %6, i32 0, i32 87
  %154 = getelementptr inbounds nuw %"class.Gluco::Solver", ptr %6, i32 0, i32 18
  %155 = load double, ptr %154, align 8, !tbaa !91
  %156 = fptosi double %155 to i32
  call void @_ZN5Gluco6bqueueIjE8initSizeEi(ptr noundef nonnull align 8 dereferenceable(64) %153, i32 noundef %156)
  %157 = getelementptr inbounds nuw %"class.Gluco::Solver", ptr %6, i32 0, i32 86
  %158 = getelementptr inbounds nuw %"class.Gluco::Solver", ptr %6, i32 0, i32 19
  %159 = load double, ptr %158, align 8, !tbaa !92
  %160 = fptosi double %159 to i32
  call void @_ZN5Gluco6bqueueIjE8initSizeEi(ptr noundef nonnull align 8 dereferenceable(64) %157, i32 noundef %160)
  %161 = getelementptr inbounds nuw %"class.Gluco::Solver", ptr %6, i32 0, i32 88
  store float 0.000000e+00, ptr %161, align 8, !tbaa !146
  %162 = getelementptr inbounds nuw %"class.Gluco::Solver", ptr %6, i32 0, i32 20
  %163 = load i32, ptr %162, align 8, !tbaa !93
  %164 = getelementptr inbounds nuw %"class.Gluco::Solver", ptr %6, i32 0, i32 85
  store i32 %163, ptr %164, align 8, !tbaa !147
  %165 = getelementptr inbounds nuw %"class.Gluco::Solver", ptr %6, i32 0, i32 103
  store double 0.000000e+00, ptr %165, align 8, !tbaa !148
  %166 = getelementptr inbounds nuw %"class.Gluco::Solver", ptr %6, i32 0, i32 104
  store double 0.000000e+00, ptr %166, align 8, !tbaa !149
  %167 = getelementptr inbounds nuw %"class.Gluco::Solver", ptr %6, i32 0, i32 105
  store i32 0, ptr %167, align 8, !tbaa !150
  %168 = getelementptr inbounds nuw %"class.Gluco::Solver", ptr %6, i32 0, i32 106
  store i32 0, ptr %168, align 4, !tbaa !151
  %169 = getelementptr inbounds nuw %"class.Gluco::Solver", ptr %6, i32 0, i32 36
  %170 = load i8, ptr %169, align 8, !tbaa !109, !range !14, !noundef !15
  %171 = trunc i8 %170 to i1
  br i1 %171, label %172, label %186

172:                                              ; preds = %1
  %173 = call noundef nonnull align 8 dereferenceable(8) ptr @_ZN5Gluco12StringOptioncvRPKcEv(ptr noundef nonnull align 8 dereferenceable(48) @opt_certified_file_)
  %174 = load ptr, ptr %173, align 8, !tbaa !3
  %175 = call i32 @strcmp(ptr noundef %174, ptr noundef @.str.62) #17
  %176 = icmp ne i32 %175, 0
  br i1 %176, label %180, label %177

177:                                              ; preds = %172
  %178 = call noalias ptr @fopen(ptr noundef @.str.63, ptr noundef @.str.64)
  %179 = getelementptr inbounds nuw %"class.Gluco::Solver", ptr %6, i32 0, i32 35
  store ptr %178, ptr %179, align 8, !tbaa !108
  br label %185

180:                                              ; preds = %172
  %181 = call noundef nonnull align 8 dereferenceable(8) ptr @_ZN5Gluco12StringOptioncvRPKcEv(ptr noundef nonnull align 8 dereferenceable(48) @opt_certified_file_)
  %182 = load ptr, ptr %181, align 8, !tbaa !3
  %183 = call noalias ptr @fopen(ptr noundef %182, ptr noundef @.str.64)
  %184 = getelementptr inbounds nuw %"class.Gluco::Solver", ptr %6, i32 0, i32 35
  store ptr %183, ptr %184, align 8, !tbaa !108
  br label %185

185:                                              ; preds = %180, %177
  br label %186

186:                                              ; preds = %185, %1
  ret void
}

; Function Attrs: mustprogress nounwind uwtable
define linkonce_odr void @_ZN5Gluco3vecIiEC2Ev(ptr noundef nonnull align 8 dereferenceable(16) %0) unnamed_addr #1 comdat align 2 {
  %2 = alloca ptr, align 8
  store ptr %0, ptr %2, align 8, !tbaa !152
  %3 = load ptr, ptr %2, align 8
  %4 = getelementptr inbounds nuw %"class.Gluco::vec", ptr %3, i32 0, i32 0
  store ptr null, ptr %4, align 8, !tbaa !154
  %5 = getelementptr inbounds nuw %"class.Gluco::vec", ptr %3, i32 0, i32 1
  store i32 0, ptr %5, align 8, !tbaa !155
  %6 = getelementptr inbounds nuw %"class.Gluco::vec", ptr %3, i32 0, i32 2
  store i32 0, ptr %6, align 4, !tbaa !156
  ret void
}

; Function Attrs: mustprogress nounwind uwtable
define linkonce_odr void @_ZN5Gluco3vecINS_3LitEEC2Ev(ptr noundef nonnull align 8 dereferenceable(16) %0) unnamed_addr #1 comdat align 2 {
  %2 = alloca ptr, align 8
  store ptr %0, ptr %2, align 8, !tbaa !157
  %3 = load ptr, ptr %2, align 8
  %4 = getelementptr inbounds nuw %"class.Gluco::vec.0", ptr %3, i32 0, i32 0
  store ptr null, ptr %4, align 8, !tbaa !159
  %5 = getelementptr inbounds nuw %"class.Gluco::vec.0", ptr %3, i32 0, i32 1
  store i32 0, ptr %5, align 8, !tbaa !160
  %6 = getelementptr inbounds nuw %"class.Gluco::vec.0", ptr %3, i32 0, i32 2
  store i32 0, ptr %6, align 4, !tbaa !161
  ret void
}

; Function Attrs: mustprogress nounwind uwtable
define linkonce_odr void @_ZN5Gluco3vecINS_5lboolEEC2Ev(ptr noundef nonnull align 8 dereferenceable(16) %0) unnamed_addr #1 comdat align 2 {
  %2 = alloca ptr, align 8
  store ptr %0, ptr %2, align 8, !tbaa !162
  %3 = load ptr, ptr %2, align 8
  %4 = getelementptr inbounds nuw %"class.Gluco::vec.1", ptr %3, i32 0, i32 0
  store ptr null, ptr %4, align 8, !tbaa !164
  %5 = getelementptr inbounds nuw %"class.Gluco::vec.1", ptr %3, i32 0, i32 1
  store i32 0, ptr %5, align 8, !tbaa !165
  %6 = getelementptr inbounds nuw %"class.Gluco::vec.1", ptr %3, i32 0, i32 2
  store i32 0, ptr %6, align 4, !tbaa !166
  ret void
}

; Function Attrs: mustprogress nounwind uwtable
define linkonce_odr noundef nonnull align 8 dereferenceable(8) ptr @_ZN5Gluco12DoubleOptioncvRdEv(ptr noundef nonnull align 8 dereferenceable(72) %0) #1 comdat align 2 {
  %2 = alloca ptr, align 8
  store ptr %0, ptr %2, align 8, !tbaa !28
  %3 = load ptr, ptr %2, align 8
  %4 = getelementptr inbounds nuw %"class.Gluco::DoubleOption", ptr %3, i32 0, i32 2
  ret ptr %4
}

; Function Attrs: mustprogress nounwind uwtable
define linkonce_odr noundef nonnull align 4 dereferenceable(4) ptr @_ZN5Gluco9IntOptioncvRiEv(ptr noundef nonnull align 8 dereferenceable(52) %0) #1 comdat align 2 {
  %2 = alloca ptr, align 8
  store ptr %0, ptr %2, align 8, !tbaa !40
  %3 = load ptr, ptr %2, align 8
  %4 = getelementptr inbounds nuw %"class.Gluco::IntOption", ptr %3, i32 0, i32 2
  ret ptr %4
}

; Function Attrs: mustprogress nounwind uwtable
define linkonce_odr noundef nonnull align 1 dereferenceable(1) ptr @_ZN5Gluco10BoolOptioncvRbEv(ptr noundef nonnull align 8 dereferenceable(41) %0) #1 comdat align 2 {
  %2 = alloca ptr, align 8
  store ptr %0, ptr %2, align 8, !tbaa !8
  %3 = load ptr, ptr %2, align 8
  %4 = getelementptr inbounds nuw %"class.Gluco::BoolOption", ptr %3, i32 0, i32 1
  ret ptr %4
}

; Function Attrs: mustprogress nounwind uwtable
define linkonce_odr void @_ZN5Gluco3vecIdEC2Ev(ptr noundef nonnull align 8 dereferenceable(16) %0) unnamed_addr #1 comdat align 2 {
  %2 = alloca ptr, align 8
  store ptr %0, ptr %2, align 8, !tbaa !167
  %3 = load ptr, ptr %2, align 8
  %4 = getelementptr inbounds nuw %"class.Gluco::vec.2", ptr %3, i32 0, i32 0
  store ptr null, ptr %4, align 8, !tbaa !168
  %5 = getelementptr inbounds nuw %"class.Gluco::vec.2", ptr %3, i32 0, i32 1
  store i32 0, ptr %5, align 8, !tbaa !169
  %6 = getelementptr inbounds nuw %"class.Gluco::vec.2", ptr %3, i32 0, i32 2
  store i32 0, ptr %6, align 4, !tbaa !170
  ret void
}

; Function Attrs: nocallback nofree nosync nounwind willreturn memory(argmem: readwrite)
declare void @llvm.lifetime.start.p0(i64 immarg, ptr captures(none)) #3

; Function Attrs: mustprogress nounwind uwtable
define linkonce_odr void @_ZN5Gluco6Solver14WatcherDeletedC2ERKNS_15ClauseAllocatorE(ptr noundef nonnull align 8 dereferenceable(8) %0, ptr noundef nonnull align 8 dereferenceable(21) %1) unnamed_addr #1 comdat align 2 {
  %3 = alloca ptr, align 8
  %4 = alloca ptr, align 8
  store ptr %0, ptr %3, align 8, !tbaa !171
  store ptr %1, ptr %4, align 8, !tbaa !173
  %5 = load ptr, ptr %3, align 8
  %6 = getelementptr inbounds nuw %"struct.Gluco::Solver::WatcherDeleted", ptr %5, i32 0, i32 0
  %7 = load ptr, ptr %4, align 8, !tbaa !173
  store ptr %7, ptr %6, align 8, !tbaa !173
  ret void
}

; Function Attrs: mustprogress nounwind uwtable
define linkonce_odr void @_ZN5Gluco8OccListsINS_3LitENS_3vecINS_6Solver7WatcherEEENS3_14WatcherDeletedEEC2ERKS6_(ptr noundef nonnull align 8 dereferenceable(56) %0, ptr noundef nonnull align 8 dereferenceable(8) %1) unnamed_addr #1 comdat align 2 {
  %3 = alloca ptr, align 8
  %4 = alloca ptr, align 8
  store ptr %0, ptr %3, align 8, !tbaa !174
  store ptr %1, ptr %4, align 8, !tbaa !171
  %5 = load ptr, ptr %3, align 8
  %6 = getelementptr inbounds nuw %"class.Gluco::OccLists", ptr %5, i32 0, i32 0
  call void @_ZN5Gluco3vecINS0_INS_6Solver7WatcherEEEEC2Ev(ptr noundef nonnull align 8 dereferenceable(16) %6)
  %7 = getelementptr inbounds nuw %"class.Gluco::OccLists", ptr %5, i32 0, i32 1
  call void @_ZN5Gluco3vecIcEC2Ev(ptr noundef nonnull align 8 dereferenceable(16) %7)
  %8 = getelementptr inbounds nuw %"class.Gluco::OccLists", ptr %5, i32 0, i32 2
  call void @_ZN5Gluco3vecINS_3LitEEC2Ev(ptr noundef nonnull align 8 dereferenceable(16) %8)
  %9 = getelementptr inbounds nuw %"class.Gluco::OccLists", ptr %5, i32 0, i32 3
  %10 = load ptr, ptr %4, align 8, !tbaa !171
  call void @llvm.memcpy.p0.p0.i64(ptr align 8 %9, ptr align 8 %10, i64 8, i1 false), !tbaa.struct !176
  ret void
}

; Function Attrs: nocallback nofree nosync nounwind willreturn memory(argmem: readwrite)
declare void @llvm.lifetime.end.p0(i64 immarg, ptr captures(none)) #3

; Function Attrs: mustprogress nounwind uwtable
define linkonce_odr void @_ZN5Gluco3vecIjEC2Ev(ptr noundef nonnull align 8 dereferenceable(16) %0) unnamed_addr #1 comdat align 2 {
  %2 = alloca ptr, align 8
  store ptr %0, ptr %2, align 8, !tbaa !177
  %3 = load ptr, ptr %2, align 8
  %4 = getelementptr inbounds nuw %"class.Gluco::vec.5", ptr %3, i32 0, i32 0
  store ptr null, ptr %4, align 8, !tbaa !179
  %5 = getelementptr inbounds nuw %"class.Gluco::vec.5", ptr %3, i32 0, i32 1
  store i32 0, ptr %5, align 8, !tbaa !180
  %6 = getelementptr inbounds nuw %"class.Gluco::vec.5", ptr %3, i32 0, i32 2
  store i32 0, ptr %6, align 4, !tbaa !181
  ret void
}

; Function Attrs: mustprogress nounwind uwtable
define linkonce_odr void @_ZN5Gluco3vecIcEC2Ev(ptr noundef nonnull align 8 dereferenceable(16) %0) unnamed_addr #1 comdat align 2 {
  %2 = alloca ptr, align 8
  store ptr %0, ptr %2, align 8, !tbaa !182
  %3 = load ptr, ptr %2, align 8
  %4 = getelementptr inbounds nuw %"class.Gluco::vec.4", ptr %3, i32 0, i32 0
  store ptr null, ptr %4, align 8, !tbaa !184
  %5 = getelementptr inbounds nuw %"class.Gluco::vec.4", ptr %3, i32 0, i32 1
  store i32 0, ptr %5, align 8, !tbaa !185
  %6 = getelementptr inbounds nuw %"class.Gluco::vec.4", ptr %3, i32 0, i32 2
  store i32 0, ptr %6, align 4, !tbaa !186
  ret void
}

; Function Attrs: mustprogress nounwind uwtable
define linkonce_odr void @_ZN5Gluco3vecINS_6Solver7VarDataEEC2Ev(ptr noundef nonnull align 8 dereferenceable(16) %0) unnamed_addr #1 comdat align 2 {
  %2 = alloca ptr, align 8
  store ptr %0, ptr %2, align 8, !tbaa !187
  %3 = load ptr, ptr %2, align 8
  %4 = getelementptr inbounds nuw %"class.Gluco::vec.6", ptr %3, i32 0, i32 0
  store ptr null, ptr %4, align 8, !tbaa !189
  %5 = getelementptr inbounds nuw %"class.Gluco::vec.6", ptr %3, i32 0, i32 1
  store i32 0, ptr %5, align 8, !tbaa !190
  %6 = getelementptr inbounds nuw %"class.Gluco::vec.6", ptr %3, i32 0, i32 2
  store i32 0, ptr %6, align 4, !tbaa !191
  ret void
}

; Function Attrs: mustprogress nounwind uwtable
define linkonce_odr void @_ZN5Gluco6Solver10VarOrderLtC2ERKNS_3vecIdEE(ptr noundef nonnull align 8 dereferenceable(8) %0, ptr noundef nonnull align 8 dereferenceable(16) %1) unnamed_addr #1 comdat align 2 {
  %3 = alloca ptr, align 8
  %4 = alloca ptr, align 8
  store ptr %0, ptr %3, align 8, !tbaa !192
  store ptr %1, ptr %4, align 8, !tbaa !167
  %5 = load ptr, ptr %3, align 8
  %6 = getelementptr inbounds nuw %"struct.Gluco::Solver::VarOrderLt", ptr %5, i32 0, i32 0
  %7 = load ptr, ptr %4, align 8, !tbaa !167
  store ptr %7, ptr %6, align 8, !tbaa !167
  ret void
}

; Function Attrs: mustprogress nounwind uwtable
define linkonce_odr void @_ZN5Gluco4HeapINS_6Solver10VarOrderLtEEC2ERKS2_(ptr noundef nonnull align 8 dereferenceable(40) %0, ptr noundef nonnull align 8 dereferenceable(8) %1) unnamed_addr #1 comdat align 2 {
  %3 = alloca ptr, align 8
  %4 = alloca ptr, align 8
  store ptr %0, ptr %3, align 8, !tbaa !194
  store ptr %1, ptr %4, align 8, !tbaa !192
  %5 = load ptr, ptr %3, align 8
  %6 = getelementptr inbounds nuw %"class.Gluco::Heap", ptr %5, i32 0, i32 0
  %7 = load ptr, ptr %4, align 8, !tbaa !192
  call void @llvm.memcpy.p0.p0.i64(ptr align 8 %6, ptr align 8 %7, i64 8, i1 false), !tbaa.struct !196
  %8 = getelementptr inbounds nuw %"class.Gluco::Heap", ptr %5, i32 0, i32 1
  call void @_ZN5Gluco3vecIiEC2Ev(ptr noundef nonnull align 8 dereferenceable(16) %8)
  %9 = getelementptr inbounds nuw %"class.Gluco::Heap", ptr %5, i32 0, i32 2
  call void @_ZN5Gluco3vecIiEC2Ev(ptr noundef nonnull align 8 dereferenceable(16) %9)
  ret void
}

; Function Attrs: mustprogress nounwind uwtable
define linkonce_odr void @_ZN5Gluco15ClauseAllocatorC2Ev(ptr noundef nonnull align 8 dereferenceable(21) %0) unnamed_addr #1 comdat align 2 {
  %2 = alloca ptr, align 8
  store ptr %0, ptr %2, align 8, !tbaa !173
  %3 = load ptr, ptr %2, align 8
  call void @_ZN5Gluco15RegionAllocatorIjEC2Ej(ptr noundef nonnull align 8 dereferenceable(20) %3, i32 noundef 1048576)
  %4 = getelementptr inbounds nuw %"class.Gluco::ClauseAllocator", ptr %3, i32 0, i32 1
  store i8 0, ptr %4, align 4, !tbaa !197
  ret void
}

; Function Attrs: mustprogress nounwind uwtable
define linkonce_odr void @_ZN5Gluco6bqueueIjEC2Ev(ptr noundef nonnull align 8 dereferenceable(64) %0) unnamed_addr #1 comdat align 2 {
  %2 = alloca ptr, align 8
  store ptr %0, ptr %2, align 8, !tbaa !198
  %3 = load ptr, ptr %2, align 8
  %4 = getelementptr inbounds nuw %"class.Gluco::bqueue", ptr %3, i32 0, i32 0
  call void @_ZN5Gluco3vecIjEC2Ev(ptr noundef nonnull align 8 dereferenceable(16) %4)
  %5 = getelementptr inbounds nuw %"class.Gluco::bqueue", ptr %3, i32 0, i32 1
  store i32 0, ptr %5, align 8, !tbaa !200
  %6 = getelementptr inbounds nuw %"class.Gluco::bqueue", ptr %3, i32 0, i32 2
  store i32 0, ptr %6, align 4, !tbaa !201
  %7 = getelementptr inbounds nuw %"class.Gluco::bqueue", ptr %3, i32 0, i32 3
  store i64 0, ptr %7, align 8, !tbaa !202
  %8 = getelementptr inbounds nuw %"class.Gluco::bqueue", ptr %3, i32 0, i32 4
  store i32 0, ptr %8, align 8, !tbaa !203
  %9 = getelementptr inbounds nuw %"class.Gluco::bqueue", ptr %3, i32 0, i32 5
  store i32 0, ptr %9, align 4, !tbaa !204
  %10 = getelementptr inbounds nuw %"class.Gluco::bqueue", ptr %3, i32 0, i32 6
  store i8 0, ptr %10, align 8, !tbaa !205
  ret void
}

; Function Attrs: mustprogress nounwind uwtable
define linkonce_odr void @_ZN5Gluco6bqueueIjE8initSizeEi(ptr noundef nonnull align 8 dereferenceable(64) %0, i32 noundef %1) #1 comdat align 2 {
  %3 = alloca ptr, align 8
  %4 = alloca i32, align 4
  store ptr %0, ptr %3, align 8, !tbaa !198
  store i32 %1, ptr %4, align 4, !tbaa !35
  %5 = load ptr, ptr %3, align 8
  %6 = load i32, ptr %4, align 4, !tbaa !35
  call void @_ZN5Gluco6bqueueIjE6growToEi(ptr noundef nonnull align 8 dereferenceable(64) %5, i32 noundef %6)
  %7 = load i32, ptr %4, align 4, !tbaa !35
  %8 = add nsw i32 %7, 1
  %9 = sitofp i32 %8 to double
  %10 = fdiv double 2.000000e+00, %9
  %11 = getelementptr inbounds nuw %"class.Gluco::bqueue", ptr %5, i32 0, i32 7
  store double %10, ptr %11, align 8, !tbaa !206
  ret void
}

; Function Attrs: nounwind willreturn memory(read)
declare i32 @strcmp(ptr noundef, ptr noundef) #4

; Function Attrs: mustprogress nounwind uwtable
define linkonce_odr noundef nonnull align 8 dereferenceable(8) ptr @_ZN5Gluco12StringOptioncvRPKcEv(ptr noundef nonnull align 8 dereferenceable(48) %0) #1 comdat align 2 {
  %2 = alloca ptr, align 8
  store ptr %0, ptr %2, align 8, !tbaa !45
  %3 = load ptr, ptr %2, align 8
  %4 = getelementptr inbounds nuw %"class.Gluco::StringOption", ptr %3, i32 0, i32 1
  ret ptr %4
}

declare noalias ptr @fopen(ptr noundef, ptr noundef) #5

; Function Attrs: mustprogress nounwind uwtable
define void @_ZN5Gluco6SolverD2Ev(ptr noundef nonnull align 8 dereferenceable(1216) %0) unnamed_addr #1 align 2 {
  %2 = alloca ptr, align 8
  store ptr %0, ptr %2, align 8, !tbaa !51
  %3 = load ptr, ptr %2, align 8
  store ptr getelementptr inbounds inrange(-16, 32) ({ [6 x ptr] }, ptr @_ZTVN5Gluco6SolverE, i32 0, i32 0, i32 2), ptr %3, align 8, !tbaa !12
  %4 = getelementptr inbounds nuw %"class.Gluco::Solver", ptr %3, i32 0, i32 108
  call void @_ZN5Gluco3vecIiED2Ev(ptr noundef nonnull align 8 dereferenceable(16) %4) #2
  %5 = getelementptr inbounds nuw %"class.Gluco::Solver", ptr %3, i32 0, i32 107
  call void @_ZN5Gluco3vecIiED2Ev(ptr noundef nonnull align 8 dereferenceable(16) %5) #2
  %6 = getelementptr inbounds nuw %"class.Gluco::Solver", ptr %3, i32 0, i32 93
  call void @_ZN5Gluco3vecINS_3LitEED2Ev(ptr noundef nonnull align 8 dereferenceable(16) %6) #2
  %7 = getelementptr inbounds nuw %"class.Gluco::Solver", ptr %3, i32 0, i32 92
  call void @_ZN5Gluco3vecINS_3LitEED2Ev(ptr noundef nonnull align 8 dereferenceable(16) %7) #2
  %8 = getelementptr inbounds nuw %"class.Gluco::Solver", ptr %3, i32 0, i32 91
  call void @_ZN5Gluco3vecINS_3LitEED2Ev(ptr noundef nonnull align 8 dereferenceable(16) %8) #2
  %9 = getelementptr inbounds nuw %"class.Gluco::Solver", ptr %3, i32 0, i32 90
  call void @_ZN5Gluco3vecIcED2Ev(ptr noundef nonnull align 8 dereferenceable(16) %9) #2
  %10 = getelementptr inbounds nuw %"class.Gluco::Solver", ptr %3, i32 0, i32 87
  call void @_ZN5Gluco6bqueueIjED2Ev(ptr noundef nonnull align 8 dereferenceable(64) %10) #2
  %11 = getelementptr inbounds nuw %"class.Gluco::Solver", ptr %3, i32 0, i32 86
  call void @_ZN5Gluco6bqueueIjED2Ev(ptr noundef nonnull align 8 dereferenceable(64) %11) #2
  %12 = getelementptr inbounds nuw %"class.Gluco::Solver", ptr %3, i32 0, i32 84
  call void @_ZN5Gluco15RegionAllocatorIjED2Ev(ptr noundef nonnull align 8 dereferenceable(21) %12) #2
  %13 = getelementptr inbounds nuw %"class.Gluco::Solver", ptr %3, i32 0, i32 83
  call void @_ZN5Gluco3vecINS_3LitEED2Ev(ptr noundef nonnull align 8 dereferenceable(16) %13) #2
  %14 = getelementptr inbounds nuw %"class.Gluco::Solver", ptr %3, i32 0, i32 82
  call void @_ZN5Gluco3vecIjED2Ev(ptr noundef nonnull align 8 dereferenceable(16) %14) #2
  %15 = getelementptr inbounds nuw %"class.Gluco::Solver", ptr %3, i32 0, i32 79
  call void @_ZN5Gluco4HeapINS_6Solver10VarOrderLtEED2Ev(ptr noundef nonnull align 8 dereferenceable(40) %15) #2
  %16 = getelementptr inbounds nuw %"class.Gluco::Solver", ptr %3, i32 0, i32 78
  call void @_ZN5Gluco3vecINS_3LitEED2Ev(ptr noundef nonnull align 8 dereferenceable(16) %16) #2
  %17 = getelementptr inbounds nuw %"class.Gluco::Solver", ptr %3, i32 0, i32 74
  call void @_ZN5Gluco3vecINS_6Solver7VarDataEED2Ev(ptr noundef nonnull align 8 dereferenceable(16) %17) #2
  %18 = getelementptr inbounds nuw %"class.Gluco::Solver", ptr %3, i32 0, i32 73
  call void @_ZN5Gluco3vecIiED2Ev(ptr noundef nonnull align 8 dereferenceable(16) %18) #2
  %19 = getelementptr inbounds nuw %"class.Gluco::Solver", ptr %3, i32 0, i32 72
  call void @_ZN5Gluco3vecIiED2Ev(ptr noundef nonnull align 8 dereferenceable(16) %19) #2
  %20 = getelementptr inbounds nuw %"class.Gluco::Solver", ptr %3, i32 0, i32 71
  call void @_ZN5Gluco3vecINS_3LitEED2Ev(ptr noundef nonnull align 8 dereferenceable(16) %20) #2
  %21 = getelementptr inbounds nuw %"class.Gluco::Solver", ptr %3, i32 0, i32 70
  call void @_ZN5Gluco3vecIcED2Ev(ptr noundef nonnull align 8 dereferenceable(16) %21) #2
  %22 = getelementptr inbounds nuw %"class.Gluco::Solver", ptr %3, i32 0, i32 69
  call void @_ZN5Gluco3vecIcED2Ev(ptr noundef nonnull align 8 dereferenceable(16) %22) #2
  %23 = getelementptr inbounds nuw %"class.Gluco::Solver", ptr %3, i32 0, i32 68
  call void @_ZN5Gluco3vecINS_5lboolEED2Ev(ptr noundef nonnull align 8 dereferenceable(16) %23) #2
  %24 = getelementptr inbounds nuw %"class.Gluco::Solver", ptr %3, i32 0, i32 67
  call void @_ZN5Gluco3vecIjED2Ev(ptr noundef nonnull align 8 dereferenceable(16) %24) #2
  %25 = getelementptr inbounds nuw %"class.Gluco::Solver", ptr %3, i32 0, i32 66
  call void @_ZN5Gluco3vecIjED2Ev(ptr noundef nonnull align 8 dereferenceable(16) %25) #2
  %26 = getelementptr inbounds nuw %"class.Gluco::Solver", ptr %3, i32 0, i32 65
  call void @_ZN5Gluco8OccListsINS_3LitENS_3vecINS_6Solver7WatcherEEENS3_14WatcherDeletedEED2Ev(ptr noundef nonnull align 8 dereferenceable(56) %26) #2
  %27 = getelementptr inbounds nuw %"class.Gluco::Solver", ptr %3, i32 0, i32 64
  call void @_ZN5Gluco8OccListsINS_3LitENS_3vecINS_6Solver7WatcherEEENS3_14WatcherDeletedEED2Ev(ptr noundef nonnull align 8 dereferenceable(56) %27) #2
  %28 = getelementptr inbounds nuw %"class.Gluco::Solver", ptr %3, i32 0, i32 62
  call void @_ZN5Gluco3vecIdED2Ev(ptr noundef nonnull align 8 dereferenceable(16) %28) #2
  %29 = getelementptr inbounds nuw %"class.Gluco::Solver", ptr %3, i32 0, i32 12
  call void @_ZN5Gluco3vecINS_3LitEED2Ev(ptr noundef nonnull align 8 dereferenceable(16) %29) #2
  %30 = getelementptr inbounds nuw %"class.Gluco::Solver", ptr %3, i32 0, i32 11
  call void @_ZN5Gluco3vecINS_5lboolEED2Ev(ptr noundef nonnull align 8 dereferenceable(16) %30) #2
  %31 = getelementptr inbounds nuw %"class.Gluco::Solver", ptr %3, i32 0, i32 9
  call void @_ZN5Gluco3vecINS_3LitEED2Ev(ptr noundef nonnull align 8 dereferenceable(16) %31) #2
  %32 = getelementptr inbounds nuw %"class.Gluco::Solver", ptr %3, i32 0, i32 8
  call void @_ZN5Gluco3vecIiED2Ev(ptr noundef nonnull align 8 dereferenceable(16) %32) #2
  ret void
}

; Function Attrs: mustprogress nounwind uwtable
define linkonce_odr void @_ZN5Gluco3vecIiED2Ev(ptr noundef nonnull align 8 dereferenceable(16) %0) unnamed_addr #1 comdat align 2 {
  %2 = alloca ptr, align 8
  store ptr %0, ptr %2, align 8, !tbaa !152
  %3 = load ptr, ptr %2, align 8
  call void @_ZN5Gluco3vecIiE5clearEb(ptr noundef nonnull align 8 dereferenceable(16) %3, i1 noundef zeroext true)
  ret void
}

; Function Attrs: mustprogress nounwind uwtable
define linkonce_odr void @_ZN5Gluco3vecINS_3LitEED2Ev(ptr noundef nonnull align 8 dereferenceable(16) %0) unnamed_addr #1 comdat align 2 {
  %2 = alloca ptr, align 8
  store ptr %0, ptr %2, align 8, !tbaa !157
  %3 = load ptr, ptr %2, align 8
  call void @_ZN5Gluco3vecINS_3LitEE5clearEb(ptr noundef nonnull align 8 dereferenceable(16) %3, i1 noundef zeroext true)
  ret void
}

; Function Attrs: mustprogress nounwind uwtable
define linkonce_odr void @_ZN5Gluco3vecIcED2Ev(ptr noundef nonnull align 8 dereferenceable(16) %0) unnamed_addr #1 comdat align 2 {
  %2 = alloca ptr, align 8
  store ptr %0, ptr %2, align 8, !tbaa !182
  %3 = load ptr, ptr %2, align 8
  call void @_ZN5Gluco3vecIcE5clearEb(ptr noundef nonnull align 8 dereferenceable(16) %3, i1 noundef zeroext true)
  ret void
}

; Function Attrs: inlinehint mustprogress nounwind uwtable
define linkonce_odr void @_ZN5Gluco6bqueueIjED2Ev(ptr noundef nonnull align 8 dereferenceable(64) %0) unnamed_addr #6 comdat align 2 {
  %2 = alloca ptr, align 8
  store ptr %0, ptr %2, align 8, !tbaa !198
  %3 = load ptr, ptr %2, align 8
  %4 = getelementptr inbounds nuw %"class.Gluco::bqueue", ptr %3, i32 0, i32 0
  call void @_ZN5Gluco3vecIjED2Ev(ptr noundef nonnull align 8 dereferenceable(16) %4) #2
  ret void
}

; Function Attrs: mustprogress nounwind uwtable
define linkonce_odr void @_ZN5Gluco15RegionAllocatorIjED2Ev(ptr noundef nonnull align 8 dereferenceable(20) %0) unnamed_addr #1 comdat align 2 {
  %2 = alloca ptr, align 8
  store ptr %0, ptr %2, align 8, !tbaa !207
  %3 = load ptr, ptr %2, align 8
  %4 = getelementptr inbounds nuw %"class.Gluco::RegionAllocator", ptr %3, i32 0, i32 0
  %5 = load ptr, ptr %4, align 8, !tbaa !209
  %6 = icmp ne ptr %5, null
  br i1 %6, label %7, label %10

7:                                                ; preds = %1
  %8 = getelementptr inbounds nuw %"class.Gluco::RegionAllocator", ptr %3, i32 0, i32 0
  %9 = load ptr, ptr %8, align 8, !tbaa !209
  call void @free(ptr noundef %9) #2
  br label %10

10:                                               ; preds = %7, %1
  ret void
}

; Function Attrs: mustprogress nounwind uwtable
define linkonce_odr void @_ZN5Gluco3vecIjED2Ev(ptr noundef nonnull align 8 dereferenceable(16) %0) unnamed_addr #1 comdat align 2 {
  %2 = alloca ptr, align 8
  store ptr %0, ptr %2, align 8, !tbaa !177
  %3 = load ptr, ptr %2, align 8
  call void @_ZN5Gluco3vecIjE5clearEb(ptr noundef nonnull align 8 dereferenceable(16) %3, i1 noundef zeroext true)
  ret void
}

; Function Attrs: inlinehint mustprogress nounwind uwtable
define linkonce_odr void @_ZN5Gluco4HeapINS_6Solver10VarOrderLtEED2Ev(ptr noundef nonnull align 8 dereferenceable(40) %0) unnamed_addr #6 comdat align 2 {
  %2 = alloca ptr, align 8
  store ptr %0, ptr %2, align 8, !tbaa !194
  %3 = load ptr, ptr %2, align 8
  %4 = getelementptr inbounds nuw %"class.Gluco::Heap", ptr %3, i32 0, i32 2
  call void @_ZN5Gluco3vecIiED2Ev(ptr noundef nonnull align 8 dereferenceable(16) %4) #2
  %5 = getelementptr inbounds nuw %"class.Gluco::Heap", ptr %3, i32 0, i32 1
  call void @_ZN5Gluco3vecIiED2Ev(ptr noundef nonnull align 8 dereferenceable(16) %5) #2
  ret void
}

; Function Attrs: mustprogress nounwind uwtable
define linkonce_odr void @_ZN5Gluco3vecINS_6Solver7VarDataEED2Ev(ptr noundef nonnull align 8 dereferenceable(16) %0) unnamed_addr #1 comdat align 2 {
  %2 = alloca ptr, align 8
  store ptr %0, ptr %2, align 8, !tbaa !187
  %3 = load ptr, ptr %2, align 8
  call void @_ZN5Gluco3vecINS_6Solver7VarDataEE5clearEb(ptr noundef nonnull align 8 dereferenceable(16) %3, i1 noundef zeroext true)
  ret void
}

; Function Attrs: mustprogress nounwind uwtable
define linkonce_odr void @_ZN5Gluco3vecINS_5lboolEED2Ev(ptr noundef nonnull align 8 dereferenceable(16) %0) unnamed_addr #1 comdat align 2 {
  %2 = alloca ptr, align 8
  store ptr %0, ptr %2, align 8, !tbaa !162
  %3 = load ptr, ptr %2, align 8
  call void @_ZN5Gluco3vecINS_5lboolEE5clearEb(ptr noundef nonnull align 8 dereferenceable(16) %3, i1 noundef zeroext true)
  ret void
}

; Function Attrs: inlinehint mustprogress nounwind uwtable
define linkonce_odr void @_ZN5Gluco8OccListsINS_3LitENS_3vecINS_6Solver7WatcherEEENS3_14WatcherDeletedEED2Ev(ptr noundef nonnull align 8 dereferenceable(56) %0) unnamed_addr #6 comdat align 2 {
  %2 = alloca ptr, align 8
  store ptr %0, ptr %2, align 8, !tbaa !174
  %3 = load ptr, ptr %2, align 8
  %4 = getelementptr inbounds nuw %"class.Gluco::OccLists", ptr %3, i32 0, i32 2
  call void @_ZN5Gluco3vecINS_3LitEED2Ev(ptr noundef nonnull align 8 dereferenceable(16) %4) #2
  %5 = getelementptr inbounds nuw %"class.Gluco::OccLists", ptr %3, i32 0, i32 1
  call void @_ZN5Gluco3vecIcED2Ev(ptr noundef nonnull align 8 dereferenceable(16) %5) #2
  %6 = getelementptr inbounds nuw %"class.Gluco::OccLists", ptr %3, i32 0, i32 0
  call void @_ZN5Gluco3vecINS0_INS_6Solver7WatcherEEEED2Ev(ptr noundef nonnull align 8 dereferenceable(16) %6) #2
  ret void
}

; Function Attrs: mustprogress nounwind uwtable
define linkonce_odr void @_ZN5Gluco3vecIdED2Ev(ptr noundef nonnull align 8 dereferenceable(16) %0) unnamed_addr #1 comdat align 2 {
  %2 = alloca ptr, align 8
  store ptr %0, ptr %2, align 8, !tbaa !167
  %3 = load ptr, ptr %2, align 8
  call void @_ZN5Gluco3vecIdE5clearEb(ptr noundef nonnull align 8 dereferenceable(16) %3, i1 noundef zeroext true)
  ret void
}

; Function Attrs: mustprogress nounwind uwtable
define void @_ZN5Gluco6SolverD0Ev(ptr noundef nonnull align 8 dereferenceable(1216) %0) unnamed_addr #1 align 2 {
  %2 = alloca ptr, align 8
  store ptr %0, ptr %2, align 8, !tbaa !51
  %3 = load ptr, ptr %2, align 8
  call void @_ZN5Gluco6SolverD1Ev(ptr noundef nonnull align 8 dereferenceable(1216) %3) #2
  call void @_ZdlPvm(ptr noundef %3, i64 noundef 1216) #18
  ret void
}

; Function Attrs: nobuiltin nounwind
declare void @_ZdlPvm(ptr noundef, i64 noundef) #7

; Function Attrs: mustprogress nounwind uwtable
define void @_ZN5Gluco6Solver18setIncrementalModeEv(ptr noundef nonnull align 8 dereferenceable(1216) %0) #1 align 2 {
  %2 = alloca ptr, align 8
  store ptr %0, ptr %2, align 8, !tbaa !51
  %3 = load ptr, ptr %2, align 8
  %4 = getelementptr inbounds nuw %"class.Gluco::Solver", ptr %3, i32 0, i32 101
  store i32 1, ptr %4, align 4, !tbaa !143
  ret void
}

; Function Attrs: mustprogress nounwind uwtable
define void @_ZN5Gluco6Solver17initNbInitialVarsEi(ptr noundef nonnull align 8 dereferenceable(1216) %0, i32 noundef %1) #1 align 2 {
  %3 = alloca ptr, align 8
  %4 = alloca i32, align 4
  store ptr %0, ptr %3, align 8, !tbaa !51
  store i32 %1, ptr %4, align 4, !tbaa !35
  %5 = load ptr, ptr %3, align 8
  %6 = load i32, ptr %4, align 4, !tbaa !35
  %7 = getelementptr inbounds nuw %"class.Gluco::Solver", ptr %5, i32 0, i32 102
  store i32 %6, ptr %7, align 8, !tbaa !144
  ret void
}

; Function Attrs: mustprogress nounwind uwtable
define noundef i32 @_ZN5Gluco6Solver6newVarEbb(ptr noundef nonnull align 8 dereferenceable(1216) %0, i1 noundef zeroext %1, i1 noundef zeroext %2) #1 align 2 {
  %4 = alloca ptr, align 8
  %5 = alloca i8, align 1
  %6 = alloca i8, align 1
  %7 = alloca i32, align 4
  %8 = alloca %"struct.Gluco::Lit", align 4
  %9 = alloca %"struct.Gluco::Lit", align 4
  %10 = alloca %"struct.Gluco::Lit", align 4
  %11 = alloca %"struct.Gluco::Lit", align 4
  %12 = alloca %"class.Gluco::lbool", align 1
  %13 = alloca %"struct.Gluco::Solver::VarData", align 4
  %14 = alloca double, align 8
  %15 = alloca i8, align 1
  %16 = alloca i32, align 4
  %17 = alloca i8, align 1
  store ptr %0, ptr %4, align 8, !tbaa !51
  %18 = zext i1 %1 to i8
  store i8 %18, ptr %5, align 1, !tbaa !10
  %19 = zext i1 %2 to i8
  store i8 %19, ptr %6, align 1, !tbaa !10
  %20 = load ptr, ptr %4, align 8
  call void @llvm.lifetime.start.p0(i64 4, ptr %7) #2
  %21 = call noundef i32 @_ZNK5Gluco6Solver5nVarsEv(ptr noundef nonnull align 8 dereferenceable(1216) %20)
  store i32 %21, ptr %7, align 4, !tbaa !35
  %22 = getelementptr inbounds nuw %"class.Gluco::Solver", ptr %20, i32 0, i32 64
  call void @llvm.lifetime.start.p0(i64 4, ptr %8) #2
  %23 = load i32, ptr %7, align 4, !tbaa !35
  %24 = call i32 @_ZN5Gluco5mkLitEib(i32 noundef %23, i1 noundef zeroext false)
  %25 = getelementptr inbounds nuw %"struct.Gluco::Lit", ptr %8, i32 0, i32 0
  store i32 %24, ptr %25, align 4
  call void @_ZN5Gluco8OccListsINS_3LitENS_3vecINS_6Solver7WatcherEEENS3_14WatcherDeletedEE4initERKS1_(ptr noundef nonnull align 8 dereferenceable(56) %22, ptr noundef nonnull align 4 dereferenceable(4) %8)
  call void @llvm.lifetime.end.p0(i64 4, ptr %8) #2
  %26 = getelementptr inbounds nuw %"class.Gluco::Solver", ptr %20, i32 0, i32 64
  call void @llvm.lifetime.start.p0(i64 4, ptr %9) #2
  %27 = load i32, ptr %7, align 4, !tbaa !35
  %28 = call i32 @_ZN5Gluco5mkLitEib(i32 noundef %27, i1 noundef zeroext true)
  %29 = getelementptr inbounds nuw %"struct.Gluco::Lit", ptr %9, i32 0, i32 0
  store i32 %28, ptr %29, align 4
  call void @_ZN5Gluco8OccListsINS_3LitENS_3vecINS_6Solver7WatcherEEENS3_14WatcherDeletedEE4initERKS1_(ptr noundef nonnull align 8 dereferenceable(56) %26, ptr noundef nonnull align 4 dereferenceable(4) %9)
  call void @llvm.lifetime.end.p0(i64 4, ptr %9) #2
  %30 = getelementptr inbounds nuw %"class.Gluco::Solver", ptr %20, i32 0, i32 65
  call void @llvm.lifetime.start.p0(i64 4, ptr %10) #2
  %31 = load i32, ptr %7, align 4, !tbaa !35
  %32 = call i32 @_ZN5Gluco5mkLitEib(i32 noundef %31, i1 noundef zeroext false)
  %33 = getelementptr inbounds nuw %"struct.Gluco::Lit", ptr %10, i32 0, i32 0
  store i32 %32, ptr %33, align 4
  call void @_ZN5Gluco8OccListsINS_3LitENS_3vecINS_6Solver7WatcherEEENS3_14WatcherDeletedEE4initERKS1_(ptr noundef nonnull align 8 dereferenceable(56) %30, ptr noundef nonnull align 4 dereferenceable(4) %10)
  call void @llvm.lifetime.end.p0(i64 4, ptr %10) #2
  %34 = getelementptr inbounds nuw %"class.Gluco::Solver", ptr %20, i32 0, i32 65
  call void @llvm.lifetime.start.p0(i64 4, ptr %11) #2
  %35 = load i32, ptr %7, align 4, !tbaa !35
  %36 = call i32 @_ZN5Gluco5mkLitEib(i32 noundef %35, i1 noundef zeroext true)
  %37 = getelementptr inbounds nuw %"struct.Gluco::Lit", ptr %11, i32 0, i32 0
  store i32 %36, ptr %37, align 4
  call void @_ZN5Gluco8OccListsINS_3LitENS_3vecINS_6Solver7WatcherEEENS3_14WatcherDeletedEE4initERKS1_(ptr noundef nonnull align 8 dereferenceable(56) %34, ptr noundef nonnull align 4 dereferenceable(4) %11)
  call void @llvm.lifetime.end.p0(i64 4, ptr %11) #2
  %38 = getelementptr inbounds nuw %"class.Gluco::Solver", ptr %20, i32 0, i32 68
  call void @llvm.lifetime.start.p0(i64 1, ptr %12) #2
  call void @_ZN5Gluco5lboolC2Eh(ptr noundef nonnull align 1 dereferenceable(1) %12, i8 noundef zeroext 2)
  call void @_ZN5Gluco3vecINS_5lboolEE4pushERKS1_(ptr noundef nonnull align 8 dereferenceable(16) %38, ptr noundef nonnull align 1 dereferenceable(1) %12)
  call void @llvm.lifetime.end.p0(i64 1, ptr %12) #2
  %39 = getelementptr inbounds nuw %"class.Gluco::Solver", ptr %20, i32 0, i32 74
  call void @llvm.lifetime.start.p0(i64 8, ptr %13) #2
  %40 = call i64 @_ZN5Gluco6Solver9mkVarDataEji(i32 noundef -1, i32 noundef 0)
  store i64 %40, ptr %13, align 4
  call void @_ZN5Gluco3vecINS_6Solver7VarDataEE4pushERKS2_(ptr noundef nonnull align 8 dereferenceable(16) %39, ptr noundef nonnull align 4 dereferenceable(8) %13)
  call void @llvm.lifetime.end.p0(i64 8, ptr %13) #2
  %41 = getelementptr inbounds nuw %"class.Gluco::Solver", ptr %20, i32 0, i32 62
  call void @llvm.lifetime.start.p0(i64 8, ptr %14) #2
  %42 = getelementptr inbounds nuw %"class.Gluco::Solver", ptr %20, i32 0, i32 33
  %43 = load i8, ptr %42, align 1, !tbaa !106, !range !14, !noundef !15
  %44 = trunc i8 %43 to i1
  br i1 %44, label %45, label %49

45:                                               ; preds = %3
  %46 = getelementptr inbounds nuw %"class.Gluco::Solver", ptr %20, i32 0, i32 29
  %47 = call noundef double @_ZN5Gluco6Solver5drandERd(ptr noundef nonnull align 8 dereferenceable(8) %46)
  %48 = fmul double %47, 1.000000e-05
  br label %50

49:                                               ; preds = %3
  br label %50

50:                                               ; preds = %49, %45
  %51 = phi double [ %48, %45 ], [ 0.000000e+00, %49 ]
  store double %51, ptr %14, align 8, !tbaa !21
  call void @_ZN5Gluco3vecIdE4pushERKd(ptr noundef nonnull align 8 dereferenceable(16) %41, ptr noundef nonnull align 8 dereferenceable(8) %14)
  call void @llvm.lifetime.end.p0(i64 8, ptr %14) #2
  %52 = getelementptr inbounds nuw %"class.Gluco::Solver", ptr %20, i32 0, i32 90
  call void @llvm.lifetime.start.p0(i64 1, ptr %15) #2
  store i8 0, ptr %15, align 1, !tbaa !210
  call void @_ZN5Gluco3vecIcE4pushERKc(ptr noundef nonnull align 8 dereferenceable(16) %52, ptr noundef nonnull align 1 dereferenceable(1) %15)
  call void @llvm.lifetime.end.p0(i64 1, ptr %15) #2
  %53 = getelementptr inbounds nuw %"class.Gluco::Solver", ptr %20, i32 0, i32 82
  call void @llvm.lifetime.start.p0(i64 4, ptr %16) #2
  store i32 0, ptr %16, align 4, !tbaa !35
  call void @_ZN5Gluco3vecIjE4pushERKj(ptr noundef nonnull align 8 dereferenceable(16) %53, ptr noundef nonnull align 4 dereferenceable(4) %16)
  call void @llvm.lifetime.end.p0(i64 4, ptr %16) #2
  %54 = getelementptr inbounds nuw %"class.Gluco::Solver", ptr %20, i32 0, i32 69
  call void @llvm.lifetime.start.p0(i64 1, ptr %17) #2
  %55 = load i8, ptr %5, align 1, !tbaa !10, !range !14, !noundef !15
  %56 = trunc i8 %55 to i1
  %57 = zext i1 %56 to i8
  store i8 %57, ptr %17, align 1, !tbaa !210
  call void @_ZN5Gluco3vecIcE4pushERKc(ptr noundef nonnull align 8 dereferenceable(16) %54, ptr noundef nonnull align 1 dereferenceable(1) %17)
  call void @llvm.lifetime.end.p0(i64 1, ptr %17) #2
  %58 = getelementptr inbounds nuw %"class.Gluco::Solver", ptr %20, i32 0, i32 70
  call void @_ZN5Gluco3vecIcE4pushEv(ptr noundef nonnull align 8 dereferenceable(16) %58)
  %59 = getelementptr inbounds nuw %"class.Gluco::Solver", ptr %20, i32 0, i32 71
  %60 = load i32, ptr %7, align 4, !tbaa !35
  %61 = add nsw i32 %60, 1
  call void @_ZN5Gluco3vecINS_3LitEE8capacityEi(ptr noundef nonnull align 8 dereferenceable(16) %59, i32 noundef %61)
  %62 = load i32, ptr %7, align 4, !tbaa !35
  %63 = load i8, ptr %6, align 1, !tbaa !10, !range !14, !noundef !15
  %64 = trunc i8 %63 to i1
  call void @_ZN5Gluco6Solver14setDecisionVarEib(ptr noundef nonnull align 8 dereferenceable(1216) %20, i32 noundef %62, i1 noundef zeroext %64)
  %65 = load i32, ptr %7, align 4, !tbaa !35
  call void @llvm.lifetime.end.p0(i64 4, ptr %7) #2
  ret i32 %65
}

; Function Attrs: inlinehint mustprogress nounwind uwtable
define linkonce_odr noundef i32 @_ZNK5Gluco6Solver5nVarsEv(ptr noundef nonnull align 8 dereferenceable(1216) %0) #6 comdat align 2 {
  %2 = alloca ptr, align 8
  store ptr %0, ptr %2, align 8, !tbaa !51
  %3 = load ptr, ptr %2, align 8
  %4 = getelementptr inbounds nuw %"class.Gluco::Solver", ptr %3, i32 0, i32 74
  %5 = call noundef i32 @_ZNK5Gluco3vecINS_6Solver7VarDataEE4sizeEv(ptr noundef nonnull align 8 dereferenceable(16) %4)
  ret i32 %5
}

; Function Attrs: mustprogress nounwind uwtable
define linkonce_odr void @_ZN5Gluco8OccListsINS_3LitENS_3vecINS_6Solver7WatcherEEENS3_14WatcherDeletedEE4initERKS1_(ptr noundef nonnull align 8 dereferenceable(56) %0, ptr noundef nonnull align 4 dereferenceable(4) %1) #1 comdat align 2 {
  %3 = alloca ptr, align 8
  %4 = alloca ptr, align 8
  %5 = alloca %"struct.Gluco::Lit", align 4
  %6 = alloca %"struct.Gluco::Lit", align 4
  %7 = alloca i8, align 1
  store ptr %0, ptr %3, align 8, !tbaa !174
  store ptr %1, ptr %4, align 8, !tbaa !211
  %8 = load ptr, ptr %3, align 8
  %9 = getelementptr inbounds nuw %"class.Gluco::OccLists", ptr %8, i32 0, i32 0
  %10 = load ptr, ptr %4, align 8, !tbaa !211
  call void @llvm.memcpy.p0.p0.i64(ptr align 4 %5, ptr align 4 %10, i64 4, i1 false), !tbaa.struct !212
  %11 = getelementptr inbounds nuw %"struct.Gluco::Lit", ptr %5, i32 0, i32 0
  %12 = load i32, ptr %11, align 4
  %13 = call noundef i32 @_ZN5Gluco5toIntENS_3LitE(i32 %12)
  %14 = add nsw i32 %13, 1
  call void @_ZN5Gluco3vecINS0_INS_6Solver7WatcherEEEE6growToEi(ptr noundef nonnull align 8 dereferenceable(16) %9, i32 noundef %14)
  %15 = getelementptr inbounds nuw %"class.Gluco::OccLists", ptr %8, i32 0, i32 1
  %16 = load ptr, ptr %4, align 8, !tbaa !211
  call void @llvm.memcpy.p0.p0.i64(ptr align 4 %6, ptr align 4 %16, i64 4, i1 false), !tbaa.struct !212
  %17 = getelementptr inbounds nuw %"struct.Gluco::Lit", ptr %6, i32 0, i32 0
  %18 = load i32, ptr %17, align 4
  %19 = call noundef i32 @_ZN5Gluco5toIntENS_3LitE(i32 %18)
  %20 = add nsw i32 %19, 1
  call void @llvm.lifetime.start.p0(i64 1, ptr %7) #2
  store i8 0, ptr %7, align 1, !tbaa !210
  call void @_ZN5Gluco3vecIcE6growToEiRKc(ptr noundef nonnull align 8 dereferenceable(16) %15, i32 noundef %20, ptr noundef nonnull align 1 dereferenceable(1) %7)
  call void @llvm.lifetime.end.p0(i64 1, ptr %7) #2
  ret void
}

; Function Attrs: inlinehint mustprogress nounwind uwtable
define linkonce_odr i32 @_ZN5Gluco5mkLitEib(i32 noundef %0, i1 noundef zeroext %1) #6 comdat {
  %3 = alloca %"struct.Gluco::Lit", align 4
  %4 = alloca i32, align 4
  %5 = alloca i8, align 1
  store i32 %0, ptr %4, align 4, !tbaa !35
  %6 = zext i1 %1 to i8
  store i8 %6, ptr %5, align 1, !tbaa !10
  %7 = load i32, ptr %4, align 4, !tbaa !35
  %8 = load i32, ptr %4, align 4, !tbaa !35
  %9 = add nsw i32 %7, %8
  %10 = load i8, ptr %5, align 1, !tbaa !10, !range !14, !noundef !15
  %11 = trunc i8 %10 to i1
  %12 = zext i1 %11 to i32
  %13 = add nsw i32 %9, %12
  %14 = getelementptr inbounds nuw %"struct.Gluco::Lit", ptr %3, i32 0, i32 0
  store i32 %13, ptr %14, align 4, !tbaa !213
  %15 = getelementptr inbounds nuw %"struct.Gluco::Lit", ptr %3, i32 0, i32 0
  %16 = load i32, ptr %15, align 4
  ret i32 %16
}

; Function Attrs: mustprogress nounwind uwtable
define linkonce_odr void @_ZN5Gluco3vecINS_5lboolEE4pushERKS1_(ptr noundef nonnull align 8 dereferenceable(16) %0, ptr noundef nonnull align 1 dereferenceable(1) %1) #1 comdat align 2 {
  %3 = alloca ptr, align 8
  %4 = alloca ptr, align 8
  store ptr %0, ptr %3, align 8, !tbaa !162
  store ptr %1, ptr %4, align 8, !tbaa !215
  %5 = load ptr, ptr %3, align 8
  %6 = getelementptr inbounds nuw %"class.Gluco::vec.1", ptr %5, i32 0, i32 1
  %7 = load i32, ptr %6, align 8, !tbaa !165
  %8 = getelementptr inbounds nuw %"class.Gluco::vec.1", ptr %5, i32 0, i32 2
  %9 = load i32, ptr %8, align 4, !tbaa !166
  %10 = icmp eq i32 %7, %9
  br i1 %10, label %11, label %15

11:                                               ; preds = %2
  %12 = getelementptr inbounds nuw %"class.Gluco::vec.1", ptr %5, i32 0, i32 1
  %13 = load i32, ptr %12, align 8, !tbaa !165
  %14 = add nsw i32 %13, 1
  call void @_ZN5Gluco3vecINS_5lboolEE8capacityEi(ptr noundef nonnull align 8 dereferenceable(16) %5, i32 noundef %14)
  br label %15

15:                                               ; preds = %11, %2
  %16 = load ptr, ptr %4, align 8, !tbaa !215
  %17 = getelementptr inbounds nuw %"class.Gluco::vec.1", ptr %5, i32 0, i32 0
  %18 = load ptr, ptr %17, align 8, !tbaa !164
  %19 = getelementptr inbounds nuw %"class.Gluco::vec.1", ptr %5, i32 0, i32 1
  %20 = load i32, ptr %19, align 8, !tbaa !165
  %21 = add nsw i32 %20, 1
  store i32 %21, ptr %19, align 8, !tbaa !165
  %22 = sext i32 %20 to i64
  %23 = getelementptr inbounds %"class.Gluco::lbool", ptr %18, i64 %22
  call void @llvm.memcpy.p0.p0.i64(ptr align 1 %23, ptr align 1 %16, i64 1, i1 false), !tbaa.struct !216
  ret void
}

; Function Attrs: mustprogress nounwind uwtable
define linkonce_odr void @_ZN5Gluco5lboolC2Eh(ptr noundef nonnull align 1 dereferenceable(1) %0, i8 noundef zeroext %1) unnamed_addr #1 comdat align 2 {
  %3 = alloca ptr, align 8
  %4 = alloca i8, align 1
  store ptr %0, ptr %3, align 8, !tbaa !215
  store i8 %1, ptr %4, align 1, !tbaa !210
  %5 = load ptr, ptr %3, align 8
  %6 = getelementptr inbounds nuw %"class.Gluco::lbool", ptr %5, i32 0, i32 0
  %7 = load i8, ptr %4, align 1, !tbaa !210
  store i8 %7, ptr %6, align 1, !tbaa !217
  ret void
}

; Function Attrs: mustprogress nounwind uwtable
define linkonce_odr void @_ZN5Gluco3vecINS_6Solver7VarDataEE4pushERKS2_(ptr noundef nonnull align 8 dereferenceable(16) %0, ptr noundef nonnull align 4 dereferenceable(8) %1) #1 comdat align 2 {
  %3 = alloca ptr, align 8
  %4 = alloca ptr, align 8
  store ptr %0, ptr %3, align 8, !tbaa !187
  store ptr %1, ptr %4, align 8, !tbaa !219
  %5 = load ptr, ptr %3, align 8
  %6 = getelementptr inbounds nuw %"class.Gluco::vec.6", ptr %5, i32 0, i32 1
  %7 = load i32, ptr %6, align 8, !tbaa !190
  %8 = getelementptr inbounds nuw %"class.Gluco::vec.6", ptr %5, i32 0, i32 2
  %9 = load i32, ptr %8, align 4, !tbaa !191
  %10 = icmp eq i32 %7, %9
  br i1 %10, label %11, label %15

11:                                               ; preds = %2
  %12 = getelementptr inbounds nuw %"class.Gluco::vec.6", ptr %5, i32 0, i32 1
  %13 = load i32, ptr %12, align 8, !tbaa !190
  %14 = add nsw i32 %13, 1
  call void @_ZN5Gluco3vecINS_6Solver7VarDataEE8capacityEi(ptr noundef nonnull align 8 dereferenceable(16) %5, i32 noundef %14)
  br label %15

15:                                               ; preds = %11, %2
  %16 = load ptr, ptr %4, align 8, !tbaa !219
  %17 = getelementptr inbounds nuw %"class.Gluco::vec.6", ptr %5, i32 0, i32 0
  %18 = load ptr, ptr %17, align 8, !tbaa !189
  %19 = getelementptr inbounds nuw %"class.Gluco::vec.6", ptr %5, i32 0, i32 1
  %20 = load i32, ptr %19, align 8, !tbaa !190
  %21 = add nsw i32 %20, 1
  store i32 %21, ptr %19, align 8, !tbaa !190
  %22 = sext i32 %20 to i64
  %23 = getelementptr inbounds %"struct.Gluco::Solver::VarData", ptr %18, i64 %22
  call void @llvm.memcpy.p0.p0.i64(ptr align 4 %23, ptr align 4 %16, i64 8, i1 false), !tbaa.struct !42
  ret void
}

; Function Attrs: inlinehint mustprogress nounwind uwtable
define linkonce_odr i64 @_ZN5Gluco6Solver9mkVarDataEji(i32 noundef %0, i32 noundef %1) #6 comdat align 2 {
  %3 = alloca %"struct.Gluco::Solver::VarData", align 4
  %4 = alloca i32, align 4
  %5 = alloca i32, align 4
  store i32 %0, ptr %4, align 4, !tbaa !35
  store i32 %1, ptr %5, align 4, !tbaa !35
  %6 = getelementptr inbounds nuw %"struct.Gluco::Solver::VarData", ptr %3, i32 0, i32 0
  %7 = load i32, ptr %4, align 4, !tbaa !35
  store i32 %7, ptr %6, align 4, !tbaa !220
  %8 = getelementptr inbounds nuw %"struct.Gluco::Solver::VarData", ptr %3, i32 0, i32 1
  %9 = load i32, ptr %5, align 4, !tbaa !35
  store i32 %9, ptr %8, align 4, !tbaa !222
  %10 = load i64, ptr %3, align 4
  ret i64 %10
}

; Function Attrs: mustprogress nounwind uwtable
define linkonce_odr void @_ZN5Gluco3vecIdE4pushERKd(ptr noundef nonnull align 8 dereferenceable(16) %0, ptr noundef nonnull align 8 dereferenceable(8) %1) #1 comdat align 2 {
  %3 = alloca ptr, align 8
  %4 = alloca ptr, align 8
  store ptr %0, ptr %3, align 8, !tbaa !167
  store ptr %1, ptr %4, align 8, !tbaa !223
  %5 = load ptr, ptr %3, align 8
  %6 = getelementptr inbounds nuw %"class.Gluco::vec.2", ptr %5, i32 0, i32 1
  %7 = load i32, ptr %6, align 8, !tbaa !169
  %8 = getelementptr inbounds nuw %"class.Gluco::vec.2", ptr %5, i32 0, i32 2
  %9 = load i32, ptr %8, align 4, !tbaa !170
  %10 = icmp eq i32 %7, %9
  br i1 %10, label %11, label %15

11:                                               ; preds = %2
  %12 = getelementptr inbounds nuw %"class.Gluco::vec.2", ptr %5, i32 0, i32 1
  %13 = load i32, ptr %12, align 8, !tbaa !169
  %14 = add nsw i32 %13, 1
  call void @_ZN5Gluco3vecIdE8capacityEi(ptr noundef nonnull align 8 dereferenceable(16) %5, i32 noundef %14)
  br label %15

15:                                               ; preds = %11, %2
  %16 = load ptr, ptr %4, align 8, !tbaa !223
  %17 = load double, ptr %16, align 8, !tbaa !21
  %18 = getelementptr inbounds nuw %"class.Gluco::vec.2", ptr %5, i32 0, i32 0
  %19 = load ptr, ptr %18, align 8, !tbaa !168
  %20 = getelementptr inbounds nuw %"class.Gluco::vec.2", ptr %5, i32 0, i32 1
  %21 = load i32, ptr %20, align 8, !tbaa !169
  %22 = add nsw i32 %21, 1
  store i32 %22, ptr %20, align 8, !tbaa !169
  %23 = sext i32 %21 to i64
  %24 = getelementptr inbounds double, ptr %19, i64 %23
  store double %17, ptr %24, align 8, !tbaa !21
  ret void
}

; Function Attrs: inlinehint mustprogress nounwind uwtable
define linkonce_odr noundef double @_ZN5Gluco6Solver5drandERd(ptr noundef nonnull align 8 dereferenceable(8) %0) #6 comdat align 2 {
  %2 = alloca ptr, align 8
  %3 = alloca i32, align 4
  store ptr %0, ptr %2, align 8, !tbaa !223
  %4 = load ptr, ptr %2, align 8, !tbaa !223
  %5 = load double, ptr %4, align 8, !tbaa !21
  %6 = fmul double %5, 0x413534E400000000
  store double %6, ptr %4, align 8, !tbaa !21
  call void @llvm.lifetime.start.p0(i64 4, ptr %3) #2
  %7 = load ptr, ptr %2, align 8, !tbaa !223
  %8 = load double, ptr %7, align 8, !tbaa !21
  %9 = fdiv double %8, 0x41DFFFFFFFC00000
  %10 = fptosi double %9 to i32
  store i32 %10, ptr %3, align 4, !tbaa !35
  %11 = load i32, ptr %3, align 4, !tbaa !35
  %12 = sitofp i32 %11 to double
  %13 = load ptr, ptr %2, align 8, !tbaa !223
  %14 = load double, ptr %13, align 8, !tbaa !21
  %15 = fneg double %12
  %16 = call double @llvm.fmuladd.f64(double %15, double 0x41DFFFFFFFC00000, double %14)
  store double %16, ptr %13, align 8, !tbaa !21
  %17 = load ptr, ptr %2, align 8, !tbaa !223
  %18 = load double, ptr %17, align 8, !tbaa !21
  %19 = fdiv double %18, 0x41DFFFFFFFC00000
  call void @llvm.lifetime.end.p0(i64 4, ptr %3) #2
  ret double %19
}

; Function Attrs: mustprogress nounwind uwtable
define linkonce_odr void @_ZN5Gluco3vecIcE4pushERKc(ptr noundef nonnull align 8 dereferenceable(16) %0, ptr noundef nonnull align 1 dereferenceable(1) %1) #1 comdat align 2 {
  %3 = alloca ptr, align 8
  %4 = alloca ptr, align 8
  store ptr %0, ptr %3, align 8, !tbaa !182
  store ptr %1, ptr %4, align 8, !tbaa !3
  %5 = load ptr, ptr %3, align 8
  %6 = getelementptr inbounds nuw %"class.Gluco::vec.4", ptr %5, i32 0, i32 1
  %7 = load i32, ptr %6, align 8, !tbaa !185
  %8 = getelementptr inbounds nuw %"class.Gluco::vec.4", ptr %5, i32 0, i32 2
  %9 = load i32, ptr %8, align 4, !tbaa !186
  %10 = icmp eq i32 %7, %9
  br i1 %10, label %11, label %15

11:                                               ; preds = %2
  %12 = getelementptr inbounds nuw %"class.Gluco::vec.4", ptr %5, i32 0, i32 1
  %13 = load i32, ptr %12, align 8, !tbaa !185
  %14 = add nsw i32 %13, 1
  call void @_ZN5Gluco3vecIcE8capacityEi(ptr noundef nonnull align 8 dereferenceable(16) %5, i32 noundef %14)
  br label %15

15:                                               ; preds = %11, %2
  %16 = load ptr, ptr %4, align 8, !tbaa !3
  %17 = load i8, ptr %16, align 1, !tbaa !210
  %18 = getelementptr inbounds nuw %"class.Gluco::vec.4", ptr %5, i32 0, i32 0
  %19 = load ptr, ptr %18, align 8, !tbaa !184
  %20 = getelementptr inbounds nuw %"class.Gluco::vec.4", ptr %5, i32 0, i32 1
  %21 = load i32, ptr %20, align 8, !tbaa !185
  %22 = add nsw i32 %21, 1
  store i32 %22, ptr %20, align 8, !tbaa !185
  %23 = sext i32 %21 to i64
  %24 = getelementptr inbounds i8, ptr %19, i64 %23
  store i8 %17, ptr %24, align 1, !tbaa !210
  ret void
}

; Function Attrs: mustprogress nounwind uwtable
define linkonce_odr void @_ZN5Gluco3vecIjE4pushERKj(ptr noundef nonnull align 8 dereferenceable(16) %0, ptr noundef nonnull align 4 dereferenceable(4) %1) #1 comdat align 2 {
  %3 = alloca ptr, align 8
  %4 = alloca ptr, align 8
  store ptr %0, ptr %3, align 8, !tbaa !177
  store ptr %1, ptr %4, align 8, !tbaa !224
  %5 = load ptr, ptr %3, align 8
  %6 = getelementptr inbounds nuw %"class.Gluco::vec.5", ptr %5, i32 0, i32 1
  %7 = load i32, ptr %6, align 8, !tbaa !180
  %8 = getelementptr inbounds nuw %"class.Gluco::vec.5", ptr %5, i32 0, i32 2
  %9 = load i32, ptr %8, align 4, !tbaa !181
  %10 = icmp eq i32 %7, %9
  br i1 %10, label %11, label %15

11:                                               ; preds = %2
  %12 = getelementptr inbounds nuw %"class.Gluco::vec.5", ptr %5, i32 0, i32 1
  %13 = load i32, ptr %12, align 8, !tbaa !180
  %14 = add nsw i32 %13, 1
  call void @_ZN5Gluco3vecIjE8capacityEi(ptr noundef nonnull align 8 dereferenceable(16) %5, i32 noundef %14)
  br label %15

15:                                               ; preds = %11, %2
  %16 = load ptr, ptr %4, align 8, !tbaa !224
  %17 = load i32, ptr %16, align 4, !tbaa !35
  %18 = getelementptr inbounds nuw %"class.Gluco::vec.5", ptr %5, i32 0, i32 0
  %19 = load ptr, ptr %18, align 8, !tbaa !179
  %20 = getelementptr inbounds nuw %"class.Gluco::vec.5", ptr %5, i32 0, i32 1
  %21 = load i32, ptr %20, align 8, !tbaa !180
  %22 = add nsw i32 %21, 1
  store i32 %22, ptr %20, align 8, !tbaa !180
  %23 = sext i32 %21 to i64
  %24 = getelementptr inbounds i32, ptr %19, i64 %23
  store i32 %17, ptr %24, align 4, !tbaa !35
  ret void
}

; Function Attrs: mustprogress nounwind uwtable
define linkonce_odr void @_ZN5Gluco3vecIcE4pushEv(ptr noundef nonnull align 8 dereferenceable(16) %0) #1 comdat align 2 {
  %2 = alloca ptr, align 8
  store ptr %0, ptr %2, align 8, !tbaa !182
  %3 = load ptr, ptr %2, align 8
  %4 = getelementptr inbounds nuw %"class.Gluco::vec.4", ptr %3, i32 0, i32 1
  %5 = load i32, ptr %4, align 8, !tbaa !185
  %6 = getelementptr inbounds nuw %"class.Gluco::vec.4", ptr %3, i32 0, i32 2
  %7 = load i32, ptr %6, align 4, !tbaa !186
  %8 = icmp eq i32 %5, %7
  br i1 %8, label %9, label %13

9:                                                ; preds = %1
  %10 = getelementptr inbounds nuw %"class.Gluco::vec.4", ptr %3, i32 0, i32 1
  %11 = load i32, ptr %10, align 8, !tbaa !185
  %12 = add nsw i32 %11, 1
  call void @_ZN5Gluco3vecIcE8capacityEi(ptr noundef nonnull align 8 dereferenceable(16) %3, i32 noundef %12)
  br label %13

13:                                               ; preds = %9, %1
  %14 = getelementptr inbounds nuw %"class.Gluco::vec.4", ptr %3, i32 0, i32 0
  %15 = load ptr, ptr %14, align 8, !tbaa !184
  %16 = getelementptr inbounds nuw %"class.Gluco::vec.4", ptr %3, i32 0, i32 1
  %17 = load i32, ptr %16, align 8, !tbaa !185
  %18 = sext i32 %17 to i64
  %19 = getelementptr inbounds i8, ptr %15, i64 %18
  store i8 0, ptr %19, align 1, !tbaa !210
  %20 = getelementptr inbounds nuw %"class.Gluco::vec.4", ptr %3, i32 0, i32 1
  %21 = load i32, ptr %20, align 8, !tbaa !185
  %22 = add nsw i32 %21, 1
  store i32 %22, ptr %20, align 8, !tbaa !185
  ret void
}

; Function Attrs: mustprogress nounwind uwtable
define linkonce_odr void @_ZN5Gluco3vecINS_3LitEE8capacityEi(ptr noundef nonnull align 8 dereferenceable(16) %0, i32 noundef %1) #1 comdat align 2 {
  %3 = alloca ptr, align 8
  %4 = alloca i32, align 4
  %5 = alloca i32, align 4
  store ptr %0, ptr %3, align 8, !tbaa !157
  store i32 %1, ptr %4, align 4, !tbaa !35
  %6 = load ptr, ptr %3, align 8
  %7 = getelementptr inbounds nuw %"class.Gluco::vec.0", ptr %6, i32 0, i32 2
  %8 = load i32, ptr %7, align 4, !tbaa !161
  %9 = load i32, ptr %4, align 4, !tbaa !35
  %10 = icmp sge i32 %8, %9
  br i1 %10, label %11, label %12

11:                                               ; preds = %2
  br label %48

12:                                               ; preds = %2
  call void @llvm.lifetime.start.p0(i64 4, ptr %5) #2
  %13 = load i32, ptr %4, align 4, !tbaa !35
  %14 = getelementptr inbounds nuw %"class.Gluco::vec.0", ptr %6, i32 0, i32 2
  %15 = load i32, ptr %14, align 4, !tbaa !161
  %16 = sub nsw i32 %13, %15
  %17 = add nsw i32 %16, 1
  %18 = and i32 %17, -2
  %19 = getelementptr inbounds nuw %"class.Gluco::vec.0", ptr %6, i32 0, i32 2
  %20 = load i32, ptr %19, align 4, !tbaa !161
  %21 = ashr i32 %20, 1
  %22 = add nsw i32 %21, 2
  %23 = and i32 %22, -2
  %24 = call noundef i32 @_ZN5Gluco3vecINS_3LitEE4imaxEii(i32 noundef %18, i32 noundef %23)
  store i32 %24, ptr %5, align 4, !tbaa !35
  %25 = load i32, ptr %5, align 4, !tbaa !35
  %26 = getelementptr inbounds nuw %"class.Gluco::vec.0", ptr %6, i32 0, i32 2
  %27 = load i32, ptr %26, align 4, !tbaa !161
  %28 = sub nsw i32 2147483647, %27
  %29 = icmp sgt i32 %25, %28
  br i1 %29, label %46, label %30

30:                                               ; preds = %12
  %31 = getelementptr inbounds nuw %"class.Gluco::vec.0", ptr %6, i32 0, i32 0
  %32 = load ptr, ptr %31, align 8, !tbaa !159
  %33 = load i32, ptr %5, align 4, !tbaa !35
  %34 = getelementptr inbounds nuw %"class.Gluco::vec.0", ptr %6, i32 0, i32 2
  %35 = load i32, ptr %34, align 4, !tbaa !161
  %36 = add nsw i32 %35, %33
  store i32 %36, ptr %34, align 4, !tbaa !161
  %37 = sext i32 %36 to i64
  %38 = mul i64 %37, 4
  %39 = call ptr @realloc(ptr noundef %32, i64 noundef %38) #19
  %40 = getelementptr inbounds nuw %"class.Gluco::vec.0", ptr %6, i32 0, i32 0
  store ptr %39, ptr %40, align 8, !tbaa !159
  %41 = icmp eq ptr %39, null
  br i1 %41, label %42, label %47

42:                                               ; preds = %30
  %43 = call ptr @__errno_location() #20
  %44 = load i32, ptr %43, align 4, !tbaa !35
  %45 = icmp eq i32 %44, 12
  br i1 %45, label %46, label %47

46:                                               ; preds = %42, %12
  call void @_ZN5GlucoL19fatal_out_of_memoryEv()
  br label %47

47:                                               ; preds = %46, %42, %30
  call void @llvm.lifetime.end.p0(i64 4, ptr %5) #2
  br label %48

48:                                               ; preds = %47, %11
  ret void
}

; Function Attrs: inlinehint mustprogress nounwind uwtable
define linkonce_odr void @_ZN5Gluco6Solver14setDecisionVarEib(ptr noundef nonnull align 8 dereferenceable(1216) %0, i32 noundef %1, i1 noundef zeroext %2) #6 comdat align 2 {
  %4 = alloca ptr, align 8
  %5 = alloca i32, align 4
  %6 = alloca i8, align 1
  store ptr %0, ptr %4, align 8, !tbaa !51
  store i32 %1, ptr %5, align 4, !tbaa !35
  %7 = zext i1 %2 to i8
  store i8 %7, ptr %6, align 1, !tbaa !10
  %8 = load ptr, ptr %4, align 8
  %9 = load i8, ptr %6, align 1, !tbaa !10, !range !14, !noundef !15
  %10 = trunc i8 %9 to i1
  br i1 %10, label %11, label %21

11:                                               ; preds = %3
  %12 = getelementptr inbounds nuw %"class.Gluco::Solver", ptr %8, i32 0, i32 70
  %13 = load i32, ptr %5, align 4, !tbaa !35
  %14 = call noundef nonnull align 1 dereferenceable(1) ptr @_ZN5Gluco3vecIcEixEi(ptr noundef nonnull align 8 dereferenceable(16) %12, i32 noundef %13)
  %15 = load i8, ptr %14, align 1, !tbaa !210
  %16 = icmp ne i8 %15, 0
  br i1 %16, label %21, label %17

17:                                               ; preds = %11
  %18 = getelementptr inbounds nuw %"class.Gluco::Solver", ptr %8, i32 0, i32 53
  %19 = load i64, ptr %18, align 8, !tbaa !126
  %20 = add nsw i64 %19, 1
  store i64 %20, ptr %18, align 8, !tbaa !126
  br label %35

21:                                               ; preds = %11, %3
  %22 = load i8, ptr %6, align 1, !tbaa !10, !range !14, !noundef !15
  %23 = trunc i8 %22 to i1
  br i1 %23, label %34, label %24

24:                                               ; preds = %21
  %25 = getelementptr inbounds nuw %"class.Gluco::Solver", ptr %8, i32 0, i32 70
  %26 = load i32, ptr %5, align 4, !tbaa !35
  %27 = call noundef nonnull align 1 dereferenceable(1) ptr @_ZN5Gluco3vecIcEixEi(ptr noundef nonnull align 8 dereferenceable(16) %25, i32 noundef %26)
  %28 = load i8, ptr %27, align 1, !tbaa !210
  %29 = icmp ne i8 %28, 0
  br i1 %29, label %30, label %34

30:                                               ; preds = %24
  %31 = getelementptr inbounds nuw %"class.Gluco::Solver", ptr %8, i32 0, i32 53
  %32 = load i64, ptr %31, align 8, !tbaa !126
  %33 = add nsw i64 %32, -1
  store i64 %33, ptr %31, align 8, !tbaa !126
  br label %34

34:                                               ; preds = %30, %24, %21
  br label %35

35:                                               ; preds = %34, %17
  %36 = load i8, ptr %6, align 1, !tbaa !10, !range !14, !noundef !15
  %37 = trunc i8 %36 to i1
  %38 = zext i1 %37 to i8
  %39 = getelementptr inbounds nuw %"class.Gluco::Solver", ptr %8, i32 0, i32 70
  %40 = load i32, ptr %5, align 4, !tbaa !35
  %41 = call noundef nonnull align 1 dereferenceable(1) ptr @_ZN5Gluco3vecIcEixEi(ptr noundef nonnull align 8 dereferenceable(16) %39, i32 noundef %40)
  store i8 %38, ptr %41, align 1, !tbaa !210
  %42 = load i32, ptr %5, align 4, !tbaa !35
  call void @_ZN5Gluco6Solver14insertVarOrderEi(ptr noundef nonnull align 8 dereferenceable(1216) %8, i32 noundef %42)
  ret void
}

; Function Attrs: mustprogress nounwind uwtable
define noundef zeroext i1 @_ZN5Gluco6Solver10addClause_ERNS_3vecINS_3LitEEE(ptr noundef nonnull align 8 dereferenceable(1216) %0, ptr noundef nonnull align 8 dereferenceable(16) %1) #1 align 2 {
  %3 = alloca i1, align 1
  %4 = alloca ptr, align 8
  %5 = alloca ptr, align 8
  %6 = alloca %"class.Gluco::vec.0", align 8
  %7 = alloca %"struct.Gluco::Lit", align 4
  %8 = alloca i32, align 4
  %9 = alloca i32, align 4
  %10 = alloca i32, align 4
  %11 = alloca %"class.Gluco::lbool", align 1
  %12 = alloca %"struct.Gluco::Lit", align 4
  %13 = alloca %"class.Gluco::lbool", align 1
  %14 = alloca %"struct.Gluco::Lit", align 4
  %15 = alloca %"struct.Gluco::Lit", align 4
  %16 = alloca %"class.Gluco::lbool", align 1
  %17 = alloca %"struct.Gluco::Lit", align 4
  %18 = alloca %"class.Gluco::lbool", align 1
  %19 = alloca %"class.Gluco::lbool", align 1
  %20 = alloca %"struct.Gluco::Lit", align 4
  %21 = alloca %"class.Gluco::lbool", align 1
  %22 = alloca %"struct.Gluco::Lit", align 4
  %23 = alloca %"struct.Gluco::Lit", align 4
  %24 = alloca i32, align 4
  %25 = alloca %"class.Gluco::lbool", align 1
  %26 = alloca %"struct.Gluco::Lit", align 4
  %27 = alloca %"class.Gluco::lbool", align 1
  %28 = alloca %"struct.Gluco::Lit", align 4
  %29 = alloca %"struct.Gluco::Lit", align 4
  %30 = alloca %"struct.Gluco::Lit", align 4
  %31 = alloca %"struct.Gluco::Lit", align 4
  %32 = alloca %"struct.Gluco::Lit", align 4
  %33 = alloca %"struct.Gluco::Lit", align 4
  %34 = alloca i32, align 4
  store ptr %0, ptr %4, align 8, !tbaa !51
  store ptr %1, ptr %5, align 8, !tbaa !157
  %35 = load ptr, ptr %4, align 8
  %36 = getelementptr inbounds nuw %"class.Gluco::Solver", ptr %35, i32 0, i32 60
  %37 = load i8, ptr %36, align 4, !tbaa !132, !range !14, !noundef !15
  %38 = trunc i8 %37 to i1
  br i1 %38, label %40, label %39

39:                                               ; preds = %2
  store i1 false, ptr %3, align 1
  br label %265

40:                                               ; preds = %2
  %41 = load ptr, ptr %5, align 8, !tbaa !157
  call void @_ZN5Gluco4sortINS_3LitEEEvRNS_3vecIT_EE(ptr noundef nonnull align 8 dereferenceable(16) %41)
  call void @llvm.lifetime.start.p0(i64 16, ptr %6) #2
  call void @_ZN5Gluco3vecINS_3LitEEC2Ev(ptr noundef nonnull align 8 dereferenceable(16) %6)
  call void @_ZN5Gluco3vecINS_3LitEE5clearEb(ptr noundef nonnull align 8 dereferenceable(16) %6, i1 noundef zeroext false)
  call void @llvm.lifetime.start.p0(i64 4, ptr %7) #2
  call void @llvm.lifetime.start.p0(i64 4, ptr %8) #2
  call void @llvm.lifetime.start.p0(i64 4, ptr %9) #2
  call void @llvm.lifetime.start.p0(i64 4, ptr %10) #2
  store i32 0, ptr %10, align 4, !tbaa !35
  %42 = getelementptr inbounds nuw %"class.Gluco::Solver", ptr %35, i32 0, i32 36
  %43 = load i8, ptr %42, align 8, !tbaa !109, !range !14, !noundef !15
  %44 = trunc i8 %43 to i1
  br i1 %44, label %45, label %95

45:                                               ; preds = %40
  store i32 0, ptr %9, align 4, !tbaa !35
  store i32 0, ptr %8, align 4, !tbaa !35
  call void @llvm.memcpy.p0.p0.i64(ptr align 4 %7, ptr align 4 @_ZN5GlucoL9lit_UndefE, i64 4, i1 false), !tbaa.struct !212
  br label %46

46:                                               ; preds = %91, %45
  %47 = load i32, ptr %8, align 4, !tbaa !35
  %48 = load ptr, ptr %5, align 8, !tbaa !157
  %49 = call noundef i32 @_ZNK5Gluco3vecINS_3LitEE4sizeEv(ptr noundef nonnull align 8 dereferenceable(16) %48)
  %50 = icmp slt i32 %47, %49
  br i1 %50, label %51, label %94

51:                                               ; preds = %46
  %52 = load ptr, ptr %5, align 8, !tbaa !157
  %53 = load i32, ptr %8, align 4, !tbaa !35
  %54 = call noundef nonnull align 4 dereferenceable(4) ptr @_ZN5Gluco3vecINS_3LitEEixEi(ptr noundef nonnull align 8 dereferenceable(16) %52, i32 noundef %53)
  call void @_ZN5Gluco3vecINS_3LitEE4pushERKS1_(ptr noundef nonnull align 8 dereferenceable(16) %6, ptr noundef nonnull align 4 dereferenceable(4) %54)
  call void @llvm.lifetime.start.p0(i64 1, ptr %11) #2
  %55 = load ptr, ptr %5, align 8, !tbaa !157
  %56 = load i32, ptr %8, align 4, !tbaa !35
  %57 = call noundef nonnull align 4 dereferenceable(4) ptr @_ZN5Gluco3vecINS_3LitEEixEi(ptr noundef nonnull align 8 dereferenceable(16) %55, i32 noundef %56)
  call void @llvm.memcpy.p0.p0.i64(ptr align 4 %12, ptr align 4 %57, i64 4, i1 false), !tbaa.struct !212
  %58 = getelementptr inbounds nuw %"struct.Gluco::Lit", ptr %12, i32 0, i32 0
  %59 = load i32, ptr %58, align 4
  %60 = call i8 @_ZNK5Gluco6Solver5valueENS_3LitE(ptr noundef nonnull align 8 dereferenceable(1216) %35, i32 %59)
  %61 = getelementptr inbounds nuw %"class.Gluco::lbool", ptr %11, i32 0, i32 0
  store i8 %60, ptr %61, align 1
  call void @_ZN5Gluco5lboolC2Eh(ptr noundef nonnull align 1 dereferenceable(1) %13, i8 noundef zeroext 0)
  %62 = getelementptr inbounds nuw %"class.Gluco::lbool", ptr %13, i32 0, i32 0
  %63 = load i8, ptr %62, align 1
  %64 = call noundef zeroext i1 @_ZNK5Gluco5lbooleqES0_(ptr noundef nonnull align 1 dereferenceable(1) %11, i8 %63)
  call void @llvm.lifetime.start.p0(i64 1, ptr %16) #2
  br i1 %64, label %87, label %65

65:                                               ; preds = %51
  %66 = load ptr, ptr %5, align 8, !tbaa !157
  %67 = load i32, ptr %8, align 4, !tbaa !35
  %68 = call noundef nonnull align 4 dereferenceable(4) ptr @_ZN5Gluco3vecINS_3LitEEixEi(ptr noundef nonnull align 8 dereferenceable(16) %66, i32 noundef %67)
  call void @llvm.memcpy.p0.p0.i64(ptr align 4 %15, ptr align 4 %7, i64 4, i1 false), !tbaa.struct !212
  %69 = getelementptr inbounds nuw %"struct.Gluco::Lit", ptr %15, i32 0, i32 0
  %70 = load i32, ptr %69, align 4
  %71 = call i32 @_ZN5GlucocoENS_3LitE(i32 %70)
  %72 = getelementptr inbounds nuw %"struct.Gluco::Lit", ptr %14, i32 0, i32 0
  store i32 %71, ptr %72, align 4
  %73 = getelementptr inbounds nuw %"struct.Gluco::Lit", ptr %14, i32 0, i32 0
  %74 = load i32, ptr %73, align 4
  %75 = call noundef zeroext i1 @_ZNK5Gluco3LiteqES0_(ptr noundef nonnull align 4 dereferenceable(4) %68, i32 %74)
  br i1 %75, label %87, label %76

76:                                               ; preds = %65
  %77 = load ptr, ptr %5, align 8, !tbaa !157
  %78 = load i32, ptr %8, align 4, !tbaa !35
  %79 = call noundef nonnull align 4 dereferenceable(4) ptr @_ZN5Gluco3vecINS_3LitEEixEi(ptr noundef nonnull align 8 dereferenceable(16) %77, i32 noundef %78)
  call void @llvm.memcpy.p0.p0.i64(ptr align 4 %17, ptr align 4 %79, i64 4, i1 false), !tbaa.struct !212
  %80 = getelementptr inbounds nuw %"struct.Gluco::Lit", ptr %17, i32 0, i32 0
  %81 = load i32, ptr %80, align 4
  %82 = call i8 @_ZNK5Gluco6Solver5valueENS_3LitE(ptr noundef nonnull align 8 dereferenceable(1216) %35, i32 %81)
  %83 = getelementptr inbounds nuw %"class.Gluco::lbool", ptr %16, i32 0, i32 0
  store i8 %82, ptr %83, align 1
  call void @_ZN5Gluco5lboolC2Eh(ptr noundef nonnull align 1 dereferenceable(1) %18, i8 noundef zeroext 1)
  %84 = getelementptr inbounds nuw %"class.Gluco::lbool", ptr %18, i32 0, i32 0
  %85 = load i8, ptr %84, align 1
  %86 = call noundef zeroext i1 @_ZNK5Gluco5lbooleqES0_(ptr noundef nonnull align 1 dereferenceable(1) %16, i8 %85)
  br label %87

87:                                               ; preds = %76, %65, %51
  %88 = phi i1 [ true, %65 ], [ true, %51 ], [ %86, %76 ]
  call void @llvm.lifetime.end.p0(i64 1, ptr %16) #2
  call void @llvm.lifetime.end.p0(i64 1, ptr %11) #2
  br i1 %88, label %89, label %90

89:                                               ; preds = %87
  store i32 1, ptr %10, align 4, !tbaa !35
  br label %90

90:                                               ; preds = %89, %87
  br label %91

91:                                               ; preds = %90
  %92 = load i32, ptr %8, align 4, !tbaa !35
  %93 = add nsw i32 %92, 1
  store i32 %93, ptr %8, align 4, !tbaa !35
  br label %46, !llvm.loop !225

94:                                               ; preds = %46
  br label %95

95:                                               ; preds = %94, %40
  store i32 0, ptr %9, align 4, !tbaa !35
  store i32 0, ptr %8, align 4, !tbaa !35
  call void @llvm.memcpy.p0.p0.i64(ptr align 4 %7, ptr align 4 @_ZN5GlucoL9lit_UndefE, i64 4, i1 false), !tbaa.struct !212
  br label %96

96:                                               ; preds = %156, %95
  %97 = load i32, ptr %8, align 4, !tbaa !35
  %98 = load ptr, ptr %5, align 8, !tbaa !157
  %99 = call noundef i32 @_ZNK5Gluco3vecINS_3LitEE4sizeEv(ptr noundef nonnull align 8 dereferenceable(16) %98)
  %100 = icmp slt i32 %97, %99
  br i1 %100, label %101, label %159

101:                                              ; preds = %96
  call void @llvm.lifetime.start.p0(i64 1, ptr %19) #2
  %102 = load ptr, ptr %5, align 8, !tbaa !157
  %103 = load i32, ptr %8, align 4, !tbaa !35
  %104 = call noundef nonnull align 4 dereferenceable(4) ptr @_ZN5Gluco3vecINS_3LitEEixEi(ptr noundef nonnull align 8 dereferenceable(16) %102, i32 noundef %103)
  call void @llvm.memcpy.p0.p0.i64(ptr align 4 %20, ptr align 4 %104, i64 4, i1 false), !tbaa.struct !212
  %105 = getelementptr inbounds nuw %"struct.Gluco::Lit", ptr %20, i32 0, i32 0
  %106 = load i32, ptr %105, align 4
  %107 = call i8 @_ZNK5Gluco6Solver5valueENS_3LitE(ptr noundef nonnull align 8 dereferenceable(1216) %35, i32 %106)
  %108 = getelementptr inbounds nuw %"class.Gluco::lbool", ptr %19, i32 0, i32 0
  store i8 %107, ptr %108, align 1
  call void @_ZN5Gluco5lboolC2Eh(ptr noundef nonnull align 1 dereferenceable(1) %21, i8 noundef zeroext 0)
  %109 = getelementptr inbounds nuw %"class.Gluco::lbool", ptr %21, i32 0, i32 0
  %110 = load i8, ptr %109, align 1
  %111 = call noundef zeroext i1 @_ZNK5Gluco5lbooleqES0_(ptr noundef nonnull align 1 dereferenceable(1) %19, i8 %110)
  br i1 %111, label %123, label %112

112:                                              ; preds = %101
  %113 = load ptr, ptr %5, align 8, !tbaa !157
  %114 = load i32, ptr %8, align 4, !tbaa !35
  %115 = call noundef nonnull align 4 dereferenceable(4) ptr @_ZN5Gluco3vecINS_3LitEEixEi(ptr noundef nonnull align 8 dereferenceable(16) %113, i32 noundef %114)
  call void @llvm.memcpy.p0.p0.i64(ptr align 4 %23, ptr align 4 %7, i64 4, i1 false), !tbaa.struct !212
  %116 = getelementptr inbounds nuw %"struct.Gluco::Lit", ptr %23, i32 0, i32 0
  %117 = load i32, ptr %116, align 4
  %118 = call i32 @_ZN5GlucocoENS_3LitE(i32 %117)
  %119 = getelementptr inbounds nuw %"struct.Gluco::Lit", ptr %22, i32 0, i32 0
  store i32 %118, ptr %119, align 4
  %120 = getelementptr inbounds nuw %"struct.Gluco::Lit", ptr %22, i32 0, i32 0
  %121 = load i32, ptr %120, align 4
  %122 = call noundef zeroext i1 @_ZNK5Gluco3LiteqES0_(ptr noundef nonnull align 4 dereferenceable(4) %115, i32 %121)
  br label %123

123:                                              ; preds = %112, %101
  %124 = phi i1 [ true, %101 ], [ %122, %112 ]
  call void @llvm.lifetime.end.p0(i64 1, ptr %19) #2
  br i1 %124, label %125, label %126

125:                                              ; preds = %123
  store i1 true, ptr %3, align 1
  store i32 1, ptr %24, align 4
  br label %264

126:                                              ; preds = %123
  call void @llvm.lifetime.start.p0(i64 1, ptr %25) #2
  %127 = load ptr, ptr %5, align 8, !tbaa !157
  %128 = load i32, ptr %8, align 4, !tbaa !35
  %129 = call noundef nonnull align 4 dereferenceable(4) ptr @_ZN5Gluco3vecINS_3LitEEixEi(ptr noundef nonnull align 8 dereferenceable(16) %127, i32 noundef %128)
  call void @llvm.memcpy.p0.p0.i64(ptr align 4 %26, ptr align 4 %129, i64 4, i1 false), !tbaa.struct !212
  %130 = getelementptr inbounds nuw %"struct.Gluco::Lit", ptr %26, i32 0, i32 0
  %131 = load i32, ptr %130, align 4
  %132 = call i8 @_ZNK5Gluco6Solver5valueENS_3LitE(ptr noundef nonnull align 8 dereferenceable(1216) %35, i32 %131)
  %133 = getelementptr inbounds nuw %"class.Gluco::lbool", ptr %25, i32 0, i32 0
  store i8 %132, ptr %133, align 1
  call void @_ZN5Gluco5lboolC2Eh(ptr noundef nonnull align 1 dereferenceable(1) %27, i8 noundef zeroext 1)
  %134 = getelementptr inbounds nuw %"class.Gluco::lbool", ptr %27, i32 0, i32 0
  %135 = load i8, ptr %134, align 1
  %136 = call noundef zeroext i1 @_ZNK5Gluco5lboolneES0_(ptr noundef nonnull align 1 dereferenceable(1) %25, i8 %135)
  br i1 %136, label %137, label %144

137:                                              ; preds = %126
  %138 = load ptr, ptr %5, align 8, !tbaa !157
  %139 = load i32, ptr %8, align 4, !tbaa !35
  %140 = call noundef nonnull align 4 dereferenceable(4) ptr @_ZN5Gluco3vecINS_3LitEEixEi(ptr noundef nonnull align 8 dereferenceable(16) %138, i32 noundef %139)
  call void @llvm.memcpy.p0.p0.i64(ptr align 4 %28, ptr align 4 %7, i64 4, i1 false), !tbaa.struct !212
  %141 = getelementptr inbounds nuw %"struct.Gluco::Lit", ptr %28, i32 0, i32 0
  %142 = load i32, ptr %141, align 4
  %143 = call noundef zeroext i1 @_ZNK5Gluco3LitneES0_(ptr noundef nonnull align 4 dereferenceable(4) %140, i32 %142)
  br label %144

144:                                              ; preds = %137, %126
  %145 = phi i1 [ false, %126 ], [ %143, %137 ]
  call void @llvm.lifetime.end.p0(i64 1, ptr %25) #2
  br i1 %145, label %146, label %154

146:                                              ; preds = %144
  %147 = load ptr, ptr %5, align 8, !tbaa !157
  %148 = load i32, ptr %8, align 4, !tbaa !35
  %149 = call noundef nonnull align 4 dereferenceable(4) ptr @_ZN5Gluco3vecINS_3LitEEixEi(ptr noundef nonnull align 8 dereferenceable(16) %147, i32 noundef %148)
  call void @llvm.memcpy.p0.p0.i64(ptr align 4 %7, ptr align 4 %149, i64 4, i1 false), !tbaa.struct !212
  %150 = load ptr, ptr %5, align 8, !tbaa !157
  %151 = load i32, ptr %9, align 4, !tbaa !35
  %152 = add nsw i32 %151, 1
  store i32 %152, ptr %9, align 4, !tbaa !35
  %153 = call noundef nonnull align 4 dereferenceable(4) ptr @_ZN5Gluco3vecINS_3LitEEixEi(ptr noundef nonnull align 8 dereferenceable(16) %150, i32 noundef %151)
  call void @llvm.memcpy.p0.p0.i64(ptr align 4 %153, ptr align 4 %7, i64 4, i1 false), !tbaa.struct !212
  br label %154

154:                                              ; preds = %146, %144
  br label %155

155:                                              ; preds = %154
  br label %156

156:                                              ; preds = %155
  %157 = load i32, ptr %8, align 4, !tbaa !35
  %158 = add nsw i32 %157, 1
  store i32 %158, ptr %8, align 4, !tbaa !35
  br label %96, !llvm.loop !227

159:                                              ; preds = %96
  %160 = load ptr, ptr %5, align 8, !tbaa !157
  %161 = load i32, ptr %8, align 4, !tbaa !35
  %162 = load i32, ptr %9, align 4, !tbaa !35
  %163 = sub nsw i32 %161, %162
  call void @_ZN5Gluco3vecINS_3LitEE6shrinkEi(ptr noundef nonnull align 8 dereferenceable(16) %160, i32 noundef %163)
  %164 = load i32, ptr %10, align 4, !tbaa !35
  %165 = icmp ne i32 %164, 0
  br i1 %165, label %166, label %237

166:                                              ; preds = %159
  %167 = getelementptr inbounds nuw %"class.Gluco::Solver", ptr %35, i32 0, i32 36
  %168 = load i8, ptr %167, align 8, !tbaa !109, !range !14, !noundef !15
  %169 = trunc i8 %168 to i1
  br i1 %169, label %170, label %237

170:                                              ; preds = %166
  store i32 0, ptr %9, align 4, !tbaa !35
  store i32 0, ptr %8, align 4, !tbaa !35
  call void @llvm.memcpy.p0.p0.i64(ptr align 4 %7, ptr align 4 @_ZN5GlucoL9lit_UndefE, i64 4, i1 false), !tbaa.struct !212
  br label %171

171:                                              ; preds = %197, %170
  %172 = load i32, ptr %8, align 4, !tbaa !35
  %173 = load ptr, ptr %5, align 8, !tbaa !157
  %174 = call noundef i32 @_ZNK5Gluco3vecINS_3LitEE4sizeEv(ptr noundef nonnull align 8 dereferenceable(16) %173)
  %175 = icmp slt i32 %172, %174
  br i1 %175, label %176, label %200

176:                                              ; preds = %171
  %177 = getelementptr inbounds nuw %"class.Gluco::Solver", ptr %35, i32 0, i32 35
  %178 = load ptr, ptr %177, align 8, !tbaa !108
  %179 = load ptr, ptr %5, align 8, !tbaa !157
  %180 = load i32, ptr %8, align 4, !tbaa !35
  %181 = call noundef nonnull align 4 dereferenceable(4) ptr @_ZN5Gluco3vecINS_3LitEEixEi(ptr noundef nonnull align 8 dereferenceable(16) %179, i32 noundef %180)
  call void @llvm.memcpy.p0.p0.i64(ptr align 4 %29, ptr align 4 %181, i64 4, i1 false), !tbaa.struct !212
  %182 = getelementptr inbounds nuw %"struct.Gluco::Lit", ptr %29, i32 0, i32 0
  %183 = load i32, ptr %182, align 4
  %184 = call noundef i32 @_ZN5Gluco3varENS_3LitE(i32 %183)
  %185 = add nsw i32 %184, 1
  %186 = load ptr, ptr %5, align 8, !tbaa !157
  %187 = load i32, ptr %8, align 4, !tbaa !35
  %188 = call noundef nonnull align 4 dereferenceable(4) ptr @_ZN5Gluco3vecINS_3LitEEixEi(ptr noundef nonnull align 8 dereferenceable(16) %186, i32 noundef %187)
  call void @llvm.memcpy.p0.p0.i64(ptr align 4 %30, ptr align 4 %188, i64 4, i1 false), !tbaa.struct !212
  %189 = getelementptr inbounds nuw %"struct.Gluco::Lit", ptr %30, i32 0, i32 0
  %190 = load i32, ptr %189, align 4
  %191 = call noundef zeroext i1 @_ZN5Gluco4signENS_3LitE(i32 %190)
  %192 = zext i1 %191 to i32
  %193 = mul nsw i32 -2, %192
  %194 = add nsw i32 %193, 1
  %195 = mul nsw i32 %185, %194
  %196 = call i32 (ptr, ptr, ...) @fprintf(ptr noundef %178, ptr noundef @.str.65, i32 noundef %195) #2
  br label %197

197:                                              ; preds = %176
  %198 = load i32, ptr %8, align 4, !tbaa !35
  %199 = add nsw i32 %198, 1
  store i32 %199, ptr %8, align 4, !tbaa !35
  br label %171, !llvm.loop !228

200:                                              ; preds = %171
  %201 = getelementptr inbounds nuw %"class.Gluco::Solver", ptr %35, i32 0, i32 35
  %202 = load ptr, ptr %201, align 8, !tbaa !108
  %203 = call i32 (ptr, ptr, ...) @fprintf(ptr noundef %202, ptr noundef @.str.66) #2
  %204 = getelementptr inbounds nuw %"class.Gluco::Solver", ptr %35, i32 0, i32 35
  %205 = load ptr, ptr %204, align 8, !tbaa !108
  %206 = call i32 (ptr, ptr, ...) @fprintf(ptr noundef %205, ptr noundef @.str.67) #2
  store i32 0, ptr %9, align 4, !tbaa !35
  store i32 0, ptr %8, align 4, !tbaa !35
  call void @llvm.memcpy.p0.p0.i64(ptr align 4 %7, ptr align 4 @_ZN5GlucoL9lit_UndefE, i64 4, i1 false), !tbaa.struct !212
  br label %207

207:                                              ; preds = %230, %200
  %208 = load i32, ptr %8, align 4, !tbaa !35
  %209 = call noundef i32 @_ZNK5Gluco3vecINS_3LitEE4sizeEv(ptr noundef nonnull align 8 dereferenceable(16) %6)
  %210 = icmp slt i32 %208, %209
  br i1 %210, label %211, label %233

211:                                              ; preds = %207
  %212 = getelementptr inbounds nuw %"class.Gluco::Solver", ptr %35, i32 0, i32 35
  %213 = load ptr, ptr %212, align 8, !tbaa !108
  %214 = load i32, ptr %8, align 4, !tbaa !35
  %215 = call noundef nonnull align 4 dereferenceable(4) ptr @_ZN5Gluco3vecINS_3LitEEixEi(ptr noundef nonnull align 8 dereferenceable(16) %6, i32 noundef %214)
  call void @llvm.memcpy.p0.p0.i64(ptr align 4 %31, ptr align 4 %215, i64 4, i1 false), !tbaa.struct !212
  %216 = getelementptr inbounds nuw %"struct.Gluco::Lit", ptr %31, i32 0, i32 0
  %217 = load i32, ptr %216, align 4
  %218 = call noundef i32 @_ZN5Gluco3varENS_3LitE(i32 %217)
  %219 = add nsw i32 %218, 1
  %220 = load i32, ptr %8, align 4, !tbaa !35
  %221 = call noundef nonnull align 4 dereferenceable(4) ptr @_ZN5Gluco3vecINS_3LitEEixEi(ptr noundef nonnull align 8 dereferenceable(16) %6, i32 noundef %220)
  call void @llvm.memcpy.p0.p0.i64(ptr align 4 %32, ptr align 4 %221, i64 4, i1 false), !tbaa.struct !212
  %222 = getelementptr inbounds nuw %"struct.Gluco::Lit", ptr %32, i32 0, i32 0
  %223 = load i32, ptr %222, align 4
  %224 = call noundef zeroext i1 @_ZN5Gluco4signENS_3LitE(i32 %223)
  %225 = zext i1 %224 to i32
  %226 = mul nsw i32 -2, %225
  %227 = add nsw i32 %226, 1
  %228 = mul nsw i32 %219, %227
  %229 = call i32 (ptr, ptr, ...) @fprintf(ptr noundef %213, ptr noundef @.str.65, i32 noundef %228) #2
  br label %230

230:                                              ; preds = %211
  %231 = load i32, ptr %8, align 4, !tbaa !35
  %232 = add nsw i32 %231, 1
  store i32 %232, ptr %8, align 4, !tbaa !35
  br label %207, !llvm.loop !229

233:                                              ; preds = %207
  %234 = getelementptr inbounds nuw %"class.Gluco::Solver", ptr %35, i32 0, i32 35
  %235 = load ptr, ptr %234, align 8, !tbaa !108
  %236 = call i32 (ptr, ptr, ...) @fprintf(ptr noundef %235, ptr noundef @.str.66) #2
  br label %237

237:                                              ; preds = %233, %166, %159
  %238 = load ptr, ptr %5, align 8, !tbaa !157
  %239 = call noundef i32 @_ZNK5Gluco3vecINS_3LitEE4sizeEv(ptr noundef nonnull align 8 dereferenceable(16) %238)
  %240 = icmp eq i32 %239, 0
  br i1 %240, label %241, label %243

241:                                              ; preds = %237
  %242 = getelementptr inbounds nuw %"class.Gluco::Solver", ptr %35, i32 0, i32 60
  store i8 0, ptr %242, align 4, !tbaa !132
  store i1 false, ptr %3, align 1
  store i32 1, ptr %24, align 4
  br label %264

243:                                              ; preds = %237
  %244 = load ptr, ptr %5, align 8, !tbaa !157
  %245 = call noundef i32 @_ZNK5Gluco3vecINS_3LitEE4sizeEv(ptr noundef nonnull align 8 dereferenceable(16) %244)
  %246 = icmp eq i32 %245, 1
  br i1 %246, label %247, label %256

247:                                              ; preds = %243
  %248 = load ptr, ptr %5, align 8, !tbaa !157
  %249 = call noundef nonnull align 4 dereferenceable(4) ptr @_ZN5Gluco3vecINS_3LitEEixEi(ptr noundef nonnull align 8 dereferenceable(16) %248, i32 noundef 0)
  call void @llvm.memcpy.p0.p0.i64(ptr align 4 %33, ptr align 4 %249, i64 4, i1 false), !tbaa.struct !212
  %250 = getelementptr inbounds nuw %"struct.Gluco::Lit", ptr %33, i32 0, i32 0
  %251 = load i32, ptr %250, align 4
  call void @_ZN5Gluco6Solver16uncheckedEnqueueENS_3LitEj(ptr noundef nonnull align 8 dereferenceable(1216) %35, i32 %251, i32 noundef -1)
  %252 = call noundef i32 @_ZN5Gluco6Solver9propagateEv(ptr noundef nonnull align 8 dereferenceable(1216) %35)
  %253 = icmp eq i32 %252, -1
  %254 = getelementptr inbounds nuw %"class.Gluco::Solver", ptr %35, i32 0, i32 60
  %255 = zext i1 %253 to i8
  store i8 %255, ptr %254, align 4, !tbaa !132
  store i1 %253, ptr %3, align 1
  store i32 1, ptr %24, align 4
  br label %264

256:                                              ; preds = %243
  call void @llvm.lifetime.start.p0(i64 4, ptr %34) #2
  %257 = getelementptr inbounds nuw %"class.Gluco::Solver", ptr %35, i32 0, i32 84
  %258 = load ptr, ptr %5, align 8, !tbaa !157
  %259 = call noundef i32 @_ZN5Gluco15ClauseAllocator5allocINS_3vecINS_3LitEEEEEjRKT_b(ptr noundef nonnull align 8 dereferenceable(21) %257, ptr noundef nonnull align 8 dereferenceable(16) %258, i1 noundef zeroext false)
  store i32 %259, ptr %34, align 4, !tbaa !35
  %260 = getelementptr inbounds nuw %"class.Gluco::Solver", ptr %35, i32 0, i32 66
  call void @_ZN5Gluco3vecIjE4pushERKj(ptr noundef nonnull align 8 dereferenceable(16) %260, ptr noundef nonnull align 4 dereferenceable(4) %34)
  %261 = load i32, ptr %34, align 4, !tbaa !35
  call void @_ZN5Gluco6Solver12attachClauseEj(ptr noundef nonnull align 8 dereferenceable(1216) %35, i32 noundef %261)
  call void @llvm.lifetime.end.p0(i64 4, ptr %34) #2
  br label %262

262:                                              ; preds = %256
  br label %263

263:                                              ; preds = %262
  store i1 true, ptr %3, align 1
  store i32 1, ptr %24, align 4
  br label %264

264:                                              ; preds = %263, %247, %241, %125
  call void @llvm.lifetime.end.p0(i64 4, ptr %10) #2
  call void @llvm.lifetime.end.p0(i64 4, ptr %9) #2
  call void @llvm.lifetime.end.p0(i64 4, ptr %8) #2
  call void @llvm.lifetime.end.p0(i64 4, ptr %7) #2
  call void @_ZN5Gluco3vecINS_3LitEED2Ev(ptr noundef nonnull align 8 dereferenceable(16) %6) #2
  call void @llvm.lifetime.end.p0(i64 16, ptr %6) #2
  br label %265

265:                                              ; preds = %264, %39
  %266 = load i1, ptr %3, align 1
  ret i1 %266
}

; Function Attrs: mustprogress nounwind uwtable
define linkonce_odr void @_ZN5Gluco4sortINS_3LitEEEvRNS_3vecIT_EE(ptr noundef nonnull align 8 dereferenceable(16) %0) #1 comdat {
  %2 = alloca ptr, align 8
  store ptr %0, ptr %2, align 8, !tbaa !157
  %3 = load ptr, ptr %2, align 8, !tbaa !157
  call void @_ZN5Gluco4sortINS_3LitENS_16LessThan_defaultIS1_EEEEvRNS_3vecIT_EET0_(ptr noundef nonnull align 8 dereferenceable(16) %3)
  ret void
}

; Function Attrs: mustprogress nounwind uwtable
define linkonce_odr void @_ZN5Gluco3vecINS_3LitEE5clearEb(ptr noundef nonnull align 8 dereferenceable(16) %0, i1 noundef zeroext %1) #1 comdat align 2 {
  %3 = alloca ptr, align 8
  %4 = alloca i8, align 1
  %5 = alloca i32, align 4
  store ptr %0, ptr %3, align 8, !tbaa !157
  %6 = zext i1 %1 to i8
  store i8 %6, ptr %4, align 1, !tbaa !10
  %7 = load ptr, ptr %3, align 8
  %8 = getelementptr inbounds nuw %"class.Gluco::vec.0", ptr %7, i32 0, i32 0
  %9 = load ptr, ptr %8, align 8, !tbaa !159
  %10 = icmp ne ptr %9, null
  br i1 %10, label %11, label %32

11:                                               ; preds = %2
  call void @llvm.lifetime.start.p0(i64 4, ptr %5) #2
  store i32 0, ptr %5, align 4, !tbaa !35
  br label %12

12:                                               ; preds = %19, %11
  %13 = load i32, ptr %5, align 4, !tbaa !35
  %14 = getelementptr inbounds nuw %"class.Gluco::vec.0", ptr %7, i32 0, i32 1
  %15 = load i32, ptr %14, align 8, !tbaa !160
  %16 = icmp slt i32 %13, %15
  br i1 %16, label %18, label %17

17:                                               ; preds = %12
  call void @llvm.lifetime.end.p0(i64 4, ptr %5) #2
  br label %22

18:                                               ; preds = %12
  br label %19

19:                                               ; preds = %18
  %20 = load i32, ptr %5, align 4, !tbaa !35
  %21 = add nsw i32 %20, 1
  store i32 %21, ptr %5, align 4, !tbaa !35
  br label %12, !llvm.loop !230

22:                                               ; preds = %17
  %23 = getelementptr inbounds nuw %"class.Gluco::vec.0", ptr %7, i32 0, i32 1
  store i32 0, ptr %23, align 8, !tbaa !160
  %24 = load i8, ptr %4, align 1, !tbaa !10, !range !14, !noundef !15
  %25 = trunc i8 %24 to i1
  br i1 %25, label %26, label %31

26:                                               ; preds = %22
  %27 = getelementptr inbounds nuw %"class.Gluco::vec.0", ptr %7, i32 0, i32 0
  %28 = load ptr, ptr %27, align 8, !tbaa !159
  call void @free(ptr noundef %28) #2
  %29 = getelementptr inbounds nuw %"class.Gluco::vec.0", ptr %7, i32 0, i32 0
  store ptr null, ptr %29, align 8, !tbaa !159
  %30 = getelementptr inbounds nuw %"class.Gluco::vec.0", ptr %7, i32 0, i32 2
  store i32 0, ptr %30, align 4, !tbaa !161
  br label %31

31:                                               ; preds = %26, %22
  br label %32

32:                                               ; preds = %31, %2
  ret void
}

; Function Attrs: nocallback nofree nounwind willreturn memory(argmem: readwrite)
declare void @llvm.memcpy.p0.p0.i64(ptr noalias writeonly captures(none), ptr noalias readonly captures(none), i64, i1 immarg) #8

; Function Attrs: mustprogress nounwind uwtable
define linkonce_odr noundef i32 @_ZNK5Gluco3vecINS_3LitEE4sizeEv(ptr noundef nonnull align 8 dereferenceable(16) %0) #1 comdat align 2 {
  %2 = alloca ptr, align 8
  store ptr %0, ptr %2, align 8, !tbaa !157
  %3 = load ptr, ptr %2, align 8
  %4 = getelementptr inbounds nuw %"class.Gluco::vec.0", ptr %3, i32 0, i32 1
  %5 = load i32, ptr %4, align 8, !tbaa !160
  ret i32 %5
}

; Function Attrs: mustprogress nounwind uwtable
define linkonce_odr void @_ZN5Gluco3vecINS_3LitEE4pushERKS1_(ptr noundef nonnull align 8 dereferenceable(16) %0, ptr noundef nonnull align 4 dereferenceable(4) %1) #1 comdat align 2 {
  %3 = alloca ptr, align 8
  %4 = alloca ptr, align 8
  store ptr %0, ptr %3, align 8, !tbaa !157
  store ptr %1, ptr %4, align 8, !tbaa !211
  %5 = load ptr, ptr %3, align 8
  %6 = getelementptr inbounds nuw %"class.Gluco::vec.0", ptr %5, i32 0, i32 1
  %7 = load i32, ptr %6, align 8, !tbaa !160
  %8 = getelementptr inbounds nuw %"class.Gluco::vec.0", ptr %5, i32 0, i32 2
  %9 = load i32, ptr %8, align 4, !tbaa !161
  %10 = icmp eq i32 %7, %9
  br i1 %10, label %11, label %15

11:                                               ; preds = %2
  %12 = getelementptr inbounds nuw %"class.Gluco::vec.0", ptr %5, i32 0, i32 1
  %13 = load i32, ptr %12, align 8, !tbaa !160
  %14 = add nsw i32 %13, 1
  call void @_ZN5Gluco3vecINS_3LitEE8capacityEi(ptr noundef nonnull align 8 dereferenceable(16) %5, i32 noundef %14)
  br label %15

15:                                               ; preds = %11, %2
  %16 = load ptr, ptr %4, align 8, !tbaa !211
  %17 = getelementptr inbounds nuw %"class.Gluco::vec.0", ptr %5, i32 0, i32 0
  %18 = load ptr, ptr %17, align 8, !tbaa !159
  %19 = getelementptr inbounds nuw %"class.Gluco::vec.0", ptr %5, i32 0, i32 1
  %20 = load i32, ptr %19, align 8, !tbaa !160
  %21 = add nsw i32 %20, 1
  store i32 %21, ptr %19, align 8, !tbaa !160
  %22 = sext i32 %20 to i64
  %23 = getelementptr inbounds %"struct.Gluco::Lit", ptr %18, i64 %22
  call void @llvm.memcpy.p0.p0.i64(ptr align 4 %23, ptr align 4 %16, i64 4, i1 false), !tbaa.struct !212
  ret void
}

; Function Attrs: mustprogress nounwind uwtable
define linkonce_odr noundef nonnull align 4 dereferenceable(4) ptr @_ZN5Gluco3vecINS_3LitEEixEi(ptr noundef nonnull align 8 dereferenceable(16) %0, i32 noundef %1) #1 comdat align 2 {
  %3 = alloca ptr, align 8
  %4 = alloca i32, align 4
  store ptr %0, ptr %3, align 8, !tbaa !157
  store i32 %1, ptr %4, align 4, !tbaa !35
  %5 = load ptr, ptr %3, align 8
  %6 = getelementptr inbounds nuw %"class.Gluco::vec.0", ptr %5, i32 0, i32 0
  %7 = load ptr, ptr %6, align 8, !tbaa !159
  %8 = load i32, ptr %4, align 4, !tbaa !35
  %9 = sext i32 %8 to i64
  %10 = getelementptr inbounds %"struct.Gluco::Lit", ptr %7, i64 %9
  ret ptr %10
}

; Function Attrs: inlinehint mustprogress nounwind uwtable
define linkonce_odr i8 @_ZNK5Gluco6Solver5valueENS_3LitE(ptr noundef nonnull align 8 dereferenceable(1216) %0, i32 %1) #6 comdat align 2 {
  %3 = alloca %"class.Gluco::lbool", align 1
  %4 = alloca %"struct.Gluco::Lit", align 4
  %5 = alloca ptr, align 8
  %6 = alloca %"struct.Gluco::Lit", align 4
  %7 = alloca %"struct.Gluco::Lit", align 4
  %8 = getelementptr inbounds nuw %"struct.Gluco::Lit", ptr %4, i32 0, i32 0
  store i32 %1, ptr %8, align 4
  store ptr %0, ptr %5, align 8, !tbaa !51
  %9 = load ptr, ptr %5, align 8
  %10 = getelementptr inbounds nuw %"class.Gluco::Solver", ptr %9, i32 0, i32 68
  call void @llvm.memcpy.p0.p0.i64(ptr align 4 %6, ptr align 4 %4, i64 4, i1 false), !tbaa.struct !212
  %11 = getelementptr inbounds nuw %"struct.Gluco::Lit", ptr %6, i32 0, i32 0
  %12 = load i32, ptr %11, align 4
  %13 = call noundef i32 @_ZN5Gluco3varENS_3LitE(i32 %12)
  %14 = call noundef nonnull align 1 dereferenceable(1) ptr @_ZNK5Gluco3vecINS_5lboolEEixEi(ptr noundef nonnull align 8 dereferenceable(16) %10, i32 noundef %13)
  call void @llvm.memcpy.p0.p0.i64(ptr align 4 %7, ptr align 4 %4, i64 4, i1 false), !tbaa.struct !212
  %15 = getelementptr inbounds nuw %"struct.Gluco::Lit", ptr %7, i32 0, i32 0
  %16 = load i32, ptr %15, align 4
  %17 = call noundef zeroext i1 @_ZN5Gluco4signENS_3LitE(i32 %16)
  %18 = call i8 @_ZNK5Gluco5lbooleoEb(ptr noundef nonnull align 1 dereferenceable(1) %14, i1 noundef zeroext %17)
  %19 = getelementptr inbounds nuw %"class.Gluco::lbool", ptr %3, i32 0, i32 0
  store i8 %18, ptr %19, align 1
  %20 = getelementptr inbounds nuw %"class.Gluco::lbool", ptr %3, i32 0, i32 0
  %21 = load i8, ptr %20, align 1
  ret i8 %21
}

; Function Attrs: mustprogress nounwind uwtable
define linkonce_odr noundef zeroext i1 @_ZNK5Gluco5lbooleqES0_(ptr noundef nonnull align 1 dereferenceable(1) %0, i8 %1) #1 comdat align 2 {
  %3 = alloca %"class.Gluco::lbool", align 1
  %4 = alloca ptr, align 8
  %5 = getelementptr inbounds nuw %"class.Gluco::lbool", ptr %3, i32 0, i32 0
  store i8 %1, ptr %5, align 1
  store ptr %0, ptr %4, align 8, !tbaa !215
  %6 = load ptr, ptr %4, align 8
  %7 = getelementptr inbounds nuw %"class.Gluco::lbool", ptr %3, i32 0, i32 0
  %8 = load i8, ptr %7, align 1, !tbaa !217
  %9 = zext i8 %8 to i32
  %10 = and i32 %9, 2
  %11 = getelementptr inbounds nuw %"class.Gluco::lbool", ptr %6, i32 0, i32 0
  %12 = load i8, ptr %11, align 1, !tbaa !217
  %13 = zext i8 %12 to i32
  %14 = and i32 %13, 2
  %15 = and i32 %10, %14
  %16 = getelementptr inbounds nuw %"class.Gluco::lbool", ptr %3, i32 0, i32 0
  %17 = load i8, ptr %16, align 1, !tbaa !217
  %18 = zext i8 %17 to i32
  %19 = and i32 %18, 2
  %20 = icmp ne i32 %19, 0
  %21 = xor i1 %20, true
  %22 = zext i1 %21 to i32
  %23 = getelementptr inbounds nuw %"class.Gluco::lbool", ptr %6, i32 0, i32 0
  %24 = load i8, ptr %23, align 1, !tbaa !217
  %25 = zext i8 %24 to i32
  %26 = getelementptr inbounds nuw %"class.Gluco::lbool", ptr %3, i32 0, i32 0
  %27 = load i8, ptr %26, align 1, !tbaa !217
  %28 = zext i8 %27 to i32
  %29 = icmp eq i32 %25, %28
  %30 = zext i1 %29 to i32
  %31 = and i32 %22, %30
  %32 = or i32 %15, %31
  %33 = icmp ne i32 %32, 0
  ret i1 %33
}

; Function Attrs: mustprogress nounwind uwtable
define linkonce_odr noundef zeroext i1 @_ZNK5Gluco3LiteqES0_(ptr noundef nonnull align 4 dereferenceable(4) %0, i32 %1) #1 comdat align 2 {
  %3 = alloca %"struct.Gluco::Lit", align 4
  %4 = alloca ptr, align 8
  %5 = getelementptr inbounds nuw %"struct.Gluco::Lit", ptr %3, i32 0, i32 0
  store i32 %1, ptr %5, align 4
  store ptr %0, ptr %4, align 8, !tbaa !211
  %6 = load ptr, ptr %4, align 8
  %7 = getelementptr inbounds nuw %"struct.Gluco::Lit", ptr %6, i32 0, i32 0
  %8 = load i32, ptr %7, align 4, !tbaa !213
  %9 = getelementptr inbounds nuw %"struct.Gluco::Lit", ptr %3, i32 0, i32 0
  %10 = load i32, ptr %9, align 4, !tbaa !213
  %11 = icmp eq i32 %8, %10
  ret i1 %11
}

; Function Attrs: inlinehint mustprogress nounwind uwtable
define linkonce_odr i32 @_ZN5GlucocoENS_3LitE(i32 %0) #6 comdat {
  %2 = alloca %"struct.Gluco::Lit", align 4
  %3 = alloca %"struct.Gluco::Lit", align 4
  %4 = getelementptr inbounds nuw %"struct.Gluco::Lit", ptr %3, i32 0, i32 0
  store i32 %0, ptr %4, align 4
  %5 = getelementptr inbounds nuw %"struct.Gluco::Lit", ptr %3, i32 0, i32 0
  %6 = load i32, ptr %5, align 4, !tbaa !213
  %7 = xor i32 %6, 1
  %8 = getelementptr inbounds nuw %"struct.Gluco::Lit", ptr %2, i32 0, i32 0
  store i32 %7, ptr %8, align 4, !tbaa !213
  %9 = getelementptr inbounds nuw %"struct.Gluco::Lit", ptr %2, i32 0, i32 0
  %10 = load i32, ptr %9, align 4
  ret i32 %10
}

; Function Attrs: mustprogress nounwind uwtable
define linkonce_odr noundef zeroext i1 @_ZNK5Gluco5lboolneES0_(ptr noundef nonnull align 1 dereferenceable(1) %0, i8 %1) #1 comdat align 2 {
  %3 = alloca %"class.Gluco::lbool", align 1
  %4 = alloca ptr, align 8
  %5 = alloca %"class.Gluco::lbool", align 1
  %6 = getelementptr inbounds nuw %"class.Gluco::lbool", ptr %3, i32 0, i32 0
  store i8 %1, ptr %6, align 1
  store ptr %0, ptr %4, align 8, !tbaa !215
  %7 = load ptr, ptr %4, align 8
  call void @llvm.memcpy.p0.p0.i64(ptr align 1 %5, ptr align 1 %3, i64 1, i1 false), !tbaa.struct !216
  %8 = getelementptr inbounds nuw %"class.Gluco::lbool", ptr %5, i32 0, i32 0
  %9 = load i8, ptr %8, align 1
  %10 = call noundef zeroext i1 @_ZNK5Gluco5lbooleqES0_(ptr noundef nonnull align 1 dereferenceable(1) %7, i8 %9)
  %11 = xor i1 %10, true
  ret i1 %11
}

; Function Attrs: mustprogress nounwind uwtable
define linkonce_odr noundef zeroext i1 @_ZNK5Gluco3LitneES0_(ptr noundef nonnull align 4 dereferenceable(4) %0, i32 %1) #1 comdat align 2 {
  %3 = alloca %"struct.Gluco::Lit", align 4
  %4 = alloca ptr, align 8
  %5 = getelementptr inbounds nuw %"struct.Gluco::Lit", ptr %3, i32 0, i32 0
  store i32 %1, ptr %5, align 4
  store ptr %0, ptr %4, align 8, !tbaa !211
  %6 = load ptr, ptr %4, align 8
  %7 = getelementptr inbounds nuw %"struct.Gluco::Lit", ptr %6, i32 0, i32 0
  %8 = load i32, ptr %7, align 4, !tbaa !213
  %9 = getelementptr inbounds nuw %"struct.Gluco::Lit", ptr %3, i32 0, i32 0
  %10 = load i32, ptr %9, align 4, !tbaa !213
  %11 = icmp ne i32 %8, %10
  ret i1 %11
}

; Function Attrs: mustprogress nounwind uwtable
define linkonce_odr void @_ZN5Gluco3vecINS_3LitEE6shrinkEi(ptr noundef nonnull align 8 dereferenceable(16) %0, i32 noundef %1) #1 comdat align 2 {
  %3 = alloca ptr, align 8
  %4 = alloca i32, align 4
  %5 = alloca i32, align 4
  store ptr %0, ptr %3, align 8, !tbaa !157
  store i32 %1, ptr %4, align 4, !tbaa !35
  %6 = load ptr, ptr %3, align 8
  call void @llvm.lifetime.start.p0(i64 4, ptr %5) #2
  store i32 0, ptr %5, align 4, !tbaa !35
  br label %7

7:                                                ; preds = %16, %2
  %8 = load i32, ptr %5, align 4, !tbaa !35
  %9 = load i32, ptr %4, align 4, !tbaa !35
  %10 = icmp slt i32 %8, %9
  br i1 %10, label %12, label %11

11:                                               ; preds = %7
  call void @llvm.lifetime.end.p0(i64 4, ptr %5) #2
  br label %19

12:                                               ; preds = %7
  %13 = getelementptr inbounds nuw %"class.Gluco::vec.0", ptr %6, i32 0, i32 1
  %14 = load i32, ptr %13, align 8, !tbaa !160
  %15 = add nsw i32 %14, -1
  store i32 %15, ptr %13, align 8, !tbaa !160
  br label %16

16:                                               ; preds = %12
  %17 = load i32, ptr %5, align 4, !tbaa !35
  %18 = add nsw i32 %17, 1
  store i32 %18, ptr %5, align 4, !tbaa !35
  br label %7, !llvm.loop !231

19:                                               ; preds = %11
  ret void
}

; Function Attrs: nounwind
declare i32 @fprintf(ptr noundef, ptr noundef, ...) #9

; Function Attrs: inlinehint mustprogress nounwind uwtable
define linkonce_odr noundef i32 @_ZN5Gluco3varENS_3LitE(i32 %0) #6 comdat {
  %2 = alloca %"struct.Gluco::Lit", align 4
  %3 = getelementptr inbounds nuw %"struct.Gluco::Lit", ptr %2, i32 0, i32 0
  store i32 %0, ptr %3, align 4
  %4 = getelementptr inbounds nuw %"struct.Gluco::Lit", ptr %2, i32 0, i32 0
  %5 = load i32, ptr %4, align 4, !tbaa !213
  %6 = ashr i32 %5, 1
  ret i32 %6
}

; Function Attrs: inlinehint mustprogress nounwind uwtable
define linkonce_odr noundef zeroext i1 @_ZN5Gluco4signENS_3LitE(i32 %0) #6 comdat {
  %2 = alloca %"struct.Gluco::Lit", align 4
  %3 = getelementptr inbounds nuw %"struct.Gluco::Lit", ptr %2, i32 0, i32 0
  store i32 %0, ptr %3, align 4
  %4 = getelementptr inbounds nuw %"struct.Gluco::Lit", ptr %2, i32 0, i32 0
  %5 = load i32, ptr %4, align 4, !tbaa !213
  %6 = and i32 %5, 1
  %7 = icmp ne i32 %6, 0
  ret i1 %7
}

; Function Attrs: mustprogress nounwind uwtable
define void @_ZN5Gluco6Solver16uncheckedEnqueueENS_3LitEj(ptr noundef nonnull align 8 dereferenceable(1216) %0, i32 %1, i32 noundef %2) #1 align 2 {
  %4 = alloca %"struct.Gluco::Lit", align 4
  %5 = alloca ptr, align 8
  %6 = alloca i32, align 4
  %7 = alloca %"class.Gluco::lbool", align 1
  %8 = alloca %"struct.Gluco::Lit", align 4
  %9 = alloca %"struct.Gluco::Lit", align 4
  %10 = alloca %"struct.Gluco::Solver::VarData", align 4
  %11 = alloca %"struct.Gluco::Lit", align 4
  %12 = getelementptr inbounds nuw %"struct.Gluco::Lit", ptr %4, i32 0, i32 0
  store i32 %1, ptr %12, align 4
  store ptr %0, ptr %5, align 8, !tbaa !51
  store i32 %2, ptr %6, align 4, !tbaa !35
  %13 = load ptr, ptr %5, align 8
  call void @llvm.lifetime.start.p0(i64 1, ptr %7) #2
  call void @llvm.memcpy.p0.p0.i64(ptr align 4 %8, ptr align 4 %4, i64 4, i1 false), !tbaa.struct !212
  %14 = getelementptr inbounds nuw %"struct.Gluco::Lit", ptr %8, i32 0, i32 0
  %15 = load i32, ptr %14, align 4
  %16 = call noundef zeroext i1 @_ZN5Gluco4signENS_3LitE(i32 %15)
  %17 = xor i1 %16, true
  call void @_ZN5Gluco5lboolC2Eb(ptr noundef nonnull align 1 dereferenceable(1) %7, i1 noundef zeroext %17)
  %18 = getelementptr inbounds nuw %"class.Gluco::Solver", ptr %13, i32 0, i32 68
  call void @llvm.memcpy.p0.p0.i64(ptr align 4 %9, ptr align 4 %4, i64 4, i1 false), !tbaa.struct !212
  %19 = getelementptr inbounds nuw %"struct.Gluco::Lit", ptr %9, i32 0, i32 0
  %20 = load i32, ptr %19, align 4
  %21 = call noundef i32 @_ZN5Gluco3varENS_3LitE(i32 %20)
  %22 = call noundef nonnull align 1 dereferenceable(1) ptr @_ZN5Gluco3vecINS_5lboolEEixEi(ptr noundef nonnull align 8 dereferenceable(16) %18, i32 noundef %21)
  call void @llvm.memcpy.p0.p0.i64(ptr align 1 %22, ptr align 1 %7, i64 1, i1 false), !tbaa.struct !216
  call void @llvm.lifetime.end.p0(i64 1, ptr %7) #2
  call void @llvm.lifetime.start.p0(i64 8, ptr %10) #2
  %23 = load i32, ptr %6, align 4, !tbaa !35
  %24 = call noundef i32 @_ZNK5Gluco6Solver13decisionLevelEv(ptr noundef nonnull align 8 dereferenceable(1216) %13)
  %25 = call i64 @_ZN5Gluco6Solver9mkVarDataEji(i32 noundef %23, i32 noundef %24)
  store i64 %25, ptr %10, align 4
  %26 = getelementptr inbounds nuw %"class.Gluco::Solver", ptr %13, i32 0, i32 74
  call void @llvm.memcpy.p0.p0.i64(ptr align 4 %11, ptr align 4 %4, i64 4, i1 false), !tbaa.struct !212
  %27 = getelementptr inbounds nuw %"struct.Gluco::Lit", ptr %11, i32 0, i32 0
  %28 = load i32, ptr %27, align 4
  %29 = call noundef i32 @_ZN5Gluco3varENS_3LitE(i32 %28)
  %30 = call noundef nonnull align 4 dereferenceable(8) ptr @_ZN5Gluco3vecINS_6Solver7VarDataEEixEi(ptr noundef nonnull align 8 dereferenceable(16) %26, i32 noundef %29)
  call void @llvm.memcpy.p0.p0.i64(ptr align 4 %30, ptr align 4 %10, i64 8, i1 false), !tbaa.struct !42
  call void @llvm.lifetime.end.p0(i64 8, ptr %10) #2
  %31 = getelementptr inbounds nuw %"class.Gluco::Solver", ptr %13, i32 0, i32 71
  call void @_ZN5Gluco3vecINS_3LitEE5push_ERKS1_(ptr noundef nonnull align 8 dereferenceable(16) %31, ptr noundef nonnull align 4 dereferenceable(4) %4)
  ret void
}

; Function Attrs: mustprogress nounwind uwtable
define noundef i32 @_ZN5Gluco6Solver9propagateEv(ptr noundef nonnull align 8 dereferenceable(1216) %0) #1 align 2 {
  %2 = alloca i32, align 4
  %3 = alloca ptr, align 8
  %4 = alloca i32, align 4
  %5 = alloca i32, align 4
  %6 = alloca %"struct.Gluco::Lit", align 4
  %7 = alloca ptr, align 8
  %8 = alloca ptr, align 8
  %9 = alloca ptr, align 8
  %10 = alloca ptr, align 8
  %11 = alloca ptr, align 8
  %12 = alloca i32, align 4
  %13 = alloca i32, align 4
  %14 = alloca %"struct.Gluco::Lit", align 4
  %15 = alloca %"class.Gluco::lbool", align 1
  %16 = alloca %"struct.Gluco::Lit", align 4
  %17 = alloca %"class.Gluco::lbool", align 1
  %18 = alloca %"class.Gluco::lbool", align 1
  %19 = alloca %"struct.Gluco::Lit", align 4
  %20 = alloca %"class.Gluco::lbool", align 1
  %21 = alloca %"struct.Gluco::Lit", align 4
  %22 = alloca %"struct.Gluco::Lit", align 4
  %23 = alloca %"class.Gluco::lbool", align 1
  %24 = alloca %"struct.Gluco::Lit", align 4
  %25 = alloca %"class.Gluco::lbool", align 1
  %26 = alloca i32, align 4
  %27 = alloca ptr, align 8
  %28 = alloca %"struct.Gluco::Lit", align 4
  %29 = alloca %"struct.Gluco::Lit", align 4
  %30 = alloca %"struct.Gluco::Lit", align 4
  %31 = alloca %"struct.Gluco::Lit", align 4
  %32 = alloca %"struct.Gluco::Solver::Watcher", align 4
  %33 = alloca %"struct.Gluco::Lit", align 4
  %34 = alloca %"struct.Gluco::Lit", align 4
  %35 = alloca %"class.Gluco::lbool", align 1
  %36 = alloca %"struct.Gluco::Lit", align 4
  %37 = alloca %"class.Gluco::lbool", align 1
  %38 = alloca i32, align 4
  %39 = alloca i32, align 4
  %40 = alloca %"class.Gluco::lbool", align 1
  %41 = alloca %"struct.Gluco::Lit", align 4
  %42 = alloca %"class.Gluco::lbool", align 1
  %43 = alloca %"class.Gluco::lbool", align 1
  %44 = alloca %"struct.Gluco::Lit", align 4
  %45 = alloca %"class.Gluco::lbool", align 1
  %46 = alloca %"struct.Gluco::Lit", align 4
  %47 = alloca %"struct.Gluco::Lit", align 4
  %48 = alloca %"struct.Gluco::Lit", align 4
  %49 = alloca i32, align 4
  %50 = alloca %"class.Gluco::lbool", align 1
  %51 = alloca %"struct.Gluco::Lit", align 4
  %52 = alloca %"class.Gluco::lbool", align 1
  %53 = alloca %"struct.Gluco::Lit", align 4
  %54 = alloca %"struct.Gluco::Lit", align 4
  %55 = alloca %"class.Gluco::lbool", align 1
  %56 = alloca %"struct.Gluco::Lit", align 4
  %57 = alloca %"class.Gluco::lbool", align 1
  %58 = alloca %"struct.Gluco::Lit", align 4
  store ptr %0, ptr %3, align 8, !tbaa !51
  %59 = load ptr, ptr %3, align 8
  call void @llvm.lifetime.start.p0(i64 4, ptr %4) #2
  store i32 -1, ptr %4, align 4, !tbaa !35
  call void @llvm.lifetime.start.p0(i64 4, ptr %5) #2
  store i32 0, ptr %5, align 4, !tbaa !35
  %60 = getelementptr inbounds nuw %"class.Gluco::Solver", ptr %59, i32 0, i32 64
  call void @_ZN5Gluco8OccListsINS_3LitENS_3vecINS_6Solver7WatcherEEENS3_14WatcherDeletedEE8cleanAllEv(ptr noundef nonnull align 8 dereferenceable(56) %60)
  %61 = getelementptr inbounds nuw %"class.Gluco::Solver", ptr %59, i32 0, i32 65
  call void @_ZN5Gluco8OccListsINS_3LitENS_3vecINS_6Solver7WatcherEEENS3_14WatcherDeletedEE8cleanAllEv(ptr noundef nonnull align 8 dereferenceable(56) %61)
  br label %62

62:                                               ; preds = %375, %1
  %63 = getelementptr inbounds nuw %"class.Gluco::Solver", ptr %59, i32 0, i32 75
  %64 = load i32, ptr %63, align 8, !tbaa !135
  %65 = getelementptr inbounds nuw %"class.Gluco::Solver", ptr %59, i32 0, i32 71
  %66 = call noundef i32 @_ZNK5Gluco3vecINS_3LitEE4sizeEv(ptr noundef nonnull align 8 dereferenceable(16) %65)
  %67 = icmp slt i32 %64, %66
  br i1 %67, label %68, label %376

68:                                               ; preds = %62
  call void @llvm.lifetime.start.p0(i64 4, ptr %6) #2
  %69 = getelementptr inbounds nuw %"class.Gluco::Solver", ptr %59, i32 0, i32 71
  %70 = getelementptr inbounds nuw %"class.Gluco::Solver", ptr %59, i32 0, i32 75
  %71 = load i32, ptr %70, align 8, !tbaa !135
  %72 = add nsw i32 %71, 1
  store i32 %72, ptr %70, align 8, !tbaa !135
  %73 = call noundef nonnull align 4 dereferenceable(4) ptr @_ZN5Gluco3vecINS_3LitEEixEi(ptr noundef nonnull align 8 dereferenceable(16) %69, i32 noundef %71)
  call void @llvm.memcpy.p0.p0.i64(ptr align 4 %6, ptr align 4 %73, i64 4, i1 false), !tbaa.struct !212
  call void @llvm.lifetime.start.p0(i64 8, ptr %7) #2
  %74 = getelementptr inbounds nuw %"class.Gluco::Solver", ptr %59, i32 0, i32 64
  %75 = call noundef nonnull align 8 dereferenceable(16) ptr @_ZN5Gluco8OccListsINS_3LitENS_3vecINS_6Solver7WatcherEEENS3_14WatcherDeletedEEixERKS1_(ptr noundef nonnull align 8 dereferenceable(56) %74, ptr noundef nonnull align 4 dereferenceable(4) %6)
  store ptr %75, ptr %7, align 8, !tbaa !232
  call void @llvm.lifetime.start.p0(i64 8, ptr %8) #2
  call void @llvm.lifetime.start.p0(i64 8, ptr %9) #2
  call void @llvm.lifetime.start.p0(i64 8, ptr %10) #2
  %76 = load i32, ptr %5, align 4, !tbaa !35
  %77 = add nsw i32 %76, 1
  store i32 %77, ptr %5, align 4, !tbaa !35
  call void @llvm.lifetime.start.p0(i64 8, ptr %11) #2
  %78 = getelementptr inbounds nuw %"class.Gluco::Solver", ptr %59, i32 0, i32 65
  %79 = call noundef nonnull align 8 dereferenceable(16) ptr @_ZN5Gluco8OccListsINS_3LitENS_3vecINS_6Solver7WatcherEEENS3_14WatcherDeletedEEixERKS1_(ptr noundef nonnull align 8 dereferenceable(56) %78, ptr noundef nonnull align 4 dereferenceable(4) %6)
  store ptr %79, ptr %11, align 8, !tbaa !232
  call void @llvm.lifetime.start.p0(i64 4, ptr %12) #2
  store i32 0, ptr %12, align 4, !tbaa !35
  br label %80

80:                                               ; preds = %124, %68
  %81 = load i32, ptr %12, align 4, !tbaa !35
  %82 = load ptr, ptr %11, align 8, !tbaa !232
  %83 = call noundef i32 @_ZNK5Gluco3vecINS_6Solver7WatcherEE4sizeEv(ptr noundef nonnull align 8 dereferenceable(16) %82)
  %84 = icmp slt i32 %81, %83
  br i1 %84, label %86, label %85

85:                                               ; preds = %80
  store i32 4, ptr %13, align 4
  br label %127

86:                                               ; preds = %80
  call void @llvm.lifetime.start.p0(i64 4, ptr %14) #2
  %87 = load ptr, ptr %11, align 8, !tbaa !232
  %88 = load i32, ptr %12, align 4, !tbaa !35
  %89 = call noundef nonnull align 4 dereferenceable(8) ptr @_ZN5Gluco3vecINS_6Solver7WatcherEEixEi(ptr noundef nonnull align 8 dereferenceable(16) %87, i32 noundef %88)
  %90 = getelementptr inbounds nuw %"struct.Gluco::Solver::Watcher", ptr %89, i32 0, i32 1
  call void @llvm.memcpy.p0.p0.i64(ptr align 4 %14, ptr align 4 %90, i64 4, i1 false), !tbaa.struct !212
  call void @llvm.lifetime.start.p0(i64 1, ptr %15) #2
  call void @llvm.memcpy.p0.p0.i64(ptr align 4 %16, ptr align 4 %14, i64 4, i1 false), !tbaa.struct !212
  %91 = getelementptr inbounds nuw %"struct.Gluco::Lit", ptr %16, i32 0, i32 0
  %92 = load i32, ptr %91, align 4
  %93 = call i8 @_ZNK5Gluco6Solver5valueENS_3LitE(ptr noundef nonnull align 8 dereferenceable(1216) %59, i32 %92)
  %94 = getelementptr inbounds nuw %"class.Gluco::lbool", ptr %15, i32 0, i32 0
  store i8 %93, ptr %94, align 1
  call void @_ZN5Gluco5lboolC2Eh(ptr noundef nonnull align 1 dereferenceable(1) %17, i8 noundef zeroext 1)
  %95 = getelementptr inbounds nuw %"class.Gluco::lbool", ptr %17, i32 0, i32 0
  %96 = load i8, ptr %95, align 1
  %97 = call noundef zeroext i1 @_ZNK5Gluco5lbooleqES0_(ptr noundef nonnull align 1 dereferenceable(1) %15, i8 %96)
  call void @llvm.lifetime.end.p0(i64 1, ptr %15) #2
  br i1 %97, label %98, label %104

98:                                               ; preds = %86
  %99 = load ptr, ptr %11, align 8, !tbaa !232
  %100 = load i32, ptr %12, align 4, !tbaa !35
  %101 = call noundef nonnull align 4 dereferenceable(8) ptr @_ZN5Gluco3vecINS_6Solver7WatcherEEixEi(ptr noundef nonnull align 8 dereferenceable(16) %99, i32 noundef %100)
  %102 = getelementptr inbounds nuw %"struct.Gluco::Solver::Watcher", ptr %101, i32 0, i32 0
  %103 = load i32, ptr %102, align 4, !tbaa !233
  store i32 %103, ptr %2, align 4
  store i32 1, ptr %13, align 4
  br label %121

104:                                              ; preds = %86
  call void @llvm.lifetime.start.p0(i64 1, ptr %18) #2
  call void @llvm.memcpy.p0.p0.i64(ptr align 4 %19, ptr align 4 %14, i64 4, i1 false), !tbaa.struct !212
  %105 = getelementptr inbounds nuw %"struct.Gluco::Lit", ptr %19, i32 0, i32 0
  %106 = load i32, ptr %105, align 4
  %107 = call i8 @_ZNK5Gluco6Solver5valueENS_3LitE(ptr noundef nonnull align 8 dereferenceable(1216) %59, i32 %106)
  %108 = getelementptr inbounds nuw %"class.Gluco::lbool", ptr %18, i32 0, i32 0
  store i8 %107, ptr %108, align 1
  call void @_ZN5Gluco5lboolC2Eh(ptr noundef nonnull align 1 dereferenceable(1) %20, i8 noundef zeroext 2)
  %109 = getelementptr inbounds nuw %"class.Gluco::lbool", ptr %20, i32 0, i32 0
  %110 = load i8, ptr %109, align 1
  %111 = call noundef zeroext i1 @_ZNK5Gluco5lbooleqES0_(ptr noundef nonnull align 1 dereferenceable(1) %18, i8 %110)
  call void @llvm.lifetime.end.p0(i64 1, ptr %18) #2
  br i1 %111, label %112, label %120

112:                                              ; preds = %104
  call void @llvm.memcpy.p0.p0.i64(ptr align 4 %21, ptr align 4 %14, i64 4, i1 false), !tbaa.struct !212
  %113 = load ptr, ptr %11, align 8, !tbaa !232
  %114 = load i32, ptr %12, align 4, !tbaa !35
  %115 = call noundef nonnull align 4 dereferenceable(8) ptr @_ZN5Gluco3vecINS_6Solver7WatcherEEixEi(ptr noundef nonnull align 8 dereferenceable(16) %113, i32 noundef %114)
  %116 = getelementptr inbounds nuw %"struct.Gluco::Solver::Watcher", ptr %115, i32 0, i32 0
  %117 = load i32, ptr %116, align 4, !tbaa !233
  %118 = getelementptr inbounds nuw %"struct.Gluco::Lit", ptr %21, i32 0, i32 0
  %119 = load i32, ptr %118, align 4
  call void @_ZN5Gluco6Solver16uncheckedEnqueueENS_3LitEj(ptr noundef nonnull align 8 dereferenceable(1216) %59, i32 %119, i32 noundef %117)
  br label %120

120:                                              ; preds = %112, %104
  store i32 0, ptr %13, align 4
  br label %121

121:                                              ; preds = %120, %98
  call void @llvm.lifetime.end.p0(i64 4, ptr %14) #2
  %122 = load i32, ptr %13, align 4
  switch i32 %122, label %127 [
    i32 0, label %123
  ]

123:                                              ; preds = %121
  br label %124

124:                                              ; preds = %123
  %125 = load i32, ptr %12, align 4, !tbaa !35
  %126 = add nsw i32 %125, 1
  store i32 %126, ptr %12, align 4, !tbaa !35
  br label %80, !llvm.loop !235

127:                                              ; preds = %121, %85
  call void @llvm.lifetime.end.p0(i64 4, ptr %12) #2
  %128 = load i32, ptr %13, align 4
  switch i32 %128, label %373 [
    i32 4, label %129
  ]

129:                                              ; preds = %127
  %130 = load ptr, ptr %7, align 8, !tbaa !232
  %131 = call noundef ptr @_ZN5Gluco3vecINS_6Solver7WatcherEEcvPS2_Ev(ptr noundef nonnull align 8 dereferenceable(16) %130)
  store ptr %131, ptr %9, align 8, !tbaa !236
  store ptr %131, ptr %8, align 8, !tbaa !236
  %132 = load ptr, ptr %8, align 8, !tbaa !236
  %133 = load ptr, ptr %7, align 8, !tbaa !232
  %134 = call noundef i32 @_ZNK5Gluco3vecINS_6Solver7WatcherEE4sizeEv(ptr noundef nonnull align 8 dereferenceable(16) %133)
  %135 = sext i32 %134 to i64
  %136 = getelementptr inbounds %"struct.Gluco::Solver::Watcher", ptr %132, i64 %135
  store ptr %136, ptr %10, align 8, !tbaa !236
  br label %137

137:                                              ; preds = %363, %361, %129
  %138 = load ptr, ptr %8, align 8, !tbaa !236
  %139 = load ptr, ptr %10, align 8, !tbaa !236
  %140 = icmp ne ptr %138, %139
  br i1 %140, label %141, label %364

141:                                              ; preds = %137
  call void @llvm.lifetime.start.p0(i64 4, ptr %22) #2
  %142 = load ptr, ptr %8, align 8, !tbaa !236
  %143 = getelementptr inbounds nuw %"struct.Gluco::Solver::Watcher", ptr %142, i32 0, i32 1
  call void @llvm.memcpy.p0.p0.i64(ptr align 4 %22, ptr align 4 %143, i64 4, i1 false), !tbaa.struct !212
  call void @llvm.lifetime.start.p0(i64 1, ptr %23) #2
  call void @llvm.memcpy.p0.p0.i64(ptr align 4 %24, ptr align 4 %22, i64 4, i1 false), !tbaa.struct !212
  %144 = getelementptr inbounds nuw %"struct.Gluco::Lit", ptr %24, i32 0, i32 0
  %145 = load i32, ptr %144, align 4
  %146 = call i8 @_ZNK5Gluco6Solver5valueENS_3LitE(ptr noundef nonnull align 8 dereferenceable(1216) %59, i32 %145)
  %147 = getelementptr inbounds nuw %"class.Gluco::lbool", ptr %23, i32 0, i32 0
  store i8 %146, ptr %147, align 1
  call void @_ZN5Gluco5lboolC2Eh(ptr noundef nonnull align 1 dereferenceable(1) %25, i8 noundef zeroext 0)
  %148 = getelementptr inbounds nuw %"class.Gluco::lbool", ptr %25, i32 0, i32 0
  %149 = load i8, ptr %148, align 1
  %150 = call noundef zeroext i1 @_ZNK5Gluco5lbooleqES0_(ptr noundef nonnull align 1 dereferenceable(1) %23, i8 %149)
  call void @llvm.lifetime.end.p0(i64 1, ptr %23) #2
  br i1 %150, label %151, label %156

151:                                              ; preds = %141
  %152 = load ptr, ptr %8, align 8, !tbaa !236
  %153 = getelementptr inbounds nuw %"struct.Gluco::Solver::Watcher", ptr %152, i32 1
  store ptr %153, ptr %8, align 8, !tbaa !236
  %154 = load ptr, ptr %9, align 8, !tbaa !236
  %155 = getelementptr inbounds nuw %"struct.Gluco::Solver::Watcher", ptr %154, i32 1
  store ptr %155, ptr %9, align 8, !tbaa !236
  call void @llvm.memcpy.p0.p0.i64(ptr align 4 %154, ptr align 4 %152, i64 8, i1 false), !tbaa.struct !42
  store i32 8, ptr %13, align 4
  br label %361, !llvm.loop !238

156:                                              ; preds = %141
  call void @llvm.lifetime.start.p0(i64 4, ptr %26) #2
  %157 = load ptr, ptr %8, align 8, !tbaa !236
  %158 = getelementptr inbounds nuw %"struct.Gluco::Solver::Watcher", ptr %157, i32 0, i32 0
  %159 = load i32, ptr %158, align 4, !tbaa !233
  store i32 %159, ptr %26, align 4, !tbaa !35
  call void @llvm.lifetime.start.p0(i64 8, ptr %27) #2
  %160 = getelementptr inbounds nuw %"class.Gluco::Solver", ptr %59, i32 0, i32 84
  %161 = load i32, ptr %26, align 4, !tbaa !35
  %162 = call noundef nonnull align 4 dereferenceable(12) ptr @_ZN5Gluco15ClauseAllocatorixEj(ptr noundef nonnull align 8 dereferenceable(21) %160, i32 noundef %161)
  store ptr %162, ptr %27, align 8, !tbaa !239
  call void @llvm.lifetime.start.p0(i64 4, ptr %28) #2
  call void @llvm.memcpy.p0.p0.i64(ptr align 4 %29, ptr align 4 %6, i64 4, i1 false), !tbaa.struct !212
  %163 = getelementptr inbounds nuw %"struct.Gluco::Lit", ptr %29, i32 0, i32 0
  %164 = load i32, ptr %163, align 4
  %165 = call i32 @_ZN5GlucocoENS_3LitE(i32 %164)
  %166 = getelementptr inbounds nuw %"struct.Gluco::Lit", ptr %28, i32 0, i32 0
  store i32 %165, ptr %166, align 4
  %167 = load ptr, ptr %27, align 8, !tbaa !239
  %168 = call noundef nonnull align 4 dereferenceable(4) ptr @_ZN5Gluco6ClauseixEi(ptr noundef nonnull align 4 dereferenceable(12) %167, i32 noundef 0)
  call void @llvm.memcpy.p0.p0.i64(ptr align 4 %30, ptr align 4 %28, i64 4, i1 false), !tbaa.struct !212
  %169 = getelementptr inbounds nuw %"struct.Gluco::Lit", ptr %30, i32 0, i32 0
  %170 = load i32, ptr %169, align 4
  %171 = call noundef zeroext i1 @_ZNK5Gluco3LiteqES0_(ptr noundef nonnull align 4 dereferenceable(4) %168, i32 %170)
  br i1 %171, label %172, label %179

172:                                              ; preds = %156
  %173 = load ptr, ptr %27, align 8, !tbaa !239
  %174 = call noundef nonnull align 4 dereferenceable(4) ptr @_ZN5Gluco6ClauseixEi(ptr noundef nonnull align 4 dereferenceable(12) %173, i32 noundef 1)
  %175 = load ptr, ptr %27, align 8, !tbaa !239
  %176 = call noundef nonnull align 4 dereferenceable(4) ptr @_ZN5Gluco6ClauseixEi(ptr noundef nonnull align 4 dereferenceable(12) %175, i32 noundef 0)
  call void @llvm.memcpy.p0.p0.i64(ptr align 4 %176, ptr align 4 %174, i64 4, i1 false), !tbaa.struct !212
  %177 = load ptr, ptr %27, align 8, !tbaa !239
  %178 = call noundef nonnull align 4 dereferenceable(4) ptr @_ZN5Gluco6ClauseixEi(ptr noundef nonnull align 4 dereferenceable(12) %177, i32 noundef 1)
  call void @llvm.memcpy.p0.p0.i64(ptr align 4 %178, ptr align 4 %28, i64 4, i1 false), !tbaa.struct !212
  br label %179

179:                                              ; preds = %172, %156
  %180 = load ptr, ptr %8, align 8, !tbaa !236
  %181 = getelementptr inbounds nuw %"struct.Gluco::Solver::Watcher", ptr %180, i32 1
  store ptr %181, ptr %8, align 8, !tbaa !236
  call void @llvm.lifetime.start.p0(i64 4, ptr %31) #2
  %182 = load ptr, ptr %27, align 8, !tbaa !239
  %183 = call noundef nonnull align 4 dereferenceable(4) ptr @_ZN5Gluco6ClauseixEi(ptr noundef nonnull align 4 dereferenceable(12) %182, i32 noundef 0)
  call void @llvm.memcpy.p0.p0.i64(ptr align 4 %31, ptr align 4 %183, i64 4, i1 false), !tbaa.struct !212
  call void @llvm.lifetime.start.p0(i64 8, ptr %32) #2
  %184 = load i32, ptr %26, align 4, !tbaa !35
  call void @llvm.memcpy.p0.p0.i64(ptr align 4 %33, ptr align 4 %31, i64 4, i1 false), !tbaa.struct !212
  %185 = getelementptr inbounds nuw %"struct.Gluco::Lit", ptr %33, i32 0, i32 0
  %186 = load i32, ptr %185, align 4
  call void @_ZN5Gluco6Solver7WatcherC2EjNS_3LitE(ptr noundef nonnull align 4 dereferenceable(8) %32, i32 noundef %184, i32 %186)
  call void @llvm.memcpy.p0.p0.i64(ptr align 4 %34, ptr align 4 %22, i64 4, i1 false), !tbaa.struct !212
  %187 = getelementptr inbounds nuw %"struct.Gluco::Lit", ptr %34, i32 0, i32 0
  %188 = load i32, ptr %187, align 4
  %189 = call noundef zeroext i1 @_ZNK5Gluco3LitneES0_(ptr noundef nonnull align 4 dereferenceable(4) %31, i32 %188)
  call void @llvm.lifetime.start.p0(i64 1, ptr %35) #2
  br i1 %189, label %190, label %198

190:                                              ; preds = %179
  call void @llvm.memcpy.p0.p0.i64(ptr align 4 %36, ptr align 4 %31, i64 4, i1 false), !tbaa.struct !212
  %191 = getelementptr inbounds nuw %"struct.Gluco::Lit", ptr %36, i32 0, i32 0
  %192 = load i32, ptr %191, align 4
  %193 = call i8 @_ZNK5Gluco6Solver5valueENS_3LitE(ptr noundef nonnull align 8 dereferenceable(1216) %59, i32 %192)
  %194 = getelementptr inbounds nuw %"class.Gluco::lbool", ptr %35, i32 0, i32 0
  store i8 %193, ptr %194, align 1
  call void @_ZN5Gluco5lboolC2Eh(ptr noundef nonnull align 1 dereferenceable(1) %37, i8 noundef zeroext 0)
  %195 = getelementptr inbounds nuw %"class.Gluco::lbool", ptr %37, i32 0, i32 0
  %196 = load i8, ptr %195, align 1
  %197 = call noundef zeroext i1 @_ZNK5Gluco5lbooleqES0_(ptr noundef nonnull align 1 dereferenceable(1) %35, i8 %196)
  br label %198

198:                                              ; preds = %190, %179
  %199 = phi i1 [ false, %179 ], [ %197, %190 ]
  call void @llvm.lifetime.end.p0(i64 1, ptr %35) #2
  br i1 %199, label %200, label %203

200:                                              ; preds = %198
  %201 = load ptr, ptr %9, align 8, !tbaa !236
  %202 = getelementptr inbounds nuw %"struct.Gluco::Solver::Watcher", ptr %201, i32 1
  store ptr %202, ptr %9, align 8, !tbaa !236
  call void @llvm.memcpy.p0.p0.i64(ptr align 4 %201, ptr align 4 %32, i64 8, i1 false), !tbaa.struct !42
  store i32 8, ptr %13, align 4
  br label %360, !llvm.loop !238

203:                                              ; preds = %198
  %204 = getelementptr inbounds nuw %"class.Gluco::Solver", ptr %59, i32 0, i32 101
  %205 = load i32, ptr %204, align 4, !tbaa !143
  %206 = icmp ne i32 %205, 0
  br i1 %206, label %207, label %287

207:                                              ; preds = %203
  call void @llvm.lifetime.start.p0(i64 4, ptr %38) #2
  store i32 -1, ptr %38, align 4, !tbaa !35
  call void @llvm.lifetime.start.p0(i64 4, ptr %39) #2
  store i32 2, ptr %39, align 4, !tbaa !35
  br label %208

208:                                              ; preds = %259, %207
  %209 = load i32, ptr %39, align 4, !tbaa !35
  %210 = load ptr, ptr %27, align 8, !tbaa !239
  %211 = call noundef i32 @_ZNK5Gluco6Clause4sizeEv(ptr noundef nonnull align 4 dereferenceable(12) %210)
  %212 = icmp slt i32 %209, %211
  br i1 %212, label %214, label %213

213:                                              ; preds = %208
  store i32 9, ptr %13, align 4
  br label %262

214:                                              ; preds = %208
  call void @llvm.lifetime.start.p0(i64 1, ptr %40) #2
  %215 = load ptr, ptr %27, align 8, !tbaa !239
  %216 = load i32, ptr %39, align 4, !tbaa !35
  %217 = call noundef nonnull align 4 dereferenceable(4) ptr @_ZN5Gluco6ClauseixEi(ptr noundef nonnull align 4 dereferenceable(12) %215, i32 noundef %216)
  call void @llvm.memcpy.p0.p0.i64(ptr align 4 %41, ptr align 4 %217, i64 4, i1 false), !tbaa.struct !212
  %218 = getelementptr inbounds nuw %"struct.Gluco::Lit", ptr %41, i32 0, i32 0
  %219 = load i32, ptr %218, align 4
  %220 = call i8 @_ZNK5Gluco6Solver5valueENS_3LitE(ptr noundef nonnull align 8 dereferenceable(1216) %59, i32 %219)
  %221 = getelementptr inbounds nuw %"class.Gluco::lbool", ptr %40, i32 0, i32 0
  store i8 %220, ptr %221, align 1
  call void @_ZN5Gluco5lboolC2Eh(ptr noundef nonnull align 1 dereferenceable(1) %42, i8 noundef zeroext 1)
  %222 = getelementptr inbounds nuw %"class.Gluco::lbool", ptr %42, i32 0, i32 0
  %223 = load i8, ptr %222, align 1
  %224 = call noundef zeroext i1 @_ZNK5Gluco5lboolneES0_(ptr noundef nonnull align 1 dereferenceable(1) %40, i8 %223)
  call void @llvm.lifetime.end.p0(i64 1, ptr %40) #2
  br i1 %224, label %225, label %258

225:                                              ; preds = %214
  %226 = call noundef i32 @_ZNK5Gluco6Solver13decisionLevelEv(ptr noundef nonnull align 8 dereferenceable(1216) %59)
  %227 = getelementptr inbounds nuw %"class.Gluco::Solver", ptr %59, i32 0, i32 78
  %228 = call noundef i32 @_ZNK5Gluco3vecINS_3LitEE4sizeEv(ptr noundef nonnull align 8 dereferenceable(16) %227)
  %229 = icmp sgt i32 %226, %228
  br i1 %229, label %230, label %232

230:                                              ; preds = %225
  %231 = load i32, ptr %39, align 4, !tbaa !35
  store i32 %231, ptr %38, align 4, !tbaa !35
  store i32 9, ptr %13, align 4
  br label %262

232:                                              ; preds = %225
  %233 = load i32, ptr %39, align 4, !tbaa !35
  store i32 %233, ptr %38, align 4, !tbaa !35
  call void @llvm.lifetime.start.p0(i64 1, ptr %43) #2
  %234 = load ptr, ptr %27, align 8, !tbaa !239
  %235 = load i32, ptr %39, align 4, !tbaa !35
  %236 = call noundef nonnull align 4 dereferenceable(4) ptr @_ZN5Gluco6ClauseixEi(ptr noundef nonnull align 4 dereferenceable(12) %234, i32 noundef %235)
  call void @llvm.memcpy.p0.p0.i64(ptr align 4 %44, ptr align 4 %236, i64 4, i1 false), !tbaa.struct !212
  %237 = getelementptr inbounds nuw %"struct.Gluco::Lit", ptr %44, i32 0, i32 0
  %238 = load i32, ptr %237, align 4
  %239 = call i8 @_ZNK5Gluco6Solver5valueENS_3LitE(ptr noundef nonnull align 8 dereferenceable(1216) %59, i32 %238)
  %240 = getelementptr inbounds nuw %"class.Gluco::lbool", ptr %43, i32 0, i32 0
  store i8 %239, ptr %240, align 1
  call void @_ZN5Gluco5lboolC2Eh(ptr noundef nonnull align 1 dereferenceable(1) %45, i8 noundef zeroext 0)
  %241 = getelementptr inbounds nuw %"class.Gluco::lbool", ptr %45, i32 0, i32 0
  %242 = load i8, ptr %241, align 1
  %243 = call noundef zeroext i1 @_ZNK5Gluco5lbooleqES0_(ptr noundef nonnull align 1 dereferenceable(1) %43, i8 %242)
  br i1 %243, label %253, label %244

244:                                              ; preds = %232
  %245 = load ptr, ptr %27, align 8, !tbaa !239
  %246 = load i32, ptr %39, align 4, !tbaa !35
  %247 = call noundef nonnull align 4 dereferenceable(4) ptr @_ZN5Gluco6ClauseixEi(ptr noundef nonnull align 4 dereferenceable(12) %245, i32 noundef %246)
  call void @llvm.memcpy.p0.p0.i64(ptr align 4 %46, ptr align 4 %247, i64 4, i1 false), !tbaa.struct !212
  %248 = getelementptr inbounds nuw %"struct.Gluco::Lit", ptr %46, i32 0, i32 0
  %249 = load i32, ptr %248, align 4
  %250 = call noundef i32 @_ZN5Gluco3varENS_3LitE(i32 %249)
  %251 = call noundef zeroext i1 @_ZN5Gluco6Solver10isSelectorEi(ptr noundef nonnull align 8 dereferenceable(1216) %59, i32 noundef %250)
  %252 = xor i1 %251, true
  br label %253

253:                                              ; preds = %244, %232
  %254 = phi i1 [ true, %232 ], [ %252, %244 ]
  call void @llvm.lifetime.end.p0(i64 1, ptr %43) #2
  br i1 %254, label %255, label %256

255:                                              ; preds = %253
  store i32 9, ptr %13, align 4
  br label %262

256:                                              ; preds = %253
  br label %257

257:                                              ; preds = %256
  br label %258

258:                                              ; preds = %257, %214
  br label %259

259:                                              ; preds = %258
  %260 = load i32, ptr %39, align 4, !tbaa !35
  %261 = add nsw i32 %260, 1
  store i32 %261, ptr %39, align 4, !tbaa !35
  br label %208, !llvm.loop !241

262:                                              ; preds = %255, %230, %213
  call void @llvm.lifetime.end.p0(i64 4, ptr %39) #2
  br label %263

263:                                              ; preds = %262
  %264 = load i32, ptr %38, align 4, !tbaa !35
  %265 = icmp ne i32 %264, -1
  br i1 %265, label %266, label %283

266:                                              ; preds = %263
  %267 = load ptr, ptr %27, align 8, !tbaa !239
  %268 = load i32, ptr %38, align 4, !tbaa !35
  %269 = call noundef nonnull align 4 dereferenceable(4) ptr @_ZN5Gluco6ClauseixEi(ptr noundef nonnull align 4 dereferenceable(12) %267, i32 noundef %268)
  %270 = load ptr, ptr %27, align 8, !tbaa !239
  %271 = call noundef nonnull align 4 dereferenceable(4) ptr @_ZN5Gluco6ClauseixEi(ptr noundef nonnull align 4 dereferenceable(12) %270, i32 noundef 1)
  call void @llvm.memcpy.p0.p0.i64(ptr align 4 %271, ptr align 4 %269, i64 4, i1 false), !tbaa.struct !212
  %272 = load ptr, ptr %27, align 8, !tbaa !239
  %273 = load i32, ptr %38, align 4, !tbaa !35
  %274 = call noundef nonnull align 4 dereferenceable(4) ptr @_ZN5Gluco6ClauseixEi(ptr noundef nonnull align 4 dereferenceable(12) %272, i32 noundef %273)
  call void @llvm.memcpy.p0.p0.i64(ptr align 4 %274, ptr align 4 %28, i64 4, i1 false), !tbaa.struct !212
  %275 = getelementptr inbounds nuw %"class.Gluco::Solver", ptr %59, i32 0, i32 64
  call void @llvm.lifetime.start.p0(i64 4, ptr %47) #2
  %276 = load ptr, ptr %27, align 8, !tbaa !239
  %277 = call noundef nonnull align 4 dereferenceable(4) ptr @_ZN5Gluco6ClauseixEi(ptr noundef nonnull align 4 dereferenceable(12) %276, i32 noundef 1)
  call void @llvm.memcpy.p0.p0.i64(ptr align 4 %48, ptr align 4 %277, i64 4, i1 false), !tbaa.struct !212
  %278 = getelementptr inbounds nuw %"struct.Gluco::Lit", ptr %48, i32 0, i32 0
  %279 = load i32, ptr %278, align 4
  %280 = call i32 @_ZN5GlucocoENS_3LitE(i32 %279)
  %281 = getelementptr inbounds nuw %"struct.Gluco::Lit", ptr %47, i32 0, i32 0
  store i32 %280, ptr %281, align 4
  %282 = call noundef nonnull align 8 dereferenceable(16) ptr @_ZN5Gluco8OccListsINS_3LitENS_3vecINS_6Solver7WatcherEEENS3_14WatcherDeletedEEixERKS1_(ptr noundef nonnull align 8 dereferenceable(56) %275, ptr noundef nonnull align 4 dereferenceable(4) %47)
  call void @_ZN5Gluco3vecINS_6Solver7WatcherEE4pushERKS2_(ptr noundef nonnull align 8 dereferenceable(16) %282, ptr noundef nonnull align 4 dereferenceable(8) %32)
  call void @llvm.lifetime.end.p0(i64 4, ptr %47) #2
  store i32 12, ptr %13, align 4
  br label %284

283:                                              ; preds = %263
  store i32 0, ptr %13, align 4
  br label %284

284:                                              ; preds = %266, %283
  call void @llvm.lifetime.end.p0(i64 4, ptr %38) #2
  %285 = load i32, ptr %13, align 4
  switch i32 %285, label %360 [
    i32 0, label %286
    i32 12, label %359
  ]

286:                                              ; preds = %284
  br label %329

287:                                              ; preds = %203
  call void @llvm.lifetime.start.p0(i64 4, ptr %49) #2
  store i32 2, ptr %49, align 4, !tbaa !35
  br label %288

288:                                              ; preds = %323, %287
  %289 = load i32, ptr %49, align 4, !tbaa !35
  %290 = load ptr, ptr %27, align 8, !tbaa !239
  %291 = call noundef i32 @_ZNK5Gluco6Clause4sizeEv(ptr noundef nonnull align 4 dereferenceable(12) %290)
  %292 = icmp slt i32 %289, %291
  br i1 %292, label %294, label %293

293:                                              ; preds = %288
  store i32 13, ptr %13, align 4
  br label %326

294:                                              ; preds = %288
  call void @llvm.lifetime.start.p0(i64 1, ptr %50) #2
  %295 = load ptr, ptr %27, align 8, !tbaa !239
  %296 = load i32, ptr %49, align 4, !tbaa !35
  %297 = call noundef nonnull align 4 dereferenceable(4) ptr @_ZN5Gluco6ClauseixEi(ptr noundef nonnull align 4 dereferenceable(12) %295, i32 noundef %296)
  call void @llvm.memcpy.p0.p0.i64(ptr align 4 %51, ptr align 4 %297, i64 4, i1 false), !tbaa.struct !212
  %298 = getelementptr inbounds nuw %"struct.Gluco::Lit", ptr %51, i32 0, i32 0
  %299 = load i32, ptr %298, align 4
  %300 = call i8 @_ZNK5Gluco6Solver5valueENS_3LitE(ptr noundef nonnull align 8 dereferenceable(1216) %59, i32 %299)
  %301 = getelementptr inbounds nuw %"class.Gluco::lbool", ptr %50, i32 0, i32 0
  store i8 %300, ptr %301, align 1
  call void @_ZN5Gluco5lboolC2Eh(ptr noundef nonnull align 1 dereferenceable(1) %52, i8 noundef zeroext 1)
  %302 = getelementptr inbounds nuw %"class.Gluco::lbool", ptr %52, i32 0, i32 0
  %303 = load i8, ptr %302, align 1
  %304 = call noundef zeroext i1 @_ZNK5Gluco5lboolneES0_(ptr noundef nonnull align 1 dereferenceable(1) %50, i8 %303)
  call void @llvm.lifetime.end.p0(i64 1, ptr %50) #2
  br i1 %304, label %305, label %322

305:                                              ; preds = %294
  %306 = load ptr, ptr %27, align 8, !tbaa !239
  %307 = load i32, ptr %49, align 4, !tbaa !35
  %308 = call noundef nonnull align 4 dereferenceable(4) ptr @_ZN5Gluco6ClauseixEi(ptr noundef nonnull align 4 dereferenceable(12) %306, i32 noundef %307)
  %309 = load ptr, ptr %27, align 8, !tbaa !239
  %310 = call noundef nonnull align 4 dereferenceable(4) ptr @_ZN5Gluco6ClauseixEi(ptr noundef nonnull align 4 dereferenceable(12) %309, i32 noundef 1)
  call void @llvm.memcpy.p0.p0.i64(ptr align 4 %310, ptr align 4 %308, i64 4, i1 false), !tbaa.struct !212
  %311 = load ptr, ptr %27, align 8, !tbaa !239
  %312 = load i32, ptr %49, align 4, !tbaa !35
  %313 = call noundef nonnull align 4 dereferenceable(4) ptr @_ZN5Gluco6ClauseixEi(ptr noundef nonnull align 4 dereferenceable(12) %311, i32 noundef %312)
  call void @llvm.memcpy.p0.p0.i64(ptr align 4 %313, ptr align 4 %28, i64 4, i1 false), !tbaa.struct !212
  %314 = getelementptr inbounds nuw %"class.Gluco::Solver", ptr %59, i32 0, i32 64
  call void @llvm.lifetime.start.p0(i64 4, ptr %53) #2
  %315 = load ptr, ptr %27, align 8, !tbaa !239
  %316 = call noundef nonnull align 4 dereferenceable(4) ptr @_ZN5Gluco6ClauseixEi(ptr noundef nonnull align 4 dereferenceable(12) %315, i32 noundef 1)
  call void @llvm.memcpy.p0.p0.i64(ptr align 4 %54, ptr align 4 %316, i64 4, i1 false), !tbaa.struct !212
  %317 = getelementptr inbounds nuw %"struct.Gluco::Lit", ptr %54, i32 0, i32 0
  %318 = load i32, ptr %317, align 4
  %319 = call i32 @_ZN5GlucocoENS_3LitE(i32 %318)
  %320 = getelementptr inbounds nuw %"struct.Gluco::Lit", ptr %53, i32 0, i32 0
  store i32 %319, ptr %320, align 4
  %321 = call noundef nonnull align 8 dereferenceable(16) ptr @_ZN5Gluco8OccListsINS_3LitENS_3vecINS_6Solver7WatcherEEENS3_14WatcherDeletedEEixERKS1_(ptr noundef nonnull align 8 dereferenceable(56) %314, ptr noundef nonnull align 4 dereferenceable(4) %53)
  call void @_ZN5Gluco3vecINS_6Solver7WatcherEE4pushERKS2_(ptr noundef nonnull align 8 dereferenceable(16) %321, ptr noundef nonnull align 4 dereferenceable(8) %32)
  call void @llvm.lifetime.end.p0(i64 4, ptr %53) #2
  store i32 12, ptr %13, align 4
  br label %326

322:                                              ; preds = %294
  br label %323

323:                                              ; preds = %322
  %324 = load i32, ptr %49, align 4, !tbaa !35
  %325 = add nsw i32 %324, 1
  store i32 %325, ptr %49, align 4, !tbaa !35
  br label %288, !llvm.loop !242

326:                                              ; preds = %305, %293
  call void @llvm.lifetime.end.p0(i64 4, ptr %49) #2
  %327 = load i32, ptr %13, align 4
  switch i32 %327, label %360 [
    i32 13, label %328
    i32 12, label %359
  ]

328:                                              ; preds = %326
  br label %329

329:                                              ; preds = %328, %286
  %330 = load ptr, ptr %9, align 8, !tbaa !236
  %331 = getelementptr inbounds nuw %"struct.Gluco::Solver::Watcher", ptr %330, i32 1
  store ptr %331, ptr %9, align 8, !tbaa !236
  call void @llvm.memcpy.p0.p0.i64(ptr align 4 %330, ptr align 4 %32, i64 8, i1 false), !tbaa.struct !42
  call void @llvm.lifetime.start.p0(i64 1, ptr %55) #2
  call void @llvm.memcpy.p0.p0.i64(ptr align 4 %56, ptr align 4 %31, i64 4, i1 false), !tbaa.struct !212
  %332 = getelementptr inbounds nuw %"struct.Gluco::Lit", ptr %56, i32 0, i32 0
  %333 = load i32, ptr %332, align 4
  %334 = call i8 @_ZNK5Gluco6Solver5valueENS_3LitE(ptr noundef nonnull align 8 dereferenceable(1216) %59, i32 %333)
  %335 = getelementptr inbounds nuw %"class.Gluco::lbool", ptr %55, i32 0, i32 0
  store i8 %334, ptr %335, align 1
  call void @_ZN5Gluco5lboolC2Eh(ptr noundef nonnull align 1 dereferenceable(1) %57, i8 noundef zeroext 1)
  %336 = getelementptr inbounds nuw %"class.Gluco::lbool", ptr %57, i32 0, i32 0
  %337 = load i8, ptr %336, align 1
  %338 = call noundef zeroext i1 @_ZNK5Gluco5lbooleqES0_(ptr noundef nonnull align 1 dereferenceable(1) %55, i8 %337)
  call void @llvm.lifetime.end.p0(i64 1, ptr %55) #2
  br i1 %338, label %339, label %354

339:                                              ; preds = %329
  %340 = load i32, ptr %26, align 4, !tbaa !35
  store i32 %340, ptr %4, align 4, !tbaa !35
  %341 = getelementptr inbounds nuw %"class.Gluco::Solver", ptr %59, i32 0, i32 71
  %342 = call noundef i32 @_ZNK5Gluco3vecINS_3LitEE4sizeEv(ptr noundef nonnull align 8 dereferenceable(16) %341)
  %343 = getelementptr inbounds nuw %"class.Gluco::Solver", ptr %59, i32 0, i32 75
  store i32 %342, ptr %343, align 8, !tbaa !135
  br label %344

344:                                              ; preds = %348, %339
  %345 = load ptr, ptr %8, align 8, !tbaa !236
  %346 = load ptr, ptr %10, align 8, !tbaa !236
  %347 = icmp ult ptr %345, %346
  br i1 %347, label %348, label %353

348:                                              ; preds = %344
  %349 = load ptr, ptr %8, align 8, !tbaa !236
  %350 = getelementptr inbounds nuw %"struct.Gluco::Solver::Watcher", ptr %349, i32 1
  store ptr %350, ptr %8, align 8, !tbaa !236
  %351 = load ptr, ptr %9, align 8, !tbaa !236
  %352 = getelementptr inbounds nuw %"struct.Gluco::Solver::Watcher", ptr %351, i32 1
  store ptr %352, ptr %9, align 8, !tbaa !236
  call void @llvm.memcpy.p0.p0.i64(ptr align 4 %351, ptr align 4 %349, i64 8, i1 false), !tbaa.struct !42
  br label %344, !llvm.loop !243

353:                                              ; preds = %344
  br label %358

354:                                              ; preds = %329
  call void @llvm.memcpy.p0.p0.i64(ptr align 4 %58, ptr align 4 %31, i64 4, i1 false), !tbaa.struct !212
  %355 = load i32, ptr %26, align 4, !tbaa !35
  %356 = getelementptr inbounds nuw %"struct.Gluco::Lit", ptr %58, i32 0, i32 0
  %357 = load i32, ptr %356, align 4
  call void @_ZN5Gluco6Solver16uncheckedEnqueueENS_3LitEj(ptr noundef nonnull align 8 dereferenceable(1216) %59, i32 %357, i32 noundef %355)
  br label %358

358:                                              ; preds = %354, %353
  br label %359

359:                                              ; preds = %358, %326, %284
  store i32 0, ptr %13, align 4
  br label %360

360:                                              ; preds = %359, %326, %284, %200
  call void @llvm.lifetime.end.p0(i64 8, ptr %32) #2
  call void @llvm.lifetime.end.p0(i64 4, ptr %31) #2
  call void @llvm.lifetime.end.p0(i64 4, ptr %28) #2
  call void @llvm.lifetime.end.p0(i64 8, ptr %27) #2
  call void @llvm.lifetime.end.p0(i64 4, ptr %26) #2
  br label %361

361:                                              ; preds = %360, %151
  call void @llvm.lifetime.end.p0(i64 4, ptr %22) #2
  %362 = load i32, ptr %13, align 4
  switch i32 %362, label %390 [
    i32 0, label %363
    i32 8, label %137
  ]

363:                                              ; preds = %361
  br label %137, !llvm.loop !238

364:                                              ; preds = %137
  %365 = load ptr, ptr %7, align 8, !tbaa !232
  %366 = load ptr, ptr %8, align 8, !tbaa !236
  %367 = load ptr, ptr %9, align 8, !tbaa !236
  %368 = ptrtoint ptr %366 to i64
  %369 = ptrtoint ptr %367 to i64
  %370 = sub i64 %368, %369
  %371 = sdiv exact i64 %370, 8
  %372 = trunc i64 %371 to i32
  call void @_ZN5Gluco3vecINS_6Solver7WatcherEE6shrinkEi(ptr noundef nonnull align 8 dereferenceable(16) %365, i32 noundef %372)
  store i32 0, ptr %13, align 4
  br label %373

373:                                              ; preds = %364, %127
  call void @llvm.lifetime.end.p0(i64 8, ptr %11) #2
  call void @llvm.lifetime.end.p0(i64 8, ptr %10) #2
  call void @llvm.lifetime.end.p0(i64 8, ptr %9) #2
  call void @llvm.lifetime.end.p0(i64 8, ptr %8) #2
  call void @llvm.lifetime.end.p0(i64 8, ptr %7) #2
  call void @llvm.lifetime.end.p0(i64 4, ptr %6) #2
  %374 = load i32, ptr %13, align 4
  switch i32 %374, label %388 [
    i32 0, label %375
  ]

375:                                              ; preds = %373
  br label %62, !llvm.loop !244

376:                                              ; preds = %62
  %377 = load i32, ptr %5, align 4, !tbaa !35
  %378 = sext i32 %377 to i64
  %379 = getelementptr inbounds nuw %"class.Gluco::Solver", ptr %59, i32 0, i32 47
  %380 = load i64, ptr %379, align 8, !tbaa !120
  %381 = add nsw i64 %380, %378
  store i64 %381, ptr %379, align 8, !tbaa !120
  %382 = load i32, ptr %5, align 4, !tbaa !35
  %383 = sext i32 %382 to i64
  %384 = getelementptr inbounds nuw %"class.Gluco::Solver", ptr %59, i32 0, i32 77
  %385 = load i64, ptr %384, align 8, !tbaa !137
  %386 = sub nsw i64 %385, %383
  store i64 %386, ptr %384, align 8, !tbaa !137
  %387 = load i32, ptr %4, align 4, !tbaa !35
  store i32 %387, ptr %2, align 4
  store i32 1, ptr %13, align 4
  br label %388

388:                                              ; preds = %376, %373
  call void @llvm.lifetime.end.p0(i64 4, ptr %5) #2
  call void @llvm.lifetime.end.p0(i64 4, ptr %4) #2
  %389 = load i32, ptr %2, align 4
  ret i32 %389

390:                                              ; preds = %361
  unreachable
}

; Function Attrs: mustprogress nounwind uwtable
define linkonce_odr noundef i32 @_ZN5Gluco15ClauseAllocator5allocINS_3vecINS_3LitEEEEEjRKT_b(ptr noundef nonnull align 8 dereferenceable(21) %0, ptr noundef nonnull align 8 dereferenceable(16) %1, i1 noundef zeroext %2) #1 comdat align 2 {
  %4 = alloca ptr, align 8
  %5 = alloca ptr, align 8
  %6 = alloca i8, align 1
  %7 = alloca i8, align 1
  %8 = alloca i32, align 4
  store ptr %0, ptr %4, align 8, !tbaa !173
  store ptr %1, ptr %5, align 8, !tbaa !157
  %9 = zext i1 %2 to i8
  store i8 %9, ptr %6, align 1, !tbaa !10
  %10 = load ptr, ptr %4, align 8
  call void @llvm.lifetime.start.p0(i64 1, ptr %7) #2
  %11 = load i8, ptr %6, align 1, !tbaa !10, !range !14, !noundef !15
  %12 = trunc i8 %11 to i1
  %13 = zext i1 %12 to i32
  %14 = getelementptr inbounds nuw %"class.Gluco::ClauseAllocator", ptr %10, i32 0, i32 1
  %15 = load i8, ptr %14, align 4, !tbaa !197, !range !14, !noundef !15
  %16 = trunc i8 %15 to i1
  %17 = zext i1 %16 to i32
  %18 = or i32 %13, %17
  %19 = icmp ne i32 %18, 0
  %20 = zext i1 %19 to i8
  store i8 %20, ptr %7, align 1, !tbaa !10
  call void @llvm.lifetime.start.p0(i64 4, ptr %8) #2
  %21 = load ptr, ptr %5, align 8, !tbaa !157
  %22 = call noundef i32 @_ZNK5Gluco3vecINS_3LitEE4sizeEv(ptr noundef nonnull align 8 dereferenceable(16) %21)
  %23 = load i8, ptr %7, align 1, !tbaa !10, !range !14, !noundef !15
  %24 = trunc i8 %23 to i1
  %25 = call noundef i32 @_ZN5Gluco15ClauseAllocator16clauseWord32SizeEib(i32 noundef %22, i1 noundef zeroext %24)
  %26 = call noundef i32 @_ZN5Gluco15RegionAllocatorIjE5allocEi(ptr noundef nonnull align 8 dereferenceable(20) %10, i32 noundef %25)
  store i32 %26, ptr %8, align 4, !tbaa !35
  %27 = load i32, ptr %8, align 4, !tbaa !35
  %28 = call noundef ptr @_ZN5Gluco15ClauseAllocator3leaEj(ptr noundef nonnull align 8 dereferenceable(21) %10, i32 noundef %27)
  %29 = load ptr, ptr %5, align 8, !tbaa !157
  %30 = load i8, ptr %7, align 1, !tbaa !10, !range !14, !noundef !15
  %31 = trunc i8 %30 to i1
  %32 = load i8, ptr %6, align 1, !tbaa !10, !range !14, !noundef !15
  %33 = trunc i8 %32 to i1
  call void @_ZN5Gluco6ClauseC2INS_3vecINS_3LitEEEEERKT_bb(ptr noundef nonnull align 4 dereferenceable(12) %28, ptr noundef nonnull align 8 dereferenceable(16) %29, i1 noundef zeroext %31, i1 noundef zeroext %33)
  %34 = load i32, ptr %8, align 4, !tbaa !35
  call void @llvm.lifetime.end.p0(i64 4, ptr %8) #2
  call void @llvm.lifetime.end.p0(i64 1, ptr %7) #2
  ret i32 %34
}

; Function Attrs: mustprogress nounwind uwtable
define void @_ZN5Gluco6Solver12attachClauseEj(ptr noundef nonnull align 8 dereferenceable(1216) %0, i32 noundef %1) #1 align 2 {
  %3 = alloca ptr, align 8
  %4 = alloca i32, align 4
  %5 = alloca ptr, align 8
  %6 = alloca %"struct.Gluco::Lit", align 4
  %7 = alloca %"struct.Gluco::Lit", align 4
  %8 = alloca %"struct.Gluco::Solver::Watcher", align 4
  %9 = alloca %"struct.Gluco::Lit", align 4
  %10 = alloca %"struct.Gluco::Lit", align 4
  %11 = alloca %"struct.Gluco::Lit", align 4
  %12 = alloca %"struct.Gluco::Solver::Watcher", align 4
  %13 = alloca %"struct.Gluco::Lit", align 4
  %14 = alloca %"struct.Gluco::Lit", align 4
  %15 = alloca %"struct.Gluco::Lit", align 4
  %16 = alloca %"struct.Gluco::Solver::Watcher", align 4
  %17 = alloca %"struct.Gluco::Lit", align 4
  %18 = alloca %"struct.Gluco::Lit", align 4
  %19 = alloca %"struct.Gluco::Lit", align 4
  %20 = alloca %"struct.Gluco::Solver::Watcher", align 4
  %21 = alloca %"struct.Gluco::Lit", align 4
  store ptr %0, ptr %3, align 8, !tbaa !51
  store i32 %1, ptr %4, align 4, !tbaa !35
  %22 = load ptr, ptr %3, align 8
  call void @llvm.lifetime.start.p0(i64 8, ptr %5) #2
  %23 = getelementptr inbounds nuw %"class.Gluco::Solver", ptr %22, i32 0, i32 84
  %24 = load i32, ptr %4, align 4, !tbaa !35
  %25 = call noundef nonnull align 4 dereferenceable(12) ptr @_ZN5Gluco15ClauseAllocatorixEj(ptr noundef nonnull align 8 dereferenceable(21) %23, i32 noundef %24)
  store ptr %25, ptr %5, align 8, !tbaa !239
  %26 = load ptr, ptr %5, align 8, !tbaa !239
  %27 = call noundef i32 @_ZNK5Gluco6Clause4sizeEv(ptr noundef nonnull align 4 dereferenceable(12) %26)
  %28 = icmp eq i32 %27, 2
  br i1 %28, label %29, label %60

29:                                               ; preds = %2
  %30 = getelementptr inbounds nuw %"class.Gluco::Solver", ptr %22, i32 0, i32 65
  call void @llvm.lifetime.start.p0(i64 4, ptr %6) #2
  %31 = load ptr, ptr %5, align 8, !tbaa !239
  %32 = call i32 @_ZNK5Gluco6ClauseixEi(ptr noundef nonnull align 4 dereferenceable(12) %31, i32 noundef 0)
  %33 = getelementptr inbounds nuw %"struct.Gluco::Lit", ptr %7, i32 0, i32 0
  store i32 %32, ptr %33, align 4
  %34 = getelementptr inbounds nuw %"struct.Gluco::Lit", ptr %7, i32 0, i32 0
  %35 = load i32, ptr %34, align 4
  %36 = call i32 @_ZN5GlucocoENS_3LitE(i32 %35)
  %37 = getelementptr inbounds nuw %"struct.Gluco::Lit", ptr %6, i32 0, i32 0
  store i32 %36, ptr %37, align 4
  %38 = call noundef nonnull align 8 dereferenceable(16) ptr @_ZN5Gluco8OccListsINS_3LitENS_3vecINS_6Solver7WatcherEEENS3_14WatcherDeletedEEixERKS1_(ptr noundef nonnull align 8 dereferenceable(56) %30, ptr noundef nonnull align 4 dereferenceable(4) %6)
  call void @llvm.lifetime.start.p0(i64 8, ptr %8) #2
  %39 = load i32, ptr %4, align 4, !tbaa !35
  %40 = load ptr, ptr %5, align 8, !tbaa !239
  %41 = call i32 @_ZNK5Gluco6ClauseixEi(ptr noundef nonnull align 4 dereferenceable(12) %40, i32 noundef 1)
  %42 = getelementptr inbounds nuw %"struct.Gluco::Lit", ptr %9, i32 0, i32 0
  store i32 %41, ptr %42, align 4
  %43 = getelementptr inbounds nuw %"struct.Gluco::Lit", ptr %9, i32 0, i32 0
  %44 = load i32, ptr %43, align 4
  call void @_ZN5Gluco6Solver7WatcherC2EjNS_3LitE(ptr noundef nonnull align 4 dereferenceable(8) %8, i32 noundef %39, i32 %44)
  call void @_ZN5Gluco3vecINS_6Solver7WatcherEE4pushERKS2_(ptr noundef nonnull align 8 dereferenceable(16) %38, ptr noundef nonnull align 4 dereferenceable(8) %8)
  call void @llvm.lifetime.end.p0(i64 8, ptr %8) #2
  call void @llvm.lifetime.end.p0(i64 4, ptr %6) #2
  %45 = getelementptr inbounds nuw %"class.Gluco::Solver", ptr %22, i32 0, i32 65
  call void @llvm.lifetime.start.p0(i64 4, ptr %10) #2
  %46 = load ptr, ptr %5, align 8, !tbaa !239
  %47 = call i32 @_ZNK5Gluco6ClauseixEi(ptr noundef nonnull align 4 dereferenceable(12) %46, i32 noundef 1)
  %48 = getelementptr inbounds nuw %"struct.Gluco::Lit", ptr %11, i32 0, i32 0
  store i32 %47, ptr %48, align 4
  %49 = getelementptr inbounds nuw %"struct.Gluco::Lit", ptr %11, i32 0, i32 0
  %50 = load i32, ptr %49, align 4
  %51 = call i32 @_ZN5GlucocoENS_3LitE(i32 %50)
  %52 = getelementptr inbounds nuw %"struct.Gluco::Lit", ptr %10, i32 0, i32 0
  store i32 %51, ptr %52, align 4
  %53 = call noundef nonnull align 8 dereferenceable(16) ptr @_ZN5Gluco8OccListsINS_3LitENS_3vecINS_6Solver7WatcherEEENS3_14WatcherDeletedEEixERKS1_(ptr noundef nonnull align 8 dereferenceable(56) %45, ptr noundef nonnull align 4 dereferenceable(4) %10)
  call void @llvm.lifetime.start.p0(i64 8, ptr %12) #2
  %54 = load i32, ptr %4, align 4, !tbaa !35
  %55 = load ptr, ptr %5, align 8, !tbaa !239
  %56 = call i32 @_ZNK5Gluco6ClauseixEi(ptr noundef nonnull align 4 dereferenceable(12) %55, i32 noundef 0)
  %57 = getelementptr inbounds nuw %"struct.Gluco::Lit", ptr %13, i32 0, i32 0
  store i32 %56, ptr %57, align 4
  %58 = getelementptr inbounds nuw %"struct.Gluco::Lit", ptr %13, i32 0, i32 0
  %59 = load i32, ptr %58, align 4
  call void @_ZN5Gluco6Solver7WatcherC2EjNS_3LitE(ptr noundef nonnull align 4 dereferenceable(8) %12, i32 noundef %54, i32 %59)
  call void @_ZN5Gluco3vecINS_6Solver7WatcherEE4pushERKS2_(ptr noundef nonnull align 8 dereferenceable(16) %53, ptr noundef nonnull align 4 dereferenceable(8) %12)
  call void @llvm.lifetime.end.p0(i64 8, ptr %12) #2
  call void @llvm.lifetime.end.p0(i64 4, ptr %10) #2
  br label %91

60:                                               ; preds = %2
  %61 = getelementptr inbounds nuw %"class.Gluco::Solver", ptr %22, i32 0, i32 64
  call void @llvm.lifetime.start.p0(i64 4, ptr %14) #2
  %62 = load ptr, ptr %5, align 8, !tbaa !239
  %63 = call i32 @_ZNK5Gluco6ClauseixEi(ptr noundef nonnull align 4 dereferenceable(12) %62, i32 noundef 0)
  %64 = getelementptr inbounds nuw %"struct.Gluco::Lit", ptr %15, i32 0, i32 0
  store i32 %63, ptr %64, align 4
  %65 = getelementptr inbounds nuw %"struct.Gluco::Lit", ptr %15, i32 0, i32 0
  %66 = load i32, ptr %65, align 4
  %67 = call i32 @_ZN5GlucocoENS_3LitE(i32 %66)
  %68 = getelementptr inbounds nuw %"struct.Gluco::Lit", ptr %14, i32 0, i32 0
  store i32 %67, ptr %68, align 4
  %69 = call noundef nonnull align 8 dereferenceable(16) ptr @_ZN5Gluco8OccListsINS_3LitENS_3vecINS_6Solver7WatcherEEENS3_14WatcherDeletedEEixERKS1_(ptr noundef nonnull align 8 dereferenceable(56) %61, ptr noundef nonnull align 4 dereferenceable(4) %14)
  call void @llvm.lifetime.start.p0(i64 8, ptr %16) #2
  %70 = load i32, ptr %4, align 4, !tbaa !35
  %71 = load ptr, ptr %5, align 8, !tbaa !239
  %72 = call i32 @_ZNK5Gluco6ClauseixEi(ptr noundef nonnull align 4 dereferenceable(12) %71, i32 noundef 1)
  %73 = getelementptr inbounds nuw %"struct.Gluco::Lit", ptr %17, i32 0, i32 0
  store i32 %72, ptr %73, align 4
  %74 = getelementptr inbounds nuw %"struct.Gluco::Lit", ptr %17, i32 0, i32 0
  %75 = load i32, ptr %74, align 4
  call void @_ZN5Gluco6Solver7WatcherC2EjNS_3LitE(ptr noundef nonnull align 4 dereferenceable(8) %16, i32 noundef %70, i32 %75)
  call void @_ZN5Gluco3vecINS_6Solver7WatcherEE4pushERKS2_(ptr noundef nonnull align 8 dereferenceable(16) %69, ptr noundef nonnull align 4 dereferenceable(8) %16)
  call void @llvm.lifetime.end.p0(i64 8, ptr %16) #2
  call void @llvm.lifetime.end.p0(i64 4, ptr %14) #2
  %76 = getelementptr inbounds nuw %"class.Gluco::Solver", ptr %22, i32 0, i32 64
  call void @llvm.lifetime.start.p0(i64 4, ptr %18) #2
  %77 = load ptr, ptr %5, align 8, !tbaa !239
  %78 = call i32 @_ZNK5Gluco6ClauseixEi(ptr noundef nonnull align 4 dereferenceable(12) %77, i32 noundef 1)
  %79 = getelementptr inbounds nuw %"struct.Gluco::Lit", ptr %19, i32 0, i32 0
  store i32 %78, ptr %79, align 4
  %80 = getelementptr inbounds nuw %"struct.Gluco::Lit", ptr %19, i32 0, i32 0
  %81 = load i32, ptr %80, align 4
  %82 = call i32 @_ZN5GlucocoENS_3LitE(i32 %81)
  %83 = getelementptr inbounds nuw %"struct.Gluco::Lit", ptr %18, i32 0, i32 0
  store i32 %82, ptr %83, align 4
  %84 = call noundef nonnull align 8 dereferenceable(16) ptr @_ZN5Gluco8OccListsINS_3LitENS_3vecINS_6Solver7WatcherEEENS3_14WatcherDeletedEEixERKS1_(ptr noundef nonnull align 8 dereferenceable(56) %76, ptr noundef nonnull align 4 dereferenceable(4) %18)
  call void @llvm.lifetime.start.p0(i64 8, ptr %20) #2
  %85 = load i32, ptr %4, align 4, !tbaa !35
  %86 = load ptr, ptr %5, align 8, !tbaa !239
  %87 = call i32 @_ZNK5Gluco6ClauseixEi(ptr noundef nonnull align 4 dereferenceable(12) %86, i32 noundef 0)
  %88 = getelementptr inbounds nuw %"struct.Gluco::Lit", ptr %21, i32 0, i32 0
  store i32 %87, ptr %88, align 4
  %89 = getelementptr inbounds nuw %"struct.Gluco::Lit", ptr %21, i32 0, i32 0
  %90 = load i32, ptr %89, align 4
  call void @_ZN5Gluco6Solver7WatcherC2EjNS_3LitE(ptr noundef nonnull align 4 dereferenceable(8) %20, i32 noundef %85, i32 %90)
  call void @_ZN5Gluco3vecINS_6Solver7WatcherEE4pushERKS2_(ptr noundef nonnull align 8 dereferenceable(16) %84, ptr noundef nonnull align 4 dereferenceable(8) %20)
  call void @llvm.lifetime.end.p0(i64 8, ptr %20) #2
  call void @llvm.lifetime.end.p0(i64 4, ptr %18) #2
  br label %91

91:                                               ; preds = %60, %29
  %92 = load ptr, ptr %5, align 8, !tbaa !239
  %93 = call noundef zeroext i1 @_ZNK5Gluco6Clause6learntEv(ptr noundef nonnull align 4 dereferenceable(12) %92)
  br i1 %93, label %94, label %101

94:                                               ; preds = %91
  %95 = load ptr, ptr %5, align 8, !tbaa !239
  %96 = call noundef i32 @_ZNK5Gluco6Clause4sizeEv(ptr noundef nonnull align 4 dereferenceable(12) %95)
  %97 = sext i32 %96 to i64
  %98 = getelementptr inbounds nuw %"class.Gluco::Solver", ptr %22, i32 0, i32 55
  %99 = load i64, ptr %98, align 8, !tbaa !128
  %100 = add nsw i64 %99, %97
  store i64 %100, ptr %98, align 8, !tbaa !128
  br label %108

101:                                              ; preds = %91
  %102 = load ptr, ptr %5, align 8, !tbaa !239
  %103 = call noundef i32 @_ZNK5Gluco6Clause4sizeEv(ptr noundef nonnull align 4 dereferenceable(12) %102)
  %104 = sext i32 %103 to i64
  %105 = getelementptr inbounds nuw %"class.Gluco::Solver", ptr %22, i32 0, i32 54
  %106 = load i64, ptr %105, align 8, !tbaa !127
  %107 = add nsw i64 %106, %104
  store i64 %107, ptr %105, align 8, !tbaa !127
  br label %108

108:                                              ; preds = %101, %94
  call void @llvm.lifetime.end.p0(i64 8, ptr %5) #2
  ret void
}

; Function Attrs: mustprogress nounwind uwtable
define linkonce_odr noundef nonnull align 4 dereferenceable(12) ptr @_ZN5Gluco15ClauseAllocatorixEj(ptr noundef nonnull align 8 dereferenceable(21) %0, i32 noundef %1) #1 comdat align 2 {
  %3 = alloca ptr, align 8
  %4 = alloca i32, align 4
  store ptr %0, ptr %3, align 8, !tbaa !173
  store i32 %1, ptr %4, align 4, !tbaa !35
  %5 = load ptr, ptr %3, align 8
  %6 = load i32, ptr %4, align 4, !tbaa !35
  %7 = call noundef nonnull align 4 dereferenceable(4) ptr @_ZN5Gluco15RegionAllocatorIjEixEj(ptr noundef nonnull align 8 dereferenceable(20) %5, i32 noundef %6)
  ret ptr %7
}

; Function Attrs: mustprogress nounwind uwtable
define linkonce_odr noundef i32 @_ZNK5Gluco6Clause4sizeEv(ptr noundef nonnull align 4 dereferenceable(12) %0) #1 comdat align 2 {
  %2 = alloca ptr, align 8
  store ptr %0, ptr %2, align 8, !tbaa !239
  %3 = load ptr, ptr %2, align 8
  %4 = getelementptr inbounds nuw %"class.Gluco::Clause", ptr %3, i32 0, i32 0
  %5 = load i64, ptr %4, align 4
  %6 = lshr i64 %5, 32
  %7 = trunc i64 %6 to i32
  ret i32 %7
}

; Function Attrs: mustprogress nounwind uwtable
define linkonce_odr noundef nonnull align 8 dereferenceable(16) ptr @_ZN5Gluco8OccListsINS_3LitENS_3vecINS_6Solver7WatcherEEENS3_14WatcherDeletedEEixERKS1_(ptr noundef nonnull align 8 dereferenceable(56) %0, ptr noundef nonnull align 4 dereferenceable(4) %1) #1 comdat align 2 {
  %3 = alloca ptr, align 8
  %4 = alloca ptr, align 8
  %5 = alloca %"struct.Gluco::Lit", align 4
  store ptr %0, ptr %3, align 8, !tbaa !174
  store ptr %1, ptr %4, align 8, !tbaa !211
  %6 = load ptr, ptr %3, align 8
  %7 = getelementptr inbounds nuw %"class.Gluco::OccLists", ptr %6, i32 0, i32 0
  %8 = load ptr, ptr %4, align 8, !tbaa !211
  call void @llvm.memcpy.p0.p0.i64(ptr align 4 %5, ptr align 4 %8, i64 4, i1 false), !tbaa.struct !212
  %9 = getelementptr inbounds nuw %"struct.Gluco::Lit", ptr %5, i32 0, i32 0
  %10 = load i32, ptr %9, align 4
  %11 = call noundef i32 @_ZN5Gluco5toIntENS_3LitE(i32 %10)
  %12 = call noundef nonnull align 8 dereferenceable(16) ptr @_ZN5Gluco3vecINS0_INS_6Solver7WatcherEEEEixEi(ptr noundef nonnull align 8 dereferenceable(16) %7, i32 noundef %11)
  ret ptr %12
}

; Function Attrs: mustprogress nounwind uwtable
define linkonce_odr i32 @_ZNK5Gluco6ClauseixEi(ptr noundef nonnull align 4 dereferenceable(12) %0, i32 noundef %1) #1 comdat align 2 {
  %3 = alloca %"struct.Gluco::Lit", align 4
  %4 = alloca ptr, align 8
  %5 = alloca i32, align 4
  store ptr %0, ptr %4, align 8, !tbaa !239
  store i32 %1, ptr %5, align 4, !tbaa !35
  %6 = load ptr, ptr %4, align 8
  %7 = getelementptr inbounds nuw %"class.Gluco::Clause", ptr %6, i32 0, i32 1
  %8 = load i32, ptr %5, align 4, !tbaa !35
  %9 = sext i32 %8 to i64
  %10 = getelementptr inbounds [0 x %union.anon], ptr %7, i64 0, i64 %9
  call void @llvm.memcpy.p0.p0.i64(ptr align 4 %3, ptr align 4 %10, i64 4, i1 false), !tbaa.struct !212
  %11 = getelementptr inbounds nuw %"struct.Gluco::Lit", ptr %3, i32 0, i32 0
  %12 = load i32, ptr %11, align 4
  ret i32 %12
}

; Function Attrs: mustprogress nounwind uwtable
define linkonce_odr void @_ZN5Gluco3vecINS_6Solver7WatcherEE4pushERKS2_(ptr noundef nonnull align 8 dereferenceable(16) %0, ptr noundef nonnull align 4 dereferenceable(8) %1) #1 comdat align 2 {
  %3 = alloca ptr, align 8
  %4 = alloca ptr, align 8
  store ptr %0, ptr %3, align 8, !tbaa !232
  store ptr %1, ptr %4, align 8, !tbaa !236
  %5 = load ptr, ptr %3, align 8
  %6 = getelementptr inbounds nuw %"class.Gluco::vec.7", ptr %5, i32 0, i32 1
  %7 = load i32, ptr %6, align 8, !tbaa !245
  %8 = getelementptr inbounds nuw %"class.Gluco::vec.7", ptr %5, i32 0, i32 2
  %9 = load i32, ptr %8, align 4, !tbaa !247
  %10 = icmp eq i32 %7, %9
  br i1 %10, label %11, label %15

11:                                               ; preds = %2
  %12 = getelementptr inbounds nuw %"class.Gluco::vec.7", ptr %5, i32 0, i32 1
  %13 = load i32, ptr %12, align 8, !tbaa !245
  %14 = add nsw i32 %13, 1
  call void @_ZN5Gluco3vecINS_6Solver7WatcherEE8capacityEi(ptr noundef nonnull align 8 dereferenceable(16) %5, i32 noundef %14)
  br label %15

15:                                               ; preds = %11, %2
  %16 = load ptr, ptr %4, align 8, !tbaa !236
  %17 = getelementptr inbounds nuw %"class.Gluco::vec.7", ptr %5, i32 0, i32 0
  %18 = load ptr, ptr %17, align 8, !tbaa !248
  %19 = getelementptr inbounds nuw %"class.Gluco::vec.7", ptr %5, i32 0, i32 1
  %20 = load i32, ptr %19, align 8, !tbaa !245
  %21 = add nsw i32 %20, 1
  store i32 %21, ptr %19, align 8, !tbaa !245
  %22 = sext i32 %20 to i64
  %23 = getelementptr inbounds %"struct.Gluco::Solver::Watcher", ptr %18, i64 %22
  call void @llvm.memcpy.p0.p0.i64(ptr align 4 %23, ptr align 4 %16, i64 8, i1 false), !tbaa.struct !42
  ret void
}

; Function Attrs: mustprogress nounwind uwtable
define linkonce_odr void @_ZN5Gluco6Solver7WatcherC2EjNS_3LitE(ptr noundef nonnull align 4 dereferenceable(8) %0, i32 noundef %1, i32 %2) unnamed_addr #1 comdat align 2 {
  %4 = alloca %"struct.Gluco::Lit", align 4
  %5 = alloca ptr, align 8
  %6 = alloca i32, align 4
  %7 = getelementptr inbounds nuw %"struct.Gluco::Lit", ptr %4, i32 0, i32 0
  store i32 %2, ptr %7, align 4
  store ptr %0, ptr %5, align 8, !tbaa !236
  store i32 %1, ptr %6, align 4, !tbaa !35
  %8 = load ptr, ptr %5, align 8
  %9 = getelementptr inbounds nuw %"struct.Gluco::Solver::Watcher", ptr %8, i32 0, i32 0
  %10 = load i32, ptr %6, align 4, !tbaa !35
  store i32 %10, ptr %9, align 4, !tbaa !233
  %11 = getelementptr inbounds nuw %"struct.Gluco::Solver::Watcher", ptr %8, i32 0, i32 1
  call void @llvm.memcpy.p0.p0.i64(ptr align 4 %11, ptr align 4 %4, i64 4, i1 false), !tbaa.struct !212
  ret void
}

; Function Attrs: mustprogress nounwind uwtable
define linkonce_odr noundef zeroext i1 @_ZNK5Gluco6Clause6learntEv(ptr noundef nonnull align 4 dereferenceable(12) %0) #1 comdat align 2 {
  %2 = alloca ptr, align 8
  store ptr %0, ptr %2, align 8, !tbaa !239
  %3 = load ptr, ptr %2, align 8
  %4 = getelementptr inbounds nuw %"class.Gluco::Clause", ptr %3, i32 0, i32 0
  %5 = load i64, ptr %4, align 4
  %6 = lshr i64 %5, 2
  %7 = and i64 %6, 1
  %8 = trunc i64 %7 to i32
  %9 = icmp ne i32 %8, 0
  ret i1 %9
}

; Function Attrs: mustprogress nounwind uwtable
define void @_ZN5Gluco6Solver12detachClauseEjb(ptr noundef nonnull align 8 dereferenceable(1216) %0, i32 noundef %1, i1 noundef zeroext %2) #1 align 2 {
  %4 = alloca ptr, align 8
  %5 = alloca i32, align 4
  %6 = alloca i8, align 1
  %7 = alloca ptr, align 8
  %8 = alloca %"struct.Gluco::Lit", align 4
  %9 = alloca %"struct.Gluco::Lit", align 4
  %10 = alloca %"struct.Gluco::Solver::Watcher", align 4
  %11 = alloca %"struct.Gluco::Lit", align 4
  %12 = alloca %"struct.Gluco::Lit", align 4
  %13 = alloca %"struct.Gluco::Lit", align 4
  %14 = alloca %"struct.Gluco::Solver::Watcher", align 4
  %15 = alloca %"struct.Gluco::Lit", align 4
  %16 = alloca %"struct.Gluco::Lit", align 4
  %17 = alloca %"struct.Gluco::Lit", align 4
  %18 = alloca %"struct.Gluco::Lit", align 4
  %19 = alloca %"struct.Gluco::Lit", align 4
  %20 = alloca %"struct.Gluco::Lit", align 4
  %21 = alloca %"struct.Gluco::Lit", align 4
  %22 = alloca %"struct.Gluco::Solver::Watcher", align 4
  %23 = alloca %"struct.Gluco::Lit", align 4
  %24 = alloca %"struct.Gluco::Lit", align 4
  %25 = alloca %"struct.Gluco::Lit", align 4
  %26 = alloca %"struct.Gluco::Solver::Watcher", align 4
  %27 = alloca %"struct.Gluco::Lit", align 4
  %28 = alloca %"struct.Gluco::Lit", align 4
  %29 = alloca %"struct.Gluco::Lit", align 4
  %30 = alloca %"struct.Gluco::Lit", align 4
  %31 = alloca %"struct.Gluco::Lit", align 4
  store ptr %0, ptr %4, align 8, !tbaa !51
  store i32 %1, ptr %5, align 4, !tbaa !35
  %32 = zext i1 %2 to i8
  store i8 %32, ptr %6, align 1, !tbaa !10
  %33 = load ptr, ptr %4, align 8
  call void @llvm.lifetime.start.p0(i64 8, ptr %7) #2
  %34 = getelementptr inbounds nuw %"class.Gluco::Solver", ptr %33, i32 0, i32 84
  %35 = load i32, ptr %5, align 4, !tbaa !35
  %36 = call noundef nonnull align 4 dereferenceable(12) ptr @_ZN5Gluco15ClauseAllocatorixEj(ptr noundef nonnull align 8 dereferenceable(21) %34, i32 noundef %35)
  store ptr %36, ptr %7, align 8, !tbaa !239
  %37 = load ptr, ptr %7, align 8, !tbaa !239
  %38 = call noundef i32 @_ZNK5Gluco6Clause4sizeEv(ptr noundef nonnull align 4 dereferenceable(12) %37)
  %39 = icmp eq i32 %38, 2
  br i1 %39, label %40, label %92

40:                                               ; preds = %3
  %41 = load i8, ptr %6, align 1, !tbaa !10, !range !14, !noundef !15
  %42 = trunc i8 %41 to i1
  br i1 %42, label %43, label %74

43:                                               ; preds = %40
  %44 = getelementptr inbounds nuw %"class.Gluco::Solver", ptr %33, i32 0, i32 65
  call void @llvm.lifetime.start.p0(i64 4, ptr %8) #2
  %45 = load ptr, ptr %7, align 8, !tbaa !239
  %46 = call i32 @_ZNK5Gluco6ClauseixEi(ptr noundef nonnull align 4 dereferenceable(12) %45, i32 noundef 0)
  %47 = getelementptr inbounds nuw %"struct.Gluco::Lit", ptr %9, i32 0, i32 0
  store i32 %46, ptr %47, align 4
  %48 = getelementptr inbounds nuw %"struct.Gluco::Lit", ptr %9, i32 0, i32 0
  %49 = load i32, ptr %48, align 4
  %50 = call i32 @_ZN5GlucocoENS_3LitE(i32 %49)
  %51 = getelementptr inbounds nuw %"struct.Gluco::Lit", ptr %8, i32 0, i32 0
  store i32 %50, ptr %51, align 4
  %52 = call noundef nonnull align 8 dereferenceable(16) ptr @_ZN5Gluco8OccListsINS_3LitENS_3vecINS_6Solver7WatcherEEENS3_14WatcherDeletedEEixERKS1_(ptr noundef nonnull align 8 dereferenceable(56) %44, ptr noundef nonnull align 4 dereferenceable(4) %8)
  call void @llvm.lifetime.start.p0(i64 8, ptr %10) #2
  %53 = load i32, ptr %5, align 4, !tbaa !35
  %54 = load ptr, ptr %7, align 8, !tbaa !239
  %55 = call i32 @_ZNK5Gluco6ClauseixEi(ptr noundef nonnull align 4 dereferenceable(12) %54, i32 noundef 1)
  %56 = getelementptr inbounds nuw %"struct.Gluco::Lit", ptr %11, i32 0, i32 0
  store i32 %55, ptr %56, align 4
  %57 = getelementptr inbounds nuw %"struct.Gluco::Lit", ptr %11, i32 0, i32 0
  %58 = load i32, ptr %57, align 4
  call void @_ZN5Gluco6Solver7WatcherC2EjNS_3LitE(ptr noundef nonnull align 4 dereferenceable(8) %10, i32 noundef %53, i32 %58)
  call void @_ZN5GlucoL6removeINS_3vecINS_6Solver7WatcherEEES3_EEvRT_RKT0_(ptr noundef nonnull align 8 dereferenceable(16) %52, ptr noundef nonnull align 4 dereferenceable(8) %10)
  call void @llvm.lifetime.end.p0(i64 8, ptr %10) #2
  call void @llvm.lifetime.end.p0(i64 4, ptr %8) #2
  %59 = getelementptr inbounds nuw %"class.Gluco::Solver", ptr %33, i32 0, i32 65
  call void @llvm.lifetime.start.p0(i64 4, ptr %12) #2
  %60 = load ptr, ptr %7, align 8, !tbaa !239
  %61 = call i32 @_ZNK5Gluco6ClauseixEi(ptr noundef nonnull align 4 dereferenceable(12) %60, i32 noundef 1)
  %62 = getelementptr inbounds nuw %"struct.Gluco::Lit", ptr %13, i32 0, i32 0
  store i32 %61, ptr %62, align 4
  %63 = getelementptr inbounds nuw %"struct.Gluco::Lit", ptr %13, i32 0, i32 0
  %64 = load i32, ptr %63, align 4
  %65 = call i32 @_ZN5GlucocoENS_3LitE(i32 %64)
  %66 = getelementptr inbounds nuw %"struct.Gluco::Lit", ptr %12, i32 0, i32 0
  store i32 %65, ptr %66, align 4
  %67 = call noundef nonnull align 8 dereferenceable(16) ptr @_ZN5Gluco8OccListsINS_3LitENS_3vecINS_6Solver7WatcherEEENS3_14WatcherDeletedEEixERKS1_(ptr noundef nonnull align 8 dereferenceable(56) %59, ptr noundef nonnull align 4 dereferenceable(4) %12)
  call void @llvm.lifetime.start.p0(i64 8, ptr %14) #2
  %68 = load i32, ptr %5, align 4, !tbaa !35
  %69 = load ptr, ptr %7, align 8, !tbaa !239
  %70 = call i32 @_ZNK5Gluco6ClauseixEi(ptr noundef nonnull align 4 dereferenceable(12) %69, i32 noundef 0)
  %71 = getelementptr inbounds nuw %"struct.Gluco::Lit", ptr %15, i32 0, i32 0
  store i32 %70, ptr %71, align 4
  %72 = getelementptr inbounds nuw %"struct.Gluco::Lit", ptr %15, i32 0, i32 0
  %73 = load i32, ptr %72, align 4
  call void @_ZN5Gluco6Solver7WatcherC2EjNS_3LitE(ptr noundef nonnull align 4 dereferenceable(8) %14, i32 noundef %68, i32 %73)
  call void @_ZN5GlucoL6removeINS_3vecINS_6Solver7WatcherEEES3_EEvRT_RKT0_(ptr noundef nonnull align 8 dereferenceable(16) %67, ptr noundef nonnull align 4 dereferenceable(8) %14)
  call void @llvm.lifetime.end.p0(i64 8, ptr %14) #2
  call void @llvm.lifetime.end.p0(i64 4, ptr %12) #2
  br label %91

74:                                               ; preds = %40
  %75 = getelementptr inbounds nuw %"class.Gluco::Solver", ptr %33, i32 0, i32 65
  call void @llvm.lifetime.start.p0(i64 4, ptr %16) #2
  %76 = load ptr, ptr %7, align 8, !tbaa !239
  %77 = call i32 @_ZNK5Gluco6ClauseixEi(ptr noundef nonnull align 4 dereferenceable(12) %76, i32 noundef 0)
  %78 = getelementptr inbounds nuw %"struct.Gluco::Lit", ptr %17, i32 0, i32 0
  store i32 %77, ptr %78, align 4
  %79 = getelementptr inbounds nuw %"struct.Gluco::Lit", ptr %17, i32 0, i32 0
  %80 = load i32, ptr %79, align 4
  %81 = call i32 @_ZN5GlucocoENS_3LitE(i32 %80)
  %82 = getelementptr inbounds nuw %"struct.Gluco::Lit", ptr %16, i32 0, i32 0
  store i32 %81, ptr %82, align 4
  call void @_ZN5Gluco8OccListsINS_3LitENS_3vecINS_6Solver7WatcherEEENS3_14WatcherDeletedEE6smudgeERKS1_(ptr noundef nonnull align 8 dereferenceable(56) %75, ptr noundef nonnull align 4 dereferenceable(4) %16)
  call void @llvm.lifetime.end.p0(i64 4, ptr %16) #2
  %83 = getelementptr inbounds nuw %"class.Gluco::Solver", ptr %33, i32 0, i32 65
  call void @llvm.lifetime.start.p0(i64 4, ptr %18) #2
  %84 = load ptr, ptr %7, align 8, !tbaa !239
  %85 = call i32 @_ZNK5Gluco6ClauseixEi(ptr noundef nonnull align 4 dereferenceable(12) %84, i32 noundef 1)
  %86 = getelementptr inbounds nuw %"struct.Gluco::Lit", ptr %19, i32 0, i32 0
  store i32 %85, ptr %86, align 4
  %87 = getelementptr inbounds nuw %"struct.Gluco::Lit", ptr %19, i32 0, i32 0
  %88 = load i32, ptr %87, align 4
  %89 = call i32 @_ZN5GlucocoENS_3LitE(i32 %88)
  %90 = getelementptr inbounds nuw %"struct.Gluco::Lit", ptr %18, i32 0, i32 0
  store i32 %89, ptr %90, align 4
  call void @_ZN5Gluco8OccListsINS_3LitENS_3vecINS_6Solver7WatcherEEENS3_14WatcherDeletedEE6smudgeERKS1_(ptr noundef nonnull align 8 dereferenceable(56) %83, ptr noundef nonnull align 4 dereferenceable(4) %18)
  call void @llvm.lifetime.end.p0(i64 4, ptr %18) #2
  br label %91

91:                                               ; preds = %74, %43
  br label %144

92:                                               ; preds = %3
  %93 = load i8, ptr %6, align 1, !tbaa !10, !range !14, !noundef !15
  %94 = trunc i8 %93 to i1
  br i1 %94, label %95, label %126

95:                                               ; preds = %92
  %96 = getelementptr inbounds nuw %"class.Gluco::Solver", ptr %33, i32 0, i32 64
  call void @llvm.lifetime.start.p0(i64 4, ptr %20) #2
  %97 = load ptr, ptr %7, align 8, !tbaa !239
  %98 = call i32 @_ZNK5Gluco6ClauseixEi(ptr noundef nonnull align 4 dereferenceable(12) %97, i32 noundef 0)
  %99 = getelementptr inbounds nuw %"struct.Gluco::Lit", ptr %21, i32 0, i32 0
  store i32 %98, ptr %99, align 4
  %100 = getelementptr inbounds nuw %"struct.Gluco::Lit", ptr %21, i32 0, i32 0
  %101 = load i32, ptr %100, align 4
  %102 = call i32 @_ZN5GlucocoENS_3LitE(i32 %101)
  %103 = getelementptr inbounds nuw %"struct.Gluco::Lit", ptr %20, i32 0, i32 0
  store i32 %102, ptr %103, align 4
  %104 = call noundef nonnull align 8 dereferenceable(16) ptr @_ZN5Gluco8OccListsINS_3LitENS_3vecINS_6Solver7WatcherEEENS3_14WatcherDeletedEEixERKS1_(ptr noundef nonnull align 8 dereferenceable(56) %96, ptr noundef nonnull align 4 dereferenceable(4) %20)
  call void @llvm.lifetime.start.p0(i64 8, ptr %22) #2
  %105 = load i32, ptr %5, align 4, !tbaa !35
  %106 = load ptr, ptr %7, align 8, !tbaa !239
