target datalayout = "e-m:e-p270:32:32-p271:32:32-p272:64:64-i64:64-i128:128-f80:128-n8:16:32:64-S128"
target triple = "x86_64-pc-linux-gnu"

%"class.Gluco2::BoolOption" = type <{ %"class.Gluco2::Option", i8, [7 x i8] }>
%"class.Gluco2::Option" = type { ptr, ptr, ptr, ptr, ptr }
%"class.Gluco2::DoubleOption" = type { %"class.Gluco2::Option", %"struct.Gluco2::DoubleRange", double }
%"struct.Gluco2::DoubleRange" = type <{ double, double, i8, i8, [6 x i8] }>
%"class.Gluco2::IntOption" = type <{ %"class.Gluco2::Option", %"struct.Gluco2::IntRange", i32, [4 x i8] }>
%"struct.Gluco2::IntRange" = type { i32, i32 }
%"class.Gluco2::StringOption" = type { %"class.Gluco2::Option", ptr }
%"struct.Gluco2::Lit" = type { i32 }
%"class.Gluco2::vec.10" = type { ptr, i32, i32 }
%"struct.Gluco2::Solver::WatcherDeleted" = type { ptr }
%"struct.Gluco2::Solver::VarOrderLt" = type { ptr }
%"struct.Gluco2::Solver::JustOrderLt2" = type { ptr }
%"class.Gluco2::vec.0" = type { ptr, i32, i32 }
%"class.Gluco2::Solver" = type { ptr, i32, ptr, ptr, i32, i8, ptr, i64, %"class.Gluco2::vec", %"class.Gluco2::vec.0", i32, %"class.Gluco2::vec.1", %"class.Gluco2::vec.0", i32, i32, i32, double, double, double, double, i32, i32, i32, i32, i32, i32, double, double, double, double, i32, i32, i8, i8, double, ptr, i8, i64, i64, i64, i64, i64, i64, i64, i64, i64, i64, i64, i64, i64, i64, i64, i64, i64, i64, i64, i64, i64, i64, i32, i8, double, %"class.Gluco2::vec.2", double, %"class.Gluco2::OccLists", %"class.Gluco2::OccLists", %"class.Gluco2::vec.5", %"class.Gluco2::vec.5", %"class.Gluco2::vec.1", %"class.Gluco2::vec.4", %"class.Gluco2::vec.4", %"class.Gluco2::vec.0", %"class.Gluco2::vec", %"class.Gluco2::vec", %"class.Gluco2::vec.6", i32, i32, i64, %"class.Gluco2::vec.0", %"class.Gluco2::Heap", double, i8, %"class.Gluco2::vec.5", %"class.Gluco2::vec.0", %"class.Gluco2::ClauseAllocator", i32, %"class.Gluco2::bqueue", %"class.Gluco2::bqueue", float, i32, %"class.Gluco2::vec.4", %"class.Gluco2::vec.0", %"class.Gluco2::vec.0", %"class.Gluco2::vec.0", i32, double, double, i32, i64, i64, i8, i32, i32, double, double, i32, i32, %"class.Gluco2::vec", %"class.Gluco2::vec", i8, %"class.Gluco2::vec.7", %"class.Gluco2::vec.5", %"class.Gluco2::vec.0", %"class.Gluco2::vec.0", i32, i32, i32, i32, %"class.Gluco2::Heap2", %"class.Gluco2::vec", %"class.Gluco2::vec", i32, %"class.Gluco2::vec", %"class.Gluco2::vec.0" }
%"class.Gluco2::vec.2" = type { ptr, i32, i32 }
%"class.Gluco2::OccLists" = type { %"class.Gluco2::vec.3", %"class.Gluco2::vec.4", %"class.Gluco2::vec.0", %"struct.Gluco2::Solver::WatcherDeleted" }
%"class.Gluco2::vec.3" = type { ptr, i32, i32 }
%"class.Gluco2::vec.1" = type { ptr, i32, i32 }
%"class.Gluco2::vec.6" = type { ptr, i32, i32 }
%"class.Gluco2::Heap" = type { %"struct.Gluco2::Solver::VarOrderLt", %"class.Gluco2::vec", %"class.Gluco2::vec" }
%"class.Gluco2::ClauseAllocator" = type { %"class.Gluco2::RegionAllocator.base", i8, [3 x i8] }
%"class.Gluco2::RegionAllocator.base" = type <{ ptr, i32, i32, i32 }>
%"class.Gluco2::bqueue" = type { %"class.Gluco2::vec.5", i32, i32, i64, i32, i32, i8, double, double }
%"class.Gluco2::vec.4" = type { ptr, i32, i32 }
%"class.Gluco2::vec.7" = type { ptr, i32, i32 }
%"class.Gluco2::vec.5" = type { ptr, i32, i32 }
%"class.Gluco2::Heap2" = type { %"struct.Gluco2::Solver::JustOrderLt2", %"class.Gluco2::vec.8", %"class.Gluco2::vec" }
%"class.Gluco2::vec.8" = type { ptr, i32, i32 }
%"class.Gluco2::vec" = type { ptr, i32, i32 }
%"class.Gluco2::Clause" = type { %struct.anon, [0 x %union.anon] }
%struct.anon = type <{ i64, i32 }>
%union.anon = type { %"struct.Gluco2::Lit" }
%"class.Gluco2::RegionAllocator" = type <{ ptr, i32, i32, i32, [4 x i8] }>
%"class.Gluco2::lbool" = type { i8 }
%"struct.Gluco2::Solver::VarData" = type { i32, i32 }
%"struct.Gluco2::Solver::NodeData" = type { %"struct.Gluco2::Lit", %"struct.Gluco2::Lit", i32 }
%"struct.Gluco2::Solver::Watcher" = type { i32, %"struct.Gluco2::Lit" }
%"class.Gluco2::vec.9" = type { ptr, i32, i32 }
%"struct.Gluco2::Solver::JustKey" = type { double, i32, i32 }
%struct.reduceDB_lt = type { ptr }
%struct.rusage = type { %struct.timeval, %struct.timeval, %union.anon.11, %union.anon.12, %union.anon.13, %union.anon.14, %union.anon.15, %union.anon.16, %union.anon.17, %union.anon.18, %union.anon.19, %union.anon.20, %union.anon.21, %union.anon.22, %union.anon.23, %union.anon.24 }
%struct.timeval = type { i64, i64 }
%union.anon.11 = type { i64 }
%union.anon.12 = type { i64 }
%union.anon.13 = type { i64 }
%union.anon.14 = type { i64 }
%union.anon.15 = type { i64 }
%union.anon.16 = type { i64 }
%union.anon.17 = type { i64 }
%union.anon.18 = type { i64 }
%union.anon.19 = type { i64 }
%union.anon.20 = type { i64 }
%union.anon.21 = type { i64 }
%union.anon.22 = type { i64 }
%union.anon.23 = type { i64 }
%union.anon.24 = type { i64 }
%struct.timespec = type { i64, i64 }
%"struct.Gluco2::LessThan_default" = type { i8 }

$_ZN6Gluco210BoolOptionC2EPKcS2_S2_b = comdat any

$_ZN6Gluco211DoubleRangeC2Edbdb = comdat any

$_ZN6Gluco212DoubleOptionC2EPKcS2_S2_dNS_11DoubleRangeE = comdat any

$_ZN6Gluco28IntRangeC2Eii = comdat any

$_ZN6Gluco29IntOptionC2EPKcS2_S2_iNS_8IntRangeE = comdat any

$_ZN6Gluco212StringOptionC2EPKcS2_S2_S2_ = comdat any

$_ZN6Gluco26OptionD2Ev = comdat any

$_ZN6Gluco23vecIiEC2Ev = comdat any

$_ZN6Gluco23vecINS_3LitEEC2Ev = comdat any

$_ZN6Gluco23vecINS_5lboolEEC2Ev = comdat any

$_ZN6Gluco212DoubleOptioncvRdEv = comdat any

$_ZN6Gluco29IntOptioncvRiEv = comdat any

$_ZN6Gluco210BoolOptioncvRbEv = comdat any

$_ZN6Gluco23vecIdEC2Ev = comdat any

$_ZN6Gluco26Solver14WatcherDeletedC2ERKNS_15ClauseAllocatorE = comdat any

$_ZN6Gluco28OccListsINS_3LitENS_3vecINS_6Solver7WatcherEEENS3_14WatcherDeletedEEC2ERKS6_ = comdat any

$_ZN6Gluco23vecIjEC2Ev = comdat any

$_ZN6Gluco23vecIcEC2Ev = comdat any

$_ZN6Gluco23vecINS_6Solver7VarDataEEC2Ev = comdat any

$_ZN6Gluco26Solver10VarOrderLtC2ERKNS_3vecIdEE = comdat any

$_ZN6Gluco24HeapINS_6Solver10VarOrderLtEEC2ERKS2_ = comdat any

$_ZN6Gluco215ClauseAllocatorC2Ev = comdat any

$_ZN6Gluco26bqueueIjEC2Ev = comdat any

$_ZN6Gluco23vecINS_6Solver8NodeDataEEC2Ev = comdat any

$_ZN6Gluco26Solver12JustOrderLt2C2EPKS0_ = comdat any

$_ZN6Gluco25Heap2INS_6Solver12JustOrderLt2ENS1_7JustKeyEEC2ERKS2_ = comdat any

$_ZN6Gluco26bqueueIjE8initSizeEi = comdat any

$_ZN6Gluco212StringOptioncvRPKcEv = comdat any

$_ZN6Gluco23vecINS_3LitEE6growToEi = comdat any

$_ZN6Gluco215ClauseAllocator5allocINS_3vecINS_3LitEEEEEjRKT_b = comdat any

$_ZN6Gluco215ClauseAllocatorixEj = comdat any

$_ZN6Gluco26Clause6shrinkEi = comdat any

$_ZNK6Gluco26Clause4sizeEv = comdat any

$_ZN6Gluco23vecINS_3LitEED2Ev = comdat any

$_ZN6Gluco23vecIiED2Ev = comdat any

$_ZN6Gluco25Heap2INS_6Solver12JustOrderLt2ENS1_7JustKeyEED2Ev = comdat any

$_ZN6Gluco23vecIjED2Ev = comdat any

$_ZN6Gluco23vecINS_6Solver8NodeDataEED2Ev = comdat any

$_ZN6Gluco23vecIcED2Ev = comdat any

$_ZN6Gluco26bqueueIjED2Ev = comdat any

$_ZN6Gluco215RegionAllocatorIjED2Ev = comdat any

$_ZN6Gluco24HeapINS_6Solver10VarOrderLtEED2Ev = comdat any

$_ZN6Gluco23vecINS_6Solver7VarDataEED2Ev = comdat any

$_ZN6Gluco23vecINS_5lboolEED2Ev = comdat any

$_ZN6Gluco28OccListsINS_3LitENS_3vecINS_6Solver7WatcherEEENS3_14WatcherDeletedEED2Ev = comdat any

$_ZN6Gluco23vecIdED2Ev = comdat any

$_ZNK6Gluco26Solver5nVarsEv = comdat any

$_ZN6Gluco28OccListsINS_3LitENS_3vecINS_6Solver7WatcherEEENS3_14WatcherDeletedEE4initERKS1_ = comdat any

$_ZN6Gluco25mkLitEib = comdat any

$_ZN6Gluco23vecINS_5lboolEE4pushERKS1_ = comdat any

$_ZN6Gluco25lboolC2Eh = comdat any

$_ZN6Gluco23vecINS_6Solver7VarDataEE4pushERKS2_ = comdat any

$_ZN6Gluco26Solver9mkVarDataEji = comdat any

$_ZN6Gluco23vecIdE4pushERKd = comdat any

$_ZN6Gluco26Solver5drandERd = comdat any

$_ZN6Gluco23vecIcE4pushERKc = comdat any

$_ZN6Gluco23vecIjE4pushERKj = comdat any

$_ZN6Gluco23vecIcE4pushEv = comdat any

$_ZN6Gluco23vecINS_3LitEE8capacityEi = comdat any

$_ZNK6Gluco26Solver9justUsageEv = comdat any

$_ZN6Gluco23vecIiE4pushERKi = comdat any

$_ZN6Gluco23vecINS_3LitEE6growToEiRKS1_ = comdat any

$_ZN6Gluco25toLitEi = comdat any

$_ZN6Gluco23vecINS_6Solver8NodeDataEE6growToEiRKS2_ = comdat any

$_ZN6Gluco26Solver10mkNodeDataEv = comdat any

$_ZN6Gluco23vecIjE6growToEiRKj = comdat any

$_ZN6Gluco26Solver14setDecisionVarEibb = comdat any

$_ZN6Gluco24sortINS_3LitEEEvRNS_3vecIT_EE = comdat any

$_ZN6Gluco23vecINS_3LitEE5clearEb = comdat any

$_ZNK6Gluco23vecINS_3LitEE4sizeEv = comdat any

$_ZN6Gluco23vecINS_3LitEE4pushERKS1_ = comdat any

$_ZN6Gluco23vecINS_3LitEEixEi = comdat any

$_ZNK6Gluco26Solver5valueENS_3LitE = comdat any

$_ZNK6Gluco25lbooleqES0_ = comdat any

$_ZNK6Gluco23LiteqES0_ = comdat any

$_ZN6Gluco2coENS_3LitE = comdat any

$_ZNK6Gluco25lboolneES0_ = comdat any

$_ZNK6Gluco23LitneES0_ = comdat any

$_ZN6Gluco23vecINS_3LitEE7shrink_Ei = comdat any

$_ZN6Gluco23varENS_3LitE = comdat any

$_ZN6Gluco24signENS_3LitE = comdat any

$_ZN6Gluco28OccListsINS_3LitENS_3vecINS_6Solver7WatcherEEENS3_14WatcherDeletedEEixERKS1_ = comdat any

$_ZNK6Gluco26ClauseixEi = comdat any

$_ZN6Gluco23vecINS_6Solver7WatcherEE4pushERKS2_ = comdat any

$_ZN6Gluco26Solver7WatcherC2EjNS_3LitE = comdat any

$_ZNK6Gluco26Clause6learntEv = comdat any

$_ZN6Gluco28OccListsINS_3LitENS_3vecINS_6Solver7WatcherEEENS3_14WatcherDeletedEE6smudgeERKS1_ = comdat any

$_ZN6Gluco26ClauseixEi = comdat any

$_ZNK6Gluco26Solver6lockedERKNS_6ClauseE = comdat any

$_ZN6Gluco23vecINS_6Solver7VarDataEEixEi = comdat any

$_ZN6Gluco26Clause4markEj = comdat any

$_ZN6Gluco215ClauseAllocator5free_Ej = comdat any

$_ZN6Gluco26Solver10computeLBDERKNS_3vecINS_3LitEEEi = comdat any

$_ZN6Gluco23vecIjEixEi = comdat any

$_ZNK6Gluco23vecINS_6Solver7WatcherEE4sizeEv = comdat any

$_ZN6Gluco23vecINS_6Solver7WatcherEEixEi = comdat any

$_ZNK6Gluco26Solver13decisionLevelEv = comdat any

$_ZN6Gluco23vecIiEixEi = comdat any

$_ZN6Gluco23vecINS_5lboolEEixEi = comdat any

$_ZN6Gluco23vecIiE4lastEv = comdat any

$_ZN6Gluco23vecIcEixEi = comdat any

$_ZN6Gluco23vecINS_6Solver8NodeDataEEixEi = comdat any

$_ZNK6Gluco26Solver5levelEi = comdat any

$_ZN6Gluco26Solver13pushJustQueueEii = comdat any

$_ZN6Gluco26Solver14insertVarOrderEi = comdat any

$_ZN6Gluco23vecIiE7shrink_Ei = comdat any

$_ZNK6Gluco23vecIiE4sizeEv = comdat any

$_ZNK6Gluco24HeapINS_6Solver10VarOrderLtEE5emptyEv = comdat any

$_ZNK6Gluco24HeapINS_6Solver10VarOrderLtEEixEi = comdat any

$_ZN6Gluco26Solver5irandERdi = comdat any

$_ZNK6Gluco24HeapINS_6Solver10VarOrderLtEE4sizeEv = comdat any

$_ZNK6Gluco26Solver5valueEi = comdat any

$_ZN6Gluco24HeapINS_6Solver10VarOrderLtEE9removeMinEv = comdat any

$_ZN6Gluco23vecINS_3LitEE4pushEv = comdat any

$_ZN6Gluco26Solver8castCRefENS_3LitE = comdat any

$_ZN6Gluco26Solver13getConfClauseEj = comdat any

$_ZN6Gluco26Solver15claBumpActivityERNS_6ClauseE = comdat any

$_ZNK6Gluco26Clause3lbdEv = comdat any

$_ZN6Gluco26Solver10computeLBDERKNS_6ClauseE = comdat any

$_ZN6Gluco26Clause11setCanBeDelEb = comdat any

$_ZN6Gluco26Clause6setLBDEi = comdat any

$_ZN6Gluco26Solver10isSelectorEi = comdat any

$_ZN6Gluco26Solver15varBumpActivityEi = comdat any

$_ZNK6Gluco26Solver6reasonEi = comdat any

$_ZNK6Gluco26Solver10isGateCRefEj = comdat any

$_ZNK6Gluco26Solver13abstractLevelEi = comdat any

$_ZNK6Gluco25Heap2INS_6Solver12JustOrderLt2ENS1_7JustKeyEE4sizeEv = comdat any

$_ZNK6Gluco25Heap2INS_6Solver12JustOrderLt2ENS1_7JustKeyEEixEi = comdat any

$_ZN6Gluco23vecIdEixEi = comdat any

$_ZNK6Gluco26Solver12getFaninVar1Ei = comdat any

$_ZNK6Gluco26Solver12getFaninVar0Ei = comdat any

$_ZN6Gluco25Heap2INS_6Solver12JustOrderLt2ENS1_7JustKeyEE6updateERKS3_ = comdat any

$_ZNK6Gluco25Heap2INS_6Solver12JustOrderLt2ENS1_7JustKeyEE9data_attrEi = comdat any

$_ZN6Gluco26Solver7JustKeyC2ERKdRKiS5_ = comdat any

$_ZN6Gluco26Solver18updateJustActivityEi = comdat any

$_ZN6Gluco23vecINS_3LitEE4lastEv = comdat any

$_ZN6Gluco23vecINS_3LitEE3popEv = comdat any

$_ZNK6Gluco26Solver12isRoundWatchEi = comdat any

$_ZN6Gluco25lboolC2Eb = comdat any

$_ZN6Gluco23vecINS_3LitEE5push_ERKS1_ = comdat any

$_ZN6Gluco28OccListsINS_3LitENS_3vecINS_6Solver7WatcherEEENS3_14WatcherDeletedEE8cleanAllEv = comdat any

$_ZN6Gluco26Solver13gatePropagateENS_3LitE = comdat any

$_ZN6Gluco23vecINS_6Solver7WatcherEEcvPS2_Ev = comdat any

$_ZN6Gluco23vecINS_6Solver7WatcherEE7shrink_Ei = comdat any

$_ZN6Gluco24sortIj11reduceDB_ltEEvRNS_3vecIT_EET0_ = comdat any

$_ZN11reduceDB_ltC2ERN6Gluco215ClauseAllocatorE = comdat any

$_ZNK6Gluco23vecIjE4sizeEv = comdat any

$_ZN6Gluco23vecIjE4lastEv = comdat any

$_ZN6Gluco26Clause8canBeDelEv = comdat any

$_ZN6Gluco23vecIjE7shrink_Ei = comdat any

$_ZN6Gluco26Solver12checkGarbageEv = comdat any

$_ZN6Gluco24HeapINS_6Solver10VarOrderLtEE5buildERNS_3vecIiEE = comdat any

$_ZNK6Gluco26Solver8nAssignsEv = comdat any

$_ZNK6Gluco26Solver12withinBudgetEv = comdat any

$_ZN6Gluco26bqueueIjE9fastclearEv = comdat any

$_ZNK6Gluco26Solver8nClausesEv = comdat any

$_ZNK6Gluco26Solver8nLearntsEv = comdat any

$_ZN6Gluco26bqueueIjE4pushEj = comdat any

$_ZNK6Gluco26bqueueIjE7isvalidEv = comdat any

$_ZNK6Gluco26bqueueIjE6getavgEv = comdat any

$_ZN6Gluco26Clause23setSizeWithoutSelectorsEj = comdat any

$_ZN6Gluco26Solver16varDecayActivityEv = comdat any

$_ZN6Gluco26Solver16claDecayActivityEv = comdat any

$_ZN6Gluco26Solver16newDecisionLevelEv = comdat any

$_ZN6Gluco26Solver11pickJustLitERi = comdat any

$_ZNK6Gluco23vecIiEixEi = comdat any

$_ZSt3powIdiEN9__gnu_cxx9__promoteIDTplcvNS1_IT_Xsr3std12__is_integerIS2_EE7__valueEE6__typeELi0EcvNS1_IT0_Xsr3std12__is_integerIS5_EE7__valueEE6__typeELi0EEXsr3std12__is_integerIS8_EE7__valueEE6__typeES2_S5_ = comdat any

$_ZN6Gluco26Solver13ResetJustDataEb = comdat any

$_ZNK6Gluco26bqueueIjE7maxSizeEv = comdat any

$_ZN6Gluco26Solver8loadJustEv = comdat any

$_ZNK6Gluco26Solver10isTwoFaninEi = comdat any

$_ZN6Gluco23vecINS_5lboolEE7shrink_Ei = comdat any

$_ZNK6Gluco23vecINS_5lboolEE4sizeEv = comdat any

$_ZN6Gluco23vecINS_5lboolEE6growToEi = comdat any

$_ZN6Gluco26Solver11setItpcSizeEi = comdat any

$_ZN6Gluco215ClauseAllocator5relocERjRS0_ = comdat any

$_ZNK6Gluco26Clause7relocedEv = comdat any

$_ZNK6Gluco215RegionAllocatorIjE4sizeEv = comdat any

$_ZNK6Gluco215RegionAllocatorIjE6wastedEv = comdat any

$_ZN6Gluco215ClauseAllocatorC2Ej = comdat any

$_ZN6Gluco215ClauseAllocator6moveToERS0_ = comdat any

$_ZN6Gluco28OccListsINS_3LitENS_3vecINS_6Solver7WatcherEEENS3_14WatcherDeletedEE5clearEb = comdat any

$_ZN6Gluco24HeapINS_6Solver10VarOrderLtEE5clearEb = comdat any

$_ZN6Gluco26bqueueIjE5clearEb = comdat any

$_ZN6Gluco23vecIjE5clearEb = comdat any

$_ZN6Gluco23vecIdE7shrink_Ei = comdat any

$_ZNK6Gluco23vecIdE4sizeEv = comdat any

$_ZN6Gluco23vecIcE7shrink_Ei = comdat any

$_ZNK6Gluco23vecIcE4sizeEv = comdat any

$_ZN6Gluco23vecINS_6Solver7VarDataEE7shrink_Ei = comdat any

$_ZNK6Gluco23vecINS_6Solver7VarDataEE4sizeEv = comdat any

$_ZN6Gluco215RegionAllocatorIjE5clearEv = comdat any

$_ZN6Gluco23vecIiE5clearEb = comdat any

$_ZN6Gluco23vecINS_6Solver8NodeDataEE7shrink_Ei = comdat any

$_ZNK6Gluco23vecINS_6Solver8NodeDataEE4sizeEv = comdat any

$_ZN6Gluco26OptionC2EPKcS2_S2_S2_ = comdat any

$_ZN6Gluco210BoolOptionD0Ev = comdat any

$_ZN6Gluco210BoolOption5parseEPKc = comdat any

$_ZN6Gluco210BoolOption4helpEb = comdat any

$_ZN6Gluco26Option13getOptionListEv = comdat any

$_ZN6Gluco23vecIPNS_6OptionEE4pushERKS2_ = comdat any

$_ZN6Gluco26OptionD0Ev = comdat any

$_ZN6Gluco23vecIPNS_6OptionEEC2Ev = comdat any

$_ZN6Gluco23vecIPNS_6OptionEED2Ev = comdat any

$_ZN6Gluco23vecIPNS_6OptionEE5clearEb = comdat any

$_ZN6Gluco23vecIPNS_6OptionEE8capacityEi = comdat any

$_ZN6Gluco23vecIPNS_6OptionEE4imaxEii = comdat any

$_ZN6Gluco212DoubleOptionD0Ev = comdat any

$_ZN6Gluco212DoubleOption5parseEPKc = comdat any

$_ZN6Gluco212DoubleOption4helpEb = comdat any

$_ZN6Gluco29IntOptionD0Ev = comdat any

$_ZN6Gluco29IntOption5parseEPKc = comdat any

$_ZN6Gluco29IntOption4helpEb = comdat any

$_ZN6Gluco212StringOptionD0Ev = comdat any

$_ZN6Gluco212StringOption5parseEPKc = comdat any

$_ZN6Gluco212StringOption4helpEb = comdat any

$_ZN6Gluco215RegionAllocatorIjEC2Ej = comdat any

$_ZN6Gluco215RegionAllocatorIjE8capacityEj = comdat any

$_ZN6Gluco215RegionAllocatorIjEixEj = comdat any

$_ZN6Gluco23vecINS_6Solver7JustKeyEED2Ev = comdat any

$_ZN6Gluco23vecINS_6Solver7JustKeyEE5clearEb = comdat any

$_ZN6Gluco23vecINS0_INS_6Solver7WatcherEEEED2Ev = comdat any

$_ZN6Gluco23vecINS0_INS_6Solver7WatcherEEEE5clearEb = comdat any

$_ZN6Gluco23vecINS_6Solver7WatcherEED2Ev = comdat any

$_ZN6Gluco23vecINS_6Solver7WatcherEE5clearEb = comdat any

$_ZNK6Gluco23vecINS_5lboolEEixEi = comdat any

$_ZNK6Gluco25lbooleoEb = comdat any

$_ZNK6Gluco215ClauseAllocator3leaEj = comdat any

$_ZNK6Gluco215RegionAllocatorIjE3leaEj = comdat any

$_ZN6Gluco215RegionAllocatorIjE5free_Ei = comdat any

$_ZN6Gluco215ClauseAllocator16clauseWord32SizeEib = comdat any

$_ZNK6Gluco26Clause9has_extraEv = comdat any

$_ZNK6Gluco23vecINS_3LitEEixEi = comdat any

$_ZNK6Gluco23vecINS_6Solver7VarDataEEixEi = comdat any

$_ZNK6Gluco24HeapINS_6Solver10VarOrderLtEE6inHeapEi = comdat any

$_ZN6Gluco24HeapINS_6Solver10VarOrderLtEE6insertEi = comdat any

$_ZN6Gluco23vecIiE6growToEiRKi = comdat any

$_ZN6Gluco24HeapINS_6Solver10VarOrderLtEE11percolateUpEi = comdat any

$_ZN6Gluco23vecIiE8capacityEi = comdat any

$_ZN6Gluco23vecIiE4imaxEii = comdat any

$_ZN6Gluco24HeapINS_6Solver10VarOrderLtEE6parentEi = comdat any

$_ZNK6Gluco26Solver10VarOrderLtclEii = comdat any

$_ZNK6Gluco23vecIdEixEi = comdat any

$_ZNK6Gluco26Solver8CRef2VarEj = comdat any

$_ZN6Gluco26Solver9interpretEii = comdat any

$_ZN6Gluco25lboolC2Ev = comdat any

$_ZNK6Gluco26Solver10getFaninC0Ei = comdat any

$_ZNK6Gluco26Solver10getFaninC1Ei = comdat any

$_ZNK6Gluco26Solver5isANDEi = comdat any

$_ZNK6Gluco26Solver12getFaninLit1Ei = comdat any

$_ZNK6Gluco26Solver12getFaninLit0Ei = comdat any

$_ZNK6Gluco23vecINS_6Solver8NodeDataEEixEi = comdat any

$_ZN6Gluco26Clause8activityEv = comdat any

$_ZNK6Gluco26Clause20sizeWithoutSelectorsEv = comdat any

$_ZN6Gluco26Solver15varBumpActivityEid = comdat any

$_ZN6Gluco24HeapINS_6Solver10VarOrderLtEE8decreaseEi = comdat any

$_ZN6Gluco26Solver12inplace_sortEi = comdat any

$_ZNK6Gluco25Heap2INS_6Solver12JustOrderLt2ENS1_7JustKeyEE6inHeapEi = comdat any

$_ZN6Gluco25toIntENS_3LitE = comdat any

$_ZNK6Gluco23vecIjEixEi = comdat any

$_ZN6Gluco26Solver22gatePropagateCheckThisEi = comdat any

$_ZN6Gluco26Solver24gatePropagateCheckFanoutEiNS_3LitE = comdat any

$_ZNK6Gluco26Solver8Var2CRefEi = comdat any

$_ZN6Gluco26Solver17uncheckedEnqueue2ENS_3LitEj = comdat any

$_ZN6Gluco2eoENS_3LitEb = comdat any

$_ZN6Gluco26Solver12checkGarbageEd = comdat any

$_ZNK6Gluco26Solver9isJReasonEi = comdat any

$_ZNK6Gluco25Heap2INS_6Solver12JustOrderLt2ENS1_7JustKeyEE5emptyEv = comdat any

$_ZN6Gluco25Heap2INS_6Solver12JustOrderLt2ENS1_7JustKeyEE9removeMinERi = comdat any

$_ZNK6Gluco26Solver13gateJustFaninEi = comdat any

$_ZN6Gluco26Solver13gateAddJwatchEii = comdat any

$_ZNK6Gluco23vecINS_6Solver7JustKeyEE4sizeEv = comdat any

$_ZN6Gluco23vecINS_6Solver7JustKeyEEixEi = comdat any

$_ZN6Gluco23vecINS_6Solver7JustKeyEE4lastEv = comdat any

$_ZNK6Gluco26Solver7JustKey4dataEv = comdat any

$_ZN6Gluco23vecINS_6Solver7JustKeyEE3popEv = comdat any

$_ZN6Gluco25Heap2INS_6Solver12JustOrderLt2ENS1_7JustKeyEE13percolateDownEi = comdat any

$_ZNK6Gluco26Solver7JustKey4attrEv = comdat any

$_ZN6Gluco25Heap2INS_6Solver12JustOrderLt2ENS1_7JustKeyEE4leftEi = comdat any

$_ZN6Gluco25Heap2INS_6Solver12JustOrderLt2ENS1_7JustKeyEE5rightEi = comdat any

$_ZNK6Gluco26Solver12JustOrderLt2clERKNS0_7JustKeyES4_ = comdat any

$_ZNK6Gluco25Heap2INS_6Solver12JustOrderLt2ENS1_7JustKeyEE4dataEi = comdat any

$_ZNK6Gluco26Solver7JustKey3keyEv = comdat any

$_ZNK6Gluco23vecINS_6Solver7JustKeyEEixEi = comdat any

$_ZNK6Gluco26Solver12maxActiveLitENS_3LitES1_ = comdat any

$_ZNK6Gluco26Solver12getFaninPlt0Ei = comdat any

$_ZNK6Gluco26Solver12getFaninPlt1Ei = comdat any

$_ZNK6Gluco23vecIcEixEi = comdat any

$_ZN6Gluco26Solver9addJwatchEiii = comdat any

$_ZN6Gluco25Heap2INS_6Solver12JustOrderLt2ENS1_7JustKeyEE6clear_Eb = comdat any

$_ZN6Gluco23vecINS_6Solver7JustKeyEE7shrink_Ei = comdat any

$_ZN6Gluco26Solver12loadJust_recEi = comdat any

$_ZNK6Gluco26Clause10relocationEv = comdat any

$_ZN6Gluco215ClauseAllocator5allocINS_6ClauseEEEjRKT_b = comdat any

$_ZN6Gluco26Clause8relocateEj = comdat any

$_ZNK6Gluco26Clause4markEv = comdat any

$_ZN6Gluco26Clause15calcAbstractionEv = comdat any

$_ZN6Gluco215RegionAllocatorIjE5allocEi = comdat any

$_ZN6Gluco215ClauseAllocator3leaEj = comdat any

$_ZN6Gluco26ClauseC2IS0_EERKT_bb = comdat any

$_ZN6Gluco215RegionAllocatorIjE3leaEj = comdat any

$_ZN6Gluco215RegionAllocatorIjE6moveToERS1_ = comdat any

$_ZN6Gluco25Heap2INS_6Solver12JustOrderLt2ENS1_7JustKeyEE6insertERKS3_ = comdat any

$_ZN6Gluco25Heap2INS_6Solver12JustOrderLt2ENS1_7JustKeyEE11percolateUpEi = comdat any

$_ZN6Gluco23vecINS_6Solver7JustKeyEE4pushERKS2_ = comdat any

$_ZN6Gluco23vecINS_6Solver7JustKeyEE8capacityEi = comdat any

$_ZN6Gluco23vecINS_6Solver7JustKeyEE4imaxEii = comdat any

$_ZN6Gluco25Heap2INS_6Solver12JustOrderLt2ENS1_7JustKeyEE6parentEi = comdat any

$_ZN6Gluco23vecINS0_INS_6Solver7WatcherEEEEC2Ev = comdat any

$_ZN6Gluco23vecINS_6Solver7JustKeyEEC2Ev = comdat any

$_ZN6Gluco23vecINS_5lboolEE5clearEb = comdat any

$_ZN6Gluco23vecIdE5clearEb = comdat any

$_ZN6Gluco23vecIcE5clearEb = comdat any

$_ZN6Gluco23vecINS_6Solver7VarDataEE5clearEb = comdat any

$_ZN6Gluco23vecINS_6Solver8NodeDataEE5clearEb = comdat any

$_ZN6Gluco26bqueueIjE6growToEi = comdat any

$_ZN6Gluco23vecIjE6growToEi = comdat any

$_ZN6Gluco23vecIjE8capacityEi = comdat any

$_ZN6Gluco23vecIjE4imaxEii = comdat any

$_ZN6Gluco26ClauseC2INS_3vecINS_3LitEEEEERKT_bb = comdat any

$_ZN6Gluco23vecINS0_INS_6Solver7WatcherEEEE6growToEi = comdat any

$_ZN6Gluco23vecIcE6growToEiRKc = comdat any

$_ZN6Gluco23vecINS0_INS_6Solver7WatcherEEEE8capacityEi = comdat any

$_ZN6Gluco23vecINS_6Solver7WatcherEEC2Ev = comdat any

$_ZN6Gluco23vecINS0_INS_6Solver7WatcherEEEE4imaxEii = comdat any

$_ZN6Gluco23vecIcE8capacityEi = comdat any

$_ZN6Gluco23vecIcE4imaxEii = comdat any

$_ZN6Gluco23vecINS_5lboolEE8capacityEi = comdat any

$_ZN6Gluco23vecINS_5lboolEE4imaxEii = comdat any

$_ZN6Gluco23vecINS_6Solver7VarDataEE8capacityEi = comdat any

$_ZN6Gluco23vecINS_6Solver7VarDataEE4imaxEii = comdat any

$_ZN6Gluco23vecIdE8capacityEi = comdat any

$_ZN6Gluco23vecIdE4imaxEii = comdat any

$_ZN6Gluco23vecINS_3LitEE4imaxEii = comdat any

$_ZN6Gluco23vecINS_6Solver8NodeDataEE8capacityEi = comdat any

$_ZN6Gluco23vecINS_6Solver8NodeDataEE4imaxEii = comdat any

$_ZN6Gluco24sortINS_3LitENS_16LessThan_defaultIS1_EEEEvRNS_3vecIT_EET0_ = comdat any

$_ZN6Gluco24sortINS_3LitENS_16LessThan_defaultIS1_EEEEvPT_iT0_ = comdat any

$_ZN6Gluco23vecINS_3LitEEcvPS1_Ev = comdat any

$_ZN6Gluco213selectionSortINS_3LitENS_16LessThan_defaultIS1_EEEEvPT_iT0_ = comdat any

$_ZN6Gluco216LessThan_defaultINS_3LitEEclES1_S1_ = comdat any

$_ZNK6Gluco23LitltES0_ = comdat any

$_ZN6Gluco23vecINS0_INS_6Solver7WatcherEEEEixEi = comdat any

$_ZN6Gluco23vecINS_6Solver7WatcherEE8capacityEi = comdat any

$_ZN6Gluco23vecINS_6Solver7WatcherEE4imaxEii = comdat any

$_ZNK6Gluco26Solver7WatcherneERKS1_ = comdat any

$_ZN6Gluco23vecINS_6Solver7WatcherEE3popEv = comdat any

$_ZN6Gluco23vecIiE3popEv = comdat any

$_ZN6Gluco24HeapINS_6Solver10VarOrderLtEE13percolateDownEi = comdat any

$_ZN6Gluco24HeapINS_6Solver10VarOrderLtEE4leftEi = comdat any

$_ZN6Gluco24HeapINS_6Solver10VarOrderLtEE5rightEi = comdat any

$_ZN6Gluco28OccListsINS_3LitENS_3vecINS_6Solver7WatcherEEENS3_14WatcherDeletedEE5cleanERKS1_ = comdat any

$_ZNK6Gluco26Solver14WatcherDeletedclERKNS0_7WatcherE = comdat any

$_ZNK6Gluco215ClauseAllocatorixEj = comdat any

$_ZNK6Gluco215RegionAllocatorIjEixEj = comdat any

$_ZN6Gluco24sortIj11reduceDB_ltEEvPT_iT0_ = comdat any

$_ZN6Gluco23vecIjEcvPjEv = comdat any

$_ZN6Gluco213selectionSortIj11reduceDB_ltEEvPT_iT0_ = comdat any

$_ZN11reduceDB_ltclEjj = comdat any

$_ZN6Gluco23vecINS0_INS_6Solver7WatcherEEEE6shrinkEi = comdat any

$_ZNK6Gluco23vecINS0_INS_6Solver7WatcherEEEE4sizeEv = comdat any

$_ZTVN6Gluco210BoolOptionE = comdat any

$_ZTIN6Gluco210BoolOptionE = comdat any

$_ZTSN6Gluco210BoolOptionE = comdat any

$_ZTIN6Gluco26OptionE = comdat any

$_ZTSN6Gluco26OptionE = comdat any

$_ZTVN6Gluco26OptionE = comdat any

$_ZZN6Gluco26Option13getOptionListEvE7options = comdat any

$_ZGVZN6Gluco26Option13getOptionListEvE7options = comdat any

$_ZTVN6Gluco212DoubleOptionE = comdat any

$_ZTIN6Gluco212DoubleOptionE = comdat any

$_ZTSN6Gluco212DoubleOptionE = comdat any

$_ZTVN6Gluco29IntOptionE = comdat any

$_ZTIN6Gluco29IntOptionE = comdat any

$_ZTSN6Gluco29IntOptionE = comdat any

$_ZTVN6Gluco212StringOptionE = comdat any

$_ZTIN6Gluco212StringOptionE = comdat any

$_ZTSN6Gluco212StringOptionE = comdat any

@_ZN6Gluco2L15opt_incrementalE = internal global %"class.Gluco2::BoolOption" zeroinitializer, align 8
@_ZN6Gluco2L4_catE = internal global ptr @.str.107, align 8
@.str = private unnamed_addr constant [12 x i8] c"incremental\00", align 1
@.str.1 = private unnamed_addr constant [28 x i8] c"Use incremental SAT solving\00", align 1
@__dso_handle = external hidden global i8
@_ZN6Gluco2L5opt_KE = internal global %"class.Gluco2::DoubleOption" zeroinitializer, align 8
@_ZN6Gluco2L3_crE = internal global ptr @.str.118, align 8
@.str.3 = private unnamed_addr constant [2 x i8] c"K\00", align 1
@.str.4 = private unnamed_addr constant [35 x i8] c"The constant used to force restart\00", align 1
@_ZN6Gluco2L5opt_RE = internal global %"class.Gluco2::DoubleOption" zeroinitializer, align 8
@.str.6 = private unnamed_addr constant [2 x i8] c"R\00", align 1
@.str.7 = private unnamed_addr constant [35 x i8] c"The constant used to block restart\00", align 1
@_ZN6Gluco2L18opt_size_lbd_queueE = internal global %"class.Gluco2::IntOption" zeroinitializer, align 8
@.str.9 = private unnamed_addr constant [11 x i8] c"szLBDQueue\00", align 1
@.str.10 = private unnamed_addr constant [46 x i8] c"The size of moving average for LBD (restarts)\00", align 1
@_ZN6Gluco2L20opt_size_trail_queueE = internal global %"class.Gluco2::IntOption" zeroinitializer, align 8
@.str.12 = private unnamed_addr constant [13 x i8] c"szTrailQueue\00", align 1
@.str.13 = private unnamed_addr constant [54 x i8] c"The size of moving average for trail (block restarts)\00", align 1
@_ZN6Gluco2L19opt_first_reduce_dbE = internal global %"class.Gluco2::IntOption" zeroinitializer, align 8
@_ZN6Gluco2L5_credE = internal global ptr @.str.131, align 8
@.str.15 = private unnamed_addr constant [14 x i8] c"firstReduceDB\00", align 1
@.str.16 = private unnamed_addr constant [51 x i8] c"The number of conflicts before the first reduce DB\00", align 1
@_ZN6Gluco2L17opt_inc_reduce_dbE = internal global %"class.Gluco2::IntOption" zeroinitializer, align 8
@.str.18 = private unnamed_addr constant [12 x i8] c"incReduceDB\00", align 1
@.str.19 = private unnamed_addr constant [24 x i8] c"Increment for reduce DB\00", align 1
@_ZN6Gluco2L22opt_spec_inc_reduce_dbE = internal global %"class.Gluco2::IntOption" zeroinitializer, align 8
@.str.21 = private unnamed_addr constant [19 x i8] c"specialIncReduceDB\00", align 1
@.str.22 = private unnamed_addr constant [32 x i8] c"Special increment for reduce DB\00", align 1
@_ZN6Gluco2L24opt_lb_lbd_frozen_clauseE = internal global %"class.Gluco2::IntOption" zeroinitializer, align 8
@.str.24 = private unnamed_addr constant [19 x i8] c"minLBDFrozenClause\00", align 1
@.str.25 = private unnamed_addr constant [71 x i8] c"Protect clauses if their LBD decrease and is lower than (for one turn)\00", align 1
@_ZN6Gluco2L28opt_lb_size_minimzing_clauseE = internal global %"class.Gluco2::IntOption" zeroinitializer, align 8
@_ZN6Gluco2L3_cmE = internal global ptr @.str.132, align 8
@.str.27 = private unnamed_addr constant [24 x i8] c"minSizeMinimizingClause\00", align 1
@.str.28 = private unnamed_addr constant [41 x i8] c"The min size required to minimize clause\00", align 1
@_ZN6Gluco2L27opt_lb_lbd_minimzing_clauseE = internal global %"class.Gluco2::IntOption" zeroinitializer, align 8
@.str.30 = private unnamed_addr constant [23 x i8] c"minLBDMinimizingClause\00", align 1
@.str.31 = private unnamed_addr constant [40 x i8] c"The min LBD required to minimize clause\00", align 1
@_ZN6Gluco2L13opt_var_decayE = internal global %"class.Gluco2::DoubleOption" zeroinitializer, align 8
@.str.33 = private unnamed_addr constant [10 x i8] c"var-decay\00", align 1
@.str.34 = private unnamed_addr constant [35 x i8] c"The variable activity decay factor\00", align 1
@_ZN6Gluco2L16opt_clause_decayE = internal global %"class.Gluco2::DoubleOption" zeroinitializer, align 8
@.str.36 = private unnamed_addr constant [10 x i8] c"cla-decay\00", align 1
@.str.37 = private unnamed_addr constant [33 x i8] c"The clause activity decay factor\00", align 1
@_ZN6Gluco2L19opt_random_var_freqE = internal global %"class.Gluco2::DoubleOption" zeroinitializer, align 8
@.str.39 = private unnamed_addr constant [9 x i8] c"rnd-freq\00", align 1
@.str.40 = private unnamed_addr constant [82 x i8] c"The frequency with which the decision heuristic tries to choose a random variable\00", align 1
@_ZN6Gluco2L15opt_random_seedE = internal global %"class.Gluco2::DoubleOption" zeroinitializer, align 8
@.str.42 = private unnamed_addr constant [9 x i8] c"rnd-seed\00", align 1
@.str.43 = private unnamed_addr constant [38 x i8] c"Used by the random variable selection\00", align 1
@_ZN6Gluco2L14opt_ccmin_modeE = internal global %"class.Gluco2::IntOption" zeroinitializer, align 8
@.str.45 = private unnamed_addr constant [11 x i8] c"ccmin-mode\00", align 1
@.str.46 = private unnamed_addr constant [64 x i8] c"Controls conflict clause minimization (0=none, 1=basic, 2=deep)\00", align 1
@_ZN6Gluco2L16opt_phase_savingE = internal global %"class.Gluco2::IntOption" zeroinitializer, align 8
@.str.48 = private unnamed_addr constant [13 x i8] c"phase-saving\00", align 1
@.str.49 = private unnamed_addr constant [63 x i8] c"Controls the level of phase saving (0=none, 1=limited, 2=full)\00", align 1
@_ZN6Gluco2L16opt_rnd_init_actE = internal global %"class.Gluco2::BoolOption" zeroinitializer, align 8
@.str.51 = private unnamed_addr constant [9 x i8] c"rnd-init\00", align 1
@.str.52 = private unnamed_addr constant [31 x i8] c"Randomize the initial activity\00", align 1
@_ZN6Gluco2L16opt_garbage_fracE = internal global %"class.Gluco2::DoubleOption" zeroinitializer, align 8
@.str.54 = private unnamed_addr constant [8 x i8] c"gc-frac\00", align 1
@.str.55 = private unnamed_addr constant [79 x i8] c"The fraction of wasted memory allowed before a garbage collection is triggered\00", align 1
@_ZN6Gluco214opt_certified_E = global %"class.Gluco2::BoolOption" zeroinitializer, align 8
@_ZN6Gluco2L10_certifiedE = internal global ptr @.str.133, align 8
@.str.57 = private unnamed_addr constant [10 x i8] c"certified\00", align 1
@.str.58 = private unnamed_addr constant [34 x i8] c"Certified UNSAT using DRUP format\00", align 1
@_ZN6Gluco219opt_certified_file_E = global %"class.Gluco2::StringOption" zeroinitializer, align 8
@.str.60 = private unnamed_addr constant [17 x i8] c"certified-output\00", align 1
@.str.61 = private unnamed_addr constant [28 x i8] c"Certified UNSAT output file\00", align 1
@.str.62 = private unnamed_addr constant [5 x i8] c"NULL\00", align 1
@_ZTVN6Gluco26SolverE = unnamed_addr constant { [6 x ptr] } { [6 x ptr] [ptr null, ptr @_ZTIN6Gluco26SolverE, ptr @_ZN6Gluco26SolverD1Ev, ptr @_ZN6Gluco26SolverD0Ev, ptr @_ZN6Gluco26Solver5resetEv, ptr @_ZN6Gluco26Solver14garbageCollectEv] }, align 8
@.str.63 = private unnamed_addr constant [12 x i8] c"/dev/stdout\00", align 1
@.str.64 = private unnamed_addr constant [3 x i8] c"wb\00", align 1
@_ZN6Gluco2L9lit_UndefE = internal constant %"struct.Gluco2::Lit" { i32 -2 }, align 4
@.str.65 = private unnamed_addr constant [4 x i8] c"%i \00", align 1
@.str.66 = private unnamed_addr constant [3 x i8] c"0\0A\00", align 1
@.str.67 = private unnamed_addr constant [3 x i8] c"d \00", align 1
@__const._ZN6Gluco26Solver7analyzeEjRNS_3vecINS_3LitEEES4_RiRjS6_.p = private unnamed_addr constant %"struct.Gluco2::Lit" { i32 -2 }, align 4
@.str.68 = private unnamed_addr constant [68 x i8] c"c | %8d   %7d    %5d | %7d %8d %8d | %5d %8d   %6d %8d | %6.3f %% \0A\00", align 1
@__const._ZN6Gluco26Solver6searchEi.next = private unnamed_addr constant %"struct.Gluco2::Lit" { i32 -2 }, align 4
@.str.69 = private unnamed_addr constant [53 x i8] c"c---------- Glucose Stats -------------------------\0A\00", align 1
@.str.70 = private unnamed_addr constant [31 x i8] c"c restarts              : %ld\0A\00", align 1
@.str.71 = private unnamed_addr constant [31 x i8] c"c nb ReduceDB           : %ld\0A\00", align 1
@.str.72 = private unnamed_addr constant [31 x i8] c"c nb removed Clauses    : %ld\0A\00", align 1
@.str.73 = private unnamed_addr constant [31 x i8] c"c nb learnts DL2        : %ld\0A\00", align 1
@.str.74 = private unnamed_addr constant [31 x i8] c"c nb learnts size 2     : %ld\0A\00", align 1
@.str.75 = private unnamed_addr constant [31 x i8] c"c nb learnts size 1     : %ld\0A\00", align 1
@.str.76 = private unnamed_addr constant [31 x i8] c"c conflicts             : %ld\0A\00", align 1
@.str.77 = private unnamed_addr constant [31 x i8] c"c decisions             : %ld\0A\00", align 1
@.str.78 = private unnamed_addr constant [31 x i8] c"c propagations          : %ld\0A\00", align 1
@.str.79 = private unnamed_addr constant [44 x i8] c"c SAT Calls             : %d in %g seconds\0A\00", align 1
@.str.80 = private unnamed_addr constant [44 x i8] c"c UNSAT Calls           : %d in %g seconds\0A\00", align 1
@.str.81 = private unnamed_addr constant [53 x i8] c"c--------------------------------------------------\0A\00", align 1
@.str.82 = private unnamed_addr constant [62 x i8] c"Can not use incremental and certified unsat in the same time\0A\00", align 1
@.str.83 = private unnamed_addr constant [109 x i8] c"c ========================================[ MAGIC CONSTANTS ]==============================================\0A\00", align 1
@.str.84 = private unnamed_addr constant [109 x i8] c"c | Constants are supposed to work well together :-)                                                      |\0A\00", align 1
@.str.85 = private unnamed_addr constant [109 x i8] c"c | however, if you find better choices, please let us known...                                           |\0A\00", align 1
@.str.86 = private unnamed_addr constant [109 x i8] c"c |-------------------------------------------------------------------------------------------------------|\0A\00", align 1
@.str.87 = private unnamed_addr constant [109 x i8] c"c |                                |                                |                                     |\0A\00", align 1
@.str.88 = private unnamed_addr constant [109 x i8] c"c | - Restarts:                    | - Reduce Clause DB:            | - Minimize Asserting:               |\0A\00", align 1
@.str.89 = private unnamed_addr constant [103 x i8] c"c |   * LBD Queue    : %6d      |   * First     : %6d         |    * size < %3d                     |\0A\00", align 1
@.str.90 = private unnamed_addr constant [103 x i8] c"c |   * Trail  Queue : %6d      |   * Inc       : %6d         |    * lbd  < %3d                     |\0A\00", align 1
@.str.91 = private unnamed_addr constant [105 x i8] c"c |   * K            : %6.2f      |   * Special   : %6d         |                                     |\0A\00", align 1
@.str.92 = private unnamed_addr constant [109 x i8] c"c |   * R            : %6.2f      |   * Protected :  (lbd)< %2d     |                                     |\0A\00", align 1
@.str.93 = private unnamed_addr constant [106 x i8] c"c ==================================[ Search Statistics (every %6d conflicts) ]=========================\0A\00", align 1
@.str.94 = private unnamed_addr constant [109 x i8] c"c |                                                                                                       |\0A\00", align 1
@.str.95 = private unnamed_addr constant [109 x i8] c"c |          RESTARTS           |          ORIGINAL         |              LEARNT              | Progress |\0A\00", align 1
@.str.96 = private unnamed_addr constant [123 x i8] c"c |       NB   Blocked  Avg Cfc |    Vars  Clauses Literals |   Red   Learnts    LBD2  Removed |          | pol-inconsist\0A\00", align 1
@.str.97 = private unnamed_addr constant [109 x i8] c"c =========================================================================================================\0A\00", align 1
@.str.98 = private unnamed_addr constant [6 x i8] c"%s%d \00", align 1
@.str.99 = private unnamed_addr constant [2 x i8] c"-\00", align 1
@.str.100 = private unnamed_addr constant [1 x i8] zeroinitializer, align 1
@stderr = external global ptr, align 8
@.str.101 = private unnamed_addr constant [24 x i8] c"could not open file %s\0A\00", align 1
@.str.102 = private unnamed_addr constant [20 x i8] c"p cnf 1 2\0A1 0\0A-1 0\0A\00", align 1
@.str.103 = private unnamed_addr constant [13 x i8] c"p cnf %d %d\0A\00", align 1
@.str.104 = private unnamed_addr constant [8 x i8] c"%s%d 0\0A\00", align 1
@.str.105 = private unnamed_addr constant [37 x i8] c"Wrote %d clauses with %d variables.\0A\00", align 1
@.str.106 = private unnamed_addr constant [65 x i8] c"|  Garbage collection:   %12d bytes => %12d bytes             |\0A\00", align 1
@_ZTIN6Gluco26SolverE = constant { ptr, ptr } { ptr getelementptr inbounds (ptr, ptr @_ZTVN10__cxxabiv117__class_type_infoE, i64 2), ptr @_ZTSN6Gluco26SolverE }, align 8
@_ZTVN10__cxxabiv117__class_type_infoE = external global [0 x ptr]
@_ZTSN6Gluco26SolverE = constant [17 x i8] c"N6Gluco26SolverE\00", align 1
@.str.107 = private unnamed_addr constant [5 x i8] c"CORE\00", align 1
@.str.108 = private unnamed_addr constant [7 x i8] c"<bool>\00", align 1
@_ZTVN6Gluco210BoolOptionE = linkonce_odr unnamed_addr constant { [6 x ptr] } { [6 x ptr] [ptr null, ptr @_ZTIN6Gluco210BoolOptionE, ptr @_ZN6Gluco26OptionD2Ev, ptr @_ZN6Gluco210BoolOptionD0Ev, ptr @_ZN6Gluco210BoolOption5parseEPKc, ptr @_ZN6Gluco210BoolOption4helpEb] }, comdat, align 8
@_ZTIN6Gluco210BoolOptionE = linkonce_odr constant { ptr, ptr, ptr } { ptr getelementptr inbounds (ptr, ptr @_ZTVN10__cxxabiv120__si_class_type_infoE, i64 2), ptr @_ZTSN6Gluco210BoolOptionE, ptr @_ZTIN6Gluco26OptionE }, comdat, align 8
@_ZTVN10__cxxabiv120__si_class_type_infoE = external global [0 x ptr]
@_ZTSN6Gluco210BoolOptionE = linkonce_odr constant [22 x i8] c"N6Gluco210BoolOptionE\00", comdat, align 1
@_ZTIN6Gluco26OptionE = linkonce_odr constant { ptr, ptr } { ptr getelementptr inbounds (ptr, ptr @_ZTVN10__cxxabiv117__class_type_infoE, i64 2), ptr @_ZTSN6Gluco26OptionE }, comdat, align 8
@_ZTSN6Gluco26OptionE = linkonce_odr constant [17 x i8] c"N6Gluco26OptionE\00", comdat, align 1
@_ZTVN6Gluco26OptionE = linkonce_odr unnamed_addr constant { [6 x ptr] } { [6 x ptr] [ptr null, ptr @_ZTIN6Gluco26OptionE, ptr @_ZN6Gluco26OptionD2Ev, ptr @_ZN6Gluco26OptionD0Ev, ptr @__cxa_pure_virtual, ptr @__cxa_pure_virtual] }, comdat, align 8
@_ZZN6Gluco26Option13getOptionListEvE7options = linkonce_odr global %"class.Gluco2::vec.10" zeroinitializer, comdat, align 8
@_ZGVZN6Gluco26Option13getOptionListEvE7options = linkonce_odr global i64 0, comdat, align 8
@.str.109 = private unnamed_addr constant [15 x i8] c"Out of memory\0A\00", align 1
@.str.110 = private unnamed_addr constant [4 x i8] c"no-\00", align 1
@.str.111 = private unnamed_addr constant [14 x i8] c"  -%s, -no-%s\00", align 1
@.str.112 = private unnamed_addr constant [2 x i8] c" \00", align 1
@.str.113 = private unnamed_addr constant [15 x i8] c"(default: %s)\0A\00", align 1
@.str.114 = private unnamed_addr constant [3 x i8] c"on\00", align 1
@.str.115 = private unnamed_addr constant [4 x i8] c"off\00", align 1
@.str.116 = private unnamed_addr constant [13 x i8] c"\0A        %s\0A\00", align 1
@.str.117 = private unnamed_addr constant [2 x i8] c"\0A\00", align 1
@.str.118 = private unnamed_addr constant [16 x i8] c"CORE -- RESTART\00", align 1
@.str.119 = private unnamed_addr constant [9 x i8] c"<double>\00", align 1
@_ZTVN6Gluco212DoubleOptionE = linkonce_odr unnamed_addr constant { [6 x ptr] } { [6 x ptr] [ptr null, ptr @_ZTIN6Gluco212DoubleOptionE, ptr @_ZN6Gluco26OptionD2Ev, ptr @_ZN6Gluco212DoubleOptionD0Ev, ptr @_ZN6Gluco212DoubleOption5parseEPKc, ptr @_ZN6Gluco212DoubleOption4helpEb] }, comdat, align 8
@_ZTIN6Gluco212DoubleOptionE = linkonce_odr constant { ptr, ptr, ptr } { ptr getelementptr inbounds (ptr, ptr @_ZTVN10__cxxabiv120__si_class_type_infoE, i64 2), ptr @_ZTSN6Gluco212DoubleOptionE, ptr @_ZTIN6Gluco26OptionE }, comdat, align 8
@_ZTSN6Gluco212DoubleOptionE = linkonce_odr constant [24 x i8] c"N6Gluco212DoubleOptionE\00", comdat, align 1
@.str.120 = private unnamed_addr constant [2 x i8] c"=\00", align 1
@.str.121 = private unnamed_addr constant [49 x i8] c"ERROR! value <%s> is too large for option \22%s\22.\0A\00", align 1
@.str.122 = private unnamed_addr constant [49 x i8] c"ERROR! value <%s> is too small for option \22%s\22.\0A\00", align 1
@.str.123 = private unnamed_addr constant [50 x i8] c"  -%-12s = %-8s %c%4.2g .. %4.2g%c (default: %g)\0A\00", align 1
@.str.124 = private unnamed_addr constant [8 x i8] c"<int32>\00", align 1
@_ZTVN6Gluco29IntOptionE = linkonce_odr unnamed_addr constant { [6 x ptr] } { [6 x ptr] [ptr null, ptr @_ZTIN6Gluco29IntOptionE, ptr @_ZN6Gluco26OptionD2Ev, ptr @_ZN6Gluco29IntOptionD0Ev, ptr @_ZN6Gluco29IntOption5parseEPKc, ptr @_ZN6Gluco29IntOption4helpEb] }, comdat, align 8
@_ZTIN6Gluco29IntOptionE = linkonce_odr constant { ptr, ptr, ptr } { ptr getelementptr inbounds (ptr, ptr @_ZTVN10__cxxabiv120__si_class_type_infoE, i64 2), ptr @_ZTSN6Gluco29IntOptionE, ptr @_ZTIN6Gluco26OptionE }, comdat, align 8
@_ZTSN6Gluco29IntOptionE = linkonce_odr constant [20 x i8] c"N6Gluco29IntOptionE\00", comdat, align 1
@.str.125 = private unnamed_addr constant [18 x i8] c"  -%-12s = %-8s [\00", align 1
@.str.126 = private unnamed_addr constant [5 x i8] c"imin\00", align 1
@.str.127 = private unnamed_addr constant [4 x i8] c"%4d\00", align 1
@.str.128 = private unnamed_addr constant [5 x i8] c" .. \00", align 1
@.str.129 = private unnamed_addr constant [5 x i8] c"imax\00", align 1
@.str.130 = private unnamed_addr constant [17 x i8] c"] (default: %d)\0A\00", align 1
@.str.131 = private unnamed_addr constant [15 x i8] c"CORE -- REDUCE\00", align 1
@.str.132 = private unnamed_addr constant [17 x i8] c"CORE -- MINIMIZE\00", align 1
@.str.133 = private unnamed_addr constant [24 x i8] c"CORE -- CERTIFIED UNSAT\00", align 1
@.str.134 = private unnamed_addr constant [9 x i8] c"<string>\00", align 1
@_ZTVN6Gluco212StringOptionE = linkonce_odr unnamed_addr constant { [6 x ptr] } { [6 x ptr] [ptr null, ptr @_ZTIN6Gluco212StringOptionE, ptr @_ZN6Gluco26OptionD2Ev, ptr @_ZN6Gluco212StringOptionD0Ev, ptr @_ZN6Gluco212StringOption5parseEPKc, ptr @_ZN6Gluco212StringOption4helpEb] }, comdat, align 8
@_ZTIN6Gluco212StringOptionE = linkonce_odr constant { ptr, ptr, ptr } { ptr getelementptr inbounds (ptr, ptr @_ZTVN10__cxxabiv120__si_class_type_infoE, i64 2), ptr @_ZTSN6Gluco212StringOptionE, ptr @_ZTIN6Gluco26OptionE }, comdat, align 8
@_ZTSN6Gluco212StringOptionE = linkonce_odr constant [24 x i8] c"N6Gluco212StringOptionE\00", comdat, align 1
@.str.135 = private unnamed_addr constant [16 x i8] c"  -%-10s = %8s\0A\00", align 1
@__const._ZN6Gluco26Solver11pickJustLitERi.jlit = private unnamed_addr constant %"struct.Gluco2::Lit" { i32 -2 }, align 4
@llvm.global_ctors = appending global [1 x { i32, ptr, ptr }] [{ i32, ptr, ptr } { i32 65535, ptr @_GLOBAL__sub_I_Glucose2.cpp, ptr null }]

@_ZN6Gluco26SolverC1Ev = unnamed_addr alias void (ptr), ptr @_ZN6Gluco26SolverC2Ev
@_ZN6Gluco26SolverD1Ev = unnamed_addr alias void (ptr), ptr @_ZN6Gluco26SolverD2Ev

; Function Attrs: nounwind uwtable
define internal void @__cxx_global_var_init() #0 section ".text.startup" {
  %1 = load ptr, ptr @_ZN6Gluco2L4_catE, align 8, !tbaa !3
  call void @_ZN6Gluco210BoolOptionC2EPKcS2_S2_b(ptr noundef nonnull align 8 dereferenceable(41) @_ZN6Gluco2L15opt_incrementalE, ptr noundef %1, ptr noundef @.str, ptr noundef @.str.1, i1 noundef zeroext false)
  %2 = call i32 @__cxa_atexit(ptr @_ZN6Gluco26OptionD2Ev, ptr @_ZN6Gluco2L15opt_incrementalE, ptr @__dso_handle) #2
  ret void
}

; Function Attrs: mustprogress nounwind uwtable
define linkonce_odr void @_ZN6Gluco210BoolOptionC2EPKcS2_S2_b(ptr noundef nonnull align 8 dereferenceable(41) %0, ptr noundef %1, ptr noundef %2, ptr noundef %3, i1 noundef zeroext %4) unnamed_addr #1 comdat align 2 {
  %6 = alloca ptr, align 8
  %7 = alloca ptr, align 8
  %8 = alloca ptr, align 8
  %9 = alloca ptr, align 8
  %10 = alloca i8, align 1
  store ptr %0, ptr %6, align 8, !tbaa !8
  store ptr %1, ptr %7, align 8, !tbaa !3
  store ptr %2, ptr %8, align 8, !tbaa !3
  store ptr %3, ptr %9, align 8, !tbaa !3
  %11 = zext i1 %4 to i8
  store i8 %11, ptr %10, align 1, !tbaa !10
  %12 = load ptr, ptr %6, align 8
  %13 = load ptr, ptr %8, align 8, !tbaa !3
  %14 = load ptr, ptr %9, align 8, !tbaa !3
  %15 = load ptr, ptr %7, align 8, !tbaa !3
  call void @_ZN6Gluco26OptionC2EPKcS2_S2_S2_(ptr noundef nonnull align 8 dereferenceable(40) %12, ptr noundef %13, ptr noundef %14, ptr noundef %15, ptr noundef @.str.108)
  store ptr getelementptr inbounds inrange(-16, 32) ({ [6 x ptr] }, ptr @_ZTVN6Gluco210BoolOptionE, i32 0, i32 0, i32 2), ptr %12, align 8, !tbaa !12
  %16 = getelementptr inbounds nuw %"class.Gluco2::BoolOption", ptr %12, i32 0, i32 1
  %17 = load i8, ptr %10, align 1, !tbaa !10, !range !14, !noundef !15
  %18 = trunc i8 %17 to i1
  %19 = zext i1 %18 to i8
  store i8 %19, ptr %16, align 8, !tbaa !16
  ret void
}

; Function Attrs: nounwind
declare i32 @__cxa_atexit(ptr, ptr, ptr) #2

; Function Attrs: nounwind uwtable
define internal void @__cxx_global_var_init.2() #0 section ".text.startup" {
  %1 = alloca %"struct.Gluco2::DoubleRange", align 8
  %2 = load ptr, ptr @_ZN6Gluco2L3_crE, align 8, !tbaa !3
  call void @_ZN6Gluco211DoubleRangeC2Edbdb(ptr noundef nonnull align 8 dereferenceable(18) %1, double noundef 0.000000e+00, i1 noundef zeroext false, double noundef 1.000000e+00, i1 noundef zeroext false)
  call void @_ZN6Gluco212DoubleOptionC2EPKcS2_S2_dNS_11DoubleRangeE(ptr noundef nonnull align 8 dereferenceable(72) @_ZN6Gluco2L5opt_KE, ptr noundef %2, ptr noundef @.str.3, ptr noundef @.str.4, double noundef 8.000000e-01, ptr noundef byval(%"struct.Gluco2::DoubleRange") align 8 %1)
  %3 = call i32 @__cxa_atexit(ptr @_ZN6Gluco26OptionD2Ev, ptr @_ZN6Gluco2L5opt_KE, ptr @__dso_handle) #2
  ret void
}

; Function Attrs: mustprogress nounwind uwtable
define linkonce_odr void @_ZN6Gluco211DoubleRangeC2Edbdb(ptr noundef nonnull align 8 dereferenceable(18) %0, double noundef %1, i1 noundef zeroext %2, double noundef %3, i1 noundef zeroext %4) unnamed_addr #1 comdat align 2 {
  %6 = alloca ptr, align 8
  %7 = alloca double, align 8
  %8 = alloca i8, align 1
  %9 = alloca double, align 8
  %10 = alloca i8, align 1
  store ptr %0, ptr %6, align 8, !tbaa !19
  store double %1, ptr %7, align 8, !tbaa !21
  %11 = zext i1 %2 to i8
  store i8 %11, ptr %8, align 1, !tbaa !10
  store double %3, ptr %9, align 8, !tbaa !21
  %12 = zext i1 %4 to i8
  store i8 %12, ptr %10, align 1, !tbaa !10
  %13 = load ptr, ptr %6, align 8
  %14 = getelementptr inbounds nuw %"struct.Gluco2::DoubleRange", ptr %13, i32 0, i32 0
  %15 = load double, ptr %7, align 8, !tbaa !21
  store double %15, ptr %14, align 8, !tbaa !23
  %16 = getelementptr inbounds nuw %"struct.Gluco2::DoubleRange", ptr %13, i32 0, i32 1
  %17 = load double, ptr %9, align 8, !tbaa !21
  store double %17, ptr %16, align 8, !tbaa !25
  %18 = getelementptr inbounds nuw %"struct.Gluco2::DoubleRange", ptr %13, i32 0, i32 2
  %19 = load i8, ptr %8, align 1, !tbaa !10, !range !14, !noundef !15
  %20 = trunc i8 %19 to i1
  %21 = zext i1 %20 to i8
  store i8 %21, ptr %18, align 8, !tbaa !26
  %22 = getelementptr inbounds nuw %"struct.Gluco2::DoubleRange", ptr %13, i32 0, i32 3
  %23 = load i8, ptr %10, align 1, !tbaa !10, !range !14, !noundef !15
  %24 = trunc i8 %23 to i1
  %25 = zext i1 %24 to i8
  store i8 %25, ptr %22, align 1, !tbaa !27
  ret void
}

; Function Attrs: mustprogress nounwind uwtable
define linkonce_odr void @_ZN6Gluco212DoubleOptionC2EPKcS2_S2_dNS_11DoubleRangeE(ptr noundef nonnull align 8 dereferenceable(72) %0, ptr noundef %1, ptr noundef %2, ptr noundef %3, double noundef %4, ptr noundef byval(%"struct.Gluco2::DoubleRange") align 8 %5) unnamed_addr #1 comdat align 2 {
  %7 = alloca ptr, align 8
  %8 = alloca ptr, align 8
  %9 = alloca ptr, align 8
  %10 = alloca ptr, align 8
  %11 = alloca double, align 8
  store ptr %0, ptr %7, align 8, !tbaa !28
  store ptr %1, ptr %8, align 8, !tbaa !3
  store ptr %2, ptr %9, align 8, !tbaa !3
  store ptr %3, ptr %10, align 8, !tbaa !3
  store double %4, ptr %11, align 8, !tbaa !21
  %12 = load ptr, ptr %7, align 8
  %13 = load ptr, ptr %9, align 8, !tbaa !3
  %14 = load ptr, ptr %10, align 8, !tbaa !3
  %15 = load ptr, ptr %8, align 8, !tbaa !3
  call void @_ZN6Gluco26OptionC2EPKcS2_S2_S2_(ptr noundef nonnull align 8 dereferenceable(40) %12, ptr noundef %13, ptr noundef %14, ptr noundef %15, ptr noundef @.str.119)
  store ptr getelementptr inbounds inrange(-16, 32) ({ [6 x ptr] }, ptr @_ZTVN6Gluco212DoubleOptionE, i32 0, i32 0, i32 2), ptr %12, align 8, !tbaa !12
  %16 = getelementptr inbounds nuw %"class.Gluco2::DoubleOption", ptr %12, i32 0, i32 1
  call void @llvm.memcpy.p0.p0.i64(ptr align 8 %16, ptr align 8 %5, i64 24, i1 false), !tbaa.struct !30
  %17 = getelementptr inbounds nuw %"class.Gluco2::DoubleOption", ptr %12, i32 0, i32 2
  %18 = load double, ptr %11, align 8, !tbaa !21
  store double %18, ptr %17, align 8, !tbaa !31
  ret void
}

; Function Attrs: nounwind uwtable
define internal void @__cxx_global_var_init.5() #0 section ".text.startup" {
  %1 = alloca %"struct.Gluco2::DoubleRange", align 8
  %2 = load ptr, ptr @_ZN6Gluco2L3_crE, align 8, !tbaa !3
  call void @_ZN6Gluco211DoubleRangeC2Edbdb(ptr noundef nonnull align 8 dereferenceable(18) %1, double noundef 1.000000e+00, i1 noundef zeroext false, double noundef 5.000000e+00, i1 noundef zeroext false)
  call void @_ZN6Gluco212DoubleOptionC2EPKcS2_S2_dNS_11DoubleRangeE(ptr noundef nonnull align 8 dereferenceable(72) @_ZN6Gluco2L5opt_RE, ptr noundef %2, ptr noundef @.str.6, ptr noundef @.str.7, double noundef 1.400000e+00, ptr noundef byval(%"struct.Gluco2::DoubleRange") align 8 %1)
  %3 = call i32 @__cxa_atexit(ptr @_ZN6Gluco26OptionD2Ev, ptr @_ZN6Gluco2L5opt_RE, ptr @__dso_handle) #2
  ret void
}

; Function Attrs: nounwind uwtable
define internal void @__cxx_global_var_init.8() #0 section ".text.startup" {
  %1 = alloca %"struct.Gluco2::IntRange", align 4
  %2 = load ptr, ptr @_ZN6Gluco2L3_crE, align 8, !tbaa !3
  call void @_ZN6Gluco28IntRangeC2Eii(ptr noundef nonnull align 4 dereferenceable(8) %1, i32 noundef 10, i32 noundef 2147483647)
  %3 = load i64, ptr %1, align 4
  call void @_ZN6Gluco29IntOptionC2EPKcS2_S2_iNS_8IntRangeE(ptr noundef nonnull align 8 dereferenceable(52) @_ZN6Gluco2L18opt_size_lbd_queueE, ptr noundef %2, ptr noundef @.str.9, ptr noundef @.str.10, i32 noundef 50, i64 %3)
  %4 = call i32 @__cxa_atexit(ptr @_ZN6Gluco26OptionD2Ev, ptr @_ZN6Gluco2L18opt_size_lbd_queueE, ptr @__dso_handle) #2
  ret void
}

; Function Attrs: mustprogress nounwind uwtable
define linkonce_odr void @_ZN6Gluco28IntRangeC2Eii(ptr noundef nonnull align 4 dereferenceable(8) %0, i32 noundef %1, i32 noundef %2) unnamed_addr #1 comdat align 2 {
  %4 = alloca ptr, align 8
  %5 = alloca i32, align 4
  %6 = alloca i32, align 4
  store ptr %0, ptr %4, align 8, !tbaa !33
  store i32 %1, ptr %5, align 4, !tbaa !35
  store i32 %2, ptr %6, align 4, !tbaa !35
  %7 = load ptr, ptr %4, align 8
  %8 = getelementptr inbounds nuw %"struct.Gluco2::IntRange", ptr %7, i32 0, i32 0
  %9 = load i32, ptr %5, align 4, !tbaa !35
  store i32 %9, ptr %8, align 4, !tbaa !37
  %10 = getelementptr inbounds nuw %"struct.Gluco2::IntRange", ptr %7, i32 0, i32 1
  %11 = load i32, ptr %6, align 4, !tbaa !35
  store i32 %11, ptr %10, align 4, !tbaa !39
  ret void
}

; Function Attrs: mustprogress nounwind uwtable
define linkonce_odr void @_ZN6Gluco29IntOptionC2EPKcS2_S2_iNS_8IntRangeE(ptr noundef nonnull align 8 dereferenceable(52) %0, ptr noundef %1, ptr noundef %2, ptr noundef %3, i32 noundef %4, i64 %5) unnamed_addr #1 comdat align 2 {
  %7 = alloca %"struct.Gluco2::IntRange", align 4
  %8 = alloca ptr, align 8
  %9 = alloca ptr, align 8
  %10 = alloca ptr, align 8
  %11 = alloca ptr, align 8
  %12 = alloca i32, align 4
  store i64 %5, ptr %7, align 4
  store ptr %0, ptr %8, align 8, !tbaa !40
  store ptr %1, ptr %9, align 8, !tbaa !3
  store ptr %2, ptr %10, align 8, !tbaa !3
  store ptr %3, ptr %11, align 8, !tbaa !3
  store i32 %4, ptr %12, align 4, !tbaa !35
  %13 = load ptr, ptr %8, align 8
  %14 = load ptr, ptr %10, align 8, !tbaa !3
  %15 = load ptr, ptr %11, align 8, !tbaa !3
  %16 = load ptr, ptr %9, align 8, !tbaa !3
  call void @_ZN6Gluco26OptionC2EPKcS2_S2_S2_(ptr noundef nonnull align 8 dereferenceable(40) %13, ptr noundef %14, ptr noundef %15, ptr noundef %16, ptr noundef @.str.124)
  store ptr getelementptr inbounds inrange(-16, 32) ({ [6 x ptr] }, ptr @_ZTVN6Gluco29IntOptionE, i32 0, i32 0, i32 2), ptr %13, align 8, !tbaa !12
  %17 = getelementptr inbounds nuw %"class.Gluco2::IntOption", ptr %13, i32 0, i32 1
  call void @llvm.memcpy.p0.p0.i64(ptr align 8 %17, ptr align 4 %7, i64 8, i1 false), !tbaa.struct !42
  %18 = getelementptr inbounds nuw %"class.Gluco2::IntOption", ptr %13, i32 0, i32 2
  %19 = load i32, ptr %12, align 4, !tbaa !35
  store i32 %19, ptr %18, align 8, !tbaa !43
  ret void
}

; Function Attrs: nounwind uwtable
define internal void @__cxx_global_var_init.11() #0 section ".text.startup" {
  %1 = alloca %"struct.Gluco2::IntRange", align 4
  %2 = load ptr, ptr @_ZN6Gluco2L3_crE, align 8, !tbaa !3
  call void @_ZN6Gluco28IntRangeC2Eii(ptr noundef nonnull align 4 dereferenceable(8) %1, i32 noundef 10, i32 noundef 2147483647)
  %3 = load i64, ptr %1, align 4
  call void @_ZN6Gluco29IntOptionC2EPKcS2_S2_iNS_8IntRangeE(ptr noundef nonnull align 8 dereferenceable(52) @_ZN6Gluco2L20opt_size_trail_queueE, ptr noundef %2, ptr noundef @.str.12, ptr noundef @.str.13, i32 noundef 5000, i64 %3)
  %4 = call i32 @__cxa_atexit(ptr @_ZN6Gluco26OptionD2Ev, ptr @_ZN6Gluco2L20opt_size_trail_queueE, ptr @__dso_handle) #2
  ret void
}

; Function Attrs: nounwind uwtable
define internal void @__cxx_global_var_init.14() #0 section ".text.startup" {
  %1 = alloca %"struct.Gluco2::IntRange", align 4
  %2 = load ptr, ptr @_ZN6Gluco2L5_credE, align 8, !tbaa !3
  call void @_ZN6Gluco28IntRangeC2Eii(ptr noundef nonnull align 4 dereferenceable(8) %1, i32 noundef 0, i32 noundef 2147483647)
  %3 = load i64, ptr %1, align 4
  call void @_ZN6Gluco29IntOptionC2EPKcS2_S2_iNS_8IntRangeE(ptr noundef nonnull align 8 dereferenceable(52) @_ZN6Gluco2L19opt_first_reduce_dbE, ptr noundef %2, ptr noundef @.str.15, ptr noundef @.str.16, i32 noundef 2000, i64 %3)
  %4 = call i32 @__cxa_atexit(ptr @_ZN6Gluco26OptionD2Ev, ptr @_ZN6Gluco2L19opt_first_reduce_dbE, ptr @__dso_handle) #2
  ret void
}

; Function Attrs: nounwind uwtable
define internal void @__cxx_global_var_init.17() #0 section ".text.startup" {
  %1 = alloca %"struct.Gluco2::IntRange", align 4
  %2 = load ptr, ptr @_ZN6Gluco2L5_credE, align 8, !tbaa !3
  call void @_ZN6Gluco28IntRangeC2Eii(ptr noundef nonnull align 4 dereferenceable(8) %1, i32 noundef 0, i32 noundef 2147483647)
  %3 = load i64, ptr %1, align 4
  call void @_ZN6Gluco29IntOptionC2EPKcS2_S2_iNS_8IntRangeE(ptr noundef nonnull align 8 dereferenceable(52) @_ZN6Gluco2L17opt_inc_reduce_dbE, ptr noundef %2, ptr noundef @.str.18, ptr noundef @.str.19, i32 noundef 300, i64 %3)
  %4 = call i32 @__cxa_atexit(ptr @_ZN6Gluco26OptionD2Ev, ptr @_ZN6Gluco2L17opt_inc_reduce_dbE, ptr @__dso_handle) #2
  ret void
}

; Function Attrs: nounwind uwtable
define internal void @__cxx_global_var_init.20() #0 section ".text.startup" {
  %1 = alloca %"struct.Gluco2::IntRange", align 4
  %2 = load ptr, ptr @_ZN6Gluco2L5_credE, align 8, !tbaa !3
  call void @_ZN6Gluco28IntRangeC2Eii(ptr noundef nonnull align 4 dereferenceable(8) %1, i32 noundef 0, i32 noundef 2147483647)
  %3 = load i64, ptr %1, align 4
  call void @_ZN6Gluco29IntOptionC2EPKcS2_S2_iNS_8IntRangeE(ptr noundef nonnull align 8 dereferenceable(52) @_ZN6Gluco2L22opt_spec_inc_reduce_dbE, ptr noundef %2, ptr noundef @.str.21, ptr noundef @.str.22, i32 noundef 1000, i64 %3)
  %4 = call i32 @__cxa_atexit(ptr @_ZN6Gluco26OptionD2Ev, ptr @_ZN6Gluco2L22opt_spec_inc_reduce_dbE, ptr @__dso_handle) #2
  ret void
}

; Function Attrs: nounwind uwtable
define internal void @__cxx_global_var_init.23() #0 section ".text.startup" {
  %1 = alloca %"struct.Gluco2::IntRange", align 4
  %2 = load ptr, ptr @_ZN6Gluco2L5_credE, align 8, !tbaa !3
  call void @_ZN6Gluco28IntRangeC2Eii(ptr noundef nonnull align 4 dereferenceable(8) %1, i32 noundef 0, i32 noundef 2147483647)
  %3 = load i64, ptr %1, align 4
  call void @_ZN6Gluco29IntOptionC2EPKcS2_S2_iNS_8IntRangeE(ptr noundef nonnull align 8 dereferenceable(52) @_ZN6Gluco2L24opt_lb_lbd_frozen_clauseE, ptr noundef %2, ptr noundef @.str.24, ptr noundef @.str.25, i32 noundef 30, i64 %3)
  %4 = call i32 @__cxa_atexit(ptr @_ZN6Gluco26OptionD2Ev, ptr @_ZN6Gluco2L24opt_lb_lbd_frozen_clauseE, ptr @__dso_handle) #2
  ret void
}

; Function Attrs: nounwind uwtable
define internal void @__cxx_global_var_init.26() #0 section ".text.startup" {
  %1 = alloca %"struct.Gluco2::IntRange", align 4
  %2 = load ptr, ptr @_ZN6Gluco2L3_cmE, align 8, !tbaa !3
  call void @_ZN6Gluco28IntRangeC2Eii(ptr noundef nonnull align 4 dereferenceable(8) %1, i32 noundef 3, i32 noundef 2147483647)
  %3 = load i64, ptr %1, align 4
  call void @_ZN6Gluco29IntOptionC2EPKcS2_S2_iNS_8IntRangeE(ptr noundef nonnull align 8 dereferenceable(52) @_ZN6Gluco2L28opt_lb_size_minimzing_clauseE, ptr noundef %2, ptr noundef @.str.27, ptr noundef @.str.28, i32 noundef 30, i64 %3)
  %4 = call i32 @__cxa_atexit(ptr @_ZN6Gluco26OptionD2Ev, ptr @_ZN6Gluco2L28opt_lb_size_minimzing_clauseE, ptr @__dso_handle) #2
  ret void
}

; Function Attrs: nounwind uwtable
define internal void @__cxx_global_var_init.29() #0 section ".text.startup" {
  %1 = alloca %"struct.Gluco2::IntRange", align 4
  %2 = load ptr, ptr @_ZN6Gluco2L3_cmE, align 8, !tbaa !3
  call void @_ZN6Gluco28IntRangeC2Eii(ptr noundef nonnull align 4 dereferenceable(8) %1, i32 noundef 3, i32 noundef 2147483647)
  %3 = load i64, ptr %1, align 4
  call void @_ZN6Gluco29IntOptionC2EPKcS2_S2_iNS_8IntRangeE(ptr noundef nonnull align 8 dereferenceable(52) @_ZN6Gluco2L27opt_lb_lbd_minimzing_clauseE, ptr noundef %2, ptr noundef @.str.30, ptr noundef @.str.31, i32 noundef 6, i64 %3)
  %4 = call i32 @__cxa_atexit(ptr @_ZN6Gluco26OptionD2Ev, ptr @_ZN6Gluco2L27opt_lb_lbd_minimzing_clauseE, ptr @__dso_handle) #2
  ret void
}

; Function Attrs: nounwind uwtable
define internal void @__cxx_global_var_init.32() #0 section ".text.startup" {
  %1 = alloca %"struct.Gluco2::DoubleRange", align 8
  %2 = load ptr, ptr @_ZN6Gluco2L4_catE, align 8, !tbaa !3
  call void @_ZN6Gluco211DoubleRangeC2Edbdb(ptr noundef nonnull align 8 dereferenceable(18) %1, double noundef 0.000000e+00, i1 noundef zeroext false, double noundef 1.000000e+00, i1 noundef zeroext false)
  call void @_ZN6Gluco212DoubleOptionC2EPKcS2_S2_dNS_11DoubleRangeE(ptr noundef nonnull align 8 dereferenceable(72) @_ZN6Gluco2L13opt_var_decayE, ptr noundef %2, ptr noundef @.str.33, ptr noundef @.str.34, double noundef 8.000000e-01, ptr noundef byval(%"struct.Gluco2::DoubleRange") align 8 %1)
  %3 = call i32 @__cxa_atexit(ptr @_ZN6Gluco26OptionD2Ev, ptr @_ZN6Gluco2L13opt_var_decayE, ptr @__dso_handle) #2
  ret void
}

; Function Attrs: nounwind uwtable
define internal void @__cxx_global_var_init.35() #0 section ".text.startup" {
  %1 = alloca %"struct.Gluco2::DoubleRange", align 8
  %2 = load ptr, ptr @_ZN6Gluco2L4_catE, align 8, !tbaa !3
  call void @_ZN6Gluco211DoubleRangeC2Edbdb(ptr noundef nonnull align 8 dereferenceable(18) %1, double noundef 0.000000e+00, i1 noundef zeroext false, double noundef 1.000000e+00, i1 noundef zeroext false)
  call void @_ZN6Gluco212DoubleOptionC2EPKcS2_S2_dNS_11DoubleRangeE(ptr noundef nonnull align 8 dereferenceable(72) @_ZN6Gluco2L16opt_clause_decayE, ptr noundef %2, ptr noundef @.str.36, ptr noundef @.str.37, double noundef 0x3FEFF7CED916872B, ptr noundef byval(%"struct.Gluco2::DoubleRange") align 8 %1)
  %3 = call i32 @__cxa_atexit(ptr @_ZN6Gluco26OptionD2Ev, ptr @_ZN6Gluco2L16opt_clause_decayE, ptr @__dso_handle) #2
  ret void
}

; Function Attrs: nounwind uwtable
define internal void @__cxx_global_var_init.38() #0 section ".text.startup" {
  %1 = alloca %"struct.Gluco2::DoubleRange", align 8
  %2 = load ptr, ptr @_ZN6Gluco2L4_catE, align 8, !tbaa !3
  call void @_ZN6Gluco211DoubleRangeC2Edbdb(ptr noundef nonnull align 8 dereferenceable(18) %1, double noundef 0.000000e+00, i1 noundef zeroext true, double noundef 1.000000e+00, i1 noundef zeroext true)
  call void @_ZN6Gluco212DoubleOptionC2EPKcS2_S2_dNS_11DoubleRangeE(ptr noundef nonnull align 8 dereferenceable(72) @_ZN6Gluco2L19opt_random_var_freqE, ptr noundef %2, ptr noundef @.str.39, ptr noundef @.str.40, double noundef 0.000000e+00, ptr noundef byval(%"struct.Gluco2::DoubleRange") align 8 %1)
  %3 = call i32 @__cxa_atexit(ptr @_ZN6Gluco26OptionD2Ev, ptr @_ZN6Gluco2L19opt_random_var_freqE, ptr @__dso_handle) #2
  ret void
}

; Function Attrs: nounwind uwtable
define internal void @__cxx_global_var_init.41() #0 section ".text.startup" {
  %1 = alloca %"struct.Gluco2::DoubleRange", align 8
  %2 = load ptr, ptr @_ZN6Gluco2L4_catE, align 8, !tbaa !3
  call void @_ZN6Gluco211DoubleRangeC2Edbdb(ptr noundef nonnull align 8 dereferenceable(18) %1, double noundef 0.000000e+00, i1 noundef zeroext false, double noundef 0x7FF0000000000000, i1 noundef zeroext false)
  call void @_ZN6Gluco212DoubleOptionC2EPKcS2_S2_dNS_11DoubleRangeE(ptr noundef nonnull align 8 dereferenceable(72) @_ZN6Gluco2L15opt_random_seedE, ptr noundef %2, ptr noundef @.str.42, ptr noundef @.str.43, double noundef 0x4195D9C3F4000000, ptr noundef byval(%"struct.Gluco2::DoubleRange") align 8 %1)
  %3 = call i32 @__cxa_atexit(ptr @_ZN6Gluco26OptionD2Ev, ptr @_ZN6Gluco2L15opt_random_seedE, ptr @__dso_handle) #2
  ret void
}

; Function Attrs: nounwind uwtable
define internal void @__cxx_global_var_init.44() #0 section ".text.startup" {
  %1 = alloca %"struct.Gluco2::IntRange", align 4
  %2 = load ptr, ptr @_ZN6Gluco2L4_catE, align 8, !tbaa !3
  call void @_ZN6Gluco28IntRangeC2Eii(ptr noundef nonnull align 4 dereferenceable(8) %1, i32 noundef 0, i32 noundef 2)
  %3 = load i64, ptr %1, align 4
  call void @_ZN6Gluco29IntOptionC2EPKcS2_S2_iNS_8IntRangeE(ptr noundef nonnull align 8 dereferenceable(52) @_ZN6Gluco2L14opt_ccmin_modeE, ptr noundef %2, ptr noundef @.str.45, ptr noundef @.str.46, i32 noundef 2, i64 %3)
  %4 = call i32 @__cxa_atexit(ptr @_ZN6Gluco26OptionD2Ev, ptr @_ZN6Gluco2L14opt_ccmin_modeE, ptr @__dso_handle) #2
  ret void
}

; Function Attrs: nounwind uwtable
define internal void @__cxx_global_var_init.47() #0 section ".text.startup" {
  %1 = alloca %"struct.Gluco2::IntRange", align 4
  %2 = load ptr, ptr @_ZN6Gluco2L4_catE, align 8, !tbaa !3
  call void @_ZN6Gluco28IntRangeC2Eii(ptr noundef nonnull align 4 dereferenceable(8) %1, i32 noundef 0, i32 noundef 2)
  %3 = load i64, ptr %1, align 4
  call void @_ZN6Gluco29IntOptionC2EPKcS2_S2_iNS_8IntRangeE(ptr noundef nonnull align 8 dereferenceable(52) @_ZN6Gluco2L16opt_phase_savingE, ptr noundef %2, ptr noundef @.str.48, ptr noundef @.str.49, i32 noundef 2, i64 %3)
  %4 = call i32 @__cxa_atexit(ptr @_ZN6Gluco26OptionD2Ev, ptr @_ZN6Gluco2L16opt_phase_savingE, ptr @__dso_handle) #2
  ret void
}

; Function Attrs: nounwind uwtable
define internal void @__cxx_global_var_init.50() #0 section ".text.startup" {
  %1 = load ptr, ptr @_ZN6Gluco2L4_catE, align 8, !tbaa !3
  call void @_ZN6Gluco210BoolOptionC2EPKcS2_S2_b(ptr noundef nonnull align 8 dereferenceable(41) @_ZN6Gluco2L16opt_rnd_init_actE, ptr noundef %1, ptr noundef @.str.51, ptr noundef @.str.52, i1 noundef zeroext false)
  %2 = call i32 @__cxa_atexit(ptr @_ZN6Gluco26OptionD2Ev, ptr @_ZN6Gluco2L16opt_rnd_init_actE, ptr @__dso_handle) #2
  ret void
}

; Function Attrs: nounwind uwtable
define internal void @__cxx_global_var_init.53() #0 section ".text.startup" {
  %1 = alloca %"struct.Gluco2::DoubleRange", align 8
  %2 = load ptr, ptr @_ZN6Gluco2L4_catE, align 8, !tbaa !3
  call void @_ZN6Gluco211DoubleRangeC2Edbdb(ptr noundef nonnull align 8 dereferenceable(18) %1, double noundef 0.000000e+00, i1 noundef zeroext false, double noundef 0x7FF0000000000000, i1 noundef zeroext false)
  call void @_ZN6Gluco212DoubleOptionC2EPKcS2_S2_dNS_11DoubleRangeE(ptr noundef nonnull align 8 dereferenceable(72) @_ZN6Gluco2L16opt_garbage_fracE, ptr noundef %2, ptr noundef @.str.54, ptr noundef @.str.55, double noundef 2.000000e-01, ptr noundef byval(%"struct.Gluco2::DoubleRange") align 8 %1)
  %3 = call i32 @__cxa_atexit(ptr @_ZN6Gluco26OptionD2Ev, ptr @_ZN6Gluco2L16opt_garbage_fracE, ptr @__dso_handle) #2
  ret void
}

; Function Attrs: nounwind uwtable
define internal void @__cxx_global_var_init.56() #0 section ".text.startup" {
  %1 = load ptr, ptr @_ZN6Gluco2L10_certifiedE, align 8, !tbaa !3
  call void @_ZN6Gluco210BoolOptionC2EPKcS2_S2_b(ptr noundef nonnull align 8 dereferenceable(41) @_ZN6Gluco214opt_certified_E, ptr noundef %1, ptr noundef @.str.57, ptr noundef @.str.58, i1 noundef zeroext false)
  %2 = call i32 @__cxa_atexit(ptr @_ZN6Gluco26OptionD2Ev, ptr @_ZN6Gluco214opt_certified_E, ptr @__dso_handle) #2
  ret void
}

; Function Attrs: nounwind uwtable
define internal void @__cxx_global_var_init.59() #0 section ".text.startup" {
  %1 = load ptr, ptr @_ZN6Gluco2L10_certifiedE, align 8, !tbaa !3
  call void @_ZN6Gluco212StringOptionC2EPKcS2_S2_S2_(ptr noundef nonnull align 8 dereferenceable(48) @_ZN6Gluco219opt_certified_file_E, ptr noundef %1, ptr noundef @.str.60, ptr noundef @.str.61, ptr noundef @.str.62)
  %2 = call i32 @__cxa_atexit(ptr @_ZN6Gluco26OptionD2Ev, ptr @_ZN6Gluco219opt_certified_file_E, ptr @__dso_handle) #2
  ret void
}

; Function Attrs: mustprogress nounwind uwtable
define linkonce_odr void @_ZN6Gluco212StringOptionC2EPKcS2_S2_S2_(ptr noundef nonnull align 8 dereferenceable(48) %0, ptr noundef %1, ptr noundef %2, ptr noundef %3, ptr noundef %4) unnamed_addr #1 comdat align 2 {
  %6 = alloca ptr, align 8
  %7 = alloca ptr, align 8
  %8 = alloca ptr, align 8
  %9 = alloca ptr, align 8
  %10 = alloca ptr, align 8
  store ptr %0, ptr %6, align 8, !tbaa !45
  store ptr %1, ptr %7, align 8, !tbaa !3
  store ptr %2, ptr %8, align 8, !tbaa !3
  store ptr %3, ptr %9, align 8, !tbaa !3
  store ptr %4, ptr %10, align 8, !tbaa !3
  %11 = load ptr, ptr %6, align 8
  %12 = load ptr, ptr %8, align 8, !tbaa !3
  %13 = load ptr, ptr %9, align 8, !tbaa !3
  %14 = load ptr, ptr %7, align 8, !tbaa !3
  call void @_ZN6Gluco26OptionC2EPKcS2_S2_S2_(ptr noundef nonnull align 8 dereferenceable(40) %11, ptr noundef %12, ptr noundef %13, ptr noundef %14, ptr noundef @.str.134)
  store ptr getelementptr inbounds inrange(-16, 32) ({ [6 x ptr] }, ptr @_ZTVN6Gluco212StringOptionE, i32 0, i32 0, i32 2), ptr %11, align 8, !tbaa !12
  %15 = getelementptr inbounds nuw %"class.Gluco2::StringOption", ptr %11, i32 0, i32 1
  %16 = load ptr, ptr %10, align 8, !tbaa !3
  store ptr %16, ptr %15, align 8, !tbaa !47
  ret void
}

; Function Attrs: mustprogress nounwind uwtable
define linkonce_odr void @_ZN6Gluco26OptionD2Ev(ptr noundef nonnull align 8 dereferenceable(40) %0) unnamed_addr #1 comdat align 2 {
  %2 = alloca ptr, align 8
  store ptr %0, ptr %2, align 8, !tbaa !49
  ret void
}

; Function Attrs: mustprogress nounwind uwtable
define void @_ZN6Gluco26SolverC2Ev(ptr noundef nonnull align 8 dereferenceable(1416) %0) unnamed_addr #1 align 2 {
  %2 = alloca ptr, align 8
  %3 = alloca %"struct.Gluco2::Solver::WatcherDeleted", align 8
  %4 = alloca %"struct.Gluco2::Solver::WatcherDeleted", align 8
  %5 = alloca %"struct.Gluco2::Solver::VarOrderLt", align 8
  %6 = alloca %"struct.Gluco2::Solver::JustOrderLt2", align 8
  %7 = alloca %"class.Gluco2::vec.0", align 8
  store ptr %0, ptr %2, align 8, !tbaa !51
  %8 = load ptr, ptr %2, align 8
  store ptr getelementptr inbounds inrange(-16, 32) ({ [6 x ptr] }, ptr @_ZTVN6Gluco26SolverE, i32 0, i32 0, i32 2), ptr %8, align 8, !tbaa !12
  %9 = getelementptr inbounds nuw %"class.Gluco2::Solver", ptr %8, i32 0, i32 1
  store i32 0, ptr %9, align 8, !tbaa !53
  %10 = getelementptr inbounds nuw %"class.Gluco2::Solver", ptr %8, i32 0, i32 3
  store ptr null, ptr %10, align 8, !tbaa !87
  %11 = getelementptr inbounds nuw %"class.Gluco2::Solver", ptr %8, i32 0, i32 4
  store i32 1000, ptr %11, align 8, !tbaa !88
  %12 = getelementptr inbounds nuw %"class.Gluco2::Solver", ptr %8, i32 0, i32 5
  store i8 0, ptr %12, align 4, !tbaa !89
  %13 = getelementptr inbounds nuw %"class.Gluco2::Solver", ptr %8, i32 0, i32 6
  store ptr null, ptr %13, align 8, !tbaa !90
  %14 = getelementptr inbounds nuw %"class.Gluco2::Solver", ptr %8, i32 0, i32 7
  store i64 0, ptr %14, align 8, !tbaa !91
  %15 = getelementptr inbounds nuw %"class.Gluco2::Solver", ptr %8, i32 0, i32 8
  call void @_ZN6Gluco23vecIiEC2Ev(ptr noundef nonnull align 8 dereferenceable(16) %15)
  %16 = getelementptr inbounds nuw %"class.Gluco2::Solver", ptr %8, i32 0, i32 9
  call void @_ZN6Gluco23vecINS_3LitEEC2Ev(ptr noundef nonnull align 8 dereferenceable(16) %16)
  %17 = getelementptr inbounds nuw %"class.Gluco2::Solver", ptr %8, i32 0, i32 11
  call void @_ZN6Gluco23vecINS_5lboolEEC2Ev(ptr noundef nonnull align 8 dereferenceable(16) %17)
  %18 = getelementptr inbounds nuw %"class.Gluco2::Solver", ptr %8, i32 0, i32 12
  call void @_ZN6Gluco23vecINS_3LitEEC2Ev(ptr noundef nonnull align 8 dereferenceable(16) %18)
  %19 = getelementptr inbounds nuw %"class.Gluco2::Solver", ptr %8, i32 0, i32 13
  store i32 0, ptr %19, align 8, !tbaa !92
  %20 = getelementptr inbounds nuw %"class.Gluco2::Solver", ptr %8, i32 0, i32 14
  store i32 10000, ptr %20, align 4, !tbaa !93
  %21 = getelementptr inbounds nuw %"class.Gluco2::Solver", ptr %8, i32 0, i32 15
  store i32 0, ptr %21, align 8, !tbaa !94
  %22 = getelementptr inbounds nuw %"class.Gluco2::Solver", ptr %8, i32 0, i32 16
  %23 = call noundef nonnull align 8 dereferenceable(8) ptr @_ZN6Gluco212DoubleOptioncvRdEv(ptr noundef nonnull align 8 dereferenceable(72) @_ZN6Gluco2L5opt_KE)
  %24 = load double, ptr %23, align 8, !tbaa !21
  store double %24, ptr %22, align 8, !tbaa !95
  %25 = getelementptr inbounds nuw %"class.Gluco2::Solver", ptr %8, i32 0, i32 17
  %26 = call noundef nonnull align 8 dereferenceable(8) ptr @_ZN6Gluco212DoubleOptioncvRdEv(ptr noundef nonnull align 8 dereferenceable(72) @_ZN6Gluco2L5opt_RE)
  %27 = load double, ptr %26, align 8, !tbaa !21
  store double %27, ptr %25, align 8, !tbaa !96
  %28 = getelementptr inbounds nuw %"class.Gluco2::Solver", ptr %8, i32 0, i32 18
  %29 = call noundef nonnull align 4 dereferenceable(4) ptr @_ZN6Gluco29IntOptioncvRiEv(ptr noundef nonnull align 8 dereferenceable(52) @_ZN6Gluco2L18opt_size_lbd_queueE)
  %30 = load i32, ptr %29, align 4, !tbaa !35
  %31 = sitofp i32 %30 to double
  store double %31, ptr %28, align 8, !tbaa !97
  %32 = getelementptr inbounds nuw %"class.Gluco2::Solver", ptr %8, i32 0, i32 19
  %33 = call noundef nonnull align 4 dereferenceable(4) ptr @_ZN6Gluco29IntOptioncvRiEv(ptr noundef nonnull align 8 dereferenceable(52) @_ZN6Gluco2L20opt_size_trail_queueE)
  %34 = load i32, ptr %33, align 4, !tbaa !35
  %35 = sitofp i32 %34 to double
  store double %35, ptr %32, align 8, !tbaa !98
  %36 = getelementptr inbounds nuw %"class.Gluco2::Solver", ptr %8, i32 0, i32 20
  %37 = call noundef nonnull align 4 dereferenceable(4) ptr @_ZN6Gluco29IntOptioncvRiEv(ptr noundef nonnull align 8 dereferenceable(52) @_ZN6Gluco2L19opt_first_reduce_dbE)
  %38 = load i32, ptr %37, align 4, !tbaa !35
  store i32 %38, ptr %36, align 8, !tbaa !99
  %39 = getelementptr inbounds nuw %"class.Gluco2::Solver", ptr %8, i32 0, i32 21
  %40 = call noundef nonnull align 4 dereferenceable(4) ptr @_ZN6Gluco29IntOptioncvRiEv(ptr noundef nonnull align 8 dereferenceable(52) @_ZN6Gluco2L17opt_inc_reduce_dbE)
  %41 = load i32, ptr %40, align 4, !tbaa !35
  store i32 %41, ptr %39, align 4, !tbaa !100
  %42 = getelementptr inbounds nuw %"class.Gluco2::Solver", ptr %8, i32 0, i32 22
  %43 = call noundef nonnull align 4 dereferenceable(4) ptr @_ZN6Gluco29IntOptioncvRiEv(ptr noundef nonnull align 8 dereferenceable(52) @_ZN6Gluco2L22opt_spec_inc_reduce_dbE)
  %44 = load i32, ptr %43, align 4, !tbaa !35
  store i32 %44, ptr %42, align 8, !tbaa !101
  %45 = getelementptr inbounds nuw %"class.Gluco2::Solver", ptr %8, i32 0, i32 23
  %46 = call noundef nonnull align 4 dereferenceable(4) ptr @_ZN6Gluco29IntOptioncvRiEv(ptr noundef nonnull align 8 dereferenceable(52) @_ZN6Gluco2L24opt_lb_lbd_frozen_clauseE)
  %47 = load i32, ptr %46, align 4, !tbaa !35
  store i32 %47, ptr %45, align 4, !tbaa !102
  %48 = getelementptr inbounds nuw %"class.Gluco2::Solver", ptr %8, i32 0, i32 24
  %49 = call noundef nonnull align 4 dereferenceable(4) ptr @_ZN6Gluco29IntOptioncvRiEv(ptr noundef nonnull align 8 dereferenceable(52) @_ZN6Gluco2L28opt_lb_size_minimzing_clauseE)
  %50 = load i32, ptr %49, align 4, !tbaa !35
  store i32 %50, ptr %48, align 8, !tbaa !103
  %51 = getelementptr inbounds nuw %"class.Gluco2::Solver", ptr %8, i32 0, i32 25
  %52 = call noundef nonnull align 4 dereferenceable(4) ptr @_ZN6Gluco29IntOptioncvRiEv(ptr noundef nonnull align 8 dereferenceable(52) @_ZN6Gluco2L27opt_lb_lbd_minimzing_clauseE)
  %53 = load i32, ptr %52, align 4, !tbaa !35
  store i32 %53, ptr %51, align 4, !tbaa !104
  %54 = getelementptr inbounds nuw %"class.Gluco2::Solver", ptr %8, i32 0, i32 26
  %55 = call noundef nonnull align 8 dereferenceable(8) ptr @_ZN6Gluco212DoubleOptioncvRdEv(ptr noundef nonnull align 8 dereferenceable(72) @_ZN6Gluco2L13opt_var_decayE)
  %56 = load double, ptr %55, align 8, !tbaa !21
  store double %56, ptr %54, align 8, !tbaa !105
  %57 = getelementptr inbounds nuw %"class.Gluco2::Solver", ptr %8, i32 0, i32 27
  %58 = call noundef nonnull align 8 dereferenceable(8) ptr @_ZN6Gluco212DoubleOptioncvRdEv(ptr noundef nonnull align 8 dereferenceable(72) @_ZN6Gluco2L16opt_clause_decayE)
  %59 = load double, ptr %58, align 8, !tbaa !21
  store double %59, ptr %57, align 8, !tbaa !106
  %60 = getelementptr inbounds nuw %"class.Gluco2::Solver", ptr %8, i32 0, i32 28
  %61 = call noundef nonnull align 8 dereferenceable(8) ptr @_ZN6Gluco212DoubleOptioncvRdEv(ptr noundef nonnull align 8 dereferenceable(72) @_ZN6Gluco2L19opt_random_var_freqE)
  %62 = load double, ptr %61, align 8, !tbaa !21
  store double %62, ptr %60, align 8, !tbaa !107
  %63 = getelementptr inbounds nuw %"class.Gluco2::Solver", ptr %8, i32 0, i32 29
  %64 = call noundef nonnull align 8 dereferenceable(8) ptr @_ZN6Gluco212DoubleOptioncvRdEv(ptr noundef nonnull align 8 dereferenceable(72) @_ZN6Gluco2L15opt_random_seedE)
  %65 = load double, ptr %64, align 8, !tbaa !21
  store double %65, ptr %63, align 8, !tbaa !108
  %66 = getelementptr inbounds nuw %"class.Gluco2::Solver", ptr %8, i32 0, i32 30
  %67 = call noundef nonnull align 4 dereferenceable(4) ptr @_ZN6Gluco29IntOptioncvRiEv(ptr noundef nonnull align 8 dereferenceable(52) @_ZN6Gluco2L14opt_ccmin_modeE)
  %68 = load i32, ptr %67, align 4, !tbaa !35
  store i32 %68, ptr %66, align 8, !tbaa !109
  %69 = getelementptr inbounds nuw %"class.Gluco2::Solver", ptr %8, i32 0, i32 31
  %70 = call noundef nonnull align 4 dereferenceable(4) ptr @_ZN6Gluco29IntOptioncvRiEv(ptr noundef nonnull align 8 dereferenceable(52) @_ZN6Gluco2L16opt_phase_savingE)
  %71 = load i32, ptr %70, align 4, !tbaa !35
  store i32 %71, ptr %69, align 4, !tbaa !110
  %72 = getelementptr inbounds nuw %"class.Gluco2::Solver", ptr %8, i32 0, i32 32
  store i8 0, ptr %72, align 8, !tbaa !111
  %73 = getelementptr inbounds nuw %"class.Gluco2::Solver", ptr %8, i32 0, i32 33
  %74 = call noundef nonnull align 1 dereferenceable(1) ptr @_ZN6Gluco210BoolOptioncvRbEv(ptr noundef nonnull align 8 dereferenceable(41) @_ZN6Gluco2L16opt_rnd_init_actE)
  %75 = load i8, ptr %74, align 1, !tbaa !10, !range !14, !noundef !15
  %76 = trunc i8 %75 to i1
  %77 = zext i1 %76 to i8
  store i8 %77, ptr %73, align 1, !tbaa !112
  %78 = getelementptr inbounds nuw %"class.Gluco2::Solver", ptr %8, i32 0, i32 34
  %79 = call noundef nonnull align 8 dereferenceable(8) ptr @_ZN6Gluco212DoubleOptioncvRdEv(ptr noundef nonnull align 8 dereferenceable(72) @_ZN6Gluco2L16opt_garbage_fracE)
  %80 = load double, ptr %79, align 8, !tbaa !21
  store double %80, ptr %78, align 8, !tbaa !113
  %81 = getelementptr inbounds nuw %"class.Gluco2::Solver", ptr %8, i32 0, i32 35
  store ptr null, ptr %81, align 8, !tbaa !114
  %82 = getelementptr inbounds nuw %"class.Gluco2::Solver", ptr %8, i32 0, i32 36
  %83 = call noundef nonnull align 1 dereferenceable(1) ptr @_ZN6Gluco210BoolOptioncvRbEv(ptr noundef nonnull align 8 dereferenceable(41) @_ZN6Gluco214opt_certified_E)
  %84 = load i8, ptr %83, align 1, !tbaa !10, !range !14, !noundef !15
  %85 = trunc i8 %84 to i1
  %86 = zext i1 %85 to i8
  store i8 %86, ptr %82, align 8, !tbaa !115
  %87 = getelementptr inbounds nuw %"class.Gluco2::Solver", ptr %8, i32 0, i32 37
  store i64 0, ptr %87, align 8, !tbaa !116
  %88 = getelementptr inbounds nuw %"class.Gluco2::Solver", ptr %8, i32 0, i32 38
  store i64 0, ptr %88, align 8, !tbaa !117
  %89 = getelementptr inbounds nuw %"class.Gluco2::Solver", ptr %8, i32 0, i32 39
  store i64 0, ptr %89, align 8, !tbaa !118
  %90 = getelementptr inbounds nuw %"class.Gluco2::Solver", ptr %8, i32 0, i32 40
  store i64 0, ptr %90, align 8, !tbaa !119
  %91 = getelementptr inbounds nuw %"class.Gluco2::Solver", ptr %8, i32 0, i32 41
  store i64 0, ptr %91, align 8, !tbaa !120
  %92 = getelementptr inbounds nuw %"class.Gluco2::Solver", ptr %8, i32 0, i32 42
  store i64 0, ptr %92, align 8, !tbaa !121
  %93 = getelementptr inbounds nuw %"class.Gluco2::Solver", ptr %8, i32 0, i32 43
  store i64 0, ptr %93, align 8, !tbaa !122
  %94 = getelementptr inbounds nuw %"class.Gluco2::Solver", ptr %8, i32 0, i32 44
  store i64 0, ptr %94, align 8, !tbaa !123
  %95 = getelementptr inbounds nuw %"class.Gluco2::Solver", ptr %8, i32 0, i32 45
  store i64 0, ptr %95, align 8, !tbaa !124
  %96 = getelementptr inbounds nuw %"class.Gluco2::Solver", ptr %8, i32 0, i32 46
  store i64 0, ptr %96, align 8, !tbaa !125
  %97 = getelementptr inbounds nuw %"class.Gluco2::Solver", ptr %8, i32 0, i32 47
  store i64 0, ptr %97, align 8, !tbaa !126
  %98 = getelementptr inbounds nuw %"class.Gluco2::Solver", ptr %8, i32 0, i32 48
  store i64 0, ptr %98, align 8, !tbaa !127
  %99 = getelementptr inbounds nuw %"class.Gluco2::Solver", ptr %8, i32 0, i32 49
  store i64 0, ptr %99, align 8, !tbaa !128
  %100 = getelementptr inbounds nuw %"class.Gluco2::Solver", ptr %8, i32 0, i32 50
  store i64 0, ptr %100, align 8, !tbaa !129
  %101 = getelementptr inbounds nuw %"class.Gluco2::Solver", ptr %8, i32 0, i32 51
  store i64 0, ptr %101, align 8, !tbaa !130
  %102 = getelementptr inbounds nuw %"class.Gluco2::Solver", ptr %8, i32 0, i32 52
  store i64 0, ptr %102, align 8, !tbaa !131
  %103 = getelementptr inbounds nuw %"class.Gluco2::Solver", ptr %8, i32 0, i32 53
  store i64 0, ptr %103, align 8, !tbaa !132
  %104 = getelementptr inbounds nuw %"class.Gluco2::Solver", ptr %8, i32 0, i32 54
  store i64 0, ptr %104, align 8, !tbaa !133
  %105 = getelementptr inbounds nuw %"class.Gluco2::Solver", ptr %8, i32 0, i32 55
  store i64 0, ptr %105, align 8, !tbaa !134
  %106 = getelementptr inbounds nuw %"class.Gluco2::Solver", ptr %8, i32 0, i32 56
  store i64 0, ptr %106, align 8, !tbaa !135
  %107 = getelementptr inbounds nuw %"class.Gluco2::Solver", ptr %8, i32 0, i32 57
  store i64 0, ptr %107, align 8, !tbaa !136
  %108 = getelementptr inbounds nuw %"class.Gluco2::Solver", ptr %8, i32 0, i32 58
  store i64 1, ptr %108, align 8, !tbaa !137
  %109 = getelementptr inbounds nuw %"class.Gluco2::Solver", ptr %8, i32 0, i32 60
  store i8 1, ptr %109, align 4, !tbaa !138
  %110 = getelementptr inbounds nuw %"class.Gluco2::Solver", ptr %8, i32 0, i32 61
  store double 1.000000e+00, ptr %110, align 8, !tbaa !139
  %111 = getelementptr inbounds nuw %"class.Gluco2::Solver", ptr %8, i32 0, i32 62
  call void @_ZN6Gluco23vecIdEC2Ev(ptr noundef nonnull align 8 dereferenceable(16) %111)
  %112 = getelementptr inbounds nuw %"class.Gluco2::Solver", ptr %8, i32 0, i32 63
  store double 1.000000e+00, ptr %112, align 8, !tbaa !140
  %113 = getelementptr inbounds nuw %"class.Gluco2::Solver", ptr %8, i32 0, i32 64
  call void @llvm.lifetime.start.p0(i64 8, ptr %3) #2
  %114 = getelementptr inbounds nuw %"class.Gluco2::Solver", ptr %8, i32 0, i32 84
  call void @_ZN6Gluco26Solver14WatcherDeletedC2ERKNS_15ClauseAllocatorE(ptr noundef nonnull align 8 dereferenceable(8) %3, ptr noundef nonnull align 8 dereferenceable(21) %114)
  call void @_ZN6Gluco28OccListsINS_3LitENS_3vecINS_6Solver7WatcherEEENS3_14WatcherDeletedEEC2ERKS6_(ptr noundef nonnull align 8 dereferenceable(56) %113, ptr noundef nonnull align 8 dereferenceable(8) %3)
  call void @llvm.lifetime.end.p0(i64 8, ptr %3) #2
  %115 = getelementptr inbounds nuw %"class.Gluco2::Solver", ptr %8, i32 0, i32 65
  call void @llvm.lifetime.start.p0(i64 8, ptr %4) #2
  %116 = getelementptr inbounds nuw %"class.Gluco2::Solver", ptr %8, i32 0, i32 84
  call void @_ZN6Gluco26Solver14WatcherDeletedC2ERKNS_15ClauseAllocatorE(ptr noundef nonnull align 8 dereferenceable(8) %4, ptr noundef nonnull align 8 dereferenceable(21) %116)
  call void @_ZN6Gluco28OccListsINS_3LitENS_3vecINS_6Solver7WatcherEEENS3_14WatcherDeletedEEC2ERKS6_(ptr noundef nonnull align 8 dereferenceable(56) %115, ptr noundef nonnull align 8 dereferenceable(8) %4)
  call void @llvm.lifetime.end.p0(i64 8, ptr %4) #2
  %117 = getelementptr inbounds nuw %"class.Gluco2::Solver", ptr %8, i32 0, i32 66
  call void @_ZN6Gluco23vecIjEC2Ev(ptr noundef nonnull align 8 dereferenceable(16) %117)
  %118 = getelementptr inbounds nuw %"class.Gluco2::Solver", ptr %8, i32 0, i32 67
  call void @_ZN6Gluco23vecIjEC2Ev(ptr noundef nonnull align 8 dereferenceable(16) %118)
  %119 = getelementptr inbounds nuw %"class.Gluco2::Solver", ptr %8, i32 0, i32 68
  call void @_ZN6Gluco23vecINS_5lboolEEC2Ev(ptr noundef nonnull align 8 dereferenceable(16) %119)
  %120 = getelementptr inbounds nuw %"class.Gluco2::Solver", ptr %8, i32 0, i32 69
  call void @_ZN6Gluco23vecIcEC2Ev(ptr noundef nonnull align 8 dereferenceable(16) %120)
  %121 = getelementptr inbounds nuw %"class.Gluco2::Solver", ptr %8, i32 0, i32 70
  call void @_ZN6Gluco23vecIcEC2Ev(ptr noundef nonnull align 8 dereferenceable(16) %121)
  %122 = getelementptr inbounds nuw %"class.Gluco2::Solver", ptr %8, i32 0, i32 71
  call void @_ZN6Gluco23vecINS_3LitEEC2Ev(ptr noundef nonnull align 8 dereferenceable(16) %122)
  %123 = getelementptr inbounds nuw %"class.Gluco2::Solver", ptr %8, i32 0, i32 72
  call void @_ZN6Gluco23vecIiEC2Ev(ptr noundef nonnull align 8 dereferenceable(16) %123)
  %124 = getelementptr inbounds nuw %"class.Gluco2::Solver", ptr %8, i32 0, i32 73
  call void @_ZN6Gluco23vecIiEC2Ev(ptr noundef nonnull align 8 dereferenceable(16) %124)
  %125 = getelementptr inbounds nuw %"class.Gluco2::Solver", ptr %8, i32 0, i32 74
  call void @_ZN6Gluco23vecINS_6Solver7VarDataEEC2Ev(ptr noundef nonnull align 8 dereferenceable(16) %125)
  %126 = getelementptr inbounds nuw %"class.Gluco2::Solver", ptr %8, i32 0, i32 75
  store i32 0, ptr %126, align 8, !tbaa !141
  %127 = getelementptr inbounds nuw %"class.Gluco2::Solver", ptr %8, i32 0, i32 76
  store i32 -1, ptr %127, align 4, !tbaa !142
  %128 = getelementptr inbounds nuw %"class.Gluco2::Solver", ptr %8, i32 0, i32 77
  store i64 0, ptr %128, align 8, !tbaa !143
  %129 = getelementptr inbounds nuw %"class.Gluco2::Solver", ptr %8, i32 0, i32 78
  call void @_ZN6Gluco23vecINS_3LitEEC2Ev(ptr noundef nonnull align 8 dereferenceable(16) %129)
  %130 = getelementptr inbounds nuw %"class.Gluco2::Solver", ptr %8, i32 0, i32 79
  call void @llvm.lifetime.start.p0(i64 8, ptr %5) #2
  %131 = getelementptr inbounds nuw %"class.Gluco2::Solver", ptr %8, i32 0, i32 62
  call void @_ZN6Gluco26Solver10VarOrderLtC2ERKNS_3vecIdEE(ptr noundef nonnull align 8 dereferenceable(8) %5, ptr noundef nonnull align 8 dereferenceable(16) %131)
  call void @_ZN6Gluco24HeapINS_6Solver10VarOrderLtEEC2ERKS2_(ptr noundef nonnull align 8 dereferenceable(40) %130, ptr noundef nonnull align 8 dereferenceable(8) %5)
  call void @llvm.lifetime.end.p0(i64 8, ptr %5) #2
  %132 = getelementptr inbounds nuw %"class.Gluco2::Solver", ptr %8, i32 0, i32 80
  store double 0.000000e+00, ptr %132, align 8, !tbaa !144
  %133 = getelementptr inbounds nuw %"class.Gluco2::Solver", ptr %8, i32 0, i32 81
  store i8 1, ptr %133, align 8, !tbaa !145
  %134 = getelementptr inbounds nuw %"class.Gluco2::Solver", ptr %8, i32 0, i32 82
  call void @_ZN6Gluco23vecIjEC2Ev(ptr noundef nonnull align 8 dereferenceable(16) %134)
  %135 = getelementptr inbounds nuw %"class.Gluco2::Solver", ptr %8, i32 0, i32 83
  call void @_ZN6Gluco23vecINS_3LitEEC2Ev(ptr noundef nonnull align 8 dereferenceable(16) %135)
  %136 = getelementptr inbounds nuw %"class.Gluco2::Solver", ptr %8, i32 0, i32 84
  call void @_ZN6Gluco215ClauseAllocatorC2Ev(ptr noundef nonnull align 8 dereferenceable(21) %136)
  %137 = getelementptr inbounds nuw %"class.Gluco2::Solver", ptr %8, i32 0, i32 86
  call void @_ZN6Gluco26bqueueIjEC2Ev(ptr noundef nonnull align 8 dereferenceable(64) %137)
  %138 = getelementptr inbounds nuw %"class.Gluco2::Solver", ptr %8, i32 0, i32 87
  call void @_ZN6Gluco26bqueueIjEC2Ev(ptr noundef nonnull align 8 dereferenceable(64) %138)
  %139 = getelementptr inbounds nuw %"class.Gluco2::Solver", ptr %8, i32 0, i32 90
  call void @_ZN6Gluco23vecIcEC2Ev(ptr noundef nonnull align 8 dereferenceable(16) %139)
  %140 = getelementptr inbounds nuw %"class.Gluco2::Solver", ptr %8, i32 0, i32 91
  call void @_ZN6Gluco23vecINS_3LitEEC2Ev(ptr noundef nonnull align 8 dereferenceable(16) %140)
  %141 = getelementptr inbounds nuw %"class.Gluco2::Solver", ptr %8, i32 0, i32 92
  call void @_ZN6Gluco23vecINS_3LitEEC2Ev(ptr noundef nonnull align 8 dereferenceable(16) %141)
  %142 = getelementptr inbounds nuw %"class.Gluco2::Solver", ptr %8, i32 0, i32 93
  call void @_ZN6Gluco23vecINS_3LitEEC2Ev(ptr noundef nonnull align 8 dereferenceable(16) %142)
  %143 = getelementptr inbounds nuw %"class.Gluco2::Solver", ptr %8, i32 0, i32 98
  store i64 -1, ptr %143, align 8, !tbaa !146
  %144 = getelementptr inbounds nuw %"class.Gluco2::Solver", ptr %8, i32 0, i32 99
  store i64 -1, ptr %144, align 8, !tbaa !147
  %145 = getelementptr inbounds nuw %"class.Gluco2::Solver", ptr %8, i32 0, i32 100
  store i8 0, ptr %145, align 8, !tbaa !148
  %146 = getelementptr inbounds nuw %"class.Gluco2::Solver", ptr %8, i32 0, i32 101
  %147 = call noundef nonnull align 1 dereferenceable(1) ptr @_ZN6Gluco210BoolOptioncvRbEv(ptr noundef nonnull align 8 dereferenceable(41) @_ZN6Gluco2L15opt_incrementalE)
  %148 = load i8, ptr %147, align 1, !tbaa !10, !range !14, !noundef !15
  %149 = trunc i8 %148 to i1
  %150 = zext i1 %149 to i32
  store i32 %150, ptr %146, align 4, !tbaa !149
  %151 = getelementptr inbounds nuw %"class.Gluco2::Solver", ptr %8, i32 0, i32 102
  store i32 2147483647, ptr %151, align 8, !tbaa !150
  %152 = getelementptr inbounds nuw %"class.Gluco2::Solver", ptr %8, i32 0, i32 107
  call void @_ZN6Gluco23vecIiEC2Ev(ptr noundef nonnull align 8 dereferenceable(16) %152)
  %153 = getelementptr inbounds nuw %"class.Gluco2::Solver", ptr %8, i32 0, i32 108
  call void @_ZN6Gluco23vecIiEC2Ev(ptr noundef nonnull align 8 dereferenceable(16) %153)
  %154 = getelementptr inbounds nuw %"class.Gluco2::Solver", ptr %8, i32 0, i32 110
  call void @_ZN6Gluco23vecINS_6Solver8NodeDataEEC2Ev(ptr noundef nonnull align 8 dereferenceable(16) %154)
  %155 = getelementptr inbounds nuw %"class.Gluco2::Solver", ptr %8, i32 0, i32 111
  call void @_ZN6Gluco23vecIjEC2Ev(ptr noundef nonnull align 8 dereferenceable(16) %155)
  %156 = getelementptr inbounds nuw %"class.Gluco2::Solver", ptr %8, i32 0, i32 112
  call void @_ZN6Gluco23vecINS_3LitEEC2Ev(ptr noundef nonnull align 8 dereferenceable(16) %156)
  %157 = getelementptr inbounds nuw %"class.Gluco2::Solver", ptr %8, i32 0, i32 113
  call void @_ZN6Gluco23vecINS_3LitEEC2Ev(ptr noundef nonnull align 8 dereferenceable(16) %157)
  %158 = getelementptr inbounds nuw %"class.Gluco2::Solver", ptr %8, i32 0, i32 118
  call void @llvm.lifetime.start.p0(i64 8, ptr %6) #2
  call void @_ZN6Gluco26Solver12JustOrderLt2C2EPKS0_(ptr noundef nonnull align 8 dereferenceable(8) %6, ptr noundef %8)
  call void @_ZN6Gluco25Heap2INS_6Solver12JustOrderLt2ENS1_7JustKeyEEC2ERKS2_(ptr noundef nonnull align 8 dereferenceable(40) %158, ptr noundef nonnull align 8 dereferenceable(8) %6)
  call void @llvm.lifetime.end.p0(i64 8, ptr %6) #2
  %159 = getelementptr inbounds nuw %"class.Gluco2::Solver", ptr %8, i32 0, i32 119
  call void @_ZN6Gluco23vecIiEC2Ev(ptr noundef nonnull align 8 dereferenceable(16) %159)
  %160 = getelementptr inbounds nuw %"class.Gluco2::Solver", ptr %8, i32 0, i32 120
  call void @_ZN6Gluco23vecIiEC2Ev(ptr noundef nonnull align 8 dereferenceable(16) %160)
  %161 = getelementptr inbounds nuw %"class.Gluco2::Solver", ptr %8, i32 0, i32 122
  call void @_ZN6Gluco23vecIiEC2Ev(ptr noundef nonnull align 8 dereferenceable(16) %161)
  %162 = getelementptr inbounds nuw %"class.Gluco2::Solver", ptr %8, i32 0, i32 123
  call void @_ZN6Gluco23vecINS_3LitEEC2Ev(ptr noundef nonnull align 8 dereferenceable(16) %162)
  %163 = getelementptr inbounds nuw %"class.Gluco2::Solver", ptr %8, i32 0, i32 94
  store i32 0, ptr %163, align 8, !tbaa !151
  %164 = getelementptr inbounds nuw %"class.Gluco2::Solver", ptr %8, i32 0, i32 87
  %165 = getelementptr inbounds nuw %"class.Gluco2::Solver", ptr %8, i32 0, i32 18
  %166 = load double, ptr %165, align 8, !tbaa !97
  %167 = fptosi double %166 to i32
  call void @_ZN6Gluco26bqueueIjE8initSizeEi(ptr noundef nonnull align 8 dereferenceable(64) %164, i32 noundef %167)
  %168 = getelementptr inbounds nuw %"class.Gluco2::Solver", ptr %8, i32 0, i32 86
  %169 = getelementptr inbounds nuw %"class.Gluco2::Solver", ptr %8, i32 0, i32 19
  %170 = load double, ptr %169, align 8, !tbaa !98
  %171 = fptosi double %170 to i32
  call void @_ZN6Gluco26bqueueIjE8initSizeEi(ptr noundef nonnull align 8 dereferenceable(64) %168, i32 noundef %171)
  %172 = getelementptr inbounds nuw %"class.Gluco2::Solver", ptr %8, i32 0, i32 88
  store float 0.000000e+00, ptr %172, align 8, !tbaa !152
  %173 = getelementptr inbounds nuw %"class.Gluco2::Solver", ptr %8, i32 0, i32 20
  %174 = load i32, ptr %173, align 8, !tbaa !99
  %175 = getelementptr inbounds nuw %"class.Gluco2::Solver", ptr %8, i32 0, i32 85
  store i32 %174, ptr %175, align 8, !tbaa !153
  %176 = getelementptr inbounds nuw %"class.Gluco2::Solver", ptr %8, i32 0, i32 103
  store double 0.000000e+00, ptr %176, align 8, !tbaa !154
  %177 = getelementptr inbounds nuw %"class.Gluco2::Solver", ptr %8, i32 0, i32 104
  store double 0.000000e+00, ptr %177, align 8, !tbaa !155
  %178 = getelementptr inbounds nuw %"class.Gluco2::Solver", ptr %8, i32 0, i32 105
  store i32 0, ptr %178, align 8, !tbaa !156
  %179 = getelementptr inbounds nuw %"class.Gluco2::Solver", ptr %8, i32 0, i32 106
  store i32 0, ptr %179, align 4, !tbaa !157
  %180 = getelementptr inbounds nuw %"class.Gluco2::Solver", ptr %8, i32 0, i32 36
  %181 = load i8, ptr %180, align 8, !tbaa !115, !range !14, !noundef !15
  %182 = trunc i8 %181 to i1
  br i1 %182, label %183, label %197

183:                                              ; preds = %1
  %184 = call noundef nonnull align 8 dereferenceable(8) ptr @_ZN6Gluco212StringOptioncvRPKcEv(ptr noundef nonnull align 8 dereferenceable(48) @_ZN6Gluco219opt_certified_file_E)
  %185 = load ptr, ptr %184, align 8, !tbaa !3
  %186 = call i32 @strcmp(ptr noundef %185, ptr noundef @.str.62) #17
  %187 = icmp ne i32 %186, 0
  br i1 %187, label %191, label %188

188:                                              ; preds = %183
  %189 = call noalias ptr @fopen(ptr noundef @.str.63, ptr noundef @.str.64)
  %190 = getelementptr inbounds nuw %"class.Gluco2::Solver", ptr %8, i32 0, i32 35
  store ptr %189, ptr %190, align 8, !tbaa !114
  br label %196

191:                                              ; preds = %183
  %192 = call noundef nonnull align 8 dereferenceable(8) ptr @_ZN6Gluco212StringOptioncvRPKcEv(ptr noundef nonnull align 8 dereferenceable(48) @_ZN6Gluco219opt_certified_file_E)
  %193 = load ptr, ptr %192, align 8, !tbaa !3
  %194 = call noalias ptr @fopen(ptr noundef %193, ptr noundef @.str.64)
  %195 = getelementptr inbounds nuw %"class.Gluco2::Solver", ptr %8, i32 0, i32 35
  store ptr %194, ptr %195, align 8, !tbaa !114
  br label %196

196:                                              ; preds = %191, %188
  br label %197

197:                                              ; preds = %196, %1
  %198 = getelementptr inbounds nuw %"class.Gluco2::Solver", ptr %8, i32 0, i32 117
  store i32 0, ptr %198, align 4, !tbaa !158
  %199 = getelementptr inbounds nuw %"class.Gluco2::Solver", ptr %8, i32 0, i32 10
  store i32 0, ptr %199, align 8, !tbaa !159
  %200 = getelementptr inbounds nuw %"class.Gluco2::Solver", ptr %8, i32 0, i32 116
  store i32 0, ptr %200, align 8, !tbaa !160
  %201 = getelementptr inbounds nuw %"class.Gluco2::Solver", ptr %8, i32 0, i32 115
  store i32 0, ptr %201, align 4, !tbaa !161
  call void @llvm.lifetime.start.p0(i64 16, ptr %7) #2
  call void @_ZN6Gluco23vecINS_3LitEEC2Ev(ptr noundef nonnull align 8 dereferenceable(16) %7)
  call void @_ZN6Gluco23vecINS_3LitEE6growToEi(ptr noundef nonnull align 8 dereferenceable(16) %7, i32 noundef 3)
  %202 = getelementptr inbounds nuw %"class.Gluco2::Solver", ptr %8, i32 0, i32 84
  %203 = call noundef i32 @_ZN6Gluco215ClauseAllocator5allocINS_3vecINS_3LitEEEEEjRKT_b(ptr noundef nonnull align 8 dereferenceable(21) %202, ptr noundef nonnull align 8 dereferenceable(16) %7, i1 noundef zeroext false)
  %204 = getelementptr inbounds nuw %"class.Gluco2::Solver", ptr %8, i32 0, i32 114
  store i32 %203, ptr %204, align 8, !tbaa !162
  %205 = getelementptr inbounds nuw %"class.Gluco2::Solver", ptr %8, i32 0, i32 84
  %206 = getelementptr inbounds nuw %"class.Gluco2::Solver", ptr %8, i32 0, i32 114
  %207 = load i32, ptr %206, align 8, !tbaa !162
  %208 = call noundef nonnull align 4 dereferenceable(12) ptr @_ZN6Gluco215ClauseAllocatorixEj(ptr noundef nonnull align 8 dereferenceable(21) %205, i32 noundef %207)
  %209 = getelementptr inbounds nuw %"class.Gluco2::Solver", ptr %8, i32 0, i32 84
  %210 = getelementptr inbounds nuw %"class.Gluco2::Solver", ptr %8, i32 0, i32 114
  %211 = load i32, ptr %210, align 8, !tbaa !162
  %212 = call noundef nonnull align 4 dereferenceable(12) ptr @_ZN6Gluco215ClauseAllocatorixEj(ptr noundef nonnull align 8 dereferenceable(21) %209, i32 noundef %211)
  %213 = call noundef i32 @_ZNK6Gluco26Clause4sizeEv(ptr noundef nonnull align 4 dereferenceable(12) %212)
  call void @_ZN6Gluco26Clause6shrinkEi(ptr noundef nonnull align 4 dereferenceable(12) %208, i32 noundef %213)
  %214 = getelementptr inbounds nuw %"class.Gluco2::Solver", ptr %8, i32 0, i32 121
  store i32 0, ptr %214, align 8, !tbaa !163
  call void @_ZN6Gluco23vecINS_3LitEED2Ev(ptr noundef nonnull align 8 dereferenceable(16) %7) #2
  call void @llvm.lifetime.end.p0(i64 16, ptr %7) #2
  ret void
}

; Function Attrs: mustprogress nounwind uwtable
define linkonce_odr void @_ZN6Gluco23vecIiEC2Ev(ptr noundef nonnull align 8 dereferenceable(16) %0) unnamed_addr #1 comdat align 2 {
  %2 = alloca ptr, align 8
  store ptr %0, ptr %2, align 8, !tbaa !164
  %3 = load ptr, ptr %2, align 8
  %4 = getelementptr inbounds nuw %"class.Gluco2::vec", ptr %3, i32 0, i32 0
  store ptr null, ptr %4, align 8, !tbaa !166
  %5 = getelementptr inbounds nuw %"class.Gluco2::vec", ptr %3, i32 0, i32 1
  store i32 0, ptr %5, align 8, !tbaa !167
  %6 = getelementptr inbounds nuw %"class.Gluco2::vec", ptr %3, i32 0, i32 2
  store i32 0, ptr %6, align 4, !tbaa !168
  ret void
}

; Function Attrs: mustprogress nounwind uwtable
define linkonce_odr void @_ZN6Gluco23vecINS_3LitEEC2Ev(ptr noundef nonnull align 8 dereferenceable(16) %0) unnamed_addr #1 comdat align 2 {
  %2 = alloca ptr, align 8
  store ptr %0, ptr %2, align 8, !tbaa !169
  %3 = load ptr, ptr %2, align 8
  %4 = getelementptr inbounds nuw %"class.Gluco2::vec.0", ptr %3, i32 0, i32 0
  store ptr null, ptr %4, align 8, !tbaa !171
  %5 = getelementptr inbounds nuw %"class.Gluco2::vec.0", ptr %3, i32 0, i32 1
  store i32 0, ptr %5, align 8, !tbaa !172
  %6 = getelementptr inbounds nuw %"class.Gluco2::vec.0", ptr %3, i32 0, i32 2
  store i32 0, ptr %6, align 4, !tbaa !173
  ret void
}

; Function Attrs: mustprogress nounwind uwtable
define linkonce_odr void @_ZN6Gluco23vecINS_5lboolEEC2Ev(ptr noundef nonnull align 8 dereferenceable(16) %0) unnamed_addr #1 comdat align 2 {
  %2 = alloca ptr, align 8
  store ptr %0, ptr %2, align 8, !tbaa !174
  %3 = load ptr, ptr %2, align 8
  %4 = getelementptr inbounds nuw %"class.Gluco2::vec.1", ptr %3, i32 0, i32 0
  store ptr null, ptr %4, align 8, !tbaa !176
  %5 = getelementptr inbounds nuw %"class.Gluco2::vec.1", ptr %3, i32 0, i32 1
  store i32 0, ptr %5, align 8, !tbaa !177
  %6 = getelementptr inbounds nuw %"class.Gluco2::vec.1", ptr %3, i32 0, i32 2
  store i32 0, ptr %6, align 4, !tbaa !178
  ret void
}

; Function Attrs: mustprogress nounwind uwtable
define linkonce_odr noundef nonnull align 8 dereferenceable(8) ptr @_ZN6Gluco212DoubleOptioncvRdEv(ptr noundef nonnull align 8 dereferenceable(72) %0) #1 comdat align 2 {
  %2 = alloca ptr, align 8
  store ptr %0, ptr %2, align 8, !tbaa !28
  %3 = load ptr, ptr %2, align 8
  %4 = getelementptr inbounds nuw %"class.Gluco2::DoubleOption", ptr %3, i32 0, i32 2
  ret ptr %4
}

; Function Attrs: mustprogress nounwind uwtable
define linkonce_odr noundef nonnull align 4 dereferenceable(4) ptr @_ZN6Gluco29IntOptioncvRiEv(ptr noundef nonnull align 8 dereferenceable(52) %0) #1 comdat align 2 {
  %2 = alloca ptr, align 8
  store ptr %0, ptr %2, align 8, !tbaa !40
  %3 = load ptr, ptr %2, align 8
  %4 = getelementptr inbounds nuw %"class.Gluco2::IntOption", ptr %3, i32 0, i32 2
  ret ptr %4
}

; Function Attrs: mustprogress nounwind uwtable
define linkonce_odr noundef nonnull align 1 dereferenceable(1) ptr @_ZN6Gluco210BoolOptioncvRbEv(ptr noundef nonnull align 8 dereferenceable(41) %0) #1 comdat align 2 {
  %2 = alloca ptr, align 8
  store ptr %0, ptr %2, align 8, !tbaa !8
  %3 = load ptr, ptr %2, align 8
  %4 = getelementptr inbounds nuw %"class.Gluco2::BoolOption", ptr %3, i32 0, i32 1
  ret ptr %4
}

; Function Attrs: mustprogress nounwind uwtable
define linkonce_odr void @_ZN6Gluco23vecIdEC2Ev(ptr noundef nonnull align 8 dereferenceable(16) %0) unnamed_addr #1 comdat align 2 {
  %2 = alloca ptr, align 8
  store ptr %0, ptr %2, align 8, !tbaa !179
  %3 = load ptr, ptr %2, align 8
  %4 = getelementptr inbounds nuw %"class.Gluco2::vec.2", ptr %3, i32 0, i32 0
  store ptr null, ptr %4, align 8, !tbaa !180
  %5 = getelementptr inbounds nuw %"class.Gluco2::vec.2", ptr %3, i32 0, i32 1
  store i32 0, ptr %5, align 8, !tbaa !181
  %6 = getelementptr inbounds nuw %"class.Gluco2::vec.2", ptr %3, i32 0, i32 2
  store i32 0, ptr %6, align 4, !tbaa !182
  ret void
}

; Function Attrs: nocallback nofree nosync nounwind willreturn memory(argmem: readwrite)
declare void @llvm.lifetime.start.p0(i64 immarg, ptr captures(none)) #3

; Function Attrs: mustprogress nounwind uwtable
define linkonce_odr void @_ZN6Gluco26Solver14WatcherDeletedC2ERKNS_15ClauseAllocatorE(ptr noundef nonnull align 8 dereferenceable(8) %0, ptr noundef nonnull align 8 dereferenceable(21) %1) unnamed_addr #1 comdat align 2 {
  %3 = alloca ptr, align 8
  %4 = alloca ptr, align 8
  store ptr %0, ptr %3, align 8, !tbaa !183
  store ptr %1, ptr %4, align 8, !tbaa !185
  %5 = load ptr, ptr %3, align 8
  %6 = getelementptr inbounds nuw %"struct.Gluco2::Solver::WatcherDeleted", ptr %5, i32 0, i32 0
  %7 = load ptr, ptr %4, align 8, !tbaa !185
  store ptr %7, ptr %6, align 8, !tbaa !185
  ret void
}

; Function Attrs: mustprogress nounwind uwtable
define linkonce_odr void @_ZN6Gluco28OccListsINS_3LitENS_3vecINS_6Solver7WatcherEEENS3_14WatcherDeletedEEC2ERKS6_(ptr noundef nonnull align 8 dereferenceable(56) %0, ptr noundef nonnull align 8 dereferenceable(8) %1) unnamed_addr #1 comdat align 2 {
  %3 = alloca ptr, align 8
  %4 = alloca ptr, align 8
  store ptr %0, ptr %3, align 8, !tbaa !186
  store ptr %1, ptr %4, align 8, !tbaa !183
  %5 = load ptr, ptr %3, align 8
  %6 = getelementptr inbounds nuw %"class.Gluco2::OccLists", ptr %5, i32 0, i32 0
  call void @_ZN6Gluco23vecINS0_INS_6Solver7WatcherEEEEC2Ev(ptr noundef nonnull align 8 dereferenceable(16) %6)
  %7 = getelementptr inbounds nuw %"class.Gluco2::OccLists", ptr %5, i32 0, i32 1
  call void @_ZN6Gluco23vecIcEC2Ev(ptr noundef nonnull align 8 dereferenceable(16) %7)
  %8 = getelementptr inbounds nuw %"class.Gluco2::OccLists", ptr %5, i32 0, i32 2
  call void @_ZN6Gluco23vecINS_3LitEEC2Ev(ptr noundef nonnull align 8 dereferenceable(16) %8)
  %9 = getelementptr inbounds nuw %"class.Gluco2::OccLists", ptr %5, i32 0, i32 3
  %10 = load ptr, ptr %4, align 8, !tbaa !183
  call void @llvm.memcpy.p0.p0.i64(ptr align 8 %9, ptr align 8 %10, i64 8, i1 false), !tbaa.struct !188
  ret void
}

; Function Attrs: nocallback nofree nosync nounwind willreturn memory(argmem: readwrite)
declare void @llvm.lifetime.end.p0(i64 immarg, ptr captures(none)) #3

; Function Attrs: mustprogress nounwind uwtable
define linkonce_odr void @_ZN6Gluco23vecIjEC2Ev(ptr noundef nonnull align 8 dereferenceable(16) %0) unnamed_addr #1 comdat align 2 {
  %2 = alloca ptr, align 8
  store ptr %0, ptr %2, align 8, !tbaa !189
  %3 = load ptr, ptr %2, align 8
  %4 = getelementptr inbounds nuw %"class.Gluco2::vec.5", ptr %3, i32 0, i32 0
  store ptr null, ptr %4, align 8, !tbaa !191
  %5 = getelementptr inbounds nuw %"class.Gluco2::vec.5", ptr %3, i32 0, i32 1
  store i32 0, ptr %5, align 8, !tbaa !192
  %6 = getelementptr inbounds nuw %"class.Gluco2::vec.5", ptr %3, i32 0, i32 2
  store i32 0, ptr %6, align 4, !tbaa !193
  ret void
}

; Function Attrs: mustprogress nounwind uwtable
define linkonce_odr void @_ZN6Gluco23vecIcEC2Ev(ptr noundef nonnull align 8 dereferenceable(16) %0) unnamed_addr #1 comdat align 2 {
  %2 = alloca ptr, align 8
  store ptr %0, ptr %2, align 8, !tbaa !194
  %3 = load ptr, ptr %2, align 8
  %4 = getelementptr inbounds nuw %"class.Gluco2::vec.4", ptr %3, i32 0, i32 0
  store ptr null, ptr %4, align 8, !tbaa !196
  %5 = getelementptr inbounds nuw %"class.Gluco2::vec.4", ptr %3, i32 0, i32 1
  store i32 0, ptr %5, align 8, !tbaa !197
  %6 = getelementptr inbounds nuw %"class.Gluco2::vec.4", ptr %3, i32 0, i32 2
  store i32 0, ptr %6, align 4, !tbaa !198
  ret void
}

; Function Attrs: mustprogress nounwind uwtable
define linkonce_odr void @_ZN6Gluco23vecINS_6Solver7VarDataEEC2Ev(ptr noundef nonnull align 8 dereferenceable(16) %0) unnamed_addr #1 comdat align 2 {
  %2 = alloca ptr, align 8
  store ptr %0, ptr %2, align 8, !tbaa !199
  %3 = load ptr, ptr %2, align 8
  %4 = getelementptr inbounds nuw %"class.Gluco2::vec.6", ptr %3, i32 0, i32 0
  store ptr null, ptr %4, align 8, !tbaa !201
  %5 = getelementptr inbounds nuw %"class.Gluco2::vec.6", ptr %3, i32 0, i32 1
  store i32 0, ptr %5, align 8, !tbaa !202
  %6 = getelementptr inbounds nuw %"class.Gluco2::vec.6", ptr %3, i32 0, i32 2
  store i32 0, ptr %6, align 4, !tbaa !203
  ret void
}

; Function Attrs: mustprogress nounwind uwtable
define linkonce_odr void @_ZN6Gluco26Solver10VarOrderLtC2ERKNS_3vecIdEE(ptr noundef nonnull align 8 dereferenceable(8) %0, ptr noundef nonnull align 8 dereferenceable(16) %1) unnamed_addr #1 comdat align 2 {
  %3 = alloca ptr, align 8
  %4 = alloca ptr, align 8
  store ptr %0, ptr %3, align 8, !tbaa !204
  store ptr %1, ptr %4, align 8, !tbaa !179
  %5 = load ptr, ptr %3, align 8
  %6 = getelementptr inbounds nuw %"struct.Gluco2::Solver::VarOrderLt", ptr %5, i32 0, i32 0
  %7 = load ptr, ptr %4, align 8, !tbaa !179
  store ptr %7, ptr %6, align 8, !tbaa !179
  ret void
}

; Function Attrs: mustprogress nounwind uwtable
define linkonce_odr void @_ZN6Gluco24HeapINS_6Solver10VarOrderLtEEC2ERKS2_(ptr noundef nonnull align 8 dereferenceable(40) %0, ptr noundef nonnull align 8 dereferenceable(8) %1) unnamed_addr #1 comdat align 2 {
  %3 = alloca ptr, align 8
  %4 = alloca ptr, align 8
  store ptr %0, ptr %3, align 8, !tbaa !206
  store ptr %1, ptr %4, align 8, !tbaa !204
  %5 = load ptr, ptr %3, align 8
  %6 = getelementptr inbounds nuw %"class.Gluco2::Heap", ptr %5, i32 0, i32 0
  %7 = load ptr, ptr %4, align 8, !tbaa !204
  call void @llvm.memcpy.p0.p0.i64(ptr align 8 %6, ptr align 8 %7, i64 8, i1 false), !tbaa.struct !208
  %8 = getelementptr inbounds nuw %"class.Gluco2::Heap", ptr %5, i32 0, i32 1
  call void @_ZN6Gluco23vecIiEC2Ev(ptr noundef nonnull align 8 dereferenceable(16) %8)
  %9 = getelementptr inbounds nuw %"class.Gluco2::Heap", ptr %5, i32 0, i32 2
  call void @_ZN6Gluco23vecIiEC2Ev(ptr noundef nonnull align 8 dereferenceable(16) %9)
  ret void
}

; Function Attrs: mustprogress nounwind uwtable
define linkonce_odr void @_ZN6Gluco215ClauseAllocatorC2Ev(ptr noundef nonnull align 8 dereferenceable(21) %0) unnamed_addr #1 comdat align 2 {
  %2 = alloca ptr, align 8
  store ptr %0, ptr %2, align 8, !tbaa !185
  %3 = load ptr, ptr %2, align 8
  call void @_ZN6Gluco215RegionAllocatorIjEC2Ej(ptr noundef nonnull align 8 dereferenceable(20) %3, i32 noundef 1048576)
  %4 = getelementptr inbounds nuw %"class.Gluco2::ClauseAllocator", ptr %3, i32 0, i32 1
  store i8 0, ptr %4, align 4, !tbaa !209
  ret void
}

; Function Attrs: mustprogress nounwind uwtable
define linkonce_odr void @_ZN6Gluco26bqueueIjEC2Ev(ptr noundef nonnull align 8 dereferenceable(64) %0) unnamed_addr #1 comdat align 2 {
  %2 = alloca ptr, align 8
  store ptr %0, ptr %2, align 8, !tbaa !210
  %3 = load ptr, ptr %2, align 8
  %4 = getelementptr inbounds nuw %"class.Gluco2::bqueue", ptr %3, i32 0, i32 0
  call void @_ZN6Gluco23vecIjEC2Ev(ptr noundef nonnull align 8 dereferenceable(16) %4)
  %5 = getelementptr inbounds nuw %"class.Gluco2::bqueue", ptr %3, i32 0, i32 1
  store i32 0, ptr %5, align 8, !tbaa !212
  %6 = getelementptr inbounds nuw %"class.Gluco2::bqueue", ptr %3, i32 0, i32 2
  store i32 0, ptr %6, align 4, !tbaa !213
  %7 = getelementptr inbounds nuw %"class.Gluco2::bqueue", ptr %3, i32 0, i32 3
  store i64 0, ptr %7, align 8, !tbaa !214
  %8 = getelementptr inbounds nuw %"class.Gluco2::bqueue", ptr %3, i32 0, i32 4
  store i32 0, ptr %8, align 8, !tbaa !215
  %9 = getelementptr inbounds nuw %"class.Gluco2::bqueue", ptr %3, i32 0, i32 5
  store i32 0, ptr %9, align 4, !tbaa !216
  %10 = getelementptr inbounds nuw %"class.Gluco2::bqueue", ptr %3, i32 0, i32 6
  store i8 0, ptr %10, align 8, !tbaa !217
  ret void
}

; Function Attrs: mustprogress nounwind uwtable
define linkonce_odr void @_ZN6Gluco23vecINS_6Solver8NodeDataEEC2Ev(ptr noundef nonnull align 8 dereferenceable(16) %0) unnamed_addr #1 comdat align 2 {
  %2 = alloca ptr, align 8
  store ptr %0, ptr %2, align 8, !tbaa !218
  %3 = load ptr, ptr %2, align 8
  %4 = getelementptr inbounds nuw %"class.Gluco2::vec.7", ptr %3, i32 0, i32 0
  store ptr null, ptr %4, align 8, !tbaa !220
  %5 = getelementptr inbounds nuw %"class.Gluco2::vec.7", ptr %3, i32 0, i32 1
  store i32 0, ptr %5, align 8, !tbaa !221
  %6 = getelementptr inbounds nuw %"class.Gluco2::vec.7", ptr %3, i32 0, i32 2
  store i32 0, ptr %6, align 4, !tbaa !222
  ret void
}

; Function Attrs: mustprogress nounwind uwtable
define linkonce_odr void @_ZN6Gluco26Solver12JustOrderLt2C2EPKS0_(ptr noundef nonnull align 8 dereferenceable(8) %0, ptr noundef %1) unnamed_addr #1 comdat align 2 {
  %3 = alloca ptr, align 8
  %4 = alloca ptr, align 8
  store ptr %0, ptr %3, align 8, !tbaa !223
  store ptr %1, ptr %4, align 8, !tbaa !51
  %5 = load ptr, ptr %3, align 8
  %6 = getelementptr inbounds nuw %"struct.Gluco2::Solver::JustOrderLt2", ptr %5, i32 0, i32 0
  %7 = load ptr, ptr %4, align 8, !tbaa !51
  store ptr %7, ptr %6, align 8, !tbaa !225
  ret void
}

; Function Attrs: mustprogress nounwind uwtable
define linkonce_odr void @_ZN6Gluco25Heap2INS_6Solver12JustOrderLt2ENS1_7JustKeyEEC2ERKS2_(ptr noundef nonnull align 8 dereferenceable(40) %0, ptr noundef nonnull align 8 dereferenceable(8) %1) unnamed_addr #1 comdat align 2 {
  %3 = alloca ptr, align 8
  %4 = alloca ptr, align 8
  store ptr %0, ptr %3, align 8, !tbaa !226
  store ptr %1, ptr %4, align 8, !tbaa !223
  %5 = load ptr, ptr %3, align 8
  %6 = getelementptr inbounds nuw %"class.Gluco2::Heap2", ptr %5, i32 0, i32 0
  %7 = load ptr, ptr %4, align 8, !tbaa !223
  call void @llvm.memcpy.p0.p0.i64(ptr align 8 %6, ptr align 8 %7, i64 8, i1 false), !tbaa.struct !228
  %8 = getelementptr inbounds nuw %"class.Gluco2::Heap2", ptr %5, i32 0, i32 1
  call void @_ZN6Gluco23vecINS_6Solver7JustKeyEEC2Ev(ptr noundef nonnull align 8 dereferenceable(16) %8)
  %9 = getelementptr inbounds nuw %"class.Gluco2::Heap2", ptr %5, i32 0, i32 2
  call void @_ZN6Gluco23vecIiEC2Ev(ptr noundef nonnull align 8 dereferenceable(16) %9)
  ret void
}

; Function Attrs: mustprogress nounwind uwtable
define linkonce_odr void @_ZN6Gluco26bqueueIjE8initSizeEi(ptr noundef nonnull align 8 dereferenceable(64) %0, i32 noundef %1) #1 comdat align 2 {
  %3 = alloca ptr, align 8
  %4 = alloca i32, align 4
  store ptr %0, ptr %3, align 8, !tbaa !210
  store i32 %1, ptr %4, align 4, !tbaa !35
  %5 = load ptr, ptr %3, align 8
  %6 = load i32, ptr %4, align 4, !tbaa !35
  call void @_ZN6Gluco26bqueueIjE6growToEi(ptr noundef nonnull align 8 dereferenceable(64) %5, i32 noundef %6)
  %7 = load i32, ptr %4, align 4, !tbaa !35
  %8 = add nsw i32 %7, 1
  %9 = sitofp i32 %8 to double
  %10 = fdiv double 2.000000e+00, %9
  %11 = getelementptr inbounds nuw %"class.Gluco2::bqueue", ptr %5, i32 0, i32 7
  store double %10, ptr %11, align 8, !tbaa !229
  ret void
}

; Function Attrs: nounwind willreturn memory(read)
declare i32 @strcmp(ptr noundef, ptr noundef) #4

; Function Attrs: mustprogress nounwind uwtable
define linkonce_odr noundef nonnull align 8 dereferenceable(8) ptr @_ZN6Gluco212StringOptioncvRPKcEv(ptr noundef nonnull align 8 dereferenceable(48) %0) #1 comdat align 2 {
  %2 = alloca ptr, align 8
  store ptr %0, ptr %2, align 8, !tbaa !45
  %3 = load ptr, ptr %2, align 8
  %4 = getelementptr inbounds nuw %"class.Gluco2::StringOption", ptr %3, i32 0, i32 1
  ret ptr %4
}

declare noalias ptr @fopen(ptr noundef, ptr noundef) #5

; Function Attrs: mustprogress nounwind uwtable
define linkonce_odr void @_ZN6Gluco23vecINS_3LitEE6growToEi(ptr noundef nonnull align 8 dereferenceable(16) %0, i32 noundef %1) #1 comdat align 2 {
  %3 = alloca ptr, align 8
  %4 = alloca i32, align 4
  %5 = alloca i32, align 4
  store ptr %0, ptr %3, align 8, !tbaa !169
  store i32 %1, ptr %4, align 4, !tbaa !35
  %6 = load ptr, ptr %3, align 8
  %7 = getelementptr inbounds nuw %"class.Gluco2::vec.0", ptr %6, i32 0, i32 1
  %8 = load i32, ptr %7, align 8, !tbaa !172
  %9 = load i32, ptr %4, align 4, !tbaa !35
  %10 = icmp sge i32 %8, %9
  br i1 %10, label %11, label %12

11:                                               ; preds = %2
  br label %33

12:                                               ; preds = %2
  %13 = load i32, ptr %4, align 4, !tbaa !35
  call void @_ZN6Gluco23vecINS_3LitEE8capacityEi(ptr noundef nonnull align 8 dereferenceable(16) %6, i32 noundef %13)
  call void @llvm.lifetime.start.p0(i64 4, ptr %5) #2
  %14 = getelementptr inbounds nuw %"class.Gluco2::vec.0", ptr %6, i32 0, i32 1
  %15 = load i32, ptr %14, align 8, !tbaa !172
  store i32 %15, ptr %5, align 4, !tbaa !35
  br label %16

16:                                               ; preds = %27, %12
  %17 = load i32, ptr %5, align 4, !tbaa !35
  %18 = load i32, ptr %4, align 4, !tbaa !35
  %19 = icmp slt i32 %17, %18
  br i1 %19, label %21, label %20

20:                                               ; preds = %16
  call void @llvm.lifetime.end.p0(i64 4, ptr %5) #2
  br label %30

21:                                               ; preds = %16
  %22 = getelementptr inbounds nuw %"class.Gluco2::vec.0", ptr %6, i32 0, i32 0
  %23 = load ptr, ptr %22, align 8, !tbaa !171
  %24 = load i32, ptr %5, align 4, !tbaa !35
  %25 = sext i32 %24 to i64
  %26 = getelementptr inbounds %"struct.Gluco2::Lit", ptr %23, i64 %25
  call void @llvm.memset.p0.i64(ptr align 4 %26, i8 0, i64 4, i1 false)
  br label %27

27:                                               ; preds = %21
  %28 = load i32, ptr %5, align 4, !tbaa !35
  %29 = add nsw i32 %28, 1
  store i32 %29, ptr %5, align 4, !tbaa !35
  br label %16, !llvm.loop !230

30:                                               ; preds = %20
  %31 = load i32, ptr %4, align 4, !tbaa !35
  %32 = getelementptr inbounds nuw %"class.Gluco2::vec.0", ptr %6, i32 0, i32 1
  store i32 %31, ptr %32, align 8, !tbaa !172
  br label %33

33:                                               ; preds = %30, %11
  ret void
}

; Function Attrs: mustprogress nounwind uwtable
define linkonce_odr noundef i32 @_ZN6Gluco215ClauseAllocator5allocINS_3vecINS_3LitEEEEEjRKT_b(ptr noundef nonnull align 8 dereferenceable(21) %0, ptr noundef nonnull align 8 dereferenceable(16) %1, i1 noundef zeroext %2) #1 comdat align 2 {
  %4 = alloca ptr, align 8
  %5 = alloca ptr, align 8
  %6 = alloca i8, align 1
  %7 = alloca i8, align 1
  %8 = alloca i32, align 4
  store ptr %0, ptr %4, align 8, !tbaa !185
  store ptr %1, ptr %5, align 8, !tbaa !169
  %9 = zext i1 %2 to i8
  store i8 %9, ptr %6, align 1, !tbaa !10
  %10 = load ptr, ptr %4, align 8
  call void @llvm.lifetime.start.p0(i64 1, ptr %7) #2
  %11 = load i8, ptr %6, align 1, !tbaa !10, !range !14, !noundef !15
  %12 = trunc i8 %11 to i1
  %13 = zext i1 %12 to i32
  %14 = getelementptr inbounds nuw %"class.Gluco2::ClauseAllocator", ptr %10, i32 0, i32 1
  %15 = load i8, ptr %14, align 4, !tbaa !209, !range !14, !noundef !15
  %16 = trunc i8 %15 to i1
  %17 = zext i1 %16 to i32
  %18 = or i32 %13, %17
  %19 = icmp ne i32 %18, 0
  %20 = zext i1 %19 to i8
  store i8 %20, ptr %7, align 1, !tbaa !10
  call void @llvm.lifetime.start.p0(i64 4, ptr %8) #2
  %21 = load ptr, ptr %5, align 8, !tbaa !169
  %22 = call noundef i32 @_ZNK6Gluco23vecINS_3LitEE4sizeEv(ptr noundef nonnull align 8 dereferenceable(16) %21)
  %23 = load i8, ptr %7, align 1, !tbaa !10, !range !14, !noundef !15
  %24 = trunc i8 %23 to i1
  %25 = call noundef i32 @_ZN6Gluco215ClauseAllocator16clauseWord32SizeEib(i32 noundef %22, i1 noundef zeroext %24)
  %26 = call noundef i32 @_ZN6Gluco215RegionAllocatorIjE5allocEi(ptr noundef nonnull align 8 dereferenceable(20) %10, i32 noundef %25)
  store i32 %26, ptr %8, align 4, !tbaa !35
  %27 = load i32, ptr %8, align 4, !tbaa !35
  %28 = call noundef ptr @_ZN6Gluco215ClauseAllocator3leaEj(ptr noundef nonnull align 8 dereferenceable(21) %10, i32 noundef %27)
  %29 = load ptr, ptr %5, align 8, !tbaa !169
  %30 = load i8, ptr %7, align 1, !tbaa !10, !range !14, !noundef !15
  %31 = trunc i8 %30 to i1
  %32 = load i8, ptr %6, align 1, !tbaa !10, !range !14, !noundef !15
  %33 = trunc i8 %32 to i1
  call void @_ZN6Gluco26ClauseC2INS_3vecINS_3LitEEEEERKT_bb(ptr noundef nonnull align 4 dereferenceable(12) %28, ptr noundef nonnull align 8 dereferenceable(16) %29, i1 noundef zeroext %31, i1 noundef zeroext %33)
  %34 = load i32, ptr %8, align 4, !tbaa !35
  call void @llvm.lifetime.end.p0(i64 4, ptr %8) #2
  call void @llvm.lifetime.end.p0(i64 1, ptr %7) #2
  ret i32 %34
}

; Function Attrs: mustprogress nounwind uwtable
define linkonce_odr noundef nonnull align 4 dereferenceable(12) ptr @_ZN6Gluco215ClauseAllocatorixEj(ptr noundef nonnull align 8 dereferenceable(21) %0, i32 noundef %1) #1 comdat align 2 {
  %3 = alloca ptr, align 8
  %4 = alloca i32, align 4
  store ptr %0, ptr %3, align 8, !tbaa !185
  store i32 %1, ptr %4, align 4, !tbaa !35
  %5 = load ptr, ptr %3, align 8
  %6 = load i32, ptr %4, align 4, !tbaa !35
  %7 = call noundef nonnull align 4 dereferenceable(4) ptr @_ZN6Gluco215RegionAllocatorIjEixEj(ptr noundef nonnull align 8 dereferenceable(20) %5, i32 noundef %6)
  ret ptr %7
}

; Function Attrs: mustprogress nounwind uwtable
define linkonce_odr void @_ZN6Gluco26Clause6shrinkEi(ptr noundef nonnull align 4 dereferenceable(12) %0, i32 noundef %1) #1 comdat align 2 {
  %3 = alloca ptr, align 8
  %4 = alloca i32, align 4
  store ptr %0, ptr %3, align 8, !tbaa !232
  store i32 %1, ptr %4, align 4, !tbaa !35
  %5 = load ptr, ptr %3, align 8
  %6 = getelementptr inbounds nuw %"class.Gluco2::Clause", ptr %5, i32 0, i32 0
  %7 = load i64, ptr %6, align 4
  %8 = lshr i64 %7, 3
  %9 = and i64 %8, 1
  %10 = trunc i64 %9 to i32
  %11 = icmp ne i32 %10, 0
  br i1 %11, label %12, label %29

12:                                               ; preds = %2
  %13 = getelementptr inbounds nuw %"class.Gluco2::Clause", ptr %5, i32 0, i32 1
  %14 = getelementptr inbounds nuw %"class.Gluco2::Clause", ptr %5, i32 0, i32 0
  %15 = load i64, ptr %14, align 4
  %16 = lshr i64 %15, 32
  %17 = trunc i64 %16 to i32
  %18 = zext i32 %17 to i64
  %19 = getelementptr inbounds nuw [0 x %union.anon], ptr %13, i64 0, i64 %18
  %20 = getelementptr inbounds nuw %"class.Gluco2::Clause", ptr %5, i32 0, i32 1
  %21 = getelementptr inbounds nuw %"class.Gluco2::Clause", ptr %5, i32 0, i32 0
  %22 = load i64, ptr %21, align 4
  %23 = lshr i64 %22, 32
  %24 = trunc i64 %23 to i32
  %25 = load i32, ptr %4, align 4, !tbaa !35
  %26 = sub i32 %24, %25
  %27 = zext i32 %26 to i64
  %28 = getelementptr inbounds nuw [0 x %union.anon], ptr %20, i64 0, i64 %27
  call void @llvm.memcpy.p0.p0.i64(ptr align 4 %28, ptr align 4 %19, i64 4, i1 false), !tbaa.struct !234
  br label %29

29:                                               ; preds = %12, %2
  %30 = load i32, ptr %4, align 4, !tbaa !35
  %31 = getelementptr inbounds nuw %"class.Gluco2::Clause", ptr %5, i32 0, i32 0
  %32 = load i64, ptr %31, align 4
  %33 = lshr i64 %32, 32
  %34 = trunc i64 %33 to i32
  %35 = sub i32 %34, %30
  %36 = zext i32 %35 to i64
  %37 = load i64, ptr %31, align 4
  %38 = and i64 %36, 4294967295
  %39 = shl i64 %38, 32
  %40 = and i64 %37, 4294967295
  %41 = or i64 %40, %39
  store i64 %41, ptr %31, align 4
  ret void
}

; Function Attrs: mustprogress nounwind uwtable
define linkonce_odr noundef i32 @_ZNK6Gluco26Clause4sizeEv(ptr noundef nonnull align 4 dereferenceable(12) %0) #1 comdat align 2 {
  %2 = alloca ptr, align 8
  store ptr %0, ptr %2, align 8, !tbaa !232
  %3 = load ptr, ptr %2, align 8
  %4 = getelementptr inbounds nuw %"class.Gluco2::Clause", ptr %3, i32 0, i32 0
  %5 = load i64, ptr %4, align 4
  %6 = lshr i64 %5, 32
  %7 = trunc i64 %6 to i32
  ret i32 %7
}

; Function Attrs: mustprogress nounwind uwtable
define linkonce_odr void @_ZN6Gluco23vecINS_3LitEED2Ev(ptr noundef nonnull align 8 dereferenceable(16) %0) unnamed_addr #1 comdat align 2 {
  %2 = alloca ptr, align 8
  store ptr %0, ptr %2, align 8, !tbaa !169
  %3 = load ptr, ptr %2, align 8
  call void @_ZN6Gluco23vecINS_3LitEE5clearEb(ptr noundef nonnull align 8 dereferenceable(16) %3, i1 noundef zeroext true)
  ret void
}

; Function Attrs: mustprogress nounwind uwtable
define void @_ZN6Gluco26SolverD2Ev(ptr noundef nonnull align 8 dereferenceable(1416) %0) unnamed_addr #1 align 2 {
  %2 = alloca ptr, align 8
  store ptr %0, ptr %2, align 8, !tbaa !51
  %3 = load ptr, ptr %2, align 8
  store ptr getelementptr inbounds inrange(-16, 32) ({ [6 x ptr] }, ptr @_ZTVN6Gluco26SolverE, i32 0, i32 0, i32 2), ptr %3, align 8, !tbaa !12
  %4 = getelementptr inbounds nuw %"class.Gluco2::Solver", ptr %3, i32 0, i32 123
  call void @_ZN6Gluco23vecINS_3LitEED2Ev(ptr noundef nonnull align 8 dereferenceable(16) %4) #2
  %5 = getelementptr inbounds nuw %"class.Gluco2::Solver", ptr %3, i32 0, i32 122
  call void @_ZN6Gluco23vecIiED2Ev(ptr noundef nonnull align 8 dereferenceable(16) %5) #2
  %6 = getelementptr inbounds nuw %"class.Gluco2::Solver", ptr %3, i32 0, i32 120
  call void @_ZN6Gluco23vecIiED2Ev(ptr noundef nonnull align 8 dereferenceable(16) %6) #2
  %7 = getelementptr inbounds nuw %"class.Gluco2::Solver", ptr %3, i32 0, i32 119
  call void @_ZN6Gluco23vecIiED2Ev(ptr noundef nonnull align 8 dereferenceable(16) %7) #2
  %8 = getelementptr inbounds nuw %"class.Gluco2::Solver", ptr %3, i32 0, i32 118
  call void @_ZN6Gluco25Heap2INS_6Solver12JustOrderLt2ENS1_7JustKeyEED2Ev(ptr noundef nonnull align 8 dereferenceable(40) %8) #2
  %9 = getelementptr inbounds nuw %"class.Gluco2::Solver", ptr %3, i32 0, i32 113
  call void @_ZN6Gluco23vecINS_3LitEED2Ev(ptr noundef nonnull align 8 dereferenceable(16) %9) #2
  %10 = getelementptr inbounds nuw %"class.Gluco2::Solver", ptr %3, i32 0, i32 112
  call void @_ZN6Gluco23vecINS_3LitEED2Ev(ptr noundef nonnull align 8 dereferenceable(16) %10) #2
  %11 = getelementptr inbounds nuw %"class.Gluco2::Solver", ptr %3, i32 0, i32 111
  call void @_ZN6Gluco23vecIjED2Ev(ptr noundef nonnull align 8 dereferenceable(16) %11) #2
  %12 = getelementptr inbounds nuw %"class.Gluco2::Solver", ptr %3, i32 0, i32 110
  call void @_ZN6Gluco23vecINS_6Solver8NodeDataEED2Ev(ptr noundef nonnull align 8 dereferenceable(16) %12) #2
  %13 = getelementptr inbounds nuw %"class.Gluco2::Solver", ptr %3, i32 0, i32 108
  call void @_ZN6Gluco23vecIiED2Ev(ptr noundef nonnull align 8 dereferenceable(16) %13) #2
  %14 = getelementptr inbounds nuw %"class.Gluco2::Solver", ptr %3, i32 0, i32 107
  call void @_ZN6Gluco23vecIiED2Ev(ptr noundef nonnull align 8 dereferenceable(16) %14) #2
  %15 = getelementptr inbounds nuw %"class.Gluco2::Solver", ptr %3, i32 0, i32 93
  call void @_ZN6Gluco23vecINS_3LitEED2Ev(ptr noundef nonnull align 8 dereferenceable(16) %15) #2
  %16 = getelementptr inbounds nuw %"class.Gluco2::Solver", ptr %3, i32 0, i32 92
  call void @_ZN6Gluco23vecINS_3LitEED2Ev(ptr noundef nonnull align 8 dereferenceable(16) %16) #2
  %17 = getelementptr inbounds nuw %"class.Gluco2::Solver", ptr %3, i32 0, i32 91
  call void @_ZN6Gluco23vecINS_3LitEED2Ev(ptr noundef nonnull align 8 dereferenceable(16) %17) #2
  %18 = getelementptr inbounds nuw %"class.Gluco2::Solver", ptr %3, i32 0, i32 90
  call void @_ZN6Gluco23vecIcED2Ev(ptr noundef nonnull align 8 dereferenceable(16) %18) #2
  %19 = getelementptr inbounds nuw %"class.Gluco2::Solver", ptr %3, i32 0, i32 87
  call void @_ZN6Gluco26bqueueIjED2Ev(ptr noundef nonnull align 8 dereferenceable(64) %19) #2
  %20 = getelementptr inbounds nuw %"class.Gluco2::Solver", ptr %3, i32 0, i32 86
  call void @_ZN6Gluco26bqueueIjED2Ev(ptr noundef nonnull align 8 dereferenceable(64) %20) #2
  %21 = getelementptr inbounds nuw %"class.Gluco2::Solver", ptr %3, i32 0, i32 84
  call void @_ZN6Gluco215RegionAllocatorIjED2Ev(ptr noundef nonnull align 8 dereferenceable(21) %21) #2
  %22 = getelementptr inbounds nuw %"class.Gluco2::Solver", ptr %3, i32 0, i32 83
  call void @_ZN6Gluco23vecINS_3LitEED2Ev(ptr noundef nonnull align 8 dereferenceable(16) %22) #2
  %23 = getelementptr inbounds nuw %"class.Gluco2::Solver", ptr %3, i32 0, i32 82
  call void @_ZN6Gluco23vecIjED2Ev(ptr noundef nonnull align 8 dereferenceable(16) %23) #2
  %24 = getelementptr inbounds nuw %"class.Gluco2::Solver", ptr %3, i32 0, i32 79
  call void @_ZN6Gluco24HeapINS_6Solver10VarOrderLtEED2Ev(ptr noundef nonnull align 8 dereferenceable(40) %24) #2
  %25 = getelementptr inbounds nuw %"class.Gluco2::Solver", ptr %3, i32 0, i32 78
  call void @_ZN6Gluco23vecINS_3LitEED2Ev(ptr noundef nonnull align 8 dereferenceable(16) %25) #2
  %26 = getelementptr inbounds nuw %"class.Gluco2::Solver", ptr %3, i32 0, i32 74
  call void @_ZN6Gluco23vecINS_6Solver7VarDataEED2Ev(ptr noundef nonnull align 8 dereferenceable(16) %26) #2
  %27 = getelementptr inbounds nuw %"class.Gluco2::Solver", ptr %3, i32 0, i32 73
  call void @_ZN6Gluco23vecIiED2Ev(ptr noundef nonnull align 8 dereferenceable(16) %27) #2
  %28 = getelementptr inbounds nuw %"class.Gluco2::Solver", ptr %3, i32 0, i32 72
  call void @_ZN6Gluco23vecIiED2Ev(ptr noundef nonnull align 8 dereferenceable(16) %28) #2
  %29 = getelementptr inbounds nuw %"class.Gluco2::Solver", ptr %3, i32 0, i32 71
  call void @_ZN6Gluco23vecINS_3LitEED2Ev(ptr noundef nonnull align 8 dereferenceable(16) %29) #2
  %30 = getelementptr inbounds nuw %"class.Gluco2::Solver", ptr %3, i32 0, i32 70
  call void @_ZN6Gluco23vecIcED2Ev(ptr noundef nonnull align 8 dereferenceable(16) %30) #2
  %31 = getelementptr inbounds nuw %"class.Gluco2::Solver", ptr %3, i32 0, i32 69
  call void @_ZN6Gluco23vecIcED2Ev(ptr noundef nonnull align 8 dereferenceable(16) %31) #2
  %32 = getelementptr inbounds nuw %"class.Gluco2::Solver", ptr %3, i32 0, i32 68
  call void @_ZN6Gluco23vecINS_5lboolEED2Ev(ptr noundef nonnull align 8 dereferenceable(16) %32) #2
  %33 = getelementptr inbounds nuw %"class.Gluco2::Solver", ptr %3, i32 0, i32 67
  call void @_ZN6Gluco23vecIjED2Ev(ptr noundef nonnull align 8 dereferenceable(16) %33) #2
  %34 = getelementptr inbounds nuw %"class.Gluco2::Solver", ptr %3, i32 0, i32 66
  call void @_ZN6Gluco23vecIjED2Ev(ptr noundef nonnull align 8 dereferenceable(16) %34) #2
  %35 = getelementptr inbounds nuw %"class.Gluco2::Solver", ptr %3, i32 0, i32 65
  call void @_ZN6Gluco28OccListsINS_3LitENS_3vecINS_6Solver7WatcherEEENS3_14WatcherDeletedEED2Ev(ptr noundef nonnull align 8 dereferenceable(56) %35) #2
  %36 = getelementptr inbounds nuw %"class.Gluco2::Solver", ptr %3, i32 0, i32 64
  call void @_ZN6Gluco28OccListsINS_3LitENS_3vecINS_6Solver7WatcherEEENS3_14WatcherDeletedEED2Ev(ptr noundef nonnull align 8 dereferenceable(56) %36) #2
  %37 = getelementptr inbounds nuw %"class.Gluco2::Solver", ptr %3, i32 0, i32 62
  call void @_ZN6Gluco23vecIdED2Ev(ptr noundef nonnull align 8 dereferenceable(16) %37) #2
  %38 = getelementptr inbounds nuw %"class.Gluco2::Solver", ptr %3, i32 0, i32 12
  call void @_ZN6Gluco23vecINS_3LitEED2Ev(ptr noundef nonnull align 8 dereferenceable(16) %38) #2
  %39 = getelementptr inbounds nuw %"class.Gluco2::Solver", ptr %3, i32 0, i32 11
  call void @_ZN6Gluco23vecINS_5lboolEED2Ev(ptr noundef nonnull align 8 dereferenceable(16) %39) #2
  %40 = getelementptr inbounds nuw %"class.Gluco2::Solver", ptr %3, i32 0, i32 9
  call void @_ZN6Gluco23vecINS_3LitEED2Ev(ptr noundef nonnull align 8 dereferenceable(16) %40) #2
  %41 = getelementptr inbounds nuw %"class.Gluco2::Solver", ptr %3, i32 0, i32 8
  call void @_ZN6Gluco23vecIiED2Ev(ptr noundef nonnull align 8 dereferenceable(16) %41) #2
  ret void
}

; Function Attrs: mustprogress nounwind uwtable
define linkonce_odr void @_ZN6Gluco23vecIiED2Ev(ptr noundef nonnull align 8 dereferenceable(16) %0) unnamed_addr #1 comdat align 2 {
  %2 = alloca ptr, align 8
  store ptr %0, ptr %2, align 8, !tbaa !164
  %3 = load ptr, ptr %2, align 8
  call void @_ZN6Gluco23vecIiE5clearEb(ptr noundef nonnull align 8 dereferenceable(16) %3, i1 noundef zeroext true)
  ret void
}

; Function Attrs: inlinehint mustprogress nounwind uwtable
define linkonce_odr void @_ZN6Gluco25Heap2INS_6Solver12JustOrderLt2ENS1_7JustKeyEED2Ev(ptr noundef nonnull align 8 dereferenceable(40) %0) unnamed_addr #6 comdat align 2 {
  %2 = alloca ptr, align 8
  store ptr %0, ptr %2, align 8, !tbaa !226
  %3 = load ptr, ptr %2, align 8
  %4 = getelementptr inbounds nuw %"class.Gluco2::Heap2", ptr %3, i32 0, i32 2
  call void @_ZN6Gluco23vecIiED2Ev(ptr noundef nonnull align 8 dereferenceable(16) %4) #2
  %5 = getelementptr inbounds nuw %"class.Gluco2::Heap2", ptr %3, i32 0, i32 1
  call void @_ZN6Gluco23vecINS_6Solver7JustKeyEED2Ev(ptr noundef nonnull align 8 dereferenceable(16) %5) #2
  ret void
}

; Function Attrs: mustprogress nounwind uwtable
define linkonce_odr void @_ZN6Gluco23vecIjED2Ev(ptr noundef nonnull align 8 dereferenceable(16) %0) unnamed_addr #1 comdat align 2 {
  %2 = alloca ptr, align 8
  store ptr %0, ptr %2, align 8, !tbaa !189
  %3 = load ptr, ptr %2, align 8
  call void @_ZN6Gluco23vecIjE5clearEb(ptr noundef nonnull align 8 dereferenceable(16) %3, i1 noundef zeroext true)
  ret void
}

; Function Attrs: mustprogress nounwind uwtable
define linkonce_odr void @_ZN6Gluco23vecINS_6Solver8NodeDataEED2Ev(ptr noundef nonnull align 8 dereferenceable(16) %0) unnamed_addr #1 comdat align 2 {
  %2 = alloca ptr, align 8
  store ptr %0, ptr %2, align 8, !tbaa !218
  %3 = load ptr, ptr %2, align 8
  call void @_ZN6Gluco23vecINS_6Solver8NodeDataEE5clearEb(ptr noundef nonnull align 8 dereferenceable(16) %3, i1 noundef zeroext true)
  ret void
}

; Function Attrs: mustprogress nounwind uwtable
define linkonce_odr void @_ZN6Gluco23vecIcED2Ev(ptr noundef nonnull align 8 dereferenceable(16) %0) unnamed_addr #1 comdat align 2 {
  %2 = alloca ptr, align 8
  store ptr %0, ptr %2, align 8, !tbaa !194
  %3 = load ptr, ptr %2, align 8
  call void @_ZN6Gluco23vecIcE5clearEb(ptr noundef nonnull align 8 dereferenceable(16) %3, i1 noundef zeroext true)
  ret void
}

; Function Attrs: inlinehint mustprogress nounwind uwtable
define linkonce_odr void @_ZN6Gluco26bqueueIjED2Ev(ptr noundef nonnull align 8 dereferenceable(64) %0) unnamed_addr #6 comdat align 2 {
  %2 = alloca ptr, align 8
  store ptr %0, ptr %2, align 8, !tbaa !210
  %3 = load ptr, ptr %2, align 8
  %4 = getelementptr inbounds nuw %"class.Gluco2::bqueue", ptr %3, i32 0, i32 0
  call void @_ZN6Gluco23vecIjED2Ev(ptr noundef nonnull align 8 dereferenceable(16) %4) #2
  ret void
}

; Function Attrs: mustprogress nounwind uwtable
define linkonce_odr void @_ZN6Gluco215RegionAllocatorIjED2Ev(ptr noundef nonnull align 8 dereferenceable(20) %0) unnamed_addr #1 comdat align 2 {
  %2 = alloca ptr, align 8
  store ptr %0, ptr %2, align 8, !tbaa !236
  %3 = load ptr, ptr %2, align 8
  %4 = getelementptr inbounds nuw %"class.Gluco2::RegionAllocator", ptr %3, i32 0, i32 0
  %5 = load ptr, ptr %4, align 8, !tbaa !238
  %6 = icmp ne ptr %5, null
  br i1 %6, label %7, label %10

7:                                                ; preds = %1
  %8 = getelementptr inbounds nuw %"class.Gluco2::RegionAllocator", ptr %3, i32 0, i32 0
  %9 = load ptr, ptr %8, align 8, !tbaa !238
  call void @free(ptr noundef %9) #2
  br label %10

10:                                               ; preds = %7, %1
  ret void
}

; Function Attrs: inlinehint mustprogress nounwind uwtable
define linkonce_odr void @_ZN6Gluco24HeapINS_6Solver10VarOrderLtEED2Ev(ptr noundef nonnull align 8 dereferenceable(40) %0) unnamed_addr #6 comdat align 2 {
  %2 = alloca ptr, align 8
  store ptr %0, ptr %2, align 8, !tbaa !206
  %3 = load ptr, ptr %2, align 8
  %4 = getelementptr inbounds nuw %"class.Gluco2::Heap", ptr %3, i32 0, i32 2
  call void @_ZN6Gluco23vecIiED2Ev(ptr noundef nonnull align 8 dereferenceable(16) %4) #2
  %5 = getelementptr inbounds nuw %"class.Gluco2::Heap", ptr %3, i32 0, i32 1
  call void @_ZN6Gluco23vecIiED2Ev(ptr noundef nonnull align 8 dereferenceable(16) %5) #2
  ret void
}

; Function Attrs: mustprogress nounwind uwtable
define linkonce_odr void @_ZN6Gluco23vecINS_6Solver7VarDataEED2Ev(ptr noundef nonnull align 8 dereferenceable(16) %0) unnamed_addr #1 comdat align 2 {
  %2 = alloca ptr, align 8
  store ptr %0, ptr %2, align 8, !tbaa !199
  %3 = load ptr, ptr %2, align 8
  call void @_ZN6Gluco23vecINS_6Solver7VarDataEE5clearEb(ptr noundef nonnull align 8 dereferenceable(16) %3, i1 noundef zeroext true)
  ret void
}

; Function Attrs: mustprogress nounwind uwtable
define linkonce_odr void @_ZN6Gluco23vecINS_5lboolEED2Ev(ptr noundef nonnull align 8 dereferenceable(16) %0) unnamed_addr #1 comdat align 2 {
  %2 = alloca ptr, align 8
  store ptr %0, ptr %2, align 8, !tbaa !174
  %3 = load ptr, ptr %2, align 8
  call void @_ZN6Gluco23vecINS_5lboolEE5clearEb(ptr noundef nonnull align 8 dereferenceable(16) %3, i1 noundef zeroext true)
  ret void
}

; Function Attrs: inlinehint mustprogress nounwind uwtable
define linkonce_odr void @_ZN6Gluco28OccListsINS_3LitENS_3vecINS_6Solver7WatcherEEENS3_14WatcherDeletedEED2Ev(ptr noundef nonnull align 8 dereferenceable(56) %0) unnamed_addr #6 comdat align 2 {
  %2 = alloca ptr, align 8
  store ptr %0, ptr %2, align 8, !tbaa !186
  %3 = load ptr, ptr %2, align 8
  %4 = getelementptr inbounds nuw %"class.Gluco2::OccLists", ptr %3, i32 0, i32 2
  call void @_ZN6Gluco23vecINS_3LitEED2Ev(ptr noundef nonnull align 8 dereferenceable(16) %4) #2
  %5 = getelementptr inbounds nuw %"class.Gluco2::OccLists", ptr %3, i32 0, i32 1
  call void @_ZN6Gluco23vecIcED2Ev(ptr noundef nonnull align 8 dereferenceable(16) %5) #2
  %6 = getelementptr inbounds nuw %"class.Gluco2::OccLists", ptr %3, i32 0, i32 0
  call void @_ZN6Gluco23vecINS0_INS_6Solver7WatcherEEEED2Ev(ptr noundef nonnull align 8 dereferenceable(16) %6) #2
  ret void
}

; Function Attrs: mustprogress nounwind uwtable
define linkonce_odr void @_ZN6Gluco23vecIdED2Ev(ptr noundef nonnull align 8 dereferenceable(16) %0) unnamed_addr #1 comdat align 2 {
  %2 = alloca ptr, align 8
  store ptr %0, ptr %2, align 8, !tbaa !179
  %3 = load ptr, ptr %2, align 8
  call void @_ZN6Gluco23vecIdE5clearEb(ptr noundef nonnull align 8 dereferenceable(16) %3, i1 noundef zeroext true)
  ret void
}

; Function Attrs: mustprogress nounwind uwtable
define void @_ZN6Gluco26SolverD0Ev(ptr noundef nonnull align 8 dereferenceable(1416) %0) unnamed_addr #1 align 2 {
  %2 = alloca ptr, align 8
  store ptr %0, ptr %2, align 8, !tbaa !51
  %3 = load ptr, ptr %2, align 8
  call void @_ZN6Gluco26SolverD1Ev(ptr noundef nonnull align 8 dereferenceable(1416) %3) #2
  call void @_ZdlPvm(ptr noundef %3, i64 noundef 1416) #18
  ret void
}

; Function Attrs: nobuiltin nounwind
declare void @_ZdlPvm(ptr noundef, i64 noundef) #7

; Function Attrs: mustprogress nounwind uwtable
define void @_ZN6Gluco26Solver18setIncrementalModeEv(ptr noundef nonnull align 8 dereferenceable(1416) %0) #1 align 2 {
  %2 = alloca ptr, align 8
  store ptr %0, ptr %2, align 8, !tbaa !51
  %3 = load ptr, ptr %2, align 8
  %4 = getelementptr inbounds nuw %"class.Gluco2::Solver", ptr %3, i32 0, i32 101
  store i32 1, ptr %4, align 4, !tbaa !149
  ret void
}

; Function Attrs: mustprogress nounwind uwtable
define void @_ZN6Gluco26Solver17initNbInitialVarsEi(ptr noundef nonnull align 8 dereferenceable(1416) %0, i32 noundef %1) #1 align 2 {
  %3 = alloca ptr, align 8
  %4 = alloca i32, align 4
  store ptr %0, ptr %3, align 8, !tbaa !51
  store i32 %1, ptr %4, align 4, !tbaa !35
  %5 = load ptr, ptr %3, align 8
  %6 = load i32, ptr %4, align 4, !tbaa !35
  %7 = getelementptr inbounds nuw %"class.Gluco2::Solver", ptr %5, i32 0, i32 102
  store i32 %6, ptr %7, align 8, !tbaa !150
  ret void
}

; Function Attrs: mustprogress nounwind uwtable
define noundef i32 @_ZN6Gluco26Solver6newVarEbb(ptr noundef nonnull align 8 dereferenceable(1416) %0, i1 noundef zeroext %1, i1 noundef zeroext %2) #1 align 2 {
  %4 = alloca ptr, align 8
  %5 = alloca i8, align 1
  %6 = alloca i8, align 1
  %7 = alloca i32, align 4
  %8 = alloca %"struct.Gluco2::Lit", align 4
  %9 = alloca %"struct.Gluco2::Lit", align 4
  %10 = alloca %"struct.Gluco2::Lit", align 4
  %11 = alloca %"struct.Gluco2::Lit", align 4
  %12 = alloca %"class.Gluco2::lbool", align 1
  %13 = alloca %"struct.Gluco2::Solver::VarData", align 4
  %14 = alloca double, align 8
  %15 = alloca i8, align 1
  %16 = alloca i32, align 4
  %17 = alloca i8, align 1
  %18 = alloca i32, align 4
  %19 = alloca i32, align 4
  %20 = alloca %"struct.Gluco2::Lit", align 4
  %21 = alloca %"struct.Gluco2::Lit", align 4
  %22 = alloca %"struct.Gluco2::Solver::NodeData", align 4
  %23 = alloca { i64, i32 }, align 8
  %24 = alloca i32, align 4
  store ptr %0, ptr %4, align 8, !tbaa !51
  %25 = zext i1 %1 to i8
  store i8 %25, ptr %5, align 1, !tbaa !10
  %26 = zext i1 %2 to i8
  store i8 %26, ptr %6, align 1, !tbaa !10
  %27 = load ptr, ptr %4, align 8
  call void @llvm.lifetime.start.p0(i64 4, ptr %7) #2
  %28 = call noundef i32 @_ZNK6Gluco26Solver5nVarsEv(ptr noundef nonnull align 8 dereferenceable(1416) %27)
  store i32 %28, ptr %7, align 4, !tbaa !35
  %29 = getelementptr inbounds nuw %"class.Gluco2::Solver", ptr %27, i32 0, i32 64
  call void @llvm.lifetime.start.p0(i64 4, ptr %8) #2
  %30 = load i32, ptr %7, align 4, !tbaa !35
  %31 = call i32 @_ZN6Gluco25mkLitEib(i32 noundef %30, i1 noundef zeroext false)
  %32 = getelementptr inbounds nuw %"struct.Gluco2::Lit", ptr %8, i32 0, i32 0
  store i32 %31, ptr %32, align 4
  call void @_ZN6Gluco28OccListsINS_3LitENS_3vecINS_6Solver7WatcherEEENS3_14WatcherDeletedEE4initERKS1_(ptr noundef nonnull align 8 dereferenceable(56) %29, ptr noundef nonnull align 4 dereferenceable(4) %8)
  call void @llvm.lifetime.end.p0(i64 4, ptr %8) #2
  %33 = getelementptr inbounds nuw %"class.Gluco2::Solver", ptr %27, i32 0, i32 64
  call void @llvm.lifetime.start.p0(i64 4, ptr %9) #2
  %34 = load i32, ptr %7, align 4, !tbaa !35
  %35 = call i32 @_ZN6Gluco25mkLitEib(i32 noundef %34, i1 noundef zeroext true)
  %36 = getelementptr inbounds nuw %"struct.Gluco2::Lit", ptr %9, i32 0, i32 0
  store i32 %35, ptr %36, align 4
  call void @_ZN6Gluco28OccListsINS_3LitENS_3vecINS_6Solver7WatcherEEENS3_14WatcherDeletedEE4initERKS1_(ptr noundef nonnull align 8 dereferenceable(56) %33, ptr noundef nonnull align 4 dereferenceable(4) %9)
  call void @llvm.lifetime.end.p0(i64 4, ptr %9) #2
  %37 = getelementptr inbounds nuw %"class.Gluco2::Solver", ptr %27, i32 0, i32 65
  call void @llvm.lifetime.start.p0(i64 4, ptr %10) #2
  %38 = load i32, ptr %7, align 4, !tbaa !35
  %39 = call i32 @_ZN6Gluco25mkLitEib(i32 noundef %38, i1 noundef zeroext false)
  %40 = getelementptr inbounds nuw %"struct.Gluco2::Lit", ptr %10, i32 0, i32 0
  store i32 %39, ptr %40, align 4
  call void @_ZN6Gluco28OccListsINS_3LitENS_3vecINS_6Solver7WatcherEEENS3_14WatcherDeletedEE4initERKS1_(ptr noundef nonnull align 8 dereferenceable(56) %37, ptr noundef nonnull align 4 dereferenceable(4) %10)
  call void @llvm.lifetime.end.p0(i64 4, ptr %10) #2
  %41 = getelementptr inbounds nuw %"class.Gluco2::Solver", ptr %27, i32 0, i32 65
  call void @llvm.lifetime.start.p0(i64 4, ptr %11) #2
  %42 = load i32, ptr %7, align 4, !tbaa !35
  %43 = call i32 @_ZN6Gluco25mkLitEib(i32 noundef %42, i1 noundef zeroext true)
  %44 = getelementptr inbounds nuw %"struct.Gluco2::Lit", ptr %11, i32 0, i32 0
  store i32 %43, ptr %44, align 4
  call void @_ZN6Gluco28OccListsINS_3LitENS_3vecINS_6Solver7WatcherEEENS3_14WatcherDeletedEE4initERKS1_(ptr noundef nonnull align 8 dereferenceable(56) %41, ptr noundef nonnull align 4 dereferenceable(4) %11)
  call void @llvm.lifetime.end.p0(i64 4, ptr %11) #2
  %45 = getelementptr inbounds nuw %"class.Gluco2::Solver", ptr %27, i32 0, i32 68
  call void @llvm.lifetime.start.p0(i64 1, ptr %12) #2
  call void @_ZN6Gluco25lboolC2Eh(ptr noundef nonnull align 1 dereferenceable(1) %12, i8 noundef zeroext 2)
  call void @_ZN6Gluco23vecINS_5lboolEE4pushERKS1_(ptr noundef nonnull align 8 dereferenceable(16) %45, ptr noundef nonnull align 1 dereferenceable(1) %12)
  call void @llvm.lifetime.end.p0(i64 1, ptr %12) #2
  %46 = getelementptr inbounds nuw %"class.Gluco2::Solver", ptr %27, i32 0, i32 74
  call void @llvm.lifetime.start.p0(i64 8, ptr %13) #2
  %47 = call i64 @_ZN6Gluco26Solver9mkVarDataEji(i32 noundef -1, i32 noundef 0)
  store i64 %47, ptr %13, align 4
  call void @_ZN6Gluco23vecINS_6Solver7VarDataEE4pushERKS2_(ptr noundef nonnull align 8 dereferenceable(16) %46, ptr noundef nonnull align 4 dereferenceable(8) %13)
  call void @llvm.lifetime.end.p0(i64 8, ptr %13) #2
  %48 = getelementptr inbounds nuw %"class.Gluco2::Solver", ptr %27, i32 0, i32 62
  call void @llvm.lifetime.start.p0(i64 8, ptr %14) #2
  %49 = getelementptr inbounds nuw %"class.Gluco2::Solver", ptr %27, i32 0, i32 33
  %50 = load i8, ptr %49, align 1, !tbaa !112, !range !14, !noundef !15
  %51 = trunc i8 %50 to i1
  br i1 %51, label %52, label %56

52:                                               ; preds = %3
  %53 = getelementptr inbounds nuw %"class.Gluco2::Solver", ptr %27, i32 0, i32 29
  %54 = call noundef double @_ZN6Gluco26Solver5drandERd(ptr noundef nonnull align 8 dereferenceable(8) %53)
  %55 = fmul double %54, 1.000000e-05
  br label %57

56:                                               ; preds = %3
  br label %57

57:                                               ; preds = %56, %52
  %58 = phi double [ %55, %52 ], [ 0.000000e+00, %56 ]
  store double %58, ptr %14, align 8, !tbaa !21
  call void @_ZN6Gluco23vecIdE4pushERKd(ptr noundef nonnull align 8 dereferenceable(16) %48, ptr noundef nonnull align 8 dereferenceable(8) %14)
  call void @llvm.lifetime.end.p0(i64 8, ptr %14) #2
  %59 = getelementptr inbounds nuw %"class.Gluco2::Solver", ptr %27, i32 0, i32 90
  call void @llvm.lifetime.start.p0(i64 1, ptr %15) #2
  store i8 0, ptr %15, align 1, !tbaa !235
  call void @_ZN6Gluco23vecIcE4pushERKc(ptr noundef nonnull align 8 dereferenceable(16) %59, ptr noundef nonnull align 1 dereferenceable(1) %15)
  call void @llvm.lifetime.end.p0(i64 1, ptr %15) #2
  %60 = getelementptr inbounds nuw %"class.Gluco2::Solver", ptr %27, i32 0, i32 82
  call void @llvm.lifetime.start.p0(i64 4, ptr %16) #2
  store i32 0, ptr %16, align 4, !tbaa !35
  call void @_ZN6Gluco23vecIjE4pushERKj(ptr noundef nonnull align 8 dereferenceable(16) %60, ptr noundef nonnull align 4 dereferenceable(4) %16)
  call void @llvm.lifetime.end.p0(i64 4, ptr %16) #2
  %61 = getelementptr inbounds nuw %"class.Gluco2::Solver", ptr %27, i32 0, i32 69
  call void @llvm.lifetime.start.p0(i64 1, ptr %17) #2
  %62 = load i8, ptr %5, align 1, !tbaa !10, !range !14, !noundef !15
  %63 = trunc i8 %62 to i1
  %64 = zext i1 %63 to i8
  store i8 %64, ptr %17, align 1, !tbaa !235
  call void @_ZN6Gluco23vecIcE4pushERKc(ptr noundef nonnull align 8 dereferenceable(16) %61, ptr noundef nonnull align 1 dereferenceable(1) %17)
  call void @llvm.lifetime.end.p0(i64 1, ptr %17) #2
  %65 = getelementptr inbounds nuw %"class.Gluco2::Solver", ptr %27, i32 0, i32 70
  call void @_ZN6Gluco23vecIcE4pushEv(ptr noundef nonnull align 8 dereferenceable(16) %65)
  %66 = getelementptr inbounds nuw %"class.Gluco2::Solver", ptr %27, i32 0, i32 71
  %67 = load i32, ptr %7, align 4, !tbaa !35
  %68 = add nsw i32 %67, 1
  call void @_ZN6Gluco23vecINS_3LitEE8capacityEi(ptr noundef nonnull align 8 dereferenceable(16) %66, i32 noundef %68)
  %69 = call noundef i32 @_ZNK6Gluco26Solver9justUsageEv(ptr noundef nonnull align 8 dereferenceable(1416) %27)
  %70 = icmp ne i32 %69, 0
  br i1 %70, label %71, label %91

71:                                               ; preds = %57
  %72 = getelementptr inbounds nuw %"class.Gluco2::Solver", ptr %27, i32 0, i32 119
  call void @llvm.lifetime.start.p0(i64 4, ptr %18) #2
  store i32 -1, ptr %18, align 4, !tbaa !35
  call void @_ZN6Gluco23vecIiE4pushERKi(ptr noundef nonnull align 8 dereferenceable(16) %72, ptr noundef nonnull align 4 dereferenceable(4) %18)
  call void @llvm.lifetime.end.p0(i64 4, ptr %18) #2
  %73 = getelementptr inbounds nuw %"class.Gluco2::Solver", ptr %27, i32 0, i32 120
  call void @llvm.lifetime.start.p0(i64 4, ptr %19) #2
  store i32 -1, ptr %19, align 4, !tbaa !35
  call void @_ZN6Gluco23vecIiE4pushERKi(ptr noundef nonnull align 8 dereferenceable(16) %73, ptr noundef nonnull align 4 dereferenceable(4) %19)
  call void @llvm.lifetime.end.p0(i64 4, ptr %19) #2
  %74 = getelementptr inbounds nuw %"class.Gluco2::Solver", ptr %27, i32 0, i32 113
  %75 = call noundef i32 @_ZNK6Gluco26Solver5nVarsEv(ptr noundef nonnull align 8 dereferenceable(1416) %27)
  %76 = shl i32 %75, 1
  call void @llvm.lifetime.start.p0(i64 4, ptr %20) #2
  %77 = call i32 @_ZN6Gluco25toLitEi(i32 noundef -1)
  %78 = getelementptr inbounds nuw %"struct.Gluco2::Lit", ptr %20, i32 0, i32 0
  store i32 %77, ptr %78, align 4
  call void @_ZN6Gluco23vecINS_3LitEE6growToEiRKS1_(ptr noundef nonnull align 8 dereferenceable(16) %74, i32 noundef %76, ptr noundef nonnull align 4 dereferenceable(4) %20)
  call void @llvm.lifetime.end.p0(i64 4, ptr %20) #2
  %79 = getelementptr inbounds nuw %"class.Gluco2::Solver", ptr %27, i32 0, i32 112
  %80 = call noundef i32 @_ZNK6Gluco26Solver5nVarsEv(ptr noundef nonnull align 8 dereferenceable(1416) %27)
  call void @llvm.lifetime.start.p0(i64 4, ptr %21) #2
  %81 = call i32 @_ZN6Gluco25toLitEi(i32 noundef -1)
  %82 = getelementptr inbounds nuw %"struct.Gluco2::Lit", ptr %21, i32 0, i32 0
  store i32 %81, ptr %82, align 4
  call void @_ZN6Gluco23vecINS_3LitEE6growToEiRKS1_(ptr noundef nonnull align 8 dereferenceable(16) %79, i32 noundef %80, ptr noundef nonnull align 4 dereferenceable(4) %21)
  call void @llvm.lifetime.end.p0(i64 4, ptr %21) #2
  %83 = getelementptr inbounds nuw %"class.Gluco2::Solver", ptr %27, i32 0, i32 110
  %84 = call noundef i32 @_ZNK6Gluco26Solver5nVarsEv(ptr noundef nonnull align 8 dereferenceable(1416) %27)
  call void @llvm.lifetime.start.p0(i64 12, ptr %22) #2
  %85 = call { i64, i32 } @_ZN6Gluco26Solver10mkNodeDataEv()
  store { i64, i32 } %85, ptr %23, align 8
  call void @llvm.memcpy.p0.p0.i64(ptr align 4 %22, ptr align 8 %23, i64 12, i1 false)
  call void @_ZN6Gluco23vecINS_6Solver8NodeDataEE6growToEiRKS2_(ptr noundef nonnull align 8 dereferenceable(16) %83, i32 noundef %84, ptr noundef nonnull align 4 dereferenceable(12) %22)
  call void @llvm.lifetime.end.p0(i64 12, ptr %22) #2
  %86 = getelementptr inbounds nuw %"class.Gluco2::Solver", ptr %27, i32 0, i32 111
  %87 = call noundef i32 @_ZNK6Gluco26Solver5nVarsEv(ptr noundef nonnull align 8 dereferenceable(1416) %27)
  call void @llvm.lifetime.start.p0(i64 4, ptr %24) #2
  store i32 0, ptr %24, align 4, !tbaa !35
  call void @_ZN6Gluco23vecIjE6growToEiRKj(ptr noundef nonnull align 8 dereferenceable(16) %86, i32 noundef %87, ptr noundef nonnull align 4 dereferenceable(4) %24)
  call void @llvm.lifetime.end.p0(i64 4, ptr %24) #2
  %88 = load i32, ptr %7, align 4, !tbaa !35
  %89 = load i8, ptr %6, align 1, !tbaa !10, !range !14, !noundef !15
  %90 = trunc i8 %89 to i1
  call void @_ZN6Gluco26Solver14setDecisionVarEibb(ptr noundef nonnull align 8 dereferenceable(1416) %27, i32 noundef %88, i1 noundef zeroext %90, i1 noundef zeroext false)
  br label %95

91:                                               ; preds = %57
  %92 = load i32, ptr %7, align 4, !tbaa !35
  %93 = load i8, ptr %6, align 1, !tbaa !10, !range !14, !noundef !15
  %94 = trunc i8 %93 to i1
  call void @_ZN6Gluco26Solver14setDecisionVarEibb(ptr noundef nonnull align 8 dereferenceable(1416) %27, i32 noundef %92, i1 noundef zeroext %94, i1 noundef zeroext true)
  br label %95

95:                                               ; preds = %91, %71
  %96 = load i32, ptr %7, align 4, !tbaa !35
  call void @llvm.lifetime.end.p0(i64 4, ptr %7) #2
  ret i32 %96
}

; Function Attrs: inlinehint mustprogress nounwind uwtable
define linkonce_odr noundef i32 @_ZNK6Gluco26Solver5nVarsEv(ptr noundef nonnull align 8 dereferenceable(1416) %0) #6 comdat align 2 {
  %2 = alloca ptr, align 8
  store ptr %0, ptr %2, align 8, !tbaa !51
  %3 = load ptr, ptr %2, align 8
  %4 = getelementptr inbounds nuw %"class.Gluco2::Solver", ptr %3, i32 0, i32 74
  %5 = call noundef i32 @_ZNK6Gluco23vecINS_6Solver7VarDataEE4sizeEv(ptr noundef nonnull align 8 dereferenceable(16) %4)
  ret i32 %5
}

; Function Attrs: mustprogress nounwind uwtable
define linkonce_odr void @_ZN6Gluco28OccListsINS_3LitENS_3vecINS_6Solver7WatcherEEENS3_14WatcherDeletedEE4initERKS1_(ptr noundef nonnull align 8 dereferenceable(56) %0, ptr noundef nonnull align 4 dereferenceable(4) %1) #1 comdat align 2 {
  %3 = alloca ptr, align 8
  %4 = alloca ptr, align 8
  %5 = alloca %"struct.Gluco2::Lit", align 4
  %6 = alloca %"struct.Gluco2::Lit", align 4
  %7 = alloca i8, align 1
  store ptr %0, ptr %3, align 8, !tbaa !186
  store ptr %1, ptr %4, align 8, !tbaa !239
  %8 = load ptr, ptr %3, align 8
  %9 = getelementptr inbounds nuw %"class.Gluco2::OccLists", ptr %8, i32 0, i32 0
  %10 = load ptr, ptr %4, align 8, !tbaa !239
  call void @llvm.memcpy.p0.p0.i64(ptr align 4 %5, ptr align 4 %10, i64 4, i1 false), !tbaa.struct !240
  %11 = getelementptr inbounds nuw %"struct.Gluco2::Lit", ptr %5, i32 0, i32 0
  %12 = load i32, ptr %11, align 4
  %13 = call noundef i32 @_ZN6Gluco25toIntENS_3LitE(i32 %12)
  %14 = add nsw i32 %13, 1
  call void @_ZN6Gluco23vecINS0_INS_6Solver7WatcherEEEE6growToEi(ptr noundef nonnull align 8 dereferenceable(16) %9, i32 noundef %14)
  %15 = getelementptr inbounds nuw %"class.Gluco2::OccLists", ptr %8, i32 0, i32 1
  %16 = load ptr, ptr %4, align 8, !tbaa !239
  call void @llvm.memcpy.p0.p0.i64(ptr align 4 %6, ptr align 4 %16, i64 4, i1 false), !tbaa.struct !240
  %17 = getelementptr inbounds nuw %"struct.Gluco2::Lit", ptr %6, i32 0, i32 0
  %18 = load i32, ptr %17, align 4
  %19 = call noundef i32 @_ZN6Gluco25toIntENS_3LitE(i32 %18)
  %20 = add nsw i32 %19, 1
  call void @llvm.lifetime.start.p0(i64 1, ptr %7) #2
  store i8 0, ptr %7, align 1, !tbaa !235
  call void @_ZN6Gluco23vecIcE6growToEiRKc(ptr noundef nonnull align 8 dereferenceable(16) %15, i32 noundef %20, ptr noundef nonnull align 1 dereferenceable(1) %7)
  call void @llvm.lifetime.end.p0(i64 1, ptr %7) #2
  ret void
}

; Function Attrs: inlinehint mustprogress nounwind uwtable
define linkonce_odr i32 @_ZN6Gluco25mkLitEib(i32 noundef %0, i1 noundef zeroext %1) #6 comdat {
  %3 = alloca %"struct.Gluco2::Lit", align 4
  %4 = alloca i32, align 4
  %5 = alloca i8, align 1
  store i32 %0, ptr %4, align 4, !tbaa !35
  %6 = zext i1 %1 to i8
  store i8 %6, ptr %5, align 1, !tbaa !10
  %7 = load i32, ptr %4, align 4, !tbaa !35
  %8 = load i32, ptr %4, align 4, !tbaa !35
  %9 = add nsw i32 %7, %8
  %10 = load i8, ptr %5, align 1, !tbaa !10, !range !14, !noundef !15
  %11 = trunc i8 %10 to i1
  %12 = zext i1 %11 to i32
  %13 = add nsw i32 %9, %12
  %14 = getelementptr inbounds nuw %"struct.Gluco2::Lit", ptr %3, i32 0, i32 0
  store i32 %13, ptr %14, align 4, !tbaa !241
  %15 = getelementptr inbounds nuw %"struct.Gluco2::Lit", ptr %3, i32 0, i32 0
  %16 = load i32, ptr %15, align 4
  ret i32 %16
}

; Function Attrs: mustprogress nounwind uwtable
define linkonce_odr void @_ZN6Gluco23vecINS_5lboolEE4pushERKS1_(ptr noundef nonnull align 8 dereferenceable(16) %0, ptr noundef nonnull align 1 dereferenceable(1) %1) #1 comdat align 2 {
  %3 = alloca ptr, align 8
  %4 = alloca ptr, align 8
  store ptr %0, ptr %3, align 8, !tbaa !174
  store ptr %1, ptr %4, align 8, !tbaa !243
  %5 = load ptr, ptr %3, align 8
  %6 = getelementptr inbounds nuw %"class.Gluco2::vec.1", ptr %5, i32 0, i32 1
  %7 = load i32, ptr %6, align 8, !tbaa !177
  %8 = getelementptr inbounds nuw %"class.Gluco2::vec.1", ptr %5, i32 0, i32 2
  %9 = load i32, ptr %8, align 4, !tbaa !178
  %10 = icmp eq i32 %7, %9
  br i1 %10, label %11, label %15

11:                                               ; preds = %2
  %12 = getelementptr inbounds nuw %"class.Gluco2::vec.1", ptr %5, i32 0, i32 1
  %13 = load i32, ptr %12, align 8, !tbaa !177
  %14 = add nsw i32 %13, 1
  call void @_ZN6Gluco23vecINS_5lboolEE8capacityEi(ptr noundef nonnull align 8 dereferenceable(16) %5, i32 noundef %14)
  br label %15

15:                                               ; preds = %11, %2
  %16 = load ptr, ptr %4, align 8, !tbaa !243
  %17 = getelementptr inbounds nuw %"class.Gluco2::vec.1", ptr %5, i32 0, i32 0
  %18 = load ptr, ptr %17, align 8, !tbaa !176
  %19 = getelementptr inbounds nuw %"class.Gluco2::vec.1", ptr %5, i32 0, i32 1
  %20 = load i32, ptr %19, align 8, !tbaa !177
  %21 = add nsw i32 %20, 1
  store i32 %21, ptr %19, align 8, !tbaa !177
  %22 = sext i32 %20 to i64
  %23 = getelementptr inbounds %"class.Gluco2::lbool", ptr %18, i64 %22
  call void @llvm.memcpy.p0.p0.i64(ptr align 1 %23, ptr align 1 %16, i64 1, i1 false), !tbaa.struct !244
  ret void
}

; Function Attrs: mustprogress nounwind uwtable
define linkonce_odr void @_ZN6Gluco25lboolC2Eh(ptr noundef nonnull align 1 dereferenceable(1) %0, i8 noundef zeroext %1) unnamed_addr #1 comdat align 2 {
  %3 = alloca ptr, align 8
  %4 = alloca i8, align 1
  store ptr %0, ptr %3, align 8, !tbaa !243
  store i8 %1, ptr %4, align 1, !tbaa !235
  %5 = load ptr, ptr %3, align 8
  %6 = getelementptr inbounds nuw %"class.Gluco2::lbool", ptr %5, i32 0, i32 0
  %7 = load i8, ptr %4, align 1, !tbaa !235
  store i8 %7, ptr %6, align 1, !tbaa !245
  ret void
}

; Function Attrs: mustprogress nounwind uwtable
define linkonce_odr void @_ZN6Gluco23vecINS_6Solver7VarDataEE4pushERKS2_(ptr noundef nonnull align 8 dereferenceable(16) %0, ptr noundef nonnull align 4 dereferenceable(8) %1) #1 comdat align 2 {
  %3 = alloca ptr, align 8
  %4 = alloca ptr, align 8
  store ptr %0, ptr %3, align 8, !tbaa !199
  store ptr %1, ptr %4, align 8, !tbaa !247
  %5 = load ptr, ptr %3, align 8
  %6 = getelementptr inbounds nuw %"class.Gluco2::vec.6", ptr %5, i32 0, i32 1
  %7 = load i32, ptr %6, align 8, !tbaa !202
  %8 = getelementptr inbounds nuw %"class.Gluco2::vec.6", ptr %5, i32 0, i32 2
  %9 = load i32, ptr %8, align 4, !tbaa !203
  %10 = icmp eq i32 %7, %9
  br i1 %10, label %11, label %15

11:                                               ; preds = %2
  %12 = getelementptr inbounds nuw %"class.Gluco2::vec.6", ptr %5, i32 0, i32 1
  %13 = load i32, ptr %12, align 8, !tbaa !202
  %14 = add nsw i32 %13, 1
  call void @_ZN6Gluco23vecINS_6Solver7VarDataEE8capacityEi(ptr noundef nonnull align 8 dereferenceable(16) %5, i32 noundef %14)
  br label %15

15:                                               ; preds = %11, %2
  %16 = load ptr, ptr %4, align 8, !tbaa !247
  %17 = getelementptr inbounds nuw %"class.Gluco2::vec.6", ptr %5, i32 0, i32 0
  %18 = load ptr, ptr %17, align 8, !tbaa !201
  %19 = getelementptr inbounds nuw %"class.Gluco2::vec.6", ptr %5, i32 0, i32 1
  %20 = load i32, ptr %19, align 8, !tbaa !202
  %21 = add nsw i32 %20, 1
  store i32 %21, ptr %19, align 8, !tbaa !202
  %22 = sext i32 %20 to i64
  %23 = getelementptr inbounds %"struct.Gluco2::Solver::VarData", ptr %18, i64 %22
  call void @llvm.memcpy.p0.p0.i64(ptr align 4 %23, ptr align 4 %16, i64 8, i1 false), !tbaa.struct !42
  ret void
}

; Function Attrs: inlinehint mustprogress nounwind uwtable
define linkonce_odr i64 @_ZN6Gluco26Solver9mkVarDataEji(i32 noundef %0, i32 noundef %1) #6 comdat align 2 {
  %3 = alloca %"struct.Gluco2::Solver::VarData", align 4
  %4 = alloca i32, align 4
  %5 = alloca i32, align 4
  store i32 %0, ptr %4, align 4, !tbaa !35
  store i32 %1, ptr %5, align 4, !tbaa !35
  %6 = getelementptr inbounds nuw %"struct.Gluco2::Solver::VarData", ptr %3, i32 0, i32 0
  %7 = load i32, ptr %4, align 4, !tbaa !35
  store i32 %7, ptr %6, align 4, !tbaa !248
  %8 = getelementptr inbounds nuw %"struct.Gluco2::Solver::VarData", ptr %3, i32 0, i32 1
  %9 = load i32, ptr %5, align 4, !tbaa !35
  store i32 %9, ptr %8, align 4, !tbaa !250
  %10 = load i64, ptr %3, align 4
  ret i64 %10
}

; Function Attrs: mustprogress nounwind uwtable
define linkonce_odr void @_ZN6Gluco23vecIdE4pushERKd(ptr noundef nonnull align 8 dereferenceable(16) %0, ptr noundef nonnull align 8 dereferenceable(8) %1) #1 comdat align 2 {
  %3 = alloca ptr, align 8
  %4 = alloca ptr, align 8
  store ptr %0, ptr %3, align 8, !tbaa !179
  store ptr %1, ptr %4, align 8, !tbaa !251
  %5 = load ptr, ptr %3, align 8
  %6 = getelementptr inbounds nuw %"class.Gluco2::vec.2", ptr %5, i32 0, i32 1
  %7 = load i32, ptr %6, align 8, !tbaa !181
  %8 = getelementptr inbounds nuw %"class.Gluco2::vec.2", ptr %5, i32 0, i32 2
  %9 = load i32, ptr %8, align 4, !tbaa !182
  %10 = icmp eq i32 %7, %9
  br i1 %10, label %11, label %15

11:                                               ; preds = %2
  %12 = getelementptr inbounds nuw %"class.Gluco2::vec.2", ptr %5, i32 0, i32 1
  %13 = load i32, ptr %12, align 8, !tbaa !181
  %14 = add nsw i32 %13, 1
  call void @_ZN6Gluco23vecIdE8capacityEi(ptr noundef nonnull align 8 dereferenceable(16) %5, i32 noundef %14)
  br label %15

15:                                               ; preds = %11, %2
  %16 = load ptr, ptr %4, align 8, !tbaa !251
  %17 = load double, ptr %16, align 8, !tbaa !21
  %18 = getelementptr inbounds nuw %"class.Gluco2::vec.2", ptr %5, i32 0, i32 0
  %19 = load ptr, ptr %18, align 8, !tbaa !180
  %20 = getelementptr inbounds nuw %"class.Gluco2::vec.2", ptr %5, i32 0, i32 1
  %21 = load i32, ptr %20, align 8, !tbaa !181
  %22 = add nsw i32 %21, 1
  store i32 %22, ptr %20, align 8, !tbaa !181
  %23 = sext i32 %21 to i64
  %24 = getelementptr inbounds double, ptr %19, i64 %23
  store double %17, ptr %24, align 8, !tbaa !21
  ret void
}

; Function Attrs: inlinehint mustprogress nounwind uwtable
define linkonce_odr noundef double @_ZN6Gluco26Solver5drandERd(ptr noundef nonnull align 8 dereferenceable(8) %0) #6 comdat align 2 {
  %2 = alloca ptr, align 8
  %3 = alloca i32, align 4
  store ptr %0, ptr %2, align 8, !tbaa !251
  %4 = load ptr, ptr %2, align 8, !tbaa !251
  %5 = load double, ptr %4, align 8, !tbaa !21
  %6 = fmul double %5, 0x413534E400000000
  store double %6, ptr %4, align 8, !tbaa !21
  call void @llvm.lifetime.start.p0(i64 4, ptr %3) #2
  %7 = load ptr, ptr %2, align 8, !tbaa !251
  %8 = load double, ptr %7, align 8, !tbaa !21
  %9 = fdiv double %8, 0x41DFFFFFFFC00000
  %10 = fptosi double %9 to i32
  store i32 %10, ptr %3, align 4, !tbaa !35
  %11 = load i32, ptr %3, align 4, !tbaa !35
  %12 = sitofp i32 %11 to double
  %13 = load ptr, ptr %2, align 8, !tbaa !251
  %14 = load double, ptr %13, align 8, !tbaa !21
  %15 = fneg double %12
  %16 = call double @llvm.fmuladd.f64(double %15, double 0x41DFFFFFFFC00000, double %14)
  store double %16, ptr %13, align 8, !tbaa !21
  %17 = load ptr, ptr %2, align 8, !tbaa !251
  %18 = load double, ptr %17, align 8, !tbaa !21
  %19 = fdiv double %18, 0x41DFFFFFFFC00000
  call void @llvm.lifetime.end.p0(i64 4, ptr %3) #2
  ret double %19
}

; Function Attrs: mustprogress nounwind uwtable
define linkonce_odr void @_ZN6Gluco23vecIcE4pushERKc(ptr noundef nonnull align 8 dereferenceable(16) %0, ptr noundef nonnull align 1 dereferenceable(1) %1) #1 comdat align 2 {
  %3 = alloca ptr, align 8
  %4 = alloca ptr, align 8
  store ptr %0, ptr %3, align 8, !tbaa !194
  store ptr %1, ptr %4, align 8, !tbaa !3
  %5 = load ptr, ptr %3, align 8
  %6 = getelementptr inbounds nuw %"class.Gluco2::vec.4", ptr %5, i32 0, i32 1
  %7 = load i32, ptr %6, align 8, !tbaa !197
  %8 = getelementptr inbounds nuw %"class.Gluco2::vec.4", ptr %5, i32 0, i32 2
  %9 = load i32, ptr %8, align 4, !tbaa !198
  %10 = icmp eq i32 %7, %9
  br i1 %10, label %11, label %15

11:                                               ; preds = %2
  %12 = getelementptr inbounds nuw %"class.Gluco2::vec.4", ptr %5, i32 0, i32 1
  %13 = load i32, ptr %12, align 8, !tbaa !197
  %14 = add nsw i32 %13, 1
  call void @_ZN6Gluco23vecIcE8capacityEi(ptr noundef nonnull align 8 dereferenceable(16) %5, i32 noundef %14)
  br label %15

15:                                               ; preds = %11, %2
  %16 = load ptr, ptr %4, align 8, !tbaa !3
  %17 = load i8, ptr %16, align 1, !tbaa !235
  %18 = getelementptr inbounds nuw %"class.Gluco2::vec.4", ptr %5, i32 0, i32 0
  %19 = load ptr, ptr %18, align 8, !tbaa !196
  %20 = getelementptr inbounds nuw %"class.Gluco2::vec.4", ptr %5, i32 0, i32 1
  %21 = load i32, ptr %20, align 8, !tbaa !197
  %22 = add nsw i32 %21, 1
  store i32 %22, ptr %20, align 8, !tbaa !197
  %23 = sext i32 %21 to i64
  %24 = getelementptr inbounds i8, ptr %19, i64 %23
  store i8 %17, ptr %24, align 1, !tbaa !235
  ret void
}

; Function Attrs: mustprogress nounwind uwtable
define linkonce_odr void @_ZN6Gluco23vecIjE4pushERKj(ptr noundef nonnull align 8 dereferenceable(16) %0, ptr noundef nonnull align 4 dereferenceable(4) %1) #1 comdat align 2 {
  %3 = alloca ptr, align 8
  %4 = alloca ptr, align 8
  store ptr %0, ptr %3, align 8, !tbaa !189
  store ptr %1, ptr %4, align 8, !tbaa !252
  %5 = load ptr, ptr %3, align 8
  %6 = getelementptr inbounds nuw %"class.Gluco2::vec.5", ptr %5, i32 0, i32 1
  %7 = load i32, ptr %6, align 8, !tbaa !192
  %8 = getelementptr inbounds nuw %"class.Gluco2::vec.5", ptr %5, i32 0, i32 2
  %9 = load i32, ptr %8, align 4, !tbaa !193
  %10 = icmp eq i32 %7, %9
  br i1 %10, label %11, label %15

11:                                               ; preds = %2
  %12 = getelementptr inbounds nuw %"class.Gluco2::vec.5", ptr %5, i32 0, i32 1
  %13 = load i32, ptr %12, align 8, !tbaa !192
  %14 = add nsw i32 %13, 1
  call void @_ZN6Gluco23vecIjE8capacityEi(ptr noundef nonnull align 8 dereferenceable(16) %5, i32 noundef %14)
  br label %15

15:                                               ; preds = %11, %2
  %16 = load ptr, ptr %4, align 8, !tbaa !252
  %17 = load i32, ptr %16, align 4, !tbaa !35
  %18 = getelementptr inbounds nuw %"class.Gluco2::vec.5", ptr %5, i32 0, i32 0
  %19 = load ptr, ptr %18, align 8, !tbaa !191
  %20 = getelementptr inbounds nuw %"class.Gluco2::vec.5", ptr %5, i32 0, i32 1
  %21 = load i32, ptr %20, align 8, !tbaa !192
  %22 = add nsw i32 %21, 1
  store i32 %22, ptr %20, align 8, !tbaa !192
  %23 = sext i32 %21 to i64
  %24 = getelementptr inbounds i32, ptr %19, i64 %23
  store i32 %17, ptr %24, align 4, !tbaa !35
  ret void
}

; Function Attrs: mustprogress nounwind uwtable
define linkonce_odr void @_ZN6Gluco23vecIcE4pushEv(ptr noundef nonnull align 8 dereferenceable(16) %0) #1 comdat align 2 {
  %2 = alloca ptr, align 8
  store ptr %0, ptr %2, align 8, !tbaa !194
  %3 = load ptr, ptr %2, align 8
  %4 = getelementptr inbounds nuw %"class.Gluco2::vec.4", ptr %3, i32 0, i32 1
  %5 = load i32, ptr %4, align 8, !tbaa !197
  %6 = getelementptr inbounds nuw %"class.Gluco2::vec.4", ptr %3, i32 0, i32 2
  %7 = load i32, ptr %6, align 4, !tbaa !198
  %8 = icmp eq i32 %5, %7
  br i1 %8, label %9, label %13

9:                                                ; preds = %1
  %10 = getelementptr inbounds nuw %"class.Gluco2::vec.4", ptr %3, i32 0, i32 1
  %11 = load i32, ptr %10, align 8, !tbaa !197
  %12 = add nsw i32 %11, 1
  call void @_ZN6Gluco23vecIcE8capacityEi(ptr noundef nonnull align 8 dereferenceable(16) %3, i32 noundef %12)
  br label %13

13:                                               ; preds = %9, %1
  %14 = getelementptr inbounds nuw %"class.Gluco2::vec.4", ptr %3, i32 0, i32 0
  %15 = load ptr, ptr %14, align 8, !tbaa !196
  %16 = getelementptr inbounds nuw %"class.Gluco2::vec.4", ptr %3, i32 0, i32 1
  %17 = load i32, ptr %16, align 8, !tbaa !197
  %18 = sext i32 %17 to i64
  %19 = getelementptr inbounds i8, ptr %15, i64 %18
  store i8 0, ptr %19, align 1, !tbaa !235
  %20 = getelementptr inbounds nuw %"class.Gluco2::vec.4", ptr %3, i32 0, i32 1
  %21 = load i32, ptr %20, align 8, !tbaa !197
  %22 = add nsw i32 %21, 1
  store i32 %22, ptr %20, align 8, !tbaa !197
  ret void
}

; Function Attrs: mustprogress nounwind uwtable
define linkonce_odr void @_ZN6Gluco23vecINS_3LitEE8capacityEi(ptr noundef nonnull align 8 dereferenceable(16) %0, i32 noundef %1) #1 comdat align 2 {
  %3 = alloca ptr, align 8
  %4 = alloca i32, align 4
  %5 = alloca i32, align 4
  store ptr %0, ptr %3, align 8, !tbaa !169
  store i32 %1, ptr %4, align 4, !tbaa !35
  %6 = load ptr, ptr %3, align 8
  %7 = getelementptr inbounds nuw %"class.Gluco2::vec.0", ptr %6, i32 0, i32 2
  %8 = load i32, ptr %7, align 4, !tbaa !173
  %9 = load i32, ptr %4, align 4, !tbaa !35
  %10 = icmp sge i32 %8, %9
  br i1 %10, label %11, label %12

11:                                               ; preds = %2
  br label %48

12:                                               ; preds = %2
  call void @llvm.lifetime.start.p0(i64 4, ptr %5) #2
  %13 = load i32, ptr %4, align 4, !tbaa !35
  %14 = getelementptr inbounds nuw %"class.Gluco2::vec.0", ptr %6, i32 0, i32 2
  %15 = load i32, ptr %14, align 4, !tbaa !173
  %16 = sub nsw i32 %13, %15
  %17 = add nsw i32 %16, 1
  %18 = and i32 %17, -2
  %19 = getelementptr inbounds nuw %"class.Gluco2::vec.0", ptr %6, i32 0, i32 2
  %20 = load i32, ptr %19, align 4, !tbaa !173
  %21 = ashr i32 %20, 1
  %22 = add nsw i32 %21, 2
  %23 = and i32 %22, -2
  %24 = call noundef i32 @_ZN6Gluco23vecINS_3LitEE4imaxEii(i32 noundef %18, i32 noundef %23)
  store i32 %24, ptr %5, align 4, !tbaa !35
  %25 = load i32, ptr %5, align 4, !tbaa !35
  %26 = getelementptr inbounds nuw %"class.Gluco2::vec.0", ptr %6, i32 0, i32 2
  %27 = load i32, ptr %26, align 4, !tbaa !173
  %28 = sub nsw i32 2147483647, %27
  %29 = icmp sgt i32 %25, %28
  br i1 %29, label %46, label %30

30:                                               ; preds = %12
  %31 = getelementptr inbounds nuw %"class.Gluco2::vec.0", ptr %6, i32 0, i32 0
  %32 = load ptr, ptr %31, align 8, !tbaa !171
  %33 = load i32, ptr %5, align 4, !tbaa !35
  %34 = getelementptr inbounds nuw %"class.Gluco2::vec.0", ptr %6, i32 0, i32 2
  %35 = load i32, ptr %34, align 4, !tbaa !173
  %36 = add nsw i32 %35, %33
  store i32 %36, ptr %34, align 4, !tbaa !173
  %37 = sext i32 %36 to i64
  %38 = mul i64 %37, 4
  %39 = call ptr @realloc(ptr noundef %32, i64 noundef %38) #19
  %40 = getelementptr inbounds nuw %"class.Gluco2::vec.0", ptr %6, i32 0, i32 0
  store ptr %39, ptr %40, align 8, !tbaa !171
  %41 = icmp eq ptr %39, null
  br i1 %41, label %42, label %47

42:                                               ; preds = %30
  %43 = call ptr @__errno_location() #20
  %44 = load i32, ptr %43, align 4, !tbaa !35
  %45 = icmp eq i32 %44, 12
  br i1 %45, label %46, label %47

46:                                               ; preds = %42, %12
  call void @_ZN6Gluco2L19fatal_out_of_memoryEv()
  br label %47

47:                                               ; preds = %46, %42, %30
  call void @llvm.lifetime.end.p0(i64 4, ptr %5) #2
  br label %48

48:                                               ; preds = %47, %11
  ret void
}

; Function Attrs: inlinehint mustprogress nounwind uwtable
define linkonce_odr noundef i32 @_ZNK6Gluco26Solver9justUsageEv(ptr noundef nonnull align 8 dereferenceable(1416) %0) #6 comdat align 2 {
  %2 = alloca ptr, align 8
  store ptr %0, ptr %2, align 8, !tbaa !51
  %3 = load ptr, ptr %2, align 8
  %4 = getelementptr inbounds nuw %"class.Gluco2::Solver", ptr %3, i32 0, i32 10
  %5 = load i32, ptr %4, align 8, !tbaa !159
  ret i32 %5
}

; Function Attrs: mustprogress nounwind uwtable
define linkonce_odr void @_ZN6Gluco23vecIiE4pushERKi(ptr noundef nonnull align 8 dereferenceable(16) %0, ptr noundef nonnull align 4 dereferenceable(4) %1) #1 comdat align 2 {
  %3 = alloca ptr, align 8
  %4 = alloca ptr, align 8
  store ptr %0, ptr %3, align 8, !tbaa !164
  store ptr %1, ptr %4, align 8, !tbaa !252
  %5 = load ptr, ptr %3, align 8
  %6 = getelementptr inbounds nuw %"class.Gluco2::vec", ptr %5, i32 0, i32 1
  %7 = load i32, ptr %6, align 8, !tbaa !167
  %8 = getelementptr inbounds nuw %"class.Gluco2::vec", ptr %5, i32 0, i32 2
  %9 = load i32, ptr %8, align 4, !tbaa !168
  %10 = icmp eq i32 %7, %9
  br i1 %10, label %11, label %15

11:                                               ; preds = %2
  %12 = getelementptr inbounds nuw %"class.Gluco2::vec", ptr %5, i32 0, i32 1
  %13 = load i32, ptr %12, align 8, !tbaa !167
  %14 = add nsw i32 %13, 1
  call void @_ZN6Gluco23vecIiE8capacityEi(ptr noundef nonnull align 8 dereferenceable(16) %5, i32 noundef %14)
  br label %15

15:                                               ; preds = %11, %2
  %16 = load ptr, ptr %4, align 8, !tbaa !252
  %17 = load i32, ptr %16, align 4, !tbaa !35
  %18 = getelementptr inbounds nuw %"class.Gluco2::vec", ptr %5, i32 0, i32 0
  %19 = load ptr, ptr %18, align 8, !tbaa !166
  %20 = getelementptr inbounds nuw %"class.Gluco2::vec", ptr %5, i32 0, i32 1
  %21 = load i32, ptr %20, align 8, !tbaa !167
  %22 = add nsw i32 %21, 1
  store i32 %22, ptr %20, align 8, !tbaa !167
  %23 = sext i32 %21 to i64
  %24 = getelementptr inbounds i32, ptr %19, i64 %23
  store i32 %17, ptr %24, align 4, !tbaa !35
  ret void
}

; Function Attrs: mustprogress nounwind uwtable
define linkonce_odr void @_ZN6Gluco23vecINS_3LitEE6growToEiRKS1_(ptr noundef nonnull align 8 dereferenceable(16) %0, i32 noundef %1, ptr noundef nonnull align 4 dereferenceable(4) %2) #1 comdat align 2 {
  %4 = alloca ptr, align 8
  %5 = alloca i32, align 4
  %6 = alloca ptr, align 8
  %7 = alloca i32, align 4
  store ptr %0, ptr %4, align 8, !tbaa !169
  store i32 %1, ptr %5, align 4, !tbaa !35
  store ptr %2, ptr %6, align 8, !tbaa !239
  %8 = load ptr, ptr %4, align 8
  %9 = getelementptr inbounds nuw %"class.Gluco2::vec.0", ptr %8, i32 0, i32 1
  %10 = load i32, ptr %9, align 8, !tbaa !172
  %11 = load i32, ptr %5, align 4, !tbaa !35
  %12 = icmp sge i32 %10, %11
  br i1 %12, label %13, label %14

13:                                               ; preds = %3
  br label %36

14:                                               ; preds = %3
  %15 = load i32, ptr %5, align 4, !tbaa !35
  call void @_ZN6Gluco23vecINS_3LitEE8capacityEi(ptr noundef nonnull align 8 dereferenceable(16) %8, i32 noundef %15)
  call void @llvm.lifetime.start.p0(i64 4, ptr %7) #2
  %16 = getelementptr inbounds nuw %"class.Gluco2::vec.0", ptr %8, i32 0, i32 1
  %17 = load i32, ptr %16, align 8, !tbaa !172
  store i32 %17, ptr %7, align 4, !tbaa !35
  br label %18

18:                                               ; preds = %30, %14
  %19 = load i32, ptr %7, align 4, !tbaa !35
  %20 = load i32, ptr %5, align 4, !tbaa !35
  %21 = icmp slt i32 %19, %20
  br i1 %21, label %23, label %22

22:                                               ; preds = %18
  call void @llvm.lifetime.end.p0(i64 4, ptr %7) #2
  br label %33

23:                                               ; preds = %18
  %24 = load ptr, ptr %6, align 8, !tbaa !239
  %25 = getelementptr inbounds nuw %"class.Gluco2::vec.0", ptr %8, i32 0, i32 0
  %26 = load ptr, ptr %25, align 8, !tbaa !171
  %27 = load i32, ptr %7, align 4, !tbaa !35
  %28 = sext i32 %27 to i64
  %29 = getelementptr inbounds %"struct.Gluco2::Lit", ptr %26, i64 %28
  call void @llvm.memcpy.p0.p0.i64(ptr align 4 %29, ptr align 4 %24, i64 4, i1 false), !tbaa.struct !240
  br label %30

30:                                               ; preds = %23
  %31 = load i32, ptr %7, align 4, !tbaa !35
  %32 = add nsw i32 %31, 1
  store i32 %32, ptr %7, align 4, !tbaa !35
  br label %18, !llvm.loop !253

33:                                               ; preds = %22
  %34 = load i32, ptr %5, align 4, !tbaa !35
  %35 = getelementptr inbounds nuw %"class.Gluco2::vec.0", ptr %8, i32 0, i32 1
  store i32 %34, ptr %35, align 8, !tbaa !172
  br label %36

36:                                               ; preds = %33, %13
  ret void
}

; Function Attrs: inlinehint mustprogress nounwind uwtable
define linkonce_odr i32 @_ZN6Gluco25toLitEi(i32 noundef %0) #6 comdat {
  %2 = alloca %"struct.Gluco2::Lit", align 4
  %3 = alloca i32, align 4
  store i32 %0, ptr %3, align 4, !tbaa !35
  %4 = load i32, ptr %3, align 4, !tbaa !35
  %5 = getelementptr inbounds nuw %"struct.Gluco2::Lit", ptr %2, i32 0, i32 0
  store i32 %4, ptr %5, align 4, !tbaa !241
  %6 = getelementptr inbounds nuw %"struct.Gluco2::Lit", ptr %2, i32 0, i32 0
  %7 = load i32, ptr %6, align 4
  ret i32 %7
}

; Function Attrs: mustprogress nounwind uwtable
define linkonce_odr void @_ZN6Gluco23vecINS_6Solver8NodeDataEE6growToEiRKS2_(ptr noundef nonnull align 8 dereferenceable(16) %0, i32 noundef %1, ptr noundef nonnull align 4 dereferenceable(12) %2) #1 comdat align 2 {
  %4 = alloca ptr, align 8
  %5 = alloca i32, align 4
  %6 = alloca ptr, align 8
  %7 = alloca i32, align 4
  store ptr %0, ptr %4, align 8, !tbaa !218
  store i32 %1, ptr %5, align 4, !tbaa !35
  store ptr %2, ptr %6, align 8, !tbaa !254
  %8 = load ptr, ptr %4, align 8
  %9 = getelementptr inbounds nuw %"class.Gluco2::vec.7", ptr %8, i32 0, i32 1
  %10 = load i32, ptr %9, align 8, !tbaa !221
  %11 = load i32, ptr %5, align 4, !tbaa !35
  %12 = icmp sge i32 %10, %11
  br i1 %12, label %13, label %14

13:                                               ; preds = %3
  br label %36

14:                                               ; preds = %3
  %15 = load i32, ptr %5, align 4, !tbaa !35
  call void @_ZN6Gluco23vecINS_6Solver8NodeDataEE8capacityEi(ptr noundef nonnull align 8 dereferenceable(16) %8, i32 noundef %15)
  call void @llvm.lifetime.start.p0(i64 4, ptr %7) #2
  %16 = getelementptr inbounds nuw %"class.Gluco2::vec.7", ptr %8, i32 0, i32 1
  %17 = load i32, ptr %16, align 8, !tbaa !221
  store i32 %17, ptr %7, align 4, !tbaa !35
  br label %18

18:                                               ; preds = %30, %14
  %19 = load i32, ptr %7, align 4, !tbaa !35
  %20 = load i32, ptr %5, align 4, !tbaa !35
  %21 = icmp slt i32 %19, %20
  br i1 %21, label %23, label %22

22:                                               ; preds = %18
  call void @llvm.lifetime.end.p0(i64 4, ptr %7) #2
  br label %33

23:                                               ; preds = %18
  %24 = load ptr, ptr %6, align 8, !tbaa !254
  %25 = getelementptr inbounds nuw %"class.Gluco2::vec.7", ptr %8, i32 0, i32 0
  %26 = load ptr, ptr %25, align 8, !tbaa !220
  %27 = load i32, ptr %7, align 4, !tbaa !35
  %28 = sext i32 %27 to i64
  %29 = getelementptr inbounds %"struct.Gluco2::Solver::NodeData", ptr %26, i64 %28
  call void @llvm.memcpy.p0.p0.i64(ptr align 4 %29, ptr align 4 %24, i64 12, i1 false), !tbaa.struct !255
  br label %30

30:                                               ; preds = %23
  %31 = load i32, ptr %7, align 4, !tbaa !35
  %32 = add nsw i32 %31, 1
  store i32 %32, ptr %7, align 4, !tbaa !35
  br label %18, !llvm.loop !256

33:                                               ; preds = %22
  %34 = load i32, ptr %5, align 4, !tbaa !35
  %35 = getelementptr inbounds nuw %"class.Gluco2::vec.7", ptr %8, i32 0, i32 1
  store i32 %34, ptr %35, align 8, !tbaa !221
  br label %36

36:                                               ; preds = %33, %13
  ret void
}

; Function Attrs: inlinehint mustprogress nounwind uwtable
define linkonce_odr { i64, i32 } @_ZN6Gluco26Solver10mkNodeDataEv() #6 comdat align 2 {
  %1 = alloca %"struct.Gluco2::Solver::NodeData", align 4
  %2 = alloca %"struct.Gluco2::Lit", align 4
  %3 = alloca %"struct.Gluco2::Lit", align 4
  %4 = alloca { i64, i32 }, align 8
  call void @llvm.lifetime.start.p0(i64 4, ptr %2) #2
  %5 = call i32 @_ZN6Gluco25toLitEi(i32 noundef -1)
  %6 = getelementptr inbounds nuw %"struct.Gluco2::Lit", ptr %2, i32 0, i32 0
  store i32 %5, ptr %6, align 4
  %7 = getelementptr inbounds nuw %"struct.Gluco2::Solver::NodeData", ptr %1, i32 0, i32 0
  call void @llvm.memcpy.p0.p0.i64(ptr align 4 %7, ptr align 4 %2, i64 4, i1 false), !tbaa.struct !240
  call void @llvm.lifetime.end.p0(i64 4, ptr %2) #2
  call void @llvm.lifetime.start.p0(i64 4, ptr %3) #2
  %8 = call i32 @_ZN6Gluco25toLitEi(i32 noundef -1)
  %9 = getelementptr inbounds nuw %"struct.Gluco2::Lit", ptr %3, i32 0, i32 0
  store i32 %8, ptr %9, align 4
  %10 = getelementptr inbounds nuw %"struct.Gluco2::Solver::NodeData", ptr %1, i32 0, i32 1
  call void @llvm.memcpy.p0.p0.i64(ptr align 4 %10, ptr align 4 %3, i64 4, i1 false), !tbaa.struct !240
  call void @llvm.lifetime.end.p0(i64 4, ptr %3) #2
  %11 = getelementptr inbounds nuw %"struct.Gluco2::Solver::NodeData", ptr %1, i32 0, i32 2
  %12 = load i32, ptr %11, align 4
  %13 = and i32 %12, -1073741824
  %14 = or i32 %13, 0
  store i32 %14, ptr %11, align 4
  %15 = getelementptr inbounds nuw %"struct.Gluco2::Solver::NodeData", ptr %1, i32 0, i32 2
  %16 = load i32, ptr %15, align 4
  %17 = and i32 %16, -1073741825
  %18 = or i32 %17, 0
  store i32 %18, ptr %15, align 4
  %19 = getelementptr inbounds nuw %"struct.Gluco2::Solver::NodeData", ptr %1, i32 0, i32 2
  %20 = load i32, ptr %19, align 4
  %21 = and i32 %20, 2147483647
  %22 = or i32 %21, 0
  store i32 %22, ptr %19, align 4
  call void @llvm.memcpy.p0.p0.i64(ptr align 8 %4, ptr align 4 %1, i64 12, i1 false)
  %23 = load { i64, i32 }, ptr %4, align 8
  ret { i64, i32 } %23
}

; Function Attrs: nocallback nofree nounwind willreturn memory(argmem: readwrite)
declare void @llvm.memcpy.p0.p0.i64(ptr noalias writeonly captures(none), ptr noalias readonly captures(none), i64, i1 immarg) #8

; Function Attrs: mustprogress nounwind uwtable
define linkonce_odr void @_ZN6Gluco23vecIjE6growToEiRKj(ptr noundef nonnull align 8 dereferenceable(16) %0, i32 noundef %1, ptr noundef nonnull align 4 dereferenceable(4) %2) #1 comdat align 2 {
  %4 = alloca ptr, align 8
  %5 = alloca i32, align 4
  %6 = alloca ptr, align 8
  %7 = alloca i32, align 4
  store ptr %0, ptr %4, align 8, !tbaa !189
  store i32 %1, ptr %5, align 4, !tbaa !35
  store ptr %2, ptr %6, align 8, !tbaa !252
  %8 = load ptr, ptr %4, align 8
  %9 = getelementptr inbounds nuw %"class.Gluco2::vec.5", ptr %8, i32 0, i32 1
  %10 = load i32, ptr %9, align 8, !tbaa !192
  %11 = load i32, ptr %5, align 4, !tbaa !35
  %12 = icmp sge i32 %10, %11
  br i1 %12, label %13, label %14

13:                                               ; preds = %3
  br label %37

14:                                               ; preds = %3
  %15 = load i32, ptr %5, align 4, !tbaa !35
  call void @_ZN6Gluco23vecIjE8capacityEi(ptr noundef nonnull align 8 dereferenceable(16) %8, i32 noundef %15)
  call void @llvm.lifetime.start.p0(i64 4, ptr %7) #2
  %16 = getelementptr inbounds nuw %"class.Gluco2::vec.5", ptr %8, i32 0, i32 1
  %17 = load i32, ptr %16, align 8, !tbaa !192
  store i32 %17, ptr %7, align 4, !tbaa !35
  br label %18

18:                                               ; preds = %31, %14
  %19 = load i32, ptr %7, align 4, !tbaa !35
  %20 = load i32, ptr %5, align 4, !tbaa !35
  %21 = icmp slt i32 %19, %20
  br i1 %21, label %23, label %22

22:                                               ; preds = %18
  call void @llvm.lifetime.end.p0(i64 4, ptr %7) #2
  br label %34

23:                                               ; preds = %18
  %24 = load ptr, ptr %6, align 8, !tbaa !252
  %25 = load i32, ptr %24, align 4, !tbaa !35
  %26 = getelementptr inbounds nuw %"class.Gluco2::vec.5", ptr %8, i32 0, i32 0
  %27 = load ptr, ptr %26, align 8, !tbaa !191
  %28 = load i32, ptr %7, align 4, !tbaa !35
  %29 = sext i32 %28 to i64
  %30 = getelementptr inbounds i32, ptr %27, i64 %29
  store i32 %25, ptr %30, align 4, !tbaa !35
  br label %31

31:                                               ; preds = %23
  %32 = load i32, ptr %7, align 4, !tbaa !35
  %33 = add nsw i32 %32, 1
  store i32 %33, ptr %7, align 4, !tbaa !35
  br label %18, !llvm.loop !257

34:                                               ; preds = %22
  %35 = load i32, ptr %5, align 4, !tbaa !35
  %36 = getelementptr inbounds nuw %"class.Gluco2::vec.5", ptr %8, i32 0, i32 1
  store i32 %35, ptr %36, align 8, !tbaa !192
  br label %37

37:                                               ; preds = %34, %13
  ret void
}

; Function Attrs: inlinehint mustprogress nounwind uwtable
define linkonce_odr void @_ZN6Gluco26Solver14setDecisionVarEibb(ptr noundef nonnull align 8 dereferenceable(1416) %0, i32 noundef %1, i1 noundef zeroext %2, i1 noundef zeroext %3) #6 comdat align 2 {
  %5 = alloca ptr, align 8
  %6 = alloca i32, align 4
  %7 = alloca i8, align 1
  %8 = alloca i8, align 1
  store ptr %0, ptr %5, align 8, !tbaa !51
  store i32 %1, ptr %6, align 4, !tbaa !35
  %9 = zext i1 %2 to i8
  store i8 %9, ptr %7, align 1, !tbaa !10
  %10 = zext i1 %3 to i8
  store i8 %10, ptr %8, align 1, !tbaa !10
  %11 = load ptr, ptr %5, align 8
  %12 = load i8, ptr %7, align 1, !tbaa !10, !range !14, !noundef !15
  %13 = trunc i8 %12 to i1
  br i1 %13, label %14, label %24

14:                                               ; preds = %4
  %15 = getelementptr inbounds nuw %"class.Gluco2::Solver", ptr %11, i32 0, i32 70
  %16 = load i32, ptr %6, align 4, !tbaa !35
  %17 = call noundef nonnull align 1 dereferenceable(1) ptr @_ZN6Gluco23vecIcEixEi(ptr noundef nonnull align 8 dereferenceable(16) %15, i32 noundef %16)
  %18 = load i8, ptr %17, align 1, !tbaa !235
  %19 = icmp ne i8 %18, 0
  br i1 %19, label %24, label %20

20:                                               ; preds = %14
  %21 = getelementptr inbounds nuw %"class.Gluco2::Solver", ptr %11, i32 0, i32 53
  %22 = load i64, ptr %21, align 8, !tbaa !132
  %23 = add nsw i64 %22, 1
  store i64 %23, ptr %21, align 8, !tbaa !132
  br label %38

24:                                               ; preds = %14, %4
  %25 = load i8, ptr %7, align 1, !tbaa !10, !range !14, !noundef !15
  %26 = trunc i8 %25 to i1
  br i1 %26, label %37, label %27

27:                                               ; preds = %24
  %28 = getelementptr inbounds nuw %"class.Gluco2::Solver", ptr %11, i32 0, i32 70
  %29 = load i32, ptr %6, align 4, !tbaa !35
  %30 = call noundef nonnull align 1 dereferenceable(1) ptr @_ZN6Gluco23vecIcEixEi(ptr noundef nonnull align 8 dereferenceable(16) %28, i32 noundef %29)
  %31 = load i8, ptr %30, align 1, !tbaa !235
  %32 = icmp ne i8 %31, 0
  br i1 %32, label %33, label %37

33:                                               ; preds = %27
  %34 = getelementptr inbounds nuw %"class.Gluco2::Solver", ptr %11, i32 0, i32 53
  %35 = load i64, ptr %34, align 8, !tbaa !132
  %36 = add nsw i64 %35, -1
  store i64 %36, ptr %34, align 8, !tbaa !132
  br label %37

37:                                               ; preds = %33, %27, %24
  br label %38

38:                                               ; preds = %37, %20
  %39 = load i8, ptr %7, align 1, !tbaa !10, !range !14, !noundef !15
  %40 = trunc i8 %39 to i1
  %41 = zext i1 %40 to i8
  %42 = getelementptr inbounds nuw %"class.Gluco2::Solver", ptr %11, i32 0, i32 70
  %43 = load i32, ptr %6, align 4, !tbaa !35
  %44 = call noundef nonnull align 1 dereferenceable(1) ptr @_ZN6Gluco23vecIcEixEi(ptr noundef nonnull align 8 dereferenceable(16) %42, i32 noundef %43)
  store i8 %41, ptr %44, align 1, !tbaa !235
  %45 = load i8, ptr %8, align 1, !tbaa !10, !range !14, !noundef !15
  %46 = trunc i8 %45 to i1
  br i1 %46, label %47, label %49

47:                                               ; preds = %38
  %48 = load i32, ptr %6, align 4, !tbaa !35
  call void @_ZN6Gluco26Solver14insertVarOrderEi(ptr noundef nonnull align 8 dereferenceable(1416) %11, i32 noundef %48)
  br label %49

49:                                               ; preds = %47, %38
  ret void
}

; Function Attrs: mustprogress nounwind uwtable
define noundef zeroext i1 @_ZN6Gluco26Solver10addClause_ERNS_3vecINS_3LitEEE(ptr noundef nonnull align 8 dereferenceable(1416) %0, ptr noundef nonnull align 8 dereferenceable(16) %1) #1 align 2 {
  %3 = alloca i1, align 1
  %4 = alloca ptr, align 8
  %5 = alloca ptr, align 8
  %6 = alloca %"class.Gluco2::vec.0", align 8
  %7 = alloca %"struct.Gluco2::Lit", align 4
  %8 = alloca i32, align 4
  %9 = alloca i32, align 4
  %10 = alloca i32, align 4
  %11 = alloca %"class.Gluco2::lbool", align 1
  %12 = alloca %"struct.Gluco2::Lit", align 4
  %13 = alloca %"class.Gluco2::lbool", align 1
  %14 = alloca %"struct.Gluco2::Lit", align 4
  %15 = alloca %"struct.Gluco2::Lit", align 4
  %16 = alloca %"class.Gluco2::lbool", align 1
  %17 = alloca %"struct.Gluco2::Lit", align 4
  %18 = alloca %"class.Gluco2::lbool", align 1
  %19 = alloca %"class.Gluco2::lbool", align 1
  %20 = alloca %"struct.Gluco2::Lit", align 4
  %21 = alloca %"class.Gluco2::lbool", align 1
  %22 = alloca %"struct.Gluco2::Lit", align 4
  %23 = alloca %"struct.Gluco2::Lit", align 4
  %24 = alloca i32, align 4
  %25 = alloca %"class.Gluco2::lbool", align 1
  %26 = alloca %"struct.Gluco2::Lit", align 4
  %27 = alloca %"class.Gluco2::lbool", align 1
  %28 = alloca %"struct.Gluco2::Lit", align 4
  %29 = alloca %"struct.Gluco2::Lit", align 4
  %30 = alloca %"struct.Gluco2::Lit", align 4
  %31 = alloca %"struct.Gluco2::Lit", align 4
  %32 = alloca %"struct.Gluco2::Lit", align 4
  %33 = alloca %"struct.Gluco2::Lit", align 4
  %34 = alloca i32, align 4
  store ptr %0, ptr %4, align 8, !tbaa !51
  store ptr %1, ptr %5, align 8, !tbaa !169
  %35 = load ptr, ptr %4, align 8
  %36 = getelementptr inbounds nuw %"class.Gluco2::Solver", ptr %35, i32 0, i32 60
  %37 = load i8, ptr %36, align 4, !tbaa !138, !range !14, !noundef !15
  %38 = trunc i8 %37 to i1
  br i1 %38, label %40, label %39

39:                                               ; preds = %2
  store i1 false, ptr %3, align 1
  br label %265

40:                                               ; preds = %2
  %41 = load ptr, ptr %5, align 8, !tbaa !169
  call void @_ZN6Gluco24sortINS_3LitEEEvRNS_3vecIT_EE(ptr noundef nonnull align 8 dereferenceable(16) %41)
  call void @llvm.lifetime.start.p0(i64 16, ptr %6) #2
  call void @_ZN6Gluco23vecINS_3LitEEC2Ev(ptr noundef nonnull align 8 dereferenceable(16) %6)
  call void @_ZN6Gluco23vecINS_3LitEE5clearEb(ptr noundef nonnull align 8 dereferenceable(16) %6, i1 noundef zeroext false)
  call void @llvm.lifetime.start.p0(i64 4, ptr %7) #2
  call void @llvm.lifetime.start.p0(i64 4, ptr %8) #2
  call void @llvm.lifetime.start.p0(i64 4, ptr %9) #2
  call void @llvm.lifetime.start.p0(i64 4, ptr %10) #2
  store i32 0, ptr %10, align 4, !tbaa !35
  %42 = getelementptr inbounds nuw %"class.Gluco2::Solver", ptr %35, i32 0, i32 36
  %43 = load i8, ptr %42, align 8, !tbaa !115, !range !14, !noundef !15
  %44 = trunc i8 %43 to i1
  br i1 %44, label %45, label %95

45:                                               ; preds = %40
  store i32 0, ptr %9, align 4, !tbaa !35
  store i32 0, ptr %8, align 4, !tbaa !35
  call void @llvm.memcpy.p0.p0.i64(ptr align 4 %7, ptr align 4 @_ZN6Gluco2L9lit_UndefE, i64 4, i1 false), !tbaa.struct !240
  br label %46

46:                                               ; preds = %91, %45
  %47 = load i32, ptr %8, align 4, !tbaa !35
  %48 = load ptr, ptr %5, align 8, !tbaa !169
  %49 = call noundef i32 @_ZNK6Gluco23vecINS_3LitEE4sizeEv(ptr noundef nonnull align 8 dereferenceable(16) %48)
  %50 = icmp slt i32 %47, %49
  br i1 %50, label %51, label %94

51:                                               ; preds = %46
  %52 = load ptr, ptr %5, align 8, !tbaa !169
  %53 = load i32, ptr %8, align 4, !tbaa !35
  %54 = call noundef nonnull align 4 dereferenceable(4) ptr @_ZN6Gluco23vecINS_3LitEEixEi(ptr noundef nonnull align 8 dereferenceable(16) %52, i32 noundef %53)
  call void @_ZN6Gluco23vecINS_3LitEE4pushERKS1_(ptr noundef nonnull align 8 dereferenceable(16) %6, ptr noundef nonnull align 4 dereferenceable(4) %54)
  call void @llvm.lifetime.start.p0(i64 1, ptr %11) #2
  %55 = load ptr, ptr %5, align 8, !tbaa !169
  %56 = load i32, ptr %8, align 4, !tbaa !35
  %57 = call noundef nonnull align 4 dereferenceable(4) ptr @_ZN6Gluco23vecINS_3LitEEixEi(ptr noundef nonnull align 8 dereferenceable(16) %55, i32 noundef %56)
  call void @llvm.memcpy.p0.p0.i64(ptr align 4 %12, ptr align 4 %57, i64 4, i1 false), !tbaa.struct !240
  %58 = getelementptr inbounds nuw %"struct.Gluco2::Lit", ptr %12, i32 0, i32 0
  %59 = load i32, ptr %58, align 4
  %60 = call i8 @_ZNK6Gluco26Solver5valueENS_3LitE(ptr noundef nonnull align 8 dereferenceable(1416) %35, i32 %59)
  %61 = getelementptr inbounds nuw %"class.Gluco2::lbool", ptr %11, i32 0, i32 0
  store i8 %60, ptr %61, align 1
  call void @_ZN6Gluco25lboolC2Eh(ptr noundef nonnull align 1 dereferenceable(1) %13, i8 noundef zeroext 0)
  %62 = getelementptr inbounds nuw %"class.Gluco2::lbool", ptr %13, i32 0, i32 0
  %63 = load i8, ptr %62, align 1
  %64 = call noundef zeroext i1 @_ZNK6Gluco25lbooleqES0_(ptr noundef nonnull align 1 dereferenceable(1) %11, i8 %63)
  call void @llvm.lifetime.start.p0(i64 1, ptr %16) #2
  br i1 %64, label %87, label %65

65:                                               ; preds = %51
  %66 = load ptr, ptr %5, align 8, !tbaa !169
  %67 = load i32, ptr %8, align 4, !tbaa !35
  %68 = call noundef nonnull align 4 dereferenceable(4) ptr @_ZN6Gluco23vecINS_3LitEEixEi(ptr noundef nonnull align 8 dereferenceable(16) %66, i32 noundef %67)
  call void @llvm.memcpy.p0.p0.i64(ptr align 4 %15, ptr align 4 %7, i64 4, i1 false), !tbaa.struct !240
  %69 = getelementptr inbounds nuw %"struct.Gluco2::Lit", ptr %15, i32 0, i32 0
  %70 = load i32, ptr %69, align 4
  %71 = call i32 @_ZN6Gluco2coENS_3LitE(i32 %70)
  %72 = getelementptr inbounds nuw %"struct.Gluco2::Lit", ptr %14, i32 0, i32 0
  store i32 %71, ptr %72, align 4
  %73 = getelementptr inbounds nuw %"struct.Gluco2::Lit", ptr %14, i32 0, i32 0
  %74 = load i32, ptr %73, align 4
  %75 = call noundef zeroext i1 @_ZNK6Gluco23LiteqES0_(ptr noundef nonnull align 4 dereferenceable(4) %68, i32 %74)
  br i1 %75, label %87, label %76

76:                                               ; preds = %65
  %77 = load ptr, ptr %5, align 8, !tbaa !169
  %78 = load i32, ptr %8, align 4, !tbaa !35
  %79 = call noundef nonnull align 4 dereferenceable(4) ptr @_ZN6Gluco23vecINS_3LitEEixEi(ptr noundef nonnull align 8 dereferenceable(16) %77, i32 noundef %78)
  call void @llvm.memcpy.p0.p0.i64(ptr align 4 %17, ptr align 4 %79, i64 4, i1 false), !tbaa.struct !240
  %80 = getelementptr inbounds nuw %"struct.Gluco2::Lit", ptr %17, i32 0, i32 0
  %81 = load i32, ptr %80, align 4
  %82 = call i8 @_ZNK6Gluco26Solver5valueENS_3LitE(ptr noundef nonnull align 8 dereferenceable(1416) %35, i32 %81)
  %83 = getelementptr inbounds nuw %"class.Gluco2::lbool", ptr %16, i32 0, i32 0
  store i8 %82, ptr %83, align 1
  call void @_ZN6Gluco25lboolC2Eh(ptr noundef nonnull align 1 dereferenceable(1) %18, i8 noundef zeroext 1)
  %84 = getelementptr inbounds nuw %"class.Gluco2::lbool", ptr %18, i32 0, i32 0
  %85 = load i8, ptr %84, align 1
  %86 = call noundef zeroext i1 @_ZNK6Gluco25lbooleqES0_(ptr noundef nonnull align 1 dereferenceable(1) %16, i8 %85)
  br label %87

87:                                               ; preds = %76, %65, %51
  %88 = phi i1 [ true, %65 ], [ true, %51 ], [ %86, %76 ]
  call void @llvm.lifetime.end.p0(i64 1, ptr %16) #2
  call void @llvm.lifetime.end.p0(i64 1, ptr %11) #2
  br i1 %88, label %89, label %90

89:                                               ; preds = %87
  store i32 1, ptr %10, align 4, !tbaa !35
  br label %90

90:                                               ; preds = %89, %87
  br label %91

91:                                               ; preds = %90
  %92 = load i32, ptr %8, align 4, !tbaa !35
  %93 = add nsw i32 %92, 1
  store i32 %93, ptr %8, align 4, !tbaa !35
  br label %46, !llvm.loop !258

94:                                               ; preds = %46
  br label %95

95:                                               ; preds = %94, %40
  store i32 0, ptr %9, align 4, !tbaa !35
  store i32 0, ptr %8, align 4, !tbaa !35
  call void @llvm.memcpy.p0.p0.i64(ptr align 4 %7, ptr align 4 @_ZN6Gluco2L9lit_UndefE, i64 4, i1 false), !tbaa.struct !240
  br label %96

96:                                               ; preds = %156, %95
  %97 = load i32, ptr %8, align 4, !tbaa !35
  %98 = load ptr, ptr %5, align 8, !tbaa !169
  %99 = call noundef i32 @_ZNK6Gluco23vecINS_3LitEE4sizeEv(ptr noundef nonnull align 8 dereferenceable(16) %98)
  %100 = icmp slt i32 %97, %99
  br i1 %100, label %101, label %159

101:                                              ; preds = %96
  call void @llvm.lifetime.start.p0(i64 1, ptr %19) #2
  %102 = load ptr, ptr %5, align 8, !tbaa !169
  %103 = load i32, ptr %8, align 4, !tbaa !35
  %104 = call noundef nonnull align 4 dereferenceable(4) ptr @_ZN6Gluco23vecINS_3LitEEixEi(ptr noundef nonnull align 8 dereferenceable(16) %102, i32 noundef %103)
  call void @llvm.memcpy.p0.p0.i64(ptr align 4 %20, ptr align 4 %104, i64 4, i1 false), !tbaa.struct !240
  %105 = getelementptr inbounds nuw %"struct.Gluco2::Lit", ptr %20, i32 0, i32 0
  %106 = load i32, ptr %105, align 4
  %107 = call i8 @_ZNK6Gluco26Solver5valueENS_3LitE(ptr noundef nonnull align 8 dereferenceable(1416) %35, i32 %106)
  %108 = getelementptr inbounds nuw %"class.Gluco2::lbool", ptr %19, i32 0, i32 0
  store i8 %107, ptr %108, align 1
  call void @_ZN6Gluco25lboolC2Eh(ptr noundef nonnull align 1 dereferenceable(1) %21, i8 noundef zeroext 0)
  %109 = getelementptr inbounds nuw %"class.Gluco2::lbool", ptr %21, i32 0, i32 0
  %110 = load i8, ptr %109, align 1
  %111 = call noundef zeroext i1 @_ZNK6Gluco25lbooleqES0_(ptr noundef nonnull align 1 dereferenceable(1) %19, i8 %110)
  br i1 %111, label %123, label %112

112:                                              ; preds = %101
  %113 = load ptr, ptr %5, align 8, !tbaa !169
  %114 = load i32, ptr %8, align 4, !tbaa !35
  %115 = call noundef nonnull align 4 dereferenceable(4) ptr @_ZN6Gluco23vecINS_3LitEEixEi(ptr noundef nonnull align 8 dereferenceable(16) %113, i32 noundef %114)
  call void @llvm.memcpy.p0.p0.i64(ptr align 4 %23, ptr align 4 %7, i64 4, i1 false), !tbaa.struct !240
  %116 = getelementptr inbounds nuw %"struct.Gluco2::Lit", ptr %23, i32 0, i32 0
  %117 = load i32, ptr %116, align 4
  %118 = call i32 @_ZN6Gluco2coENS_3LitE(i32 %117)
  %119 = getelementptr inbounds nuw %"struct.Gluco2::Lit", ptr %22, i32 0, i32 0
  store i32 %118, ptr %119, align 4
  %120 = getelementptr inbounds nuw %"struct.Gluco2::Lit", ptr %22, i32 0, i32 0
  %121 = load i32, ptr %120, align 4
  %122 = call noundef zeroext i1 @_ZNK6Gluco23LiteqES0_(ptr noundef nonnull align 4 dereferenceable(4) %115, i32 %121)
  br label %123

123:                                              ; preds = %112, %101
  %124 = phi i1 [ true, %101 ], [ %122, %112 ]
  call void @llvm.lifetime.end.p0(i64 1, ptr %19) #2
  br i1 %124, label %125, label %126

125:                                              ; preds = %123
  store i1 true, ptr %3, align 1
  store i32 1, ptr %24, align 4
  br label %264

126:                                              ; preds = %123
  call void @llvm.lifetime.start.p0(i64 1, ptr %25) #2
  %127 = load ptr, ptr %5, align 8, !tbaa !169
  %128 = load i32, ptr %8, align 4, !tbaa !35
  %129 = call noundef nonnull align 4 dereferenceable(4) ptr @_ZN6Gluco23vecINS_3LitEEixEi(ptr noundef nonnull align 8 dereferenceable(16) %127, i32 noundef %128)
  call void @llvm.memcpy.p0.p0.i64(ptr align 4 %26, ptr align 4 %129, i64 4, i1 false), !tbaa.struct !240
  %130 = getelementptr inbounds nuw %"struct.Gluco2::Lit", ptr %26, i32 0, i32 0
  %131 = load i32, ptr %130, align 4
  %132 = call i8 @_ZNK6Gluco26Solver5valueENS_3LitE(ptr noundef nonnull align 8 dereferenceable(1416) %35, i32 %131)
  %133 = getelementptr inbounds nuw %"class.Gluco2::lbool", ptr %25, i32 0, i32 0
  store i8 %132, ptr %133, align 1
  call void @_ZN6Gluco25lboolC2Eh(ptr noundef nonnull align 1 dereferenceable(1) %27, i8 noundef zeroext 1)
  %134 = getelementptr inbounds nuw %"class.Gluco2::lbool", ptr %27, i32 0, i32 0
  %135 = load i8, ptr %134, align 1
  %136 = call noundef zeroext i1 @_ZNK6Gluco25lboolneES0_(ptr noundef nonnull align 1 dereferenceable(1) %25, i8 %135)
  br i1 %136, label %137, label %144

137:                                              ; preds = %126
  %138 = load ptr, ptr %5, align 8, !tbaa !169
  %139 = load i32, ptr %8, align 4, !tbaa !35
  %140 = call noundef nonnull align 4 dereferenceable(4) ptr @_ZN6Gluco23vecINS_3LitEEixEi(ptr noundef nonnull align 8 dereferenceable(16) %138, i32 noundef %139)
  call void @llvm.memcpy.p0.p0.i64(ptr align 4 %28, ptr align 4 %7, i64 4, i1 false), !tbaa.struct !240
  %141 = getelementptr inbounds nuw %"struct.Gluco2::Lit", ptr %28, i32 0, i32 0
  %142 = load i32, ptr %141, align 4
  %143 = call noundef zeroext i1 @_ZNK6Gluco23LitneES0_(ptr noundef nonnull align 4 dereferenceable(4) %140, i32 %142)
  br label %144

144:                                              ; preds = %137, %126
  %145 = phi i1 [ false, %126 ], [ %143, %137 ]
  call void @llvm.lifetime.end.p0(i64 1, ptr %25) #2
  br i1 %145, label %146, label %154

146:                                              ; preds = %144
  %147 = load ptr, ptr %5, align 8, !tbaa !169
  %148 = load i32, ptr %8, align 4, !tbaa !35
  %149 = call noundef nonnull align 4 dereferenceable(4) ptr @_ZN6Gluco23vecINS_3LitEEixEi(ptr noundef nonnull align 8 dereferenceable(16) %147, i32 noundef %148)
  call void @llvm.memcpy.p0.p0.i64(ptr align 4 %7, ptr align 4 %149, i64 4, i1 false), !tbaa.struct !240
  %150 = load ptr, ptr %5, align 8, !tbaa !169
  %151 = load i32, ptr %9, align 4, !tbaa !35
  %152 = add nsw i32 %151, 1
  store i32 %152, ptr %9, align 4, !tbaa !35
  %153 = call noundef nonnull align 4 dereferenceable(4) ptr @_ZN6Gluco23vecINS_3LitEEixEi(ptr noundef nonnull align 8 dereferenceable(16) %150, i32 noundef %151)
  call void @llvm.memcpy.p0.p0.i64(ptr align 4 %153, ptr align 4 %7, i64 4, i1 false), !tbaa.struct !240
  br label %154

154:                                              ; preds = %146, %144
  br label %155

155:                                              ; preds = %154
  br label %156

156:                                              ; preds = %155
  %157 = load i32, ptr %8, align 4, !tbaa !35
  %158 = add nsw i32 %157, 1
  store i32 %158, ptr %8, align 4, !tbaa !35
  br label %96, !llvm.loop !259

159:                                              ; preds = %96
  %160 = load ptr, ptr %5, align 8, !tbaa !169
  %161 = load i32, ptr %8, align 4, !tbaa !35
  %162 = load i32, ptr %9, align 4, !tbaa !35
  %163 = sub nsw i32 %161, %162
  call void @_ZN6Gluco23vecINS_3LitEE7shrink_Ei(ptr noundef nonnull align 8 dereferenceable(16) %160, i32 noundef %163)
  %164 = load i32, ptr %10, align 4, !tbaa !35
  %165 = icmp ne i32 %164, 0
  br i1 %165, label %166, label %237

166:                                              ; preds = %159
  %167 = getelementptr inbounds nuw %"class.Gluco2::Solver", ptr %35, i32 0, i32 36
  %168 = load i8, ptr %167, align 8, !tbaa !115, !range !14, !noundef !15
  %169 = trunc i8 %168 to i1
  br i1 %169, label %170, label %237

170:                                              ; preds = %166
  store i32 0, ptr %9, align 4, !tbaa !35
  store i32 0, ptr %8, align 4, !tbaa !35
  call void @llvm.memcpy.p0.p0.i64(ptr align 4 %7, ptr align 4 @_ZN6Gluco2L9lit_UndefE, i64 4, i1 false), !tbaa.struct !240
  br label %171

171:                                              ; preds = %197, %170
  %172 = load i32, ptr %8, align 4, !tbaa !35
  %173 = load ptr, ptr %5, align 8, !tbaa !169
  %174 = call noundef i32 @_ZNK6Gluco23vecINS_3LitEE4sizeEv(ptr noundef nonnull align 8 dereferenceable(16) %173)
  %175 = icmp slt i32 %172, %174
  br i1 %175, label %176, label %200

176:                                              ; preds = %171
  %177 = getelementptr inbounds nuw %"class.Gluco2::Solver", ptr %35, i32 0, i32 35
  %178 = load ptr, ptr %177, align 8, !tbaa !114
  %179 = load ptr, ptr %5, align 8, !tbaa !169
  %180 = load i32, ptr %8, align 4, !tbaa !35
  %181 = call noundef nonnull align 4 dereferenceable(4) ptr @_ZN6Gluco23vecINS_3LitEEixEi(ptr noundef nonnull align 8 dereferenceable(16) %179, i32 noundef %180)
  call void @llvm.memcpy.p0.p0.i64(ptr align 4 %29, ptr align 4 %181, i64 4, i1 false), !tbaa.struct !240
  %182 = getelementptr inbounds nuw %"struct.Gluco2::Lit", ptr %29, i32 0, i32 0
  %183 = load i32, ptr %182, align 4
  %184 = call noundef i32 @_ZN6Gluco23varENS_3LitE(i32 %183)
  %185 = add nsw i32 %184, 1
  %186 = load ptr, ptr %5, align 8, !tbaa !169
  %187 = load i32, ptr %8, align 4, !tbaa !35
  %188 = call noundef nonnull align 4 dereferenceable(4) ptr @_ZN6Gluco23vecINS_3LitEEixEi(ptr noundef nonnull align 8 dereferenceable(16) %186, i32 noundef %187)
  call void @llvm.memcpy.p0.p0.i64(ptr align 4 %30, ptr align 4 %188, i64 4, i1 false), !tbaa.struct !240
  %189 = getelementptr inbounds nuw %"struct.Gluco2::Lit", ptr %30, i32 0, i32 0
  %190 = load i32, ptr %189, align 4
  %191 = call noundef zeroext i1 @_ZN6Gluco24signENS_3LitE(i32 %190)
  %192 = zext i1 %191 to i32
  %193 = mul nsw i32 -2, %192
  %194 = add nsw i32 %193, 1
  %195 = mul nsw i32 %185, %194
  %196 = call i32 (ptr, ptr, ...) @fprintf(ptr noundef %178, ptr noundef @.str.65, i32 noundef %195) #2
  br label %197

197:                                              ; preds = %176
  %198 = load i32, ptr %8, align 4, !tbaa !35
  %199 = add nsw i32 %198, 1
  store i32 %199, ptr %8, align 4, !tbaa !35
  br label %171, !llvm.loop !260

200:                                              ; preds = %171
  %201 = getelementptr inbounds nuw %"class.Gluco2::Solver", ptr %35, i32 0, i32 35
  %202 = load ptr, ptr %201, align 8, !tbaa !114
  %203 = call i32 (ptr, ptr, ...) @fprintf(ptr noundef %202, ptr noundef @.str.66) #2
  %204 = getelementptr inbounds nuw %"class.Gluco2::Solver", ptr %35, i32 0, i32 35
  %205 = load ptr, ptr %204, align 8, !tbaa !114
  %206 = call i32 (ptr, ptr, ...) @fprintf(ptr noundef %205, ptr noundef @.str.67) #2
  store i32 0, ptr %9, align 4, !tbaa !35
  store i32 0, ptr %8, align 4, !tbaa !35
  call void @llvm.memcpy.p0.p0.i64(ptr align 4 %7, ptr align 4 @_ZN6Gluco2L9lit_UndefE, i64 4, i1 false), !tbaa.struct !240
  br label %207

207:                                              ; preds = %230, %200
  %208 = load i32, ptr %8, align 4, !tbaa !35
  %209 = call noundef i32 @_ZNK6Gluco23vecINS_3LitEE4sizeEv(ptr noundef nonnull align 8 dereferenceable(16) %6)
  %210 = icmp slt i32 %208, %209
  br i1 %210, label %211, label %233

211:                                              ; preds = %207
  %212 = getelementptr inbounds nuw %"class.Gluco2::Solver", ptr %35, i32 0, i32 35
  %213 = load ptr, ptr %212, align 8, !tbaa !114
  %214 = load i32, ptr %8, align 4, !tbaa !35
  %215 = call noundef nonnull align 4 dereferenceable(4) ptr @_ZN6Gluco23vecINS_3LitEEixEi(ptr noundef nonnull align 8 dereferenceable(16) %6, i32 noundef %214)
  call void @llvm.memcpy.p0.p0.i64(ptr align 4 %31, ptr align 4 %215, i64 4, i1 false), !tbaa.struct !240
  %216 = getelementptr inbounds nuw %"struct.Gluco2::Lit", ptr %31, i32 0, i32 0
  %217 = load i32, ptr %216, align 4
  %218 = call noundef i32 @_ZN6Gluco23varENS_3LitE(i32 %217)
  %219 = add nsw i32 %218, 1
  %220 = load i32, ptr %8, align 4, !tbaa !35
  %221 = call noundef nonnull align 4 dereferenceable(4) ptr @_ZN6Gluco23vecINS_3LitEEixEi(ptr noundef nonnull align 8 dereferenceable(16) %6, i32 noundef %220)
  call void @llvm.memcpy.p0.p0.i64(ptr align 4 %32, ptr align 4 %221, i64 4, i1 false), !tbaa.struct !240
  %222 = getelementptr inbounds nuw %"struct.Gluco2::Lit", ptr %32, i32 0, i32 0
  %223 = load i32, ptr %222, align 4
  %224 = call noundef zeroext i1 @_ZN6Gluco24signENS_3LitE(i32 %223)
  %225 = zext i1 %224 to i32
  %226 = mul nsw i32 -2, %225
  %227 = add nsw i32 %226, 1
  %228 = mul nsw i32 %219, %227
  %229 = call i32 (ptr, ptr, ...) @fprintf(ptr noundef %213, ptr noundef @.str.65, i32 noundef %228) #2
  br label %230

230:                                              ; preds = %211
  %231 = load i32, ptr %8, align 4, !tbaa !35
  %232 = add nsw i32 %231, 1
  store i32 %232, ptr %8, align 4, !tbaa !35
  br label %207, !llvm.loop !261

233:                                              ; preds = %207
  %234 = getelementptr inbounds nuw %"class.Gluco2::Solver", ptr %35, i32 0, i32 35
  %235 = load ptr, ptr %234, align 8, !tbaa !114
  %236 = call i32 (ptr, ptr, ...) @fprintf(ptr noundef %235, ptr noundef @.str.66) #2
  br label %237

237:                                              ; preds = %233, %166, %159
  %238 = load ptr, ptr %5, align 8, !tbaa !169
  %239 = call noundef i32 @_ZNK6Gluco23vecINS_3LitEE4sizeEv(ptr noundef nonnull align 8 dereferenceable(16) %238)
  %240 = icmp eq i32 %239, 0
  br i1 %240, label %241, label %243

241:                                              ; preds = %237
  %242 = getelementptr inbounds nuw %"class.Gluco2::Solver", ptr %35, i32 0, i32 60
  store i8 0, ptr %242, align 4, !tbaa !138
  store i1 false, ptr %3, align 1
  store i32 1, ptr %24, align 4
  br label %264

243:                                              ; preds = %237
  %244 = load ptr, ptr %5, align 8, !tbaa !169
  %245 = call noundef i32 @_ZNK6Gluco23vecINS_3LitEE4sizeEv(ptr noundef nonnull align 8 dereferenceable(16) %244)
  %246 = icmp eq i32 %245, 1
  br i1 %246, label %247, label %256

247:                                              ; preds = %243
  %248 = load ptr, ptr %5, align 8, !tbaa !169
  %249 = call noundef nonnull align 4 dereferenceable(4) ptr @_ZN6Gluco23vecINS_3LitEEixEi(ptr noundef nonnull align 8 dereferenceable(16) %248, i32 noundef 0)
  call void @llvm.memcpy.p0.p0.i64(ptr align 4 %33, ptr align 4 %249, i64 4, i1 false), !tbaa.struct !240
  %250 = getelementptr inbounds nuw %"struct.Gluco2::Lit", ptr %33, i32 0, i32 0
  %251 = load i32, ptr %250, align 4
  call void @_ZN6Gluco26Solver16uncheckedEnqueueENS_3LitEj(ptr noundef nonnull align 8 dereferenceable(1416) %35, i32 %251, i32 noundef -1)
  %252 = call noundef i32 @_ZN6Gluco26Solver9propagateEv(ptr noundef nonnull align 8 dereferenceable(1416) %35)
  %253 = icmp eq i32 %252, -1
  %254 = getelementptr inbounds nuw %"class.Gluco2::Solver", ptr %35, i32 0, i32 60
  %255 = zext i1 %253 to i8
  store i8 %255, ptr %254, align 4, !tbaa !138
  store i1 %253, ptr %3, align 1
  store i32 1, ptr %24, align 4
  br label %264

256:                                              ; preds = %243
  call void @llvm.lifetime.start.p0(i64 4, ptr %34) #2
  %257 = getelementptr inbounds nuw %"class.Gluco2::Solver", ptr %35, i32 0, i32 84
  %258 = load ptr, ptr %5, align 8, !tbaa !169
  %259 = call noundef i32 @_ZN6Gluco215ClauseAllocator5allocINS_3vecINS_3LitEEEEEjRKT_b(ptr noundef nonnull align 8 dereferenceable(21) %257, ptr noundef nonnull align 8 dereferenceable(16) %258, i1 noundef zeroext false)
  store i32 %259, ptr %34, align 4, !tbaa !35
  %260 = getelementptr inbounds nuw %"class.Gluco2::Solver", ptr %35, i32 0, i32 66
  call void @_ZN6Gluco23vecIjE4pushERKj(ptr noundef nonnull align 8 dereferenceable(16) %260, ptr noundef nonnull align 4 dereferenceable(4) %34)
  %261 = load i32, ptr %34, align 4, !tbaa !35
  call void @_ZN6Gluco26Solver12attachClauseEj(ptr noundef nonnull align 8 dereferenceable(1416) %35, i32 noundef %261)
  call void @llvm.lifetime.end.p0(i64 4, ptr %34) #2
  br label %262

262:                                              ; preds = %256
  br label %263

263:                                              ; preds = %262
  store i1 true, ptr %3, align 1
  store i32 1, ptr %24, align 4
  br label %264

264:                                              ; preds = %263, %247, %241, %125
  call void @llvm.lifetime.end.p0(i64 4, ptr %10) #2
  call void @llvm.lifetime.end.p0(i64 4, ptr %9) #2
  call void @llvm.lifetime.end.p0(i64 4, ptr %8) #2
  call void @llvm.lifetime.end.p0(i64 4, ptr %7) #2
  call void @_ZN6Gluco23vecINS_3LitEED2Ev(ptr noundef nonnull align 8 dereferenceable(16) %6) #2
  call void @llvm.lifetime.end.p0(i64 16, ptr %6) #2
  br label %265

265:                                              ; preds = %264, %39
  %266 = load i1, ptr %3, align 1
  ret i1 %266
}

; Function Attrs: mustprogress nounwind uwtable
define linkonce_odr void @_ZN6Gluco24sortINS_3LitEEEvRNS_3vecIT_EE(ptr noundef nonnull align 8 dereferenceable(16) %0) #1 comdat {
  %2 = alloca ptr, align 8
  store ptr %0, ptr %2, align 8, !tbaa !169
  %3 = load ptr, ptr %2, align 8, !tbaa !169
  call void @_ZN6Gluco24sortINS_3LitENS_16LessThan_defaultIS1_EEEEvRNS_3vecIT_EET0_(ptr noundef nonnull align 8 dereferenceable(16) %3)
  ret void
}

; Function Attrs: mustprogress nounwind uwtable
define linkonce_odr void @_ZN6Gluco23vecINS_3LitEE5clearEb(ptr noundef nonnull align 8 dereferenceable(16) %0, i1 noundef zeroext %1) #1 comdat align 2 {
  %3 = alloca ptr, align 8
  %4 = alloca i8, align 1
  %5 = alloca i32, align 4
  store ptr %0, ptr %3, align 8, !tbaa !169
  %6 = zext i1 %1 to i8
  store i8 %6, ptr %4, align 1, !tbaa !10
  %7 = load ptr, ptr %3, align 8
  %8 = getelementptr inbounds nuw %"class.Gluco2::vec.0", ptr %7, i32 0, i32 0
  %9 = load ptr, ptr %8, align 8, !tbaa !171
  %10 = icmp ne ptr %9, null
  br i1 %10, label %11, label %32

11:                                               ; preds = %2
  call void @llvm.lifetime.start.p0(i64 4, ptr %5) #2
  store i32 0, ptr %5, align 4, !tbaa !35
  br label %12

12:                                               ; preds = %19, %11
  %13 = load i32, ptr %5, align 4, !tbaa !35
  %14 = getelementptr inbounds nuw %"class.Gluco2::vec.0", ptr %7, i32 0, i32 1
  %15 = load i32, ptr %14, align 8, !tbaa !172
  %16 = icmp slt i32 %13, %15
  br i1 %16, label %18, label %17

17:                                               ; preds = %12
  call void @llvm.lifetime.end.p0(i64 4, ptr %5) #2
  br label %22

18:                                               ; preds = %12
  br label %19

19:                                               ; preds = %18
  %20 = load i32, ptr %5, align 4, !tbaa !35
  %21 = add nsw i32 %20, 1
  store i32 %21, ptr %5, align 4, !tbaa !35
  br label %12, !llvm.loop !262

22:                                               ; preds = %17
  %23 = getelementptr inbounds nuw %"class.Gluco2::vec.0", ptr %7, i32 0, i32 1
  store i32 0, ptr %23, align 8, !tbaa !172
  %24 = load i8, ptr %4, align 1, !tbaa !10, !range !14, !noundef !15
  %25 = trunc i8 %24 to i1
  br i1 %25, label %26, label %31

26:                                               ; preds = %22
  %27 = getelementptr inbounds nuw %"class.Gluco2::vec.0", ptr %7, i32 0, i32 0
  %28 = load ptr, ptr %27, align 8, !tbaa !171
  call void @free(ptr noundef %28) #2
  %29 = getelementptr inbounds nuw %"class.Gluco2::vec.0", ptr %7, i32 0, i32 0
  store ptr null, ptr %29, align 8, !tbaa !171
  %30 = getelementptr inbounds nuw %"class.Gluco2::vec.0", ptr %7, i32 0, i32 2
  store i32 0, ptr %30, align 4, !tbaa !173
  br label %31

31:                                               ; preds = %26, %22
  br label %32

32:                                               ; preds = %31, %2
  ret void
}

; Function Attrs: mustprogress nounwind uwtable
define linkonce_odr noundef i32 @_ZNK6Gluco23vecINS_3LitEE4sizeEv(ptr noundef nonnull align 8 dereferenceable(16) %0) #1 comdat align 2 {
  %2 = alloca ptr, align 8
  store ptr %0, ptr %2, align 8, !tbaa !169
  %3 = load ptr, ptr %2, align 8
  %4 = getelementptr inbounds nuw %"class.Gluco2::vec.0", ptr %3, i32 0, i32 1
  %5 = load i32, ptr %4, align 8, !tbaa !172
  ret i32 %5
}

; Function Attrs: mustprogress nounwind uwtable
define linkonce_odr void @_ZN6Gluco23vecINS_3LitEE4pushERKS1_(ptr noundef nonnull align 8 dereferenceable(16) %0, ptr noundef nonnull align 4 dereferenceable(4) %1) #1 comdat align 2 {
  %3 = alloca ptr, align 8
  %4 = alloca ptr, align 8
  store ptr %0, ptr %3, align 8, !tbaa !169
  store ptr %1, ptr %4, align 8, !tbaa !239
  %5 = load ptr, ptr %3, align 8
  %6 = getelementptr inbounds nuw %"class.Gluco2::vec.0", ptr %5, i32 0, i32 1
  %7 = load i32, ptr %6, align 8, !tbaa !172
  %8 = getelementptr inbounds nuw %"class.Gluco2::vec.0", ptr %5, i32 0, i32 2
  %9 = load i32, ptr %8, align 4, !tbaa !173
  %10 = icmp eq i32 %7, %9
  br i1 %10, label %11, label %15

11:                                               ; preds = %2
  %12 = getelementptr inbounds nuw %"class.Gluco2::vec.0", ptr %5, i32 0, i32 1
  %13 = load i32, ptr %12, align 8, !tbaa !172
  %14 = add nsw i32 %13, 1
  call void @_ZN6Gluco23vecINS_3LitEE8capacityEi(ptr noundef nonnull align 8 dereferenceable(16) %5, i32 noundef %14)
  br label %15

15:                                               ; preds = %11, %2
  %16 = load ptr, ptr %4, align 8, !tbaa !239
  %17 = getelementptr inbounds nuw %"class.Gluco2::vec.0", ptr %5, i32 0, i32 0
  %18 = load ptr, ptr %17, align 8, !tbaa !171
  %19 = getelementptr inbounds nuw %"class.Gluco2::vec.0", ptr %5, i32 0, i32 1
  %20 = load i32, ptr %19, align 8, !tbaa !172
  %21 = add nsw i32 %20, 1
  store i32 %21, ptr %19, align 8, !tbaa !172
  %22 = sext i32 %20 to i64
  %23 = getelementptr inbounds %"struct.Gluco2::Lit", ptr %18, i64 %22
  call void @llvm.memcpy.p0.p0.i64(ptr align 4 %23, ptr align 4 %16, i64 4, i1 false), !tbaa.struct !240
  ret void
}

; Function Attrs: mustprogress nounwind uwtable
define linkonce_odr noundef nonnull align 4 dereferenceable(4) ptr @_ZN6Gluco23vecINS_3LitEEixEi(ptr noundef nonnull align 8 dereferenceable(16) %0, i32 noundef %1) #1 comdat align 2 {
  %3 = alloca ptr, align 8
  %4 = alloca i32, align 4
  store ptr %0, ptr %3, align 8, !tbaa !169
  store i32 %1, ptr %4, align 4, !tbaa !35
  %5 = load ptr, ptr %3, align 8
  %6 = getelementptr inbounds nuw %"class.Gluco2::vec.0", ptr %5, i32 0, i32 0
  %7 = load ptr, ptr %6, align 8, !tbaa !171
  %8 = load i32, ptr %4, align 4, !tbaa !35
  %9 = sext i32 %8 to i64
  %10 = getelementptr inbounds %"struct.Gluco2::Lit", ptr %7, i64 %9
  ret ptr %10
}

; Function Attrs: inlinehint mustprogress nounwind uwtable
define linkonce_odr i8 @_ZNK6Gluco26Solver5valueENS_3LitE(ptr noundef nonnull align 8 dereferenceable(1416) %0, i32 %1) #6 comdat align 2 {
  %3 = alloca %"class.Gluco2::lbool", align 1
  %4 = alloca %"struct.Gluco2::Lit", align 4
  %5 = alloca ptr, align 8
  %6 = alloca %"struct.Gluco2::Lit", align 4
  %7 = alloca %"struct.Gluco2::Lit", align 4
  %8 = getelementptr inbounds nuw %"struct.Gluco2::Lit", ptr %4, i32 0, i32 0
  store i32 %1, ptr %8, align 4
  store ptr %0, ptr %5, align 8, !tbaa !51
  %9 = load ptr, ptr %5, align 8
  %10 = getelementptr inbounds nuw %"class.Gluco2::Solver", ptr %9, i32 0, i32 68
  call void @llvm.memcpy.p0.p0.i64(ptr align 4 %6, ptr align 4 %4, i64 4, i1 false), !tbaa.struct !240
  %11 = getelementptr inbounds nuw %"struct.Gluco2::Lit", ptr %6, i32 0, i32 0
  %12 = load i32, ptr %11, align 4
  %13 = call noundef i32 @_ZN6Gluco23varENS_3LitE(i32 %12)
  %14 = call noundef nonnull align 1 dereferenceable(1) ptr @_ZNK6Gluco23vecINS_5lboolEEixEi(ptr noundef nonnull align 8 dereferenceable(16) %10, i32 noundef %13)
  call void @llvm.memcpy.p0.p0.i64(ptr align 4 %7, ptr align 4 %4, i64 4, i1 false), !tbaa.struct !240
  %15 = getelementptr inbounds nuw %"struct.Gluco2::Lit", ptr %7, i32 0, i32 0
  %16 = load i32, ptr %15, align 4
  %17 = call noundef zeroext i1 @_ZN6Gluco24signENS_3LitE(i32 %16)
  %18 = call i8 @_ZNK6Gluco25lbooleoEb(ptr noundef nonnull align 1 dereferenceable(1) %14, i1 noundef zeroext %17)
  %19 = getelementptr inbounds nuw %"class.Gluco2::lbool", ptr %3, i32 0, i32 0
  store i8 %18, ptr %19, align 1
  %20 = getelementptr inbounds nuw %"class.Gluco2::lbool", ptr %3, i32 0, i32 0
  %21 = load i8, ptr %20, align 1
  ret i8 %21
}

; Function Attrs: mustprogress nounwind uwtable
define linkonce_odr noundef zeroext i1 @_ZNK6Gluco25lbooleqES0_(ptr noundef nonnull align 1 dereferenceable(1) %0, i8 %1) #1 comdat align 2 {
  %3 = alloca %"class.Gluco2::lbool", align 1
  %4 = alloca ptr, align 8
  %5 = getelementptr inbounds nuw %"class.Gluco2::lbool", ptr %3, i32 0, i32 0
  store i8 %1, ptr %5, align 1
  store ptr %0, ptr %4, align 8, !tbaa !243
  %6 = load ptr, ptr %4, align 8
  %7 = getelementptr inbounds nuw %"class.Gluco2::lbool", ptr %3, i32 0, i32 0
  %8 = load i8, ptr %7, align 1, !tbaa !245
  %9 = zext i8 %8 to i32
  %10 = and i32 %9, 2
  %11 = getelementptr inbounds nuw %"class.Gluco2::lbool", ptr %6, i32 0, i32 0
  %12 = load i8, ptr %11, align 1, !tbaa !245
  %13 = zext i8 %12 to i32
  %14 = and i32 %13, 2
  %15 = and i32 %10, %14
  %16 = getelementptr inbounds nuw %"class.Gluco2::lbool", ptr %3, i32 0, i32 0
  %17 = load i8, ptr %16, align 1, !tbaa !245
  %18 = zext i8 %17 to i32
  %19 = and i32 %18, 2
  %20 = icmp ne i32 %19, 0
  %21 = xor i1 %20, true
  %22 = zext i1 %21 to i32
  %23 = getelementptr inbounds nuw %"class.Gluco2::lbool", ptr %6, i32 0, i32 0
  %24 = load i8, ptr %23, align 1, !tbaa !245
  %25 = zext i8 %24 to i32
  %26 = getelementptr inbounds nuw %"class.Gluco2::lbool", ptr %3, i32 0, i32 0
  %27 = load i8, ptr %26, align 1, !tbaa !245
  %28 = zext i8 %27 to i32
  %29 = icmp eq i32 %25, %28
  %30 = zext i1 %29 to i32
  %31 = and i32 %22, %30
  %32 = or i32 %15, %31
  %33 = icmp ne i32 %32, 0
  ret i1 %33
}

; Function Attrs: mustprogress nounwind uwtable
define linkonce_odr noundef zeroext i1 @_ZNK6Gluco23LiteqES0_(ptr noundef nonnull align 4 dereferenceable(4) %0, i32 %1) #1 comdat align 2 {
  %3 = alloca %"struct.Gluco2::Lit", align 4
  %4 = alloca ptr, align 8
  %5 = getelementptr inbounds nuw %"struct.Gluco2::Lit", ptr %3, i32 0, i32 0
  store i32 %1, ptr %5, align 4
  store ptr %0, ptr %4, align 8, !tbaa !239
  %6 = load ptr, ptr %4, align 8
  %7 = getelementptr inbounds nuw %"struct.Gluco2::Lit", ptr %6, i32 0, i32 0
  %8 = load i32, ptr %7, align 4, !tbaa !241
  %9 = getelementptr inbounds nuw %"struct.Gluco2::Lit", ptr %3, i32 0, i32 0
  %10 = load i32, ptr %9, align 4, !tbaa !241
  %11 = icmp eq i32 %8, %10
  ret i1 %11
}

; Function Attrs: inlinehint mustprogress nounwind uwtable
define linkonce_odr i32 @_ZN6Gluco2coENS_3LitE(i32 %0) #6 comdat {
  %2 = alloca %"struct.Gluco2::Lit", align 4
  %3 = alloca %"struct.Gluco2::Lit", align 4
  %4 = getelementptr inbounds nuw %"struct.Gluco2::Lit", ptr %3, i32 0, i32 0
  store i32 %0, ptr %4, align 4
  %5 = getelementptr inbounds nuw %"struct.Gluco2::Lit", ptr %3, i32 0, i32 0
  %6 = load i32, ptr %5, align 4, !tbaa !241
  %7 = xor i32 %6, 1
  %8 = getelementptr inbounds nuw %"struct.Gluco2::Lit", ptr %2, i32 0, i32 0
  store i32 %7, ptr %8, align 4, !tbaa !241
  %9 = getelementptr inbounds nuw %"struct.Gluco2::Lit", ptr %2, i32 0, i32 0
  %10 = load i32, ptr %9, align 4
  ret i32 %10
}

; Function Attrs: mustprogress nounwind uwtable
define linkonce_odr noundef zeroext i1 @_ZNK6Gluco25lboolneES0_(ptr noundef nonnull align 1 dereferenceable(1) %0, i8 %1) #1 comdat align 2 {
  %3 = alloca %"class.Gluco2::lbool", align 1
  %4 = alloca ptr, align 8
  %5 = alloca %"class.Gluco2::lbool", align 1
  %6 = getelementptr inbounds nuw %"class.Gluco2::lbool", ptr %3, i32 0, i32 0
  store i8 %1, ptr %6, align 1
  store ptr %0, ptr %4, align 8, !tbaa !243
  %7 = load ptr, ptr %4, align 8
  call void @llvm.memcpy.p0.p0.i64(ptr align 1 %5, ptr align 1 %3, i64 1, i1 false), !tbaa.struct !244
  %8 = getelementptr inbounds nuw %"class.Gluco2::lbool", ptr %5, i32 0, i32 0
  %9 = load i8, ptr %8, align 1
  %10 = call noundef zeroext i1 @_ZNK6Gluco25lbooleqES0_(ptr noundef nonnull align 1 dereferenceable(1) %7, i8 %9)
  %11 = xor i1 %10, true
  ret i1 %11
}

; Function Attrs: mustprogress nounwind uwtable
define linkonce_odr noundef zeroext i1 @_ZNK6Gluco23LitneES0_(ptr noundef nonnull align 4 dereferenceable(4) %0, i32 %1) #1 comdat align 2 {
  %3 = alloca %"struct.Gluco2::Lit", align 4
  %4 = alloca ptr, align 8
  %5 = getelementptr inbounds nuw %"struct.Gluco2::Lit", ptr %3, i32 0, i32 0
  store i32 %1, ptr %5, align 4
  store ptr %0, ptr %4, align 8, !tbaa !239
  %6 = load ptr, ptr %4, align 8
  %7 = getelementptr inbounds nuw %"struct.Gluco2::Lit", ptr %6, i32 0, i32 0
  %8 = load i32, ptr %7, align 4, !tbaa !241
  %9 = getelementptr inbounds nuw %"struct.Gluco2::Lit", ptr %3, i32 0, i32 0
  %10 = load i32, ptr %9, align 4, !tbaa !241
  %11 = icmp ne i32 %8, %10
  ret i1 %11
}

; Function Attrs: mustprogress nounwind uwtable
define linkonce_odr void @_ZN6Gluco23vecINS_3LitEE7shrink_Ei(ptr noundef nonnull align 8 dereferenceable(16) %0, i32 noundef %1) #1 comdat align 2 {
  %3 = alloca ptr, align 8
  %4 = alloca i32, align 4
  store ptr %0, ptr %3, align 8, !tbaa !169
  store i32 %1, ptr %4, align 4, !tbaa !35
  %5 = load ptr, ptr %3, align 8
  %6 = load i32, ptr %4, align 4, !tbaa !35
  %7 = getelementptr inbounds nuw %"class.Gluco2::vec.0", ptr %5, i32 0, i32 1
  %8 = load i32, ptr %7, align 8, !tbaa !172
  %9 = sub nsw i32 %8, %6
  store i32 %9, ptr %7, align 8, !tbaa !172
  ret void
}

; Function Attrs: nounwind
declare i32 @fprintf(ptr noundef, ptr noundef, ...) #9

; Function Attrs: inlinehint mustprogress nounwind uwtable
define linkonce_odr noundef i32 @_ZN6Gluco23varENS_3LitE(i32 %0) #6 comdat {
  %2 = alloca %"struct.Gluco2::Lit", align 4
  %3 = getelementptr inbounds nuw %"struct.Gluco2::Lit", ptr %2, i32 0, i32 0
  store i32 %0, ptr %3, align 4
  %4 = getelementptr inbounds nuw %"struct.Gluco2::Lit", ptr %2, i32 0, i32 0
  %5 = load i32, ptr %4, align 4, !tbaa !241
  %6 = ashr i32 %5, 1
  ret i32 %6
}

; Function Attrs: inlinehint mustprogress nounwind uwtable
define linkonce_odr noundef zeroext i1 @_ZN6Gluco24signENS_3LitE(i32 %0) #6 comdat {
  %2 = alloca %"struct.Gluco2::Lit", align 4
  %3 = getelementptr inbounds nuw %"struct.Gluco2::Lit", ptr %2, i32 0, i32 0
  store i32 %0, ptr %3, align 4
  %4 = getelementptr inbounds nuw %"struct.Gluco2::Lit", ptr %2, i32 0, i32 0
  %5 = load i32, ptr %4, align 4, !tbaa !241
  %6 = and i32 %5, 1
  %7 = icmp ne i32 %6, 0
  ret i1 %7
}

; Function Attrs: mustprogress nounwind uwtable
define void @_ZN6Gluco26Solver16uncheckedEnqueueENS_3LitEj(ptr noundef nonnull align 8 dereferenceable(1416) %0, i32 %1, i32 noundef %2) #1 align 2 {
  %4 = alloca %"struct.Gluco2::Lit", align 4
  %5 = alloca ptr, align 8
  %6 = alloca i32, align 4
  %7 = alloca %"struct.Gluco2::Lit", align 4
  %8 = alloca %"class.Gluco2::lbool", align 1
  %9 = alloca %"struct.Gluco2::Lit", align 4
  %10 = alloca %"struct.Gluco2::Lit", align 4
  %11 = alloca %"struct.Gluco2::Solver::VarData", align 4
  %12 = alloca %"struct.Gluco2::Lit", align 4
  %13 = getelementptr inbounds nuw %"struct.Gluco2::Lit", ptr %4, i32 0, i32 0
  store i32 %1, ptr %13, align 4
  store ptr %0, ptr %5, align 8, !tbaa !51
  store i32 %2, ptr %6, align 4, !tbaa !35
  %14 = load ptr, ptr %5, align 8
  %15 = call noundef i32 @_ZNK6Gluco26Solver9justUsageEv(ptr noundef nonnull align 8 dereferenceable(1416) %14)
  %16 = icmp ne i32 %15, 0
  br i1 %16, label %17, label %23

17:                                               ; preds = %3
  call void @llvm.memcpy.p0.p0.i64(ptr align 4 %7, ptr align 4 %4, i64 4, i1 false), !tbaa.struct !240
  %18 = getelementptr inbounds nuw %"struct.Gluco2::Lit", ptr %7, i32 0, i32 0
  %19 = load i32, ptr %18, align 4
  %20 = call noundef i32 @_ZN6Gluco23varENS_3LitE(i32 %19)
  %21 = call noundef zeroext i1 @_ZNK6Gluco26Solver12isRoundWatchEi(ptr noundef nonnull align 8 dereferenceable(1416) %14, i32 noundef %20)
  br i1 %21, label %23, label %22

22:                                               ; preds = %17
  br label %42

23:                                               ; preds = %17, %3
  call void @llvm.lifetime.start.p0(i64 1, ptr %8) #2
  call void @llvm.memcpy.p0.p0.i64(ptr align 4 %9, ptr align 4 %4, i64 4, i1 false), !tbaa.struct !240
  %24 = getelementptr inbounds nuw %"struct.Gluco2::Lit", ptr %9, i32 0, i32 0
  %25 = load i32, ptr %24, align 4
  %26 = call noundef zeroext i1 @_ZN6Gluco24signENS_3LitE(i32 %25)
  %27 = xor i1 %26, true
  call void @_ZN6Gluco25lboolC2Eb(ptr noundef nonnull align 1 dereferenceable(1) %8, i1 noundef zeroext %27)
  %28 = getelementptr inbounds nuw %"class.Gluco2::Solver", ptr %14, i32 0, i32 68
  call void @llvm.memcpy.p0.p0.i64(ptr align 4 %10, ptr align 4 %4, i64 4, i1 false), !tbaa.struct !240
  %29 = getelementptr inbounds nuw %"struct.Gluco2::Lit", ptr %10, i32 0, i32 0
  %30 = load i32, ptr %29, align 4
  %31 = call noundef i32 @_ZN6Gluco23varENS_3LitE(i32 %30)
  %32 = call noundef nonnull align 1 dereferenceable(1) ptr @_ZN6Gluco23vecINS_5lboolEEixEi(ptr noundef nonnull align 8 dereferenceable(16) %28, i32 noundef %31)
  call void @llvm.memcpy.p0.p0.i64(ptr align 1 %32, ptr align 1 %8, i64 1, i1 false), !tbaa.struct !244
  call void @llvm.lifetime.end.p0(i64 1, ptr %8) #2
  call void @llvm.lifetime.start.p0(i64 8, ptr %11) #2
  %33 = load i32, ptr %6, align 4, !tbaa !35
  %34 = call noundef i32 @_ZNK6Gluco26Solver13decisionLevelEv(ptr noundef nonnull align 8 dereferenceable(1416) %14)
  %35 = call i64 @_ZN6Gluco26Solver9mkVarDataEji(i32 noundef %33, i32 noundef %34)
  store i64 %35, ptr %11, align 4
  %36 = getelementptr inbounds nuw %"class.Gluco2::Solver", ptr %14, i32 0, i32 74
  call void @llvm.memcpy.p0.p0.i64(ptr align 4 %12, ptr align 4 %4, i64 4, i1 false), !tbaa.struct !240
  %37 = getelementptr inbounds nuw %"struct.Gluco2::Lit", ptr %12, i32 0, i32 0
  %38 = load i32, ptr %37, align 4
  %39 = call noundef i32 @_ZN6Gluco23varENS_3LitE(i32 %38)
  %40 = call noundef nonnull align 4 dereferenceable(8) ptr @_ZN6Gluco23vecINS_6Solver7VarDataEEixEi(ptr noundef nonnull align 8 dereferenceable(16) %36, i32 noundef %39)
  call void @llvm.memcpy.p0.p0.i64(ptr align 4 %40, ptr align 4 %11, i64 8, i1 false), !tbaa.struct !42
  call void @llvm.lifetime.end.p0(i64 8, ptr %11) #2
  %41 = getelementptr inbounds nuw %"class.Gluco2::Solver", ptr %14, i32 0, i32 71
  call void @_ZN6Gluco23vecINS_3LitEE5push_ERKS1_(ptr noundef nonnull align 8 dereferenceable(16) %41, ptr noundef nonnull align 4 dereferenceable(4) %4)
  br label %42

42:                                               ; preds = %23, %22
  ret void
}

; Function Attrs: mustprogress nounwind uwtable
define noundef i32 @_ZN6Gluco26Solver9propagateEv(ptr noundef nonnull align 8 dereferenceable(1416) %0) #1 align 2 {
  %2 = alloca i32, align 4
  %3 = alloca ptr, align 8
  %4 = alloca i32, align 4
  %5 = alloca i32, align 4
  %6 = alloca %"struct.Gluco2::Lit", align 4
  %7 = alloca ptr, align 8
  %8 = alloca ptr, align 8
  %9 = alloca ptr, align 8
  %10 = alloca ptr, align 8
  %11 = alloca i32, align 4
  %12 = alloca %"struct.Gluco2::Lit", align 4
  %13 = alloca %"class.Gluco2::lbool", align 1
  %14 = alloca %"class.Gluco2::lbool", align 1
  %15 = alloca %"struct.Gluco2::Lit", align 4
  %16 = alloca i32, align 4
  %17 = alloca ptr, align 8
  %18 = alloca i32, align 4
  %19 = alloca %"struct.Gluco2::Lit", align 4
  %20 = alloca %"class.Gluco2::lbool", align 1
  %21 = alloca %"struct.Gluco2::Lit", align 4
  %22 = alloca %"class.Gluco2::lbool", align 1
  %23 = alloca %"class.Gluco2::lbool", align 1
  %24 = alloca %"struct.Gluco2::Lit", align 4
  %25 = alloca %"class.Gluco2::lbool", align 1
  %26 = alloca %"struct.Gluco2::Lit", align 4
  %27 = alloca %"struct.Gluco2::Lit", align 4
  %28 = alloca %"class.Gluco2::lbool", align 1
  %29 = alloca %"struct.Gluco2::Lit", align 4
  %30 = alloca %"class.Gluco2::lbool", align 1
  %31 = alloca i32, align 4
  %32 = alloca ptr, align 8
  %33 = alloca %"struct.Gluco2::Lit", align 4
  %34 = alloca %"struct.Gluco2::Lit", align 4
  %35 = alloca %"struct.Gluco2::Lit", align 4
  %36 = alloca %"struct.Gluco2::Lit", align 4
  %37 = alloca %"struct.Gluco2::Solver::Watcher", align 4
  %38 = alloca %"struct.Gluco2::Lit", align 4
  %39 = alloca %"struct.Gluco2::Lit", align 4
  %40 = alloca %"class.Gluco2::lbool", align 1
  %41 = alloca %"struct.Gluco2::Lit", align 4
  %42 = alloca %"class.Gluco2::lbool", align 1
  %43 = alloca i32, align 4
  %44 = alloca i32, align 4
  %45 = alloca %"class.Gluco2::lbool", align 1
  %46 = alloca %"struct.Gluco2::Lit", align 4
  %47 = alloca %"class.Gluco2::lbool", align 1
  %48 = alloca %"class.Gluco2::lbool", align 1
  %49 = alloca %"struct.Gluco2::Lit", align 4
  %50 = alloca %"class.Gluco2::lbool", align 1
  %51 = alloca %"struct.Gluco2::Lit", align 4
  %52 = alloca %"struct.Gluco2::Lit", align 4
  %53 = alloca %"struct.Gluco2::Lit", align 4
  %54 = alloca i32, align 4
  %55 = alloca %"class.Gluco2::lbool", align 1
  %56 = alloca %"struct.Gluco2::Lit", align 4
  %57 = alloca %"class.Gluco2::lbool", align 1
  %58 = alloca %"struct.Gluco2::Lit", align 4
  %59 = alloca %"struct.Gluco2::Lit", align 4
  %60 = alloca %"class.Gluco2::lbool", align 1
  %61 = alloca %"struct.Gluco2::Lit", align 4
  %62 = alloca %"class.Gluco2::lbool", align 1
  %63 = alloca %"struct.Gluco2::Lit", align 4
  store ptr %0, ptr %3, align 8, !tbaa !51
  %64 = load ptr, ptr %3, align 8
  call void @llvm.lifetime.start.p0(i64 4, ptr %4) #2
  store i32 -1, ptr %4, align 4, !tbaa !35
  call void @llvm.lifetime.start.p0(i64 4, ptr %5) #2
  store i32 0, ptr %5, align 4, !tbaa !35
  %65 = getelementptr inbounds nuw %"class.Gluco2::Solver", ptr %64, i32 0, i32 64
  call void @_ZN6Gluco28OccListsINS_3LitENS_3vecINS_6Solver7WatcherEEENS3_14WatcherDeletedEE8cleanAllEv(ptr noundef nonnull align 8 dereferenceable(56) %65)
  %66 = getelementptr inbounds nuw %"class.Gluco2::Solver", ptr %64, i32 0, i32 65
  call void @_ZN6Gluco28OccListsINS_3LitENS_3vecINS_6Solver7WatcherEEENS3_14WatcherDeletedEE8cleanAllEv(ptr noundef nonnull align 8 dereferenceable(56) %66)
  br label %67

67:                                               ; preds = %406, %1
  %68 = getelementptr inbounds nuw %"class.Gluco2::Solver", ptr %64, i32 0, i32 75
  %69 = load i32, ptr %68, align 8, !tbaa !141
  %70 = getelementptr inbounds nuw %"class.Gluco2::Solver", ptr %64, i32 0, i32 71
  %71 = call noundef i32 @_ZNK6Gluco23vecINS_3LitEE4sizeEv(ptr noundef nonnull align 8 dereferenceable(16) %70)
  %72 = icmp slt i32 %69, %71
  br i1 %72, label %73, label %407

73:                                               ; preds = %67
  call void @llvm.lifetime.start.p0(i64 4, ptr %6) #2
  %74 = getelementptr inbounds nuw %"class.Gluco2::Solver", ptr %64, i32 0, i32 71
  %75 = getelementptr inbounds nuw %"class.Gluco2::Solver", ptr %64, i32 0, i32 75
  %76 = load i32, ptr %75, align 8, !tbaa !141
  %77 = add nsw i32 %76, 1
  store i32 %77, ptr %75, align 8, !tbaa !141
  %78 = call noundef nonnull align 4 dereferenceable(4) ptr @_ZN6Gluco23vecINS_3LitEEixEi(ptr noundef nonnull align 8 dereferenceable(16) %74, i32 noundef %76)
  call void @llvm.memcpy.p0.p0.i64(ptr align 4 %6, ptr align 4 %78, i64 4, i1 false), !tbaa.struct !240
  call void @llvm.lifetime.start.p0(i64 8, ptr %7) #2
  %79 = getelementptr inbounds nuw %"class.Gluco2::Solver", ptr %64, i32 0, i32 64
  %80 = call noundef nonnull align 8 dereferenceable(16) ptr @_ZN6Gluco28OccListsINS_3LitENS_3vecINS_6Solver7WatcherEEENS3_14WatcherDeletedEEixERKS1_(ptr noundef nonnull align 8 dereferenceable(56) %79, ptr noundef nonnull align 4 dereferenceable(4) %6)
  store ptr %80, ptr %7, align 8, !tbaa !263
  call void @llvm.lifetime.start.p0(i64 8, ptr %8) #2
  call void @llvm.lifetime.start.p0(i64 8, ptr %9) #2
  call void @llvm.lifetime.start.p0(i64 8, ptr %10) #2
  %81 = load i32, ptr %5, align 4, !tbaa !35
  %82 = add nsw i32 %81, 1
  store i32 %82, ptr %5, align 4, !tbaa !35
  %83 = call noundef i32 @_ZNK6Gluco26Solver9justUsageEv(ptr noundef nonnull align 8 dereferenceable(1416) %64)
  %84 = icmp sle i32 2, %83
  br i1 %84, label %85, label %107

85:                                               ; preds = %73
  call void @llvm.lifetime.start.p0(i64 4, ptr %11) #2
  call void @llvm.memcpy.p0.p0.i64(ptr align 4 %12, ptr align 4 %6, i64 4, i1 false), !tbaa.struct !240
  %86 = getelementptr inbounds nuw %"struct.Gluco2::Lit", ptr %12, i32 0, i32 0
  %87 = load i32, ptr %86, align 4
  %88 = call noundef i32 @_ZN6Gluco26Solver13gatePropagateENS_3LitE(ptr noundef nonnull align 8 dereferenceable(1416) %64, i32 %87)
  store i32 %88, ptr %11, align 4, !tbaa !35
  %89 = icmp ne i32 -1, %88
  br i1 %89, label %90, label %103

90:                                               ; preds = %85
  %91 = load i32, ptr %11, align 4, !tbaa !35
  store i32 %91, ptr %4, align 4, !tbaa !35
  call void @llvm.lifetime.start.p0(i64 1, ptr %13) #2
  call void @_ZN6Gluco25lboolC2Eh(ptr noundef nonnull align 1 dereferenceable(1) %13, i8 noundef zeroext 0)
  call void @llvm.memcpy.p0.p0.i64(ptr align 4 %15, ptr align 4 %6, i64 4, i1 false), !tbaa.struct !240
  %92 = getelementptr inbounds nuw %"struct.Gluco2::Lit", ptr %15, i32 0, i32 0
  %93 = load i32, ptr %92, align 4
  %94 = call noundef i32 @_ZN6Gluco23varENS_3LitE(i32 %93)
  %95 = call i8 @_ZNK6Gluco26Solver5valueEi(ptr noundef nonnull align 8 dereferenceable(1416) %64, i32 noundef %94)
  %96 = getelementptr inbounds nuw %"class.Gluco2::lbool", ptr %14, i32 0, i32 0
  store i8 %95, ptr %96, align 1
  %97 = getelementptr inbounds nuw %"class.Gluco2::lbool", ptr %14, i32 0, i32 0
  %98 = load i8, ptr %97, align 1
  %99 = call noundef zeroext i1 @_ZNK6Gluco25lbooleqES0_(ptr noundef nonnull align 1 dereferenceable(1) %13, i8 %98)
  call void @llvm.lifetime.end.p0(i64 1, ptr %13) #2
  br i1 %99, label %100, label %102

100:                                              ; preds = %90
  %101 = load i32, ptr %4, align 4, !tbaa !35
  store i32 %101, ptr %2, align 4
  store i32 1, ptr %16, align 4
  br label %104

102:                                              ; preds = %90
  br label %103

103:                                              ; preds = %102, %85
  store i32 0, ptr %16, align 4
  br label %104

104:                                              ; preds = %103, %100
  call void @llvm.lifetime.end.p0(i64 4, ptr %11) #2
  %105 = load i32, ptr %16, align 4
  switch i32 %105, label %404 [
    i32 0, label %106
  ]

106:                                              ; preds = %104
  br label %107

107:                                              ; preds = %106, %73
  call void @llvm.lifetime.start.p0(i64 8, ptr %17) #2
  %108 = getelementptr inbounds nuw %"class.Gluco2::Solver", ptr %64, i32 0, i32 65
  %109 = call noundef nonnull align 8 dereferenceable(16) ptr @_ZN6Gluco28OccListsINS_3LitENS_3vecINS_6Solver7WatcherEEENS3_14WatcherDeletedEEixERKS1_(ptr noundef nonnull align 8 dereferenceable(56) %108, ptr noundef nonnull align 4 dereferenceable(4) %6)
  store ptr %109, ptr %17, align 8, !tbaa !263
  call void @llvm.lifetime.start.p0(i64 4, ptr %18) #2
  store i32 0, ptr %18, align 4, !tbaa !35
  br label %110

110:                                              ; preds = %154, %107
  %111 = load i32, ptr %18, align 4, !tbaa !35
  %112 = load ptr, ptr %17, align 8, !tbaa !263
  %113 = call noundef i32 @_ZNK6Gluco23vecINS_6Solver7WatcherEE4sizeEv(ptr noundef nonnull align 8 dereferenceable(16) %112)
  %114 = icmp slt i32 %111, %113
  br i1 %114, label %116, label %115

115:                                              ; preds = %110
  store i32 4, ptr %16, align 4
  br label %157

116:                                              ; preds = %110
  call void @llvm.lifetime.start.p0(i64 4, ptr %19) #2
  %117 = load ptr, ptr %17, align 8, !tbaa !263
  %118 = load i32, ptr %18, align 4, !tbaa !35
  %119 = call noundef nonnull align 4 dereferenceable(8) ptr @_ZN6Gluco23vecINS_6Solver7WatcherEEixEi(ptr noundef nonnull align 8 dereferenceable(16) %117, i32 noundef %118)
  %120 = getelementptr inbounds nuw %"struct.Gluco2::Solver::Watcher", ptr %119, i32 0, i32 1
  call void @llvm.memcpy.p0.p0.i64(ptr align 4 %19, ptr align 4 %120, i64 4, i1 false), !tbaa.struct !240
  call void @llvm.lifetime.start.p0(i64 1, ptr %20) #2
  call void @llvm.memcpy.p0.p0.i64(ptr align 4 %21, ptr align 4 %19, i64 4, i1 false), !tbaa.struct !240
  %121 = getelementptr inbounds nuw %"struct.Gluco2::Lit", ptr %21, i32 0, i32 0
  %122 = load i32, ptr %121, align 4
  %123 = call i8 @_ZNK6Gluco26Solver5valueENS_3LitE(ptr noundef nonnull align 8 dereferenceable(1416) %64, i32 %122)
  %124 = getelementptr inbounds nuw %"class.Gluco2::lbool", ptr %20, i32 0, i32 0
  store i8 %123, ptr %124, align 1
  call void @_ZN6Gluco25lboolC2Eh(ptr noundef nonnull align 1 dereferenceable(1) %22, i8 noundef zeroext 1)
  %125 = getelementptr inbounds nuw %"class.Gluco2::lbool", ptr %22, i32 0, i32 0
  %126 = load i8, ptr %125, align 1
  %127 = call noundef zeroext i1 @_ZNK6Gluco25lbooleqES0_(ptr noundef nonnull align 1 dereferenceable(1) %20, i8 %126)
  call void @llvm.lifetime.end.p0(i64 1, ptr %20) #2
  br i1 %127, label %128, label %134

128:                                              ; preds = %116
  %129 = load ptr, ptr %17, align 8, !tbaa !263
  %130 = load i32, ptr %18, align 4, !tbaa !35
  %131 = call noundef nonnull align 4 dereferenceable(8) ptr @_ZN6Gluco23vecINS_6Solver7WatcherEEixEi(ptr noundef nonnull align 8 dereferenceable(16) %129, i32 noundef %130)
  %132 = getelementptr inbounds nuw %"struct.Gluco2::Solver::Watcher", ptr %131, i32 0, i32 0
  %133 = load i32, ptr %132, align 4, !tbaa !264
  store i32 %133, ptr %2, align 4
  store i32 1, ptr %16, align 4
  br label %151

134:                                              ; preds = %116
  call void @llvm.lifetime.start.p0(i64 1, ptr %23) #2
  call void @llvm.memcpy.p0.p0.i64(ptr align 4 %24, ptr align 4 %19, i64 4, i1 false), !tbaa.struct !240
  %135 = getelementptr inbounds nuw %"struct.Gluco2::Lit", ptr %24, i32 0, i32 0
  %136 = load i32, ptr %135, align 4
  %137 = call i8 @_ZNK6Gluco26Solver5valueENS_3LitE(ptr noundef nonnull align 8 dereferenceable(1416) %64, i32 %136)
  %138 = getelementptr inbounds nuw %"class.Gluco2::lbool", ptr %23, i32 0, i32 0
  store i8 %137, ptr %138, align 1
  call void @_ZN6Gluco25lboolC2Eh(ptr noundef nonnull align 1 dereferenceable(1) %25, i8 noundef zeroext 2)
  %139 = getelementptr inbounds nuw %"class.Gluco2::lbool", ptr %25, i32 0, i32 0
  %140 = load i8, ptr %139, align 1
  %141 = call noundef zeroext i1 @_ZNK6Gluco25lbooleqES0_(ptr noundef nonnull align 1 dereferenceable(1) %23, i8 %140)
  call void @llvm.lifetime.end.p0(i64 1, ptr %23) #2
  br i1 %141, label %142, label %150

142:                                              ; preds = %134
  call void @llvm.memcpy.p0.p0.i64(ptr align 4 %26, ptr align 4 %19, i64 4, i1 false), !tbaa.struct !240
  %143 = load ptr, ptr %17, align 8, !tbaa !263
  %144 = load i32, ptr %18, align 4, !tbaa !35
  %145 = call noundef nonnull align 4 dereferenceable(8) ptr @_ZN6Gluco23vecINS_6Solver7WatcherEEixEi(ptr noundef nonnull align 8 dereferenceable(16) %143, i32 noundef %144)
  %146 = getelementptr inbounds nuw %"struct.Gluco2::Solver::Watcher", ptr %145, i32 0, i32 0
  %147 = load i32, ptr %146, align 4, !tbaa !264
  %148 = getelementptr inbounds nuw %"struct.Gluco2::Lit", ptr %26, i32 0, i32 0
  %149 = load i32, ptr %148, align 4
  call void @_ZN6Gluco26Solver16uncheckedEnqueueENS_3LitEj(ptr noundef nonnull align 8 dereferenceable(1416) %64, i32 %149, i32 noundef %147)
  br label %150

150:                                              ; preds = %142, %134
  store i32 0, ptr %16, align 4
  br label %151

151:                                              ; preds = %150, %128
  call void @llvm.lifetime.end.p0(i64 4, ptr %19) #2
  %152 = load i32, ptr %16, align 4
  switch i32 %152, label %157 [
    i32 0, label %153
  ]

153:                                              ; preds = %151
  br label %154

154:                                              ; preds = %153
  %155 = load i32, ptr %18, align 4, !tbaa !35
  %156 = add nsw i32 %155, 1
  store i32 %156, ptr %18, align 4, !tbaa !35
  br label %110, !llvm.loop !266

157:                                              ; preds = %151, %115
  call void @llvm.lifetime.end.p0(i64 4, ptr %18) #2
  %158 = load i32, ptr %16, align 4
  switch i32 %158, label %403 [
    i32 4, label %159
  ]

159:                                              ; preds = %157
  %160 = load ptr, ptr %7, align 8, !tbaa !263
  %161 = call noundef ptr @_ZN6Gluco23vecINS_6Solver7WatcherEEcvPS2_Ev(ptr noundef nonnull align 8 dereferenceable(16) %160)
  store ptr %161, ptr %9, align 8, !tbaa !267
  store ptr %161, ptr %8, align 8, !tbaa !267
  %162 = load ptr, ptr %8, align 8, !tbaa !267
  %163 = load ptr, ptr %7, align 8, !tbaa !263
  %164 = call noundef i32 @_ZNK6Gluco23vecINS_6Solver7WatcherEE4sizeEv(ptr noundef nonnull align 8 dereferenceable(16) %163)
  %165 = sext i32 %164 to i64
  %166 = getelementptr inbounds %"struct.Gluco2::Solver::Watcher", ptr %162, i64 %165
  store ptr %166, ptr %10, align 8, !tbaa !267
  br label %167

167:                                              ; preds = %393, %391, %159
  %168 = load ptr, ptr %8, align 8, !tbaa !267
  %169 = load ptr, ptr %10, align 8, !tbaa !267
  %170 = icmp ne ptr %168, %169
  br i1 %170, label %171, label %394

171:                                              ; preds = %167
  call void @llvm.lifetime.start.p0(i64 4, ptr %27) #2
  %172 = load ptr, ptr %8, align 8, !tbaa !267
  %173 = getelementptr inbounds nuw %"struct.Gluco2::Solver::Watcher", ptr %172, i32 0, i32 1
  call void @llvm.memcpy.p0.p0.i64(ptr align 4 %27, ptr align 4 %173, i64 4, i1 false), !tbaa.struct !240
  call void @llvm.lifetime.start.p0(i64 1, ptr %28) #2
  call void @llvm.memcpy.p0.p0.i64(ptr align 4 %29, ptr align 4 %27, i64 4, i1 false), !tbaa.struct !240
  %174 = getelementptr inbounds nuw %"struct.Gluco2::Lit", ptr %29, i32 0, i32 0
  %175 = load i32, ptr %174, align 4
  %176 = call i8 @_ZNK6Gluco26Solver5valueENS_3LitE(ptr noundef nonnull align 8 dereferenceable(1416) %64, i32 %175)
  %177 = getelementptr inbounds nuw %"class.Gluco2::lbool", ptr %28, i32 0, i32 0
  store i8 %176, ptr %177, align 1
  call void @_ZN6Gluco25lboolC2Eh(ptr noundef nonnull align 1 dereferenceable(1) %30, i8 noundef zeroext 0)
  %178 = getelementptr inbounds nuw %"class.Gluco2::lbool", ptr %30, i32 0, i32 0
  %179 = load i8, ptr %178, align 1
  %180 = call noundef zeroext i1 @_ZNK6Gluco25lbooleqES0_(ptr noundef nonnull align 1 dereferenceable(1) %28, i8 %179)
  call void @llvm.lifetime.end.p0(i64 1, ptr %28) #2
  br i1 %180, label %181, label %186

181:                                              ; preds = %171
  %182 = load ptr, ptr %8, align 8, !tbaa !267
  %183 = getelementptr inbounds nuw %"struct.Gluco2::Solver::Watcher", ptr %182, i32 1
  store ptr %183, ptr %8, align 8, !tbaa !267
  %184 = load ptr, ptr %9, align 8, !tbaa !267
  %185 = getelementptr inbounds nuw %"struct.Gluco2::Solver::Watcher", ptr %184, i32 1
  store ptr %185, ptr %9, align 8, !tbaa !267
  call void @llvm.memcpy.p0.p0.i64(ptr align 4 %184, ptr align 4 %182, i64 8, i1 false), !tbaa.struct !42
  store i32 8, ptr %16, align 4
  br label %391, !llvm.loop !269

186:                                              ; preds = %171
  call void @llvm.lifetime.start.p0(i64 4, ptr %31) #2
  %187 = load ptr, ptr %8, align 8, !tbaa !267
  %188 = getelementptr inbounds nuw %"struct.Gluco2::Solver::Watcher", ptr %187, i32 0, i32 0
  %189 = load i32, ptr %188, align 4, !tbaa !264
  store i32 %189, ptr %31, align 4, !tbaa !35
  call void @llvm.lifetime.start.p0(i64 8, ptr %32) #2
  %190 = getelementptr inbounds nuw %"class.Gluco2::Solver", ptr %64, i32 0, i32 84
  %191 = load i32, ptr %31, align 4, !tbaa !35
  %192 = call noundef nonnull align 4 dereferenceable(12) ptr @_ZN6Gluco215ClauseAllocatorixEj(ptr noundef nonnull align 8 dereferenceable(21) %190, i32 noundef %191)
  store ptr %192, ptr %32, align 8, !tbaa !232
  call void @llvm.lifetime.start.p0(i64 4, ptr %33) #2
  call void @llvm.memcpy.p0.p0.i64(ptr align 4 %34, ptr align 4 %6, i64 4, i1 false), !tbaa.struct !240
  %193 = getelementptr inbounds nuw %"struct.Gluco2::Lit", ptr %34, i32 0, i32 0
  %194 = load i32, ptr %193, align 4
  %195 = call i32 @_ZN6Gluco2coENS_3LitE(i32 %194)
  %196 = getelementptr inbounds nuw %"struct.Gluco2::Lit", ptr %33, i32 0, i32 0
  store i32 %195, ptr %196, align 4
  %197 = load ptr, ptr %32, align 8, !tbaa !232
  %198 = call noundef nonnull align 4 dereferenceable(4) ptr @_ZN6Gluco26ClauseixEi(ptr noundef nonnull align 4 dereferenceable(12) %197, i32 noundef 0)
  call void @llvm.memcpy.p0.p0.i64(ptr align 4 %35, ptr align 4 %33, i64 4, i1 false), !tbaa.struct !240
  %199 = getelementptr inbounds nuw %"struct.Gluco2::Lit", ptr %35, i32 0, i32 0
  %200 = load i32, ptr %199, align 4
  %201 = call noundef zeroext i1 @_ZNK6Gluco23LiteqES0_(ptr noundef nonnull align 4 dereferenceable(4) %198, i32 %200)
  br i1 %201, label %202, label %209

202:                                              ; preds = %186
  %203 = load ptr, ptr %32, align 8, !tbaa !232
  %204 = call noundef nonnull align 4 dereferenceable(4) ptr @_ZN6Gluco26ClauseixEi(ptr noundef nonnull align 4 dereferenceable(12) %203, i32 noundef 1)
  %205 = load ptr, ptr %32, align 8, !tbaa !232
  %206 = call noundef nonnull align 4 dereferenceable(4) ptr @_ZN6Gluco26ClauseixEi(ptr noundef nonnull align 4 dereferenceable(12) %205, i32 noundef 0)
  call void @llvm.memcpy.p0.p0.i64(ptr align 4 %206, ptr align 4 %204, i64 4, i1 false), !tbaa.struct !240
  %207 = load ptr, ptr %32, align 8, !tbaa !232
  %208 = call noundef nonnull align 4 dereferenceable(4) ptr @_ZN6Gluco26ClauseixEi(ptr noundef nonnull align 4 dereferenceable(12) %207, i32 noundef 1)
  call void @llvm.memcpy.p0.p0.i64(ptr align 4 %208, ptr align 4 %33, i64 4, i1 false), !tbaa.struct !240
  br label %209

209:                                              ; preds = %202, %186
  %210 = load ptr, ptr %8, align 8, !tbaa !267
  %211 = getelementptr inbounds nuw %"struct.Gluco2::Solver::Watcher", ptr %210, i32 1
  store ptr %211, ptr %8, align 8, !tbaa !267
  call void @llvm.lifetime.start.p0(i64 4, ptr %36) #2
  %212 = load ptr, ptr %32, align 8, !tbaa !232
  %213 = call noundef nonnull align 4 dereferenceable(4) ptr @_ZN6Gluco26ClauseixEi(ptr noundef nonnull align 4 dereferenceable(12) %212, i32 noundef 0)
  call void @llvm.memcpy.p0.p0.i64(ptr align 4 %36, ptr align 4 %213, i64 4, i1 false), !tbaa.struct !240
  call void @llvm.lifetime.start.p0(i64 8, ptr %37) #2
  %214 = load i32, ptr %31, align 4, !tbaa !35
  call void @llvm.memcpy.p0.p0.i64(ptr align 4 %38, ptr align 4 %36, i64 4, i1 false), !tbaa.struct !240
  %215 = getelementptr inbounds nuw %"struct.Gluco2::Lit", ptr %38, i32 0, i32 0
  %216 = load i32, ptr %215, align 4
  call void @_ZN6Gluco26Solver7WatcherC2EjNS_3LitE(ptr noundef nonnull align 4 dereferenceable(8) %37, i32 noundef %214, i32 %216)
  call void @llvm.memcpy.p0.p0.i64(ptr align 4 %39, ptr align 4 %27, i64 4, i1 false), !tbaa.struct !240
  %217 = getelementptr inbounds nuw %"struct.Gluco2::Lit", ptr %39, i32 0, i32 0
  %218 = load i32, ptr %217, align 4
  %219 = call noundef zeroext i1 @_ZNK6Gluco23LitneES0_(ptr noundef nonnull align 4 dereferenceable(4) %36, i32 %218)
  call void @llvm.lifetime.start.p0(i64 1, ptr %40) #2
  br i1 %219, label %220, label %228

220:                                              ; preds = %209
  call void @llvm.memcpy.p0.p0.i64(ptr align 4 %41, ptr align 4 %36, i64 4, i1 false), !tbaa.struct !240
  %221 = getelementptr inbounds nuw %"struct.Gluco2::Lit", ptr %41, i32 0, i32 0
  %222 = load i32, ptr %221, align 4
  %223 = call i8 @_ZNK6Gluco26Solver5valueENS_3LitE(ptr noundef nonnull align 8 dereferenceable(1416) %64, i32 %222)
  %224 = getelementptr inbounds nuw %"class.Gluco2::lbool", ptr %40, i32 0, i32 0
  store i8 %223, ptr %224, align 1
  call void @_ZN6Gluco25lboolC2Eh(ptr noundef nonnull align 1 dereferenceable(1) %42, i8 noundef zeroext 0)
  %225 = getelementptr inbounds nuw %"class.Gluco2::lbool", ptr %42, i32 0, i32 0
  %226 = load i8, ptr %225, align 1
  %227 = call noundef zeroext i1 @_ZNK6Gluco25lbooleqES0_(ptr noundef nonnull align 1 dereferenceable(1) %40, i8 %226)
  br label %228

228:                                              ; preds = %220, %209
  %229 = phi i1 [ false, %209 ], [ %227, %220 ]
  call void @llvm.lifetime.end.p0(i64 1, ptr %40) #2
  br i1 %229, label %230, label %233

230:                                              ; preds = %228
  %231 = load ptr, ptr %9, align 8, !tbaa !267
  %232 = getelementptr inbounds nuw %"struct.Gluco2::Solver::Watcher", ptr %231, i32 1
  store ptr %232, ptr %9, align 8, !tbaa !267
  call void @llvm.memcpy.p0.p0.i64(ptr align 4 %231, ptr align 4 %37, i64 8, i1 false), !tbaa.struct !42
  store i32 8, ptr %16, align 4
  br label %390, !llvm.loop !269

233:                                              ; preds = %228
  %234 = getelementptr inbounds nuw %"class.Gluco2::Solver", ptr %64, i32 0, i32 101
  %235 = load i32, ptr %234, align 4, !tbaa !149
  %236 = icmp ne i32 %235, 0
  br i1 %236, label %237, label %317

237:                                              ; preds = %233
  call void @llvm.lifetime.start.p0(i64 4, ptr %43) #2
  store i32 -1, ptr %43, align 4, !tbaa !35
  call void @llvm.lifetime.start.p0(i64 4, ptr %44) #2
  store i32 2, ptr %44, align 4, !tbaa !35
  br label %238

238:                                              ; preds = %289, %237
  %239 = load i32, ptr %44, align 4, !tbaa !35
  %240 = load ptr, ptr %32, align 8, !tbaa !232
  %241 = call noundef i32 @_ZNK6Gluco26Clause4sizeEv(ptr noundef nonnull align 4 dereferenceable(12) %240)
  %242 = icmp slt i32 %239, %241
  br i1 %242, label %244, label %243

243:                                              ; preds = %238
  store i32 9, ptr %16, align 4
  br label %292

244:                                              ; preds = %238
  call void @llvm.lifetime.start.p0(i64 1, ptr %45) #2
  %245 = load ptr, ptr %32, align 8, !tbaa !232
  %246 = load i32, ptr %44, align 4, !tbaa !35
  %247 = call noundef nonnull align 4 dereferenceable(4) ptr @_ZN6Gluco26ClauseixEi(ptr noundef nonnull align 4 dereferenceable(12) %245, i32 noundef %246)
  call void @llvm.memcpy.p0.p0.i64(ptr align 4 %46, ptr align 4 %247, i64 4, i1 false), !tbaa.struct !240
  %248 = getelementptr inbounds nuw %"struct.Gluco2::Lit", ptr %46, i32 0, i32 0
  %249 = load i32, ptr %248, align 4
  %250 = call i8 @_ZNK6Gluco26Solver5valueENS_3LitE(ptr noundef nonnull align 8 dereferenceable(1416) %64, i32 %249)
