target datalayout = "e-m:e-p270:32:32-p271:32:32-p272:64:64-i64:64-i128:128-f80:128-n8:16:32:64-S128"
target triple = "x86_64-pc-linux-gnu"

%"class.std::ios_base::Init" = type { i8 }
%"class.std::__cxx11::basic_string" = type { %"struct.std::__cxx11::basic_string<char>::_Alloc_hider", i64, %union.anon }
%"struct.std::__cxx11::basic_string<char>::_Alloc_hider" = type { ptr }
%union.anon = type { i64, [8 x i8] }
%"class.testing::internal::MutexBase" = type { %union.pthread_mutex_t, i8, i64 }
%union.pthread_mutex_t = type { %struct.__pthread_mutex_s }
%struct.__pthread_mutex_s = type { i32, i32, i32, i32, i32, i16, i16, %struct.__pthread_internal_list }
%struct.__pthread_internal_list = type { ptr, ptr }
%"class.std::basic_ostream" = type { ptr, %"class.std::basic_ios" }
%"class.std::basic_ios" = type { %"class.std::ios_base", ptr, i8, i8, ptr, ptr, ptr, ptr }
%"class.std::ios_base" = type { ptr, i64, i64, i32, i32, i32, ptr, %"struct.std::ios_base::_Words", [8 x %"struct.std::ios_base::_Words"], i32, ptr, %"class.std::locale" }
%"struct.std::ios_base::_Words" = type { ptr, i64 }
%"class.std::locale" = type { ptr }
%"struct.std::array" = type { [256 x i8] }
%"class.testing::internal::ThreadLocal" = type { i32, %"class.std::unique_ptr.48" }
%"class.std::unique_ptr.48" = type { %"struct.std::__uniq_ptr_data.49" }
%"struct.std::__uniq_ptr_data.49" = type { %"class.std::__uniq_ptr_impl.50" }
%"class.std::__uniq_ptr_impl.50" = type { %"class.std::tuple.51" }
%"class.std::tuple.51" = type { %"struct.std::_Tuple_impl.52" }
%"struct.std::_Tuple_impl.52" = type { %"struct.std::_Head_base.55" }
%"struct.std::_Head_base.55" = type { ptr }
%"class.testing::(anonymous namespace)::MockObjectRegistry" = type { %"class.std::map" }
%"class.std::map" = type { %"class.std::_Rb_tree.63" }
%"class.std::_Rb_tree.63" = type { %"struct.std::_Rb_tree<const void *, std::pair<const void *const, testing::(anonymous namespace)::MockObjectState>, std::_Select1st<std::pair<const void *const, testing::(anonymous namespace)::MockObjectState>>, std::less<const void *>>::_Rb_tree_impl" }
%"struct.std::_Rb_tree<const void *, std::pair<const void *const, testing::(anonymous namespace)::MockObjectState>, std::_Select1st<std::pair<const void *const, testing::(anonymous namespace)::MockObjectState>>, std::less<const void *>>::_Rb_tree_impl" = type { [8 x i8], %"struct.std::_Rb_tree_header" }
%"struct.std::_Rb_tree_header" = type { %"struct.std::_Rb_tree_node_base", i64 }
%"struct.std::_Rb_tree_node_base" = type { i32, ptr, ptr, ptr }
%"struct.std::piecewise_construct_t" = type { i8 }
%"class.std::allocator" = type { i8 }
%"class.std::__cxx11::basic_stringstream" = type { %"class.std::basic_iostream.base", %"class.std::__cxx11::basic_stringbuf", %"class.std::basic_ios" }
%"class.std::basic_iostream.base" = type { %"class.std::basic_istream.base", %"class.std::basic_ostream.base" }
%"class.std::basic_istream.base" = type { ptr, i64 }
%"class.std::basic_ostream.base" = type { ptr }
%"class.std::__cxx11::basic_stringbuf" = type { %"class.std::basic_streambuf", i32, %"class.std::__cxx11::basic_string" }
%"class.std::basic_streambuf" = type { ptr, ptr, ptr, ptr, ptr, ptr, ptr, %"class.std::locale" }
%"class.testing::Cardinality" = type { %"class.std::shared_ptr" }
%"class.std::shared_ptr" = type { %"class.std::__shared_ptr" }
%"class.std::__shared_ptr" = type { ptr, %"class.std::__shared_count" }
%"class.std::__shared_count" = type { ptr }
%"class.testing::(anonymous namespace)::BetweenCardinalityImpl" = type { %"class.testing::CardinalityInterface", i32, i32 }
%"class.testing::CardinalityInterface" = type { ptr }
%"class.testing::internal::GTestLog" = type { i32 }
%class.anon = type { ptr, ptr }
%"struct.std::_Vector_base" = type { %"struct.std::_Vector_base<const char *, std::allocator<const char *>>::_Vector_impl" }
%"struct.std::_Vector_base<const char *, std::allocator<const char *>>::_Vector_impl" = type { %"struct.std::_Vector_base<const char *, std::allocator<const char *>>::_Vector_impl_data" }
%"struct.std::_Vector_base<const char *, std::allocator<const char *>>::_Vector_impl_data" = type { ptr, ptr, ptr }
%"struct.std::_Vector_base.4" = type { %"struct.std::_Vector_base<std::__cxx11::basic_string<char>, std::allocator<std::__cxx11::basic_string<char>>>::_Vector_impl" }
%"struct.std::_Vector_base<std::__cxx11::basic_string<char>, std::allocator<std::__cxx11::basic_string<char>>>::_Vector_impl" = type { %"struct.std::_Vector_base<std::__cxx11::basic_string<char>, std::allocator<std::__cxx11::basic_string<char>>>::_Vector_impl_data" }
%"struct.std::_Vector_base<std::__cxx11::basic_string<char>, std::allocator<std::__cxx11::basic_string<char>>>::_Vector_impl_data" = type { ptr, ptr, ptr }
%"class.__gnu_cxx::__normal_iterator.140" = type { ptr }
%"class.testing::internal::GTestMutexLock" = type { ptr }
%"class.std::reverse_iterator" = type { %"class.__gnu_cxx::__normal_iterator" }
%"class.__gnu_cxx::__normal_iterator" = type { ptr }
%"class.testing::internal::WithoutMatchers" = type { i8 }
%"class.std::vector.8" = type { %"struct.std::_Vector_base.9" }
%"struct.std::_Vector_base.9" = type { %"struct.std::_Vector_base<std::pair<unsigned long, unsigned long>, std::allocator<std::pair<unsigned long, unsigned long>>>::_Vector_impl" }
%"struct.std::_Vector_base<std::pair<unsigned long, unsigned long>, std::allocator<std::pair<unsigned long, unsigned long>>>::_Vector_impl" = type { %"struct.std::_Vector_base<std::pair<unsigned long, unsigned long>, std::allocator<std::pair<unsigned long, unsigned long>>>::_Vector_impl_data" }
%"struct.std::_Vector_base<std::pair<unsigned long, unsigned long>, std::allocator<std::pair<unsigned long, unsigned long>>>::_Vector_impl_data" = type { ptr, ptr, ptr }
%"class.testing::internal::MaxBipartiteMatchState" = type { ptr, %"class.std::vector.13", %"class.std::vector.13" }
%"class.std::vector.13" = type { %"struct.std::_Vector_base.14" }
%"struct.std::_Vector_base.14" = type { %"struct.std::_Vector_base<unsigned long, std::allocator<unsigned long>>::_Vector_impl" }
%"struct.std::_Vector_base<unsigned long, std::allocator<unsigned long>>::_Vector_impl" = type { %"struct.std::_Vector_base<unsigned long, std::allocator<unsigned long>>::_Vector_impl_data" }
%"struct.std::_Vector_base<unsigned long, std::allocator<unsigned long>>::_Vector_impl_data" = type { ptr, ptr, ptr }
%"class.std::allocator.15" = type { i8 }
%"class.std::vector.18" = type { %"struct.std::_Vector_base.19" }
%"struct.std::_Vector_base.19" = type { %"struct.std::_Vector_base<char, std::allocator<char>>::_Vector_impl" }
%"struct.std::_Vector_base<char, std::allocator<char>>::_Vector_impl" = type { %"struct.std::_Vector_base<char, std::allocator<char>>::_Vector_impl_data" }
%"struct.std::_Vector_base<char, std::allocator<char>>::_Vector_impl_data" = type { ptr, ptr, ptr }
%"struct.std::pair" = type { i64, i64 }
%"class.testing::internal::MatchMatrix" = type { i64, i64, %"class.std::vector.18" }
%"class.testing::Message" = type { %"class.std::unique_ptr" }
%"class.std::unique_ptr" = type { %"struct.std::__uniq_ptr_data" }
%"struct.std::__uniq_ptr_data" = type { %"class.std::__uniq_ptr_impl" }
%"class.std::__uniq_ptr_impl" = type { %"class.std::tuple" }
%"class.std::tuple" = type { %"struct.std::_Tuple_impl" }
%"struct.std::_Tuple_impl" = type { %"struct.std::_Head_base.26" }
%"struct.std::_Head_base.26" = type { ptr }
%"class.testing::internal::UnorderedElementsAreMatcherImplBase" = type { i32, %"class.std::vector.20" }
%"class.std::vector.20" = type { %"struct.std::_Vector_base.21" }
%"struct.std::_Vector_base.21" = type { %"struct.std::_Vector_base<const testing::MatcherDescriberInterface *, std::allocator<const testing::MatcherDescriberInterface *>>::_Vector_impl" }
%"struct.std::_Vector_base<const testing::MatcherDescriberInterface *, std::allocator<const testing::MatcherDescriberInterface *>>::_Vector_impl" = type { %"struct.std::_Vector_base<const testing::MatcherDescriberInterface *, std::allocator<const testing::MatcherDescriberInterface *>>::_Vector_impl_data" }
%"struct.std::_Vector_base<const testing::MatcherDescriberInterface *, std::allocator<const testing::MatcherDescriberInterface *>>::_Vector_impl_data" = type { ptr, ptr, ptr }
%"class.__gnu_cxx::__normal_iterator.141" = type { ptr }
%"class.testing::MatchResultListener" = type { ptr, ptr }
%"class.__gnu_cxx::__normal_iterator.107" = type { ptr }
%"class.std::__cxx11::basic_ostringstream" = type { %"class.std::basic_ostream.base", %"class.std::__cxx11::basic_stringbuf", %"class.std::basic_ios" }
%"class.testing::internal::ExpectationBase" = type { ptr, ptr, i32, %"class.std::__cxx11::basic_string", %"class.std::__cxx11::basic_string", i8, %"class.testing::Cardinality", %"class.testing::ExpectationSet", i32, i8, %"class.std::vector.30", i8, i8, i8, i32, i8, %"class.testing::internal::Mutex" }
%"class.testing::ExpectationSet" = type { %"class.std::set" }
%"class.std::set" = type { %"class.std::_Rb_tree" }
%"class.std::_Rb_tree" = type { %"struct.std::_Rb_tree<testing::Expectation, testing::Expectation, std::_Identity<testing::Expectation>, testing::Expectation::Less>::_Rb_tree_impl" }
%"struct.std::_Rb_tree<testing::Expectation, testing::Expectation, std::_Identity<testing::Expectation>, testing::Expectation::Less>::_Rb_tree_impl" = type { [8 x i8], %"struct.std::_Rb_tree_header" }
%"class.std::vector.30" = type { %"struct.std::_Vector_base.31" }
%"struct.std::_Vector_base.31" = type { %"struct.std::_Vector_base<const void *, std::allocator<const void *>>::_Vector_impl" }
%"struct.std::_Vector_base<const void *, std::allocator<const void *>>::_Vector_impl" = type { %"struct.std::_Vector_base<const void *, std::allocator<const void *>>::_Vector_impl_data" }
%"struct.std::_Vector_base<const void *, std::allocator<const void *>>::_Vector_impl_data" = type { ptr, ptr, ptr }
%"class.testing::internal::Mutex" = type { %"class.testing::internal::MutexBase" }
%"class.std::vector.35" = type { %"struct.std::_Vector_base.36" }
%"struct.std::_Vector_base.36" = type { %"struct.std::_Vector_base<testing::internal::ExpectationBase *, std::allocator<testing::internal::ExpectationBase *>>::_Vector_impl" }
%"struct.std::_Vector_base<testing::internal::ExpectationBase *, std::allocator<testing::internal::ExpectationBase *>>::_Vector_impl" = type { %"struct.std::_Vector_base<testing::internal::ExpectationBase *, std::allocator<testing::internal::ExpectationBase *>>::_Vector_impl_data" }
%"struct.std::_Vector_base<testing::internal::ExpectationBase *, std::allocator<testing::internal::ExpectationBase *>>::_Vector_impl_data" = type { ptr, ptr, ptr }
%"class.std::allocator.37" = type { i8 }
%"struct.std::_Rb_tree_const_iterator" = type { ptr }
%"class.__gnu_cxx::__normal_iterator.142" = type { ptr }
%"class.__gnu_cxx::__normal_iterator.143" = type { ptr }
%"class.testing::Expectation" = type { %"class.std::shared_ptr.40" }
%"class.std::shared_ptr.40" = type { %"class.std::__shared_ptr.41" }
%"class.std::__shared_ptr.41" = type { ptr, %"class.std::__shared_count" }
%"class.std::vector.43" = type { %"struct.std::_Vector_base.44" }
%"struct.std::_Vector_base.44" = type { %"struct.std::_Vector_base<const testing::internal::ExpectationBase *, std::allocator<const testing::internal::ExpectationBase *>>::_Vector_impl" }
%"struct.std::_Vector_base<const testing::internal::ExpectationBase *, std::allocator<const testing::internal::ExpectationBase *>>::_Vector_impl" = type { %"struct.std::_Vector_base<const testing::internal::ExpectationBase *, std::allocator<const testing::internal::ExpectationBase *>>::_Vector_impl_data" }
%"struct.std::_Vector_base<const testing::internal::ExpectationBase *, std::allocator<const testing::internal::ExpectationBase *>>::_Vector_impl_data" = type { ptr, ptr, ptr }
%"class.std::allocator.45" = type { i8 }
%"class.__gnu_cxx::__normal_iterator.144" = type { ptr }
%"class.__gnu_cxx::__normal_iterator.145" = type { ptr }
%"struct.std::pair.108" = type <{ %"struct.std::_Rb_tree_const_iterator", i8, [7 x i8] }>
%"class.testing::internal::UntypedFunctionMockerBase" = type { ptr, ptr, ptr, %"class.std::vector.30", %"class.std::vector.56" }
%"class.std::vector.56" = type { %"struct.std::_Vector_base.57" }
%"struct.std::_Vector_base.57" = type { %"struct.std::_Vector_base<std::shared_ptr<testing::internal::ExpectationBase>, std::allocator<std::shared_ptr<testing::internal::ExpectationBase>>>::_Vector_impl" }
%"struct.std::_Vector_base<std::shared_ptr<testing::internal::ExpectationBase>, std::allocator<std::shared_ptr<testing::internal::ExpectationBase>>>::_Vector_impl" = type { %"struct.std::_Vector_base<std::shared_ptr<testing::internal::ExpectationBase>, std::allocator<std::shared_ptr<testing::internal::ExpectationBase>>>::_Vector_impl_data" }
%"struct.std::_Vector_base<std::shared_ptr<testing::internal::ExpectationBase>, std::allocator<std::shared_ptr<testing::internal::ExpectationBase>>>::_Vector_impl_data" = type { ptr, ptr, ptr }
%"struct.std::pair.80" = type <{ %"struct.std::_Rb_tree_const_iterator.79", i8, [7 x i8] }>
%"struct.std::_Rb_tree_const_iterator.79" = type { ptr }
%"struct.testing::(anonymous namespace)::MockObjectState" = type { ptr, i32, %"class.std::__cxx11::basic_string", %"class.std::__cxx11::basic_string", i8, %"class.std::set.73" }
%"class.std::set.73" = type { %"class.std::_Rb_tree.74" }
%"class.std::_Rb_tree.74" = type { %"struct.std::_Rb_tree<testing::internal::UntypedFunctionMockerBase *, testing::internal::UntypedFunctionMockerBase *, std::_Identity<testing::internal::UntypedFunctionMockerBase *>, std::less<testing::internal::UntypedFunctionMockerBase *>>::_Rb_tree_impl" }
%"struct.std::_Rb_tree<testing::internal::UntypedFunctionMockerBase *, testing::internal::UntypedFunctionMockerBase *, std::_Identity<testing::internal::UntypedFunctionMockerBase *>, std::less<testing::internal::UntypedFunctionMockerBase *>>::_Rb_tree_impl" = type { [8 x i8], %"struct.std::_Rb_tree_header" }
%"class.__gnu_cxx::__normal_iterator.61" = type { ptr }
%"class.__gnu_cxx::__normal_iterator.62" = type { ptr }
%"struct.std::_Rb_tree_const_iterator.118" = type { ptr }
%"struct.std::_Rb_tree_iterator" = type { ptr }
%"struct.std::pair.100" = type { ptr, %"struct.testing::(anonymous namespace)::MockObjectState" }
%"class.std::unordered_map" = type { %"class.std::_Hashtable" }
%"class.std::_Hashtable" = type { ptr, i64, %"struct.std::__detail::_Hash_node_base", i64, %"struct.std::__detail::_Prime_rehash_policy", ptr }
%"struct.std::__detail::_Hash_node_base" = type { ptr }
%"struct.std::__detail::_Prime_rehash_policy" = type { float, i64 }
%"struct.std::less" = type { i8 }
%"class.std::tuple.151" = type { %"struct.std::_Tuple_impl.152" }
%"struct.std::_Tuple_impl.152" = type { %"struct.std::_Head_base.153" }
%"struct.std::_Head_base.153" = type { ptr }
%"class.std::tuple.129" = type { i8 }
%"struct.std::pair.157" = type <{ %"struct.std::_Rb_tree_iterator.159", i8, [7 x i8] }>
%"struct.std::_Rb_tree_iterator.159" = type { ptr }
%"class.testing::TestInfo" = type { %"class.std::__cxx11::basic_string", %"class.std::__cxx11::basic_string", %"class.std::unique_ptr.82", %"class.std::unique_ptr.82", %"struct.testing::internal::CodeLocation", ptr, i8, i8, i8, i8, ptr, %"class.testing::TestResult" }
%"class.std::unique_ptr.82" = type { %"struct.std::__uniq_ptr_data.83" }
%"struct.std::__uniq_ptr_data.83" = type { %"class.std::__uniq_ptr_impl.84" }
%"class.std::__uniq_ptr_impl.84" = type { %"class.std::tuple.85" }
%"class.std::tuple.85" = type { %"struct.std::_Tuple_impl.86" }
%"struct.std::_Tuple_impl.86" = type { %"struct.std::_Head_base.89" }
%"struct.std::_Head_base.89" = type { ptr }
%"struct.testing::internal::CodeLocation" = type <{ %"class.std::__cxx11::basic_string", i32, [4 x i8] }>
%"class.testing::TestResult" = type { %"class.testing::internal::Mutex", %"class.std::vector.90", %"class.std::vector.95", i32, i64, i64 }
%"class.std::vector.90" = type { %"struct.std::_Vector_base.91" }
%"struct.std::_Vector_base.91" = type { %"struct.std::_Vector_base<testing::TestPartResult, std::allocator<testing::TestPartResult>>::_Vector_impl" }
%"struct.std::_Vector_base<testing::TestPartResult, std::allocator<testing::TestPartResult>>::_Vector_impl" = type { %"struct.std::_Vector_base<testing::TestPartResult, std::allocator<testing::TestPartResult>>::_Vector_impl_data" }
%"struct.std::_Vector_base<testing::TestPartResult, std::allocator<testing::TestPartResult>>::_Vector_impl_data" = type { ptr, ptr, ptr }
%"class.std::vector.95" = type { %"struct.std::_Vector_base.96" }
%"struct.std::_Vector_base.96" = type { %"struct.std::_Vector_base<testing::TestProperty, std::allocator<testing::TestProperty>>::_Vector_impl" }
%"struct.std::_Vector_base<testing::TestProperty, std::allocator<testing::TestProperty>>::_Vector_impl" = type { %"struct.std::_Vector_base<testing::TestProperty, std::allocator<testing::TestProperty>>::_Vector_impl_data" }
%"struct.std::_Vector_base<testing::TestProperty, std::allocator<testing::TestProperty>>::_Vector_impl_data" = type { ptr, ptr, ptr }
%"class.testing::Sequence" = type { %"class.std::shared_ptr.102" }
%"class.std::shared_ptr.102" = type { %"class.std::__shared_ptr.103" }
%"class.std::__shared_ptr.103" = type { ptr, %"class.std::__shared_count" }
%"class.testing::InSequence" = type { i8 }
%"class.std::_Sp_counted_ptr" = type { %"class.std::_Sp_counted_base", ptr }
%"class.std::_Sp_counted_base" = type { ptr, i32, i32 }
%"class.testing::internal::AssertHelper" = type { ptr }
%"class.__gnu_cxx::__normal_iterator.105" = type { ptr }
%"class.__gnu_cxx::__normal_iterator.106" = type { ptr }
%"struct.std::_Rb_tree_node" = type { %"struct.std::_Rb_tree_node_base", %"struct.__gnu_cxx::__aligned_membuf" }
%"struct.__gnu_cxx::__aligned_membuf" = type { [16 x i8] }
%"struct.std::pair.111" = type <{ %"struct.std::_Rb_tree_iterator.113", i8, [7 x i8] }>
%"struct.std::_Rb_tree_iterator.113" = type { ptr }
%"struct.std::pair.115" = type { ptr, ptr }
%"struct.std::_Identity" = type { i8 }
%"struct.std::_Rb_tree<testing::Expectation, testing::Expectation, std::_Identity<testing::Expectation>, testing::Expectation::Less>::_Alloc_node" = type { ptr }
%"struct.std::_Rb_tree_node.119" = type { %"struct.std::_Rb_tree_node_base", %"struct.__gnu_cxx::__aligned_membuf.120" }
%"struct.__gnu_cxx::__aligned_membuf.120" = type { [144 x i8] }
%"struct.std::_Rb_tree_node.121" = type { %"struct.std::_Rb_tree_node_base", %"struct.__gnu_cxx::__aligned_membuf.122" }
%"struct.__gnu_cxx::__aligned_membuf.122" = type { [8 x i8] }
%"struct.std::_Hashtable<unsigned long, std::pair<const unsigned long, testing::internal::CallReaction>, std::allocator<std::pair<const unsigned long, testing::internal::CallReaction>>, std::__detail::_Select1st, std::equal_to<unsigned long>, std::hash<unsigned long>, std::__detail::_Mod_range_hashing, std::__detail::_Default_ranged_hash, std::__detail::_Prime_rehash_policy, std::__detail::_Hashtable_traits<false, false, true>>::_Scoped_node" = type { ptr, ptr }
%"class.std::tuple.126" = type { %"struct.std::_Tuple_impl.127" }
%"struct.std::_Tuple_impl.127" = type { %"struct.std::_Head_base.128" }
%"struct.std::_Head_base.128" = type { ptr }
%"struct.std::__detail::_Node_iterator" = type { %"struct.std::__detail::_Node_iterator_base" }
%"struct.std::__detail::_Node_iterator_base" = type { ptr }
%"struct.std::pair.123" = type <{ i64, i32, [4 x i8] }>
%"struct.std::pair.131" = type { i8, i64 }
%"struct.std::__detail::_Mod_range_hashing" = type { i8 }
%"struct.std::__detail::_Select1st" = type { i8 }
%"struct.std::__detail::_Hash_node_value_base" = type { %"struct.__gnu_cxx::__aligned_buffer" }
%"struct.__gnu_cxx::__aligned_buffer" = type { %"union.std::aligned_storage<16, 8>::type" }
%"union.std::aligned_storage<16, 8>::type" = type { [16 x i8] }
%"class.std::allocator.134" = type { i8 }
%"class.std::_Sp_counted_ptr.137" = type { %"class.std::_Sp_counted_base", ptr }
%struct._Guard = type { ptr }
%"class.std::basic_istream" = type { ptr, i64, %"class.std::basic_ios" }
%struct._Guard.138 = type { ptr }
%"class.__gnu_cxx::__normal_iterator.139" = type { ptr }
%"class.std::ctype" = type <{ %"class.std::locale::facet.base", [4 x i8], ptr, i8, [7 x i8], ptr, ptr, ptr, i8, [256 x i8], [256 x i8], i8, [6 x i8] }>
%"class.std::locale::facet.base" = type <{ ptr, i32 }>
%"class.testing::internal::ThreadLocal<testing::Sequence *>::ValueHolder" = type { %"class.testing::internal::ThreadLocalValueHolderBase", ptr }
%"class.testing::internal::ThreadLocalValueHolderBase" = type { ptr }
%"struct.std::__detail::_Node_const_iterator" = type { %"struct.std::__detail::_Node_iterator_base" }
%"class.std::tuple.148" = type { %"struct.std::_Tuple_impl.149" }
%"struct.std::_Tuple_impl.149" = type { %"struct.std::_Head_base.150" }
%"struct.std::_Head_base.150" = type { ptr }
%"struct.std::_Rb_tree<const void *, std::pair<const void *const, testing::(anonymous namespace)::MockObjectState>, std::_Select1st<std::pair<const void *const, testing::(anonymous namespace)::MockObjectState>>, std::less<const void *>>::_Auto_node" = type { ptr, ptr }
%"struct.std::_Select1st" = type { i8 }
%"struct.std::_Identity.161" = type { i8 }
%"struct.std::_Rb_tree<testing::internal::UntypedFunctionMockerBase *, testing::internal::UntypedFunctionMockerBase *, std::_Identity<testing::internal::UntypedFunctionMockerBase *>, std::less<testing::internal::UntypedFunctionMockerBase *>>::_Alloc_node" = type { ptr }
%"struct.std::pair.163" = type { %"struct.std::_Rb_tree_iterator.159", %"struct.std::_Rb_tree_iterator.159" }

$_ZN7testing11CardinalityC2EPKNS_20CardinalityInterfaceE = comdat any

$_ZNKSt6vectorIPKcSaIS1_EE4sizeEv = comdat any

$_ZNKSt6vectorINSt7__cxx1112basic_stringIcSt11char_traitsIcESaIcEEESaIS5_EE4sizeEv = comdat any

$_ZN7testing8internal8GTestLog9GetStreamEv = comdat any

$_ZNKSt6vectorINSt7__cxx1112basic_stringIcSt11char_traitsIcESaIcEEESaIS5_EE5emptyEv = comdat any

$_ZNSt7__cxx1112basic_stringIcSt11char_traitsIcESaIcEEC2IS3_EEPKcRKS3_ = comdat any

$_ZStplIcSt11char_traitsIcESaIcEENSt7__cxx1112basic_stringIT_T0_T1_EEPKS5_OS8_ = comdat any

$_ZN7testing8internal7IsUpperEc = comdat any

$_ZN7testing8internal7IsAlphaEc = comdat any

$_ZN7testing8internal7IsLowerEc = comdat any

$_ZN7testing8internal7IsDigitEc = comdat any

$_ZN7testing8internal7IsAlNumEc = comdat any

$_ZN7testing8internal7ToLowerEc = comdat any

$_ZN7testing8internal25GoogleTestFailureReporterC2Ev = comdat any

$_ZSteqIcSt11char_traitsIcESaIcEEbRKNSt7__cxx1112basic_stringIT_T0_T1_EEPKS5_ = comdat any

$_ZN7testing8internal14GTestMutexLockC2EPNS0_9MutexBaseE = comdat any

$_ZNKSt16reverse_iteratorIN9__gnu_cxx17__normal_iteratorIPKcNSt7__cxx1112basic_stringIcSt11char_traitsIcESaIcEEEEEEdeEv = comdat any

$_ZN7testing8internal14GTestMutexLockD2Ev = comdat any

$_ZN7testing8internal15WithoutMatchersC2Ev = comdat any

$_ZN7testing8internal6AssertEbPKciRKNSt7__cxx1112basic_stringIcSt11char_traitsIcESaIcEEE = comdat any

$_ZN9__gnu_cxxneIPKcNSt7__cxx1112basic_stringIcSt11char_traitsIcESaIcEEEEEbRKNS_17__normal_iteratorIT_T0_EESE_ = comdat any

$_ZNK9__gnu_cxx17__normal_iteratorIPKcNSt7__cxx1112basic_stringIcSt11char_traitsIcESaIcEEEEdeEv = comdat any

$_ZNKSt5arrayIcLm256EEixEm = comdat any

$_ZN9__gnu_cxx17__normal_iteratorIPKcNSt7__cxx1112basic_stringIcSt11char_traitsIcESaIcEEEEppEv = comdat any

$_ZStplIcSt11char_traitsIcESaIcEENSt7__cxx1112basic_stringIT_T0_T1_EEOS8_PKS5_ = comdat any

$_ZStplIcSt11char_traitsIcESaIcEENSt7__cxx1112basic_stringIT_T0_T1_EEPKS5_RKS8_ = comdat any

$_ZN7testing8internal22MaxBipartiteMatchStateC2ERKNS0_11MatchMatrixE = comdat any

$_ZN7testing8internal22MaxBipartiteMatchState7ComputeEv = comdat any

$_ZN7testing8internal22MaxBipartiteMatchStateD2Ev = comdat any

$_ZNK7testing8internal11MatchMatrix7LhsSizeEv = comdat any

$_ZNK7testing8internal11MatchMatrix7RhsSizeEv = comdat any

$_ZNSt6vectorIcSaIcEEixEm = comdat any

$_ZNK7testing8internal11MatchMatrix10SpaceIndexEmm = comdat any

$_ZNK7testing8internal11MatchMatrix7HasEdgeEmm = comdat any

$_ZNK7testing8internal35UnorderedElementsAreMatcherImplBase11match_flagsEv = comdat any

$_ZNKSt6vectorIPKN7testing25MatcherDescriberInterfaceESaIS3_EE5emptyEv = comdat any

$_ZNKSt6vectorIPKN7testing25MatcherDescriberInterfaceESaIS3_EE4sizeEv = comdat any

$_ZN7testinglsERSoRKNS_7MessageE = comdat any

$_ZN7testing8internal35UnorderedElementsAreMatcherImplBase8ElementsEm = comdat any

$_ZN7testing7MessageD2Ev = comdat any

$_ZNKSt6vectorIPKN7testing25MatcherDescriberInterfaceESaIS3_EEixEm = comdat any

$_ZNK7testing19MatchResultListener12IsInterestedEv = comdat any

$_ZN7testing19MatchResultListenerlsIA11_cEERS0_RKT_ = comdat any

$_ZN7testing19MatchResultListenerlsINS_7MessageEEERS0_RKT_ = comdat any

$_ZNSt6vectorIcSaIcEEC2EmRKcRKS0_ = comdat any

$_ZNKSt6vectorIcSaIcEE4sizeEv = comdat any

$_ZN7testing19MatchResultListenerlsIPKcEERS0_RKT_ = comdat any

$_ZN7testing19MatchResultListenerlsIA10_cEERS0_RKT_ = comdat any

$_ZN7testing19MatchResultListenerlsImEERS0_RKT_ = comdat any

$_ZN7testing19MatchResultListenerlsIA3_cEERS0_RKT_ = comdat any

$_ZN7testing19MatchResultListener6streamEv = comdat any

$_ZN7testing19MatchResultListenerlsINSt7__cxx1112basic_stringIcSt11char_traitsIcESaIcEEEEERS0_RKT_ = comdat any

$_ZNKSt6vectorINSt7__cxx1112basic_stringIcSt11char_traitsIcESaIcEEESaIS5_EEixEm = comdat any

$_ZNSt6vectorIcSaIcEED2Ev = comdat any

$_ZNKSt6vectorISt4pairImmESaIS1_EE4sizeEv = comdat any

$_ZN7testing19MatchResultListenerlsIA89_cEERS0_RKT_ = comdat any

$_ZN7testing19MatchResultListenerlsIA5_cEERS0_RKT_ = comdat any

$_ZN7testing19MatchResultListenerlsIA30_cEERS0_RKT_ = comdat any

$_ZN7testing19MatchResultListenerlsIA65_cEERS0_RKT_ = comdat any

$_ZN7testing19MatchResultListenerlsIA13_cEERS0_RKT_ = comdat any

$_ZNSt6vectorISt4pairImmESaIS1_EEixEm = comdat any

$_ZN7testing19MatchResultListenerlsIA25_cEERS0_RKT_ = comdat any

$_ZNSt6vectorISt4pairImmESaIS1_EED2Ev = comdat any

$_ZN7testing14ExpectationSetC2Ev = comdat any

$_ZNSt6vectorIPKvSaIS1_EEC2Ev = comdat any

$_ZN7testing8internal5MutexC2Ev = comdat any

$_ZNSt6vectorIPKvSaIS1_EED2Ev = comdat any

$_ZN7testing14ExpectationSetD2Ev = comdat any

$_ZN7testing11CardinalityD2Ev = comdat any

$_ZN7testing8internal5MutexD2Ev = comdat any

$_ZN7testing11CardinalityaSERKS0_ = comdat any

$_ZNK7testing8internal15ExpectationBase10is_retiredEv = comdat any

$_ZNSaIPN7testing8internal15ExpectationBaseEEC2Ev = comdat any

$_ZNSt6vectorIPN7testing8internal15ExpectationBaseESaIS3_EEC2EmRKS3_RKS4_ = comdat any

$_ZNKSt6vectorIPN7testing8internal15ExpectationBaseESaIS3_EE5emptyEv = comdat any

$_ZNSt6vectorIPN7testing8internal15ExpectationBaseESaIS3_EE4backEv = comdat any

$_ZNSt6vectorIPN7testing8internal15ExpectationBaseESaIS3_EE8pop_backEv = comdat any

$_ZNK7testing14ExpectationSet5beginEv = comdat any

$_ZStneRKSt23_Rb_tree_const_iteratorIN7testing11ExpectationEES4_ = comdat any

$_ZNK7testing14ExpectationSet3endEv = comdat any

$_ZNKSt23_Rb_tree_const_iteratorIN7testing11ExpectationEEptEv = comdat any

$_ZNK7testing11Expectation16expectation_baseEv = comdat any

$_ZNKSt12__shared_ptrIN7testing8internal15ExpectationBaseELN9__gnu_cxx12_Lock_policyE2EE3getEv = comdat any

$_ZN7testing8internal15ExpectationBase6RetireEv = comdat any

$_ZNSt6vectorIPN7testing8internal15ExpectationBaseESaIS3_EE9push_backERKS3_ = comdat any

$_ZNSt23_Rb_tree_const_iteratorIN7testing11ExpectationEEppEv = comdat any

$_ZNSt6vectorIPN7testing8internal15ExpectationBaseESaIS3_EED2Ev = comdat any

$_ZNK7testing8internal9MutexBase10AssertHeldEv = comdat any

$_ZNSaIPKN7testing8internal15ExpectationBaseEEC2Ev = comdat any

$_ZNSt6vectorIPKN7testing8internal15ExpectationBaseESaIS4_EEC2EmRKS4_RKS5_ = comdat any

$_ZNKSt6vectorIPKN7testing8internal15ExpectationBaseESaIS4_EE5emptyEv = comdat any

$_ZNSt6vectorIPKN7testing8internal15ExpectationBaseESaIS4_EE4backEv = comdat any

$_ZNSt6vectorIPKN7testing8internal15ExpectationBaseESaIS4_EE8pop_backEv = comdat any

$_ZNK7testing8internal15ExpectationBase11IsSatisfiedEv = comdat any

$_ZNSt6vectorIPKN7testing8internal15ExpectationBaseESaIS4_EE9push_backERKS4_ = comdat any

$_ZNSt6vectorIPKN7testing8internal15ExpectationBaseESaIS4_EED2Ev = comdat any

$_ZNKSt23_Rb_tree_const_iteratorIN7testing11ExpectationEEdeEv = comdat any

$_ZN7testing14ExpectationSetpLERKNS_11ExpectationE = comdat any

$_ZNK7testing8internal15ExpectationBase11cardinalityEv = comdat any

$_ZNK7testing11Cardinality10DescribeToEPSo = comdat any

$_ZNK7testing8internal15ExpectationBase10call_countEv = comdat any

$_ZNK7testing8internal15ExpectationBase15IsOverSaturatedEv = comdat any

$_ZNK7testing8internal15ExpectationBase11IsSaturatedEv = comdat any

$_ZNKSt6vectorIPKvSaIS1_EE4sizeEv = comdat any

$_ZNK7testing11Cardinality22ConservativeUpperBoundEv = comdat any

$_ZNK7testing11Cardinality22ConservativeLowerBoundEv = comdat any

$_ZNK7testing8internal15ExpectationBase18DescribeLocationToEPSo = comdat any

$_ZNK7testing8internal15ExpectationBase11source_textEv = comdat any

$_ZNK7testing8internal15ExpectationBase18ExpectSpecPropertyEbRKNSt7__cxx1112basic_stringIcSt11char_traitsIcESaIcEEE = comdat any

$_ZN7testing8internal11ThreadLocalIPNS_8SequenceEEC2Ev = comdat any

$_ZN7testing8internal11ThreadLocalIPNS_8SequenceEED2Ev = comdat any

$_ZStplIcSt11char_traitsIcESaIcEENSt7__cxx1112basic_stringIT_T0_T1_EERKS8_PKS5_ = comdat any

$_ZN7testing8internal6ExpectEbPKciRKNSt7__cxx1112basic_stringIcSt11char_traitsIcESaIcEEE = comdat any

$_ZNSt6vectorISt10shared_ptrIN7testing8internal15ExpectationBaseEESaIS4_EEC2Ev = comdat any

$_ZNSt6vectorISt10shared_ptrIN7testing8internal15ExpectationBaseEESaIS4_EED2Ev = comdat any

$_ZNSt6vectorISt10shared_ptrIN7testing8internal15ExpectationBaseEESaIS4_EE5beginEv = comdat any

$_ZN9__gnu_cxx17__normal_iteratorIPKSt10shared_ptrIN7testing8internal15ExpectationBaseEESt6vectorIS5_SaIS5_EEEC2IPS5_vEERKNS0_IT_SA_EE = comdat any

$_ZN9__gnu_cxxneIPKSt10shared_ptrIN7testing8internal15ExpectationBaseEEPS5_St6vectorIS5_SaIS5_EEEEbRKNS_17__normal_iteratorIT_T1_EERKNSC_IT0_SE_EE = comdat any

$_ZNSt6vectorISt10shared_ptrIN7testing8internal15ExpectationBaseEESaIS4_EE3endEv = comdat any

$_ZNK9__gnu_cxx17__normal_iteratorIPKSt10shared_ptrIN7testing8internal15ExpectationBaseEESt6vectorIS5_SaIS5_EEEptEv = comdat any

$_ZNK9__gnu_cxx17__normal_iteratorIPKSt10shared_ptrIN7testing8internal15ExpectationBaseEESt6vectorIS5_SaIS5_EEEdeEv = comdat any

$_ZN9__gnu_cxx17__normal_iteratorIPKSt10shared_ptrIN7testing8internal15ExpectationBaseEESt6vectorIS5_SaIS5_EEEppEv = comdat any

$_ZNK7testing8internal15ExpectationBase14GetDescriptionB5cxx11Ev = comdat any

$_ZNK7testing8internal15ExpectationBase4fileEv = comdat any

$_ZNK7testing8internal15ExpectationBase4lineEv = comdat any

$_ZNSt6vectorISt10shared_ptrIN7testing8internal15ExpectationBaseEESaIS4_EE4swapERS6_ = comdat any

$_ZN7testing8internal9MutexBase6UnlockEv = comdat any

$_ZNSt6vectorISt10shared_ptrIN7testing8internal15ExpectationBaseEESaIS4_EE5clearEv = comdat any

$_ZN7testing8internal9MutexBase4LockEv = comdat any

$_ZNSt13unordered_mapImN7testing8internal12CallReactionESt4hashImESt8equal_toImESaISt4pairIKmS2_EEE5eraseERS8_ = comdat any

$_ZNKSt13unordered_mapImN7testing8internal12CallReactionESt4hashImESt8equal_toImESaISt4pairIKmS2_EEE5countERS8_ = comdat any

$_ZNSt13unordered_mapImN7testing8internal12CallReactionESt4hashImESt8equal_toImESaISt4pairIKmS2_EEEixEOm = comdat any

$_ZNKSt3setIPN7testing8internal25UntypedFunctionMockerBaseESt4lessIS3_ESaIS3_EE5beginEv = comdat any

$_ZStneRKSt23_Rb_tree_const_iteratorIPN7testing8internal25UntypedFunctionMockerBaseEES6_ = comdat any

$_ZNKSt3setIPN7testing8internal25UntypedFunctionMockerBaseESt4lessIS3_ESaIS3_EE3endEv = comdat any

$_ZNKSt23_Rb_tree_const_iteratorIPN7testing8internal25UntypedFunctionMockerBaseEEdeEv = comdat any

$_ZNSt23_Rb_tree_const_iteratorIPN7testing8internal25UntypedFunctionMockerBaseEEppEv = comdat any

$_ZNSt3setIPN7testing8internal25UntypedFunctionMockerBaseESt4lessIS3_ESaIS3_EE6insertERKS3_ = comdat any

$_ZNK7testing8TestInfo15test_suite_nameEv = comdat any

$_ZNK7testing8TestInfo4nameEv = comdat any

$_ZNSt3setIPN7testing8internal25UntypedFunctionMockerBaseESt4lessIS3_ESaIS3_EE5eraseERKS3_ = comdat any

$_ZNKSt3setIPN7testing8internal25UntypedFunctionMockerBaseESt4lessIS3_ESaIS3_EE5emptyEv = comdat any

$_ZNSt10shared_ptrIN7testing8internal15ExpectationBaseEEC2Ev = comdat any

$_ZNSt10shared_ptrIN7testing8internal15ExpectationBaseEEC2ERKS3_ = comdat any

$_ZNSt12__shared_ptrIN7testing8internal15ExpectationBaseELN9__gnu_cxx12_Lock_policyE2EED2Ev = comdat any

$_ZNKSt19__shared_ptr_accessIN7testing11ExpectationELN9__gnu_cxx12_Lock_policyE2ELb0ELb0EEdeEv = comdat any

$_ZNK7testing11ExpectationneERKS0_ = comdat any

$_ZStneIN7testing8internal15ExpectationBaseEEbRKSt10shared_ptrIT_EDn = comdat any

$_ZNKSt19__shared_ptr_accessIN7testing11ExpectationELN9__gnu_cxx12_Lock_policyE2ELb0ELb0EEptEv = comdat any

$_ZNKSt19__shared_ptr_accessIN7testing8internal15ExpectationBaseELN9__gnu_cxx12_Lock_policyE2ELb0ELb0EEptEv = comdat any

$_ZN7testing11ExpectationaSERKS0_ = comdat any

$_ZNK7testing8internal11ThreadLocalIPNS_8SequenceEE3getEv = comdat any

$_ZN7testing8internal11ThreadLocalIPNS_8SequenceEE3setERKS3_ = comdat any

$_ZN7testing8SequenceC2Ev = comdat any

$__clang_call_terminate = comdat any

$_ZN7testing8SequenceD2Ev = comdat any

$_ZN7testing8internal18InitGoogleMockImplIcEEvPiPPT_ = comdat any

$_ZN7testing8internal18InitGoogleMockImplIwEEvPiPPT_ = comdat any

$_ZN7testing20CardinalityInterfaceC2Ev = comdat any

$_ZN7testing20CardinalityInterfaceD2Ev = comdat any

$_ZN7testing20CardinalityInterfaceD0Ev = comdat any

$_ZNK7testing20CardinalityInterface22ConservativeLowerBoundEv = comdat any

$_ZNK7testing20CardinalityInterface22ConservativeUpperBoundEv = comdat any

$_ZNSt10shared_ptrIKN7testing20CardinalityInterfaceEEC2IS2_vEEPT_ = comdat any

$_ZNSt12__shared_ptrIKN7testing20CardinalityInterfaceELN9__gnu_cxx12_Lock_policyE2EEC2IS2_vEEPT_ = comdat any

$_ZNSt14__shared_countILN9__gnu_cxx12_Lock_policyE2EEC2IPKN7testing20CardinalityInterfaceEEET_St17integral_constantIbLb0EE = comdat any

$_ZNSt12__shared_ptrIKN7testing20CardinalityInterfaceELN9__gnu_cxx12_Lock_policyE2EE31_M_enable_shared_from_this_withIS2_S1_EENSt9enable_ifIXntsr15__has_esft_baseIT0_EE5valueEvE4typeEPT_ = comdat any

$_ZNSt14__shared_countILN9__gnu_cxx12_Lock_policyE2EEC2IPKN7testing20CardinalityInterfaceEEET_ = comdat any

$_ZNSt15_Sp_counted_ptrIPKN7testing20CardinalityInterfaceELN9__gnu_cxx12_Lock_policyE2EEC2ES3_ = comdat any

$_ZNSt16_Sp_counted_baseILN9__gnu_cxx12_Lock_policyE2EEC2Ev = comdat any

$_ZNSt15_Sp_counted_ptrIPKN7testing20CardinalityInterfaceELN9__gnu_cxx12_Lock_policyE2EED0Ev = comdat any

$_ZNSt15_Sp_counted_ptrIPKN7testing20CardinalityInterfaceELN9__gnu_cxx12_Lock_policyE2EE10_M_disposeEv = comdat any

$_ZNSt15_Sp_counted_ptrIPKN7testing20CardinalityInterfaceELN9__gnu_cxx12_Lock_policyE2EE10_M_destroyEv = comdat any

$_ZNSt15_Sp_counted_ptrIPKN7testing20CardinalityInterfaceELN9__gnu_cxx12_Lock_policyE2EE14_M_get_deleterERKSt9type_info = comdat any

$_ZNSt16_Sp_counted_baseILN9__gnu_cxx12_Lock_policyE2EED0Ev = comdat any

$_ZNSt16_Sp_counted_baseILN9__gnu_cxx12_Lock_policyE2EE10_M_destroyEv = comdat any

$_ZStplIcSt11char_traitsIcESaIcEENSt7__cxx1112basic_stringIT_T0_T1_EEOS8_RKS8_ = comdat any

$_ZNKSt6vectorIPKcSaIS1_EEixEm = comdat any

$_ZNSt16allocator_traitsISaIcEE8max_sizeERKS0_ = comdat any

$_ZNKSt15__new_allocatorIcE8max_sizeEv = comdat any

$_ZNKSt15__new_allocatorIcE11_M_max_sizeEv = comdat any

$_ZNSt11char_traitsIcE4copyEPcPKcm = comdat any

$_ZNSt19__ptr_traits_ptr_toIPccLb0EE10pointer_toERc = comdat any

$_ZNSt15__new_allocatorIcEC2ERKS0_ = comdat any

$_ZNSt19__ptr_traits_ptr_toIPKcS0_Lb0EE10pointer_toERS0_ = comdat any

$_ZNSt11char_traitsIcE6assignERcRKc = comdat any

$_ZN7testing8internal24FailureReporterInterfaceC2Ev = comdat any

$_ZN7testing8internal24FailureReporterInterfaceD2Ev = comdat any

$_ZN7testing8internal25GoogleTestFailureReporterD0Ev = comdat any

$_ZN7testing8internal25GoogleTestFailureReporter13ReportFailureENS0_24FailureReporterInterface11FailureTypeEPKciRKNSt7__cxx1112basic_stringIcSt11char_traitsIcESaIcEEE = comdat any

$_ZN7testing8internal24FailureReporterInterfaceD0Ev = comdat any

$_ZN7testing8internal5posix5AbortEv = comdat any

$_ZN9__gnu_cxx17__normal_iteratorIPKcNSt7__cxx1112basic_stringIcSt11char_traitsIcESaIcEEEEmmEv = comdat any

$_ZNSt14__array_traitsIcLm256EE6_S_refERA256_Kcm = comdat any

$_ZNSaImEC2Ev = comdat any

$_ZNSt6vectorImSaImEEC2EmRKmRKS0_ = comdat any

$_ZNSt15__new_allocatorImED2Ev = comdat any

$_ZNSt6vectorImSaImEED2Ev = comdat any

$_ZNSt15__new_allocatorImEC2Ev = comdat any

$_ZNSt6vectorImSaImEE17_S_check_init_lenEmRKS0_ = comdat any

$_ZNSt12_Vector_baseImSaImEEC2EmRKS0_ = comdat any

$_ZNSt6vectorImSaImEE18_M_fill_initializeEmRKm = comdat any

$_ZNSt12_Vector_baseImSaImEED2Ev = comdat any

$_ZNSt6vectorImSaImEE11_S_max_sizeERKS0_ = comdat any

$_ZNSaImEC2ERKS_ = comdat any

$_ZNSt16allocator_traitsISaImEE8max_sizeERKS0_ = comdat any

$_ZSt3minImERKT_S2_S2_ = comdat any

$_ZNKSt15__new_allocatorImE8max_sizeEv = comdat any

$_ZNKSt15__new_allocatorImE11_M_max_sizeEv = comdat any

$_ZNSt15__new_allocatorImEC2ERKS0_ = comdat any

$_ZNSt12_Vector_baseImSaImEE12_Vector_implC2ERKS0_ = comdat any

$_ZNSt12_Vector_baseImSaImEE17_M_create_storageEm = comdat any

$_ZNSt12_Vector_baseImSaImEE17_Vector_impl_dataC2Ev = comdat any

$_ZNSt12_Vector_baseImSaImEE11_M_allocateEm = comdat any

$_ZNSt16allocator_traitsISaImEE8allocateERS0_m = comdat any

$_ZNSt15__new_allocatorImE8allocateEmPKv = comdat any

$_ZSt24__uninitialized_fill_n_aIPmmmmET_S1_T0_RKT1_RSaIT2_E = comdat any

$_ZNSt12_Vector_baseImSaImEE19_M_get_Tp_allocatorEv = comdat any

$_ZSt20uninitialized_fill_nIPmmmET_S1_T0_RKT1_ = comdat any

$_ZNSt22__uninitialized_fill_nILb1EE15__uninit_fill_nIPmmmEET_S3_T0_RKT1_ = comdat any

$_ZSt6fill_nIPmmmET_S1_T0_RKT1_ = comdat any

$_ZSt10__fill_n_aIPmmmET_S1_T0_RKT1_St26random_access_iterator_tag = comdat any

$_ZSt17__size_to_integerm = comdat any

$_ZSt19__iterator_categoryIPmENSt15iterator_traitsIT_E17iterator_categoryERKS2_ = comdat any

$_ZSt8__fill_aIPmmEvT_S1_RKT0_ = comdat any

$_ZSt9__fill_a1IPmmEN9__gnu_cxx11__enable_ifIXsr11__is_scalarIT0_EE7__valueEvE6__typeET_S6_RKS3_ = comdat any

$_ZNSt12_Vector_baseImSaImEE13_M_deallocateEPmm = comdat any

$_ZNSt16allocator_traitsISaImEE10deallocateERS0_Pmm = comdat any

$_ZNSt15__new_allocatorImE10deallocateEPmm = comdat any

$_ZSt8_DestroyIPmmEvT_S1_RSaIT0_E = comdat any

$_ZSt8_DestroyIPmEvT_S1_ = comdat any

$_ZNSt12_Destroy_auxILb1EE9__destroyIPmEEvT_S3_ = comdat any

$_ZNSt6vectorIcSaIcEEC2Ev = comdat any

$_ZNSt6vectorImSaImEEixEm = comdat any

$_ZNSt6vectorIcSaIcEE6assignEmRKc = comdat any

$_ZN7testing8internal22MaxBipartiteMatchState10TryAugmentEmPSt6vectorIcSaIcEE = comdat any

$_ZNSt6vectorISt4pairImmESaIS1_EEC2Ev = comdat any

$_ZNKSt6vectorImSaImEE4sizeEv = comdat any

$_ZNSt6vectorISt4pairImmESaIS1_EE9push_backEOS1_ = comdat any

$_ZNSt4pairImmEC2IRmS2_TnNSt9enable_ifIXaaclsr5_PCCPE22_MoveConstructiblePairIT_T0_EEclsr5_PCCPE30_ImplicitlyMoveConvertiblePairIS4_S5_EEEbE4typeELb1EEEOS4_OS5_ = comdat any

$_ZNSt12_Vector_baseIcSaIcEEC2Ev = comdat any

$_ZNSt12_Vector_baseIcSaIcEE12_Vector_implC2Ev = comdat any

$_ZNSt15__new_allocatorIcEC2Ev = comdat any

$_ZNSt6vectorIcSaIcEE14_M_fill_assignEmRKc = comdat any

$_ZNKSt6vectorIcSaIcEE8capacityEv = comdat any

$_ZNSt12_Vector_baseIcSaIcEE19_M_get_Tp_allocatorEv = comdat any

$_ZNSt12_Vector_baseIcSaIcEE17_Vector_impl_data12_M_swap_dataERS2_ = comdat any

$_ZSt4fillIN9__gnu_cxx17__normal_iteratorIPcSt6vectorIcSaIcEEEEcEvT_S7_RKT0_ = comdat any

$_ZNSt6vectorIcSaIcEE5beginEv = comdat any

$_ZNSt6vectorIcSaIcEE3endEv = comdat any

$_ZSt24__uninitialized_fill_n_aIPcmccET_S1_T0_RKT1_RSaIT2_E = comdat any

$_ZNSt6vectorIcSaIcEE15_M_erase_at_endEPc = comdat any

$_ZSt6fill_nIPcmcET_S1_T0_RKT1_ = comdat any

$_ZNSt12_Vector_baseIcSaIcEE17_Vector_impl_dataC2Ev = comdat any

$_ZNSt12_Vector_baseIcSaIcEE17_Vector_impl_data12_M_copy_dataERKS2_ = comdat any

$_ZSt8__fill_aIN9__gnu_cxx17__normal_iteratorIPcSt6vectorIcSaIcEEEEcEvT_S7_RKT0_ = comdat any

$_ZSt9__fill_a1IPcSt6vectorIcSaIcEEcEvN9__gnu_cxx17__normal_iteratorIT_T0_EES8_RKT1_ = comdat any

$_ZSt9__fill_a1IcEN9__gnu_cxx11__enable_ifIXsr9__is_byteIT_EE7__valueEvE6__typeEPS2_S5_RKS2_ = comdat any

$_ZNK9__gnu_cxx17__normal_iteratorIPcSt6vectorIcSaIcEEE4baseEv = comdat any

$_ZN9__gnu_cxx17__normal_iteratorIPcSt6vectorIcSaIcEEEC2ERKS1_ = comdat any

$_ZSt20uninitialized_fill_nIPcmcET_S1_T0_RKT1_ = comdat any

$_ZNSt22__uninitialized_fill_nILb1EE15__uninit_fill_nIPcmcEET_S3_T0_RKT1_ = comdat any

$_ZSt8_DestroyIPccEvT_S1_RSaIT0_E = comdat any

$_ZSt8_DestroyIPcEvT_S1_ = comdat any

$_ZNSt12_Destroy_auxILb1EE9__destroyIPcEEvT_S3_ = comdat any

$_ZSt10__fill_n_aIPcmcET_S1_T0_RKT1_St26random_access_iterator_tag = comdat any

$_ZSt19__iterator_categoryIPcENSt15iterator_traitsIT_E17iterator_categoryERKS2_ = comdat any

$_ZSt8__fill_aIPccEvT_S1_RKT0_ = comdat any

$_ZNSt12_Vector_baseISt4pairImmESaIS1_EEC2Ev = comdat any

$_ZNSt12_Vector_baseISt4pairImmESaIS1_EE12_Vector_implC2Ev = comdat any

$_ZNSaISt4pairImmEEC2Ev = comdat any

$_ZNSt12_Vector_baseISt4pairImmESaIS1_EE17_Vector_impl_dataC2Ev = comdat any

$_ZNSt15__new_allocatorISt4pairImmEEC2Ev = comdat any

$_ZNSt6vectorISt4pairImmESaIS1_EE12emplace_backIJS1_EEERS1_DpOT_ = comdat any

$_ZNSt16allocator_traitsISaISt4pairImmEEE9constructIS1_JS1_EEEvRS2_PT_DpOT0_ = comdat any

$_ZNSt6vectorISt4pairImmESaIS1_EE17_M_realloc_insertIJS1_EEEvN9__gnu_cxx17__normal_iteratorIPS1_S3_EEDpOT_ = comdat any

$_ZNSt6vectorISt4pairImmESaIS1_EE3endEv = comdat any

$_ZNSt6vectorISt4pairImmESaIS1_EE4backEv = comdat any

$_ZNSt15__new_allocatorISt4pairImmEE9constructIS1_JS1_EEEvPT_DpOT0_ = comdat any

$_ZNKSt6vectorISt4pairImmESaIS1_EE12_M_check_lenEmPKc = comdat any

$_ZN9__gnu_cxxmiIPSt4pairImmESt6vectorIS2_SaIS2_EEEENS_17__normal_iteratorIT_T0_E15difference_typeERKSA_SD_ = comdat any

$_ZNSt6vectorISt4pairImmESaIS1_EE5beginEv = comdat any

$_ZNSt12_Vector_baseISt4pairImmESaIS1_EE11_M_allocateEm = comdat any

$_ZNSt6vectorISt4pairImmESaIS1_EE11_S_relocateEPS1_S4_S4_RS2_ = comdat any

$_ZNK9__gnu_cxx17__normal_iteratorIPSt4pairImmESt6vectorIS2_SaIS2_EEE4baseEv = comdat any

$_ZNSt12_Vector_baseISt4pairImmESaIS1_EE19_M_get_Tp_allocatorEv = comdat any

$_ZNSt12_Vector_baseISt4pairImmESaIS1_EE13_M_deallocateEPS1_m = comdat any

$_ZNKSt6vectorISt4pairImmESaIS1_EE8max_sizeEv = comdat any

$_ZSt3maxImERKT_S2_S2_ = comdat any

$_ZNSt6vectorISt4pairImmESaIS1_EE11_S_max_sizeERKS2_ = comdat any

$_ZNKSt12_Vector_baseISt4pairImmESaIS1_EE19_M_get_Tp_allocatorEv = comdat any

$_ZNSt16allocator_traitsISaISt4pairImmEEE8max_sizeERKS2_ = comdat any

$_ZNKSt15__new_allocatorISt4pairImmEE8max_sizeEv = comdat any

$_ZNKSt15__new_allocatorISt4pairImmEE11_M_max_sizeEv = comdat any

$_ZN9__gnu_cxx17__normal_iteratorIPSt4pairImmESt6vectorIS2_SaIS2_EEEC2ERKS3_ = comdat any

$_ZNSt16allocator_traitsISaISt4pairImmEEE8allocateERS2_m = comdat any

$_ZNSt15__new_allocatorISt4pairImmEE8allocateEmPKv = comdat any

$_ZSt12__relocate_aIPSt4pairImmES2_SaIS1_EET0_T_S5_S4_RT1_ = comdat any

$_ZSt14__relocate_a_1IPSt4pairImmES2_SaIS1_EET0_T_S5_S4_RT1_ = comdat any

$_ZSt12__niter_baseIPSt4pairImmEET_S3_ = comdat any

$_ZSt19__relocate_object_aISt4pairImmES1_SaIS1_EEvPT_PT0_RT1_ = comdat any

$_ZNSt16allocator_traitsISaISt4pairImmEEE7destroyIS1_EEvRS2_PT_ = comdat any

$_ZNSt15__new_allocatorISt4pairImmEE7destroyIS1_EEvPT_ = comdat any

$_ZNSt16allocator_traitsISaISt4pairImmEEE10deallocateERS2_PS1_m = comdat any

$_ZNSt15__new_allocatorISt4pairImmEE10deallocateEPS1_m = comdat any

$_ZNK9__gnu_cxx17__normal_iteratorIPSt4pairImmESt6vectorIS2_SaIS2_EEEmiEl = comdat any

$_ZNK9__gnu_cxx17__normal_iteratorIPSt4pairImmESt6vectorIS2_SaIS2_EEEdeEv = comdat any

$_ZNKSt6vectorIcSaIcEEixEm = comdat any

$_ZN7testing7MessagelsImEERS0_RKT_ = comdat any

$_ZN7testing7MessagelsIA9_cEERS0_RKT_ = comdat any

$_ZN7testing7MessagelsIKcEERS0_RKPT_ = comdat any

$_ZN7testing7MessageC2ERKS0_ = comdat any

$_ZNKSt10unique_ptrINSt7__cxx1118basic_stringstreamIcSt11char_traitsIcESaIcEEESt14default_deleteIS5_EEdeEv = comdat any

$_ZNKSt10unique_ptrINSt7__cxx1118basic_stringstreamIcSt11char_traitsIcESaIcEEESt14default_deleteIS5_EE3getEv = comdat any

$_ZNKSt15__uniq_ptr_implINSt7__cxx1118basic_stringstreamIcSt11char_traitsIcESaIcEEESt14default_deleteIS5_EE6_M_ptrEv = comdat any

$_ZSt3getILm0EJPNSt7__cxx1118basic_stringstreamIcSt11char_traitsIcESaIcEEESt14default_deleteIS5_EEERKNSt13tuple_elementIXT_ESt5tupleIJDpT0_EEE4typeERKSD_ = comdat any

$_ZSt12__get_helperILm0EPNSt7__cxx1118basic_stringstreamIcSt11char_traitsIcESaIcEEEJSt14default_deleteIS5_EEERKT0_RKSt11_Tuple_implIXT_EJS9_DpT1_EE = comdat any

$_ZNSt11_Tuple_implILm0EJPNSt7__cxx1118basic_stringstreamIcSt11char_traitsIcESaIcEEESt14default_deleteIS5_EEE7_M_headERKS9_ = comdat any

$_ZNSt10_Head_baseILm0EPNSt7__cxx1118basic_stringstreamIcSt11char_traitsIcESaIcEEELb0EE7_M_headERKS7_ = comdat any

$_ZNSt10unique_ptrINSt7__cxx1118basic_stringstreamIcSt11char_traitsIcESaIcEEESt14default_deleteIS5_EEC2IS7_vEEPS5_ = comdat any

$_ZNSt10unique_ptrINSt7__cxx1118basic_stringstreamIcSt11char_traitsIcESaIcEEESt14default_deleteIS5_EED2Ev = comdat any

$_ZNSt15__uniq_ptr_dataINSt7__cxx1118basic_stringstreamIcSt11char_traitsIcESaIcEEESt14default_deleteIS5_ELb1ELb1EECI2St15__uniq_ptr_implIS5_S7_EEPS5_ = comdat any

$_ZNSt15__uniq_ptr_implINSt7__cxx1118basic_stringstreamIcSt11char_traitsIcESaIcEEESt14default_deleteIS5_EEC2EPS5_ = comdat any

$_ZNSt5tupleIJPNSt7__cxx1118basic_stringstreamIcSt11char_traitsIcESaIcEEESt14default_deleteIS5_EEEC2ILb1ETnNSt9enable_ifIXclsr17_TupleConstraintsIXT_ES6_S8_EE37__is_implicitly_default_constructibleEEbE4typeELb1EEEv = comdat any

$_ZNSt15__uniq_ptr_implINSt7__cxx1118basic_stringstreamIcSt11char_traitsIcESaIcEEESt14default_deleteIS5_EE6_M_ptrEv = comdat any

$_ZNSt11_Tuple_implILm0EJPNSt7__cxx1118basic_stringstreamIcSt11char_traitsIcESaIcEEESt14default_deleteIS5_EEEC2Ev = comdat any

$_ZNSt11_Tuple_implILm1EJSt14default_deleteINSt7__cxx1118basic_stringstreamIcSt11char_traitsIcESaIcEEEEEEC2Ev = comdat any

$_ZNSt10_Head_baseILm0EPNSt7__cxx1118basic_stringstreamIcSt11char_traitsIcESaIcEEELb0EEC2Ev = comdat any

$_ZNSt10_Head_baseILm1ESt14default_deleteINSt7__cxx1118basic_stringstreamIcSt11char_traitsIcESaIcEEEELb1EEC2Ev = comdat any

$_ZSt3getILm0EJPNSt7__cxx1118basic_stringstreamIcSt11char_traitsIcESaIcEEESt14default_deleteIS5_EEERNSt13tuple_elementIXT_ESt5tupleIJDpT0_EEE4typeERSD_ = comdat any

$_ZSt12__get_helperILm0EPNSt7__cxx1118basic_stringstreamIcSt11char_traitsIcESaIcEEEJSt14default_deleteIS5_EEERT0_RSt11_Tuple_implIXT_EJS9_DpT1_EE = comdat any

$_ZNSt11_Tuple_implILm0EJPNSt7__cxx1118basic_stringstreamIcSt11char_traitsIcESaIcEEESt14default_deleteIS5_EEE7_M_headERS9_ = comdat any

$_ZNSt10_Head_baseILm0EPNSt7__cxx1118basic_stringstreamIcSt11char_traitsIcESaIcEEELb0EE7_M_headERS7_ = comdat any

$_ZNSt10unique_ptrINSt7__cxx1118basic_stringstreamIcSt11char_traitsIcESaIcEEESt14default_deleteIS5_EE11get_deleterEv = comdat any

$_ZNKSt14default_deleteINSt7__cxx1118basic_stringstreamIcSt11char_traitsIcESaIcEEEEclEPS5_ = comdat any

$_ZNSt15__uniq_ptr_implINSt7__cxx1118basic_stringstreamIcSt11char_traitsIcESaIcEEESt14default_deleteIS5_EE10_M_deleterEv = comdat any

$_ZSt3getILm1EJPNSt7__cxx1118basic_stringstreamIcSt11char_traitsIcESaIcEEESt14default_deleteIS5_EEERNSt13tuple_elementIXT_ESt5tupleIJDpT0_EEE4typeERSD_ = comdat any

$_ZSt12__get_helperILm1ESt14default_deleteINSt7__cxx1118basic_stringstreamIcSt11char_traitsIcESaIcEEEEJEERT0_RSt11_Tuple_implIXT_EJS8_DpT1_EE = comdat any

$_ZNSt11_Tuple_implILm1EJSt14default_deleteINSt7__cxx1118basic_stringstreamIcSt11char_traitsIcESaIcEEEEEE7_M_headERS8_ = comdat any

$_ZNSt10_Head_baseILm1ESt14default_deleteINSt7__cxx1118basic_stringstreamIcSt11char_traitsIcESaIcEEEELb1EE7_M_headERS8_ = comdat any

$_ZNKSt6vectorISt4pairImmESaIS1_EE5beginEv = comdat any

$_ZN9__gnu_cxxneIPKSt4pairImmESt6vectorIS2_SaIS2_EEEEbRKNS_17__normal_iteratorIT_T0_EESD_ = comdat any

$_ZNKSt6vectorISt4pairImmESaIS1_EE3endEv = comdat any

$_ZNK9__gnu_cxx17__normal_iteratorIPKSt4pairImmESt6vectorIS2_SaIS2_EEEptEv = comdat any

$_ZN9__gnu_cxx17__normal_iteratorIPKSt4pairImmESt6vectorIS2_SaIS2_EEEppEv = comdat any

$_ZN9__gnu_cxx17__normal_iteratorIPKSt4pairImmESt6vectorIS2_SaIS2_EEEC2ERKS4_ = comdat any

$_ZNK9__gnu_cxx17__normal_iteratorIPKSt4pairImmESt6vectorIS2_SaIS2_EEE4baseEv = comdat any

$_ZNSt3setIN7testing11ExpectationENS1_4LessESaIS1_EEC2Ev = comdat any

$_ZNSt8_Rb_treeIN7testing11ExpectationES1_St9_IdentityIS1_ENS1_4LessESaIS1_EEC2Ev = comdat any

$_ZNSt8_Rb_treeIN7testing11ExpectationES1_St9_IdentityIS1_ENS1_4LessESaIS1_EE13_Rb_tree_implIS4_Lb1EEC2Ev = comdat any

$_ZNSaISt13_Rb_tree_nodeIN7testing11ExpectationEEEC2Ev = comdat any

$_ZNSt20_Rb_tree_key_compareIN7testing11Expectation4LessEEC2Ev = comdat any

$_ZNSt15_Rb_tree_headerC2Ev = comdat any

$_ZNSt15__new_allocatorISt13_Rb_tree_nodeIN7testing11ExpectationEEEC2Ev = comdat any

$_ZNSt15_Rb_tree_header8_M_resetEv = comdat any

$_ZNSt12_Vector_baseIPKvSaIS1_EEC2Ev = comdat any

$_ZNSt12_Vector_baseIPKvSaIS1_EE12_Vector_implC2Ev = comdat any

$_ZNSaIPKvEC2Ev = comdat any

$_ZNSt12_Vector_baseIPKvSaIS1_EE17_Vector_impl_dataC2Ev = comdat any

$_ZNSt15__new_allocatorIPKvEC2Ev = comdat any

$_ZNSt3setIN7testing11ExpectationENS1_4LessESaIS1_EED2Ev = comdat any

$_ZNSt8_Rb_treeIN7testing11ExpectationES1_St9_IdentityIS1_ENS1_4LessESaIS1_EED2Ev = comdat any

$_ZNSt8_Rb_treeIN7testing11ExpectationES1_St9_IdentityIS1_ENS1_4LessESaIS1_EE8_M_eraseEPSt13_Rb_tree_nodeIS1_E = comdat any

$_ZNSt8_Rb_treeIN7testing11ExpectationES1_St9_IdentityIS1_ENS1_4LessESaIS1_EE8_M_beginEv = comdat any

$_ZNSt15__new_allocatorISt13_Rb_tree_nodeIN7testing11ExpectationEEED2Ev = comdat any

$_ZNSt8_Rb_treeIN7testing11ExpectationES1_St9_IdentityIS1_ENS1_4LessESaIS1_EE8_S_rightEPSt18_Rb_tree_node_base = comdat any

$_ZNSt8_Rb_treeIN7testing11ExpectationES1_St9_IdentityIS1_ENS1_4LessESaIS1_EE7_S_leftEPSt18_Rb_tree_node_base = comdat any

$_ZNSt8_Rb_treeIN7testing11ExpectationES1_St9_IdentityIS1_ENS1_4LessESaIS1_EE12_M_drop_nodeEPSt13_Rb_tree_nodeIS1_E = comdat any

$_ZNSt8_Rb_treeIN7testing11ExpectationES1_St9_IdentityIS1_ENS1_4LessESaIS1_EE15_M_destroy_nodeEPSt13_Rb_tree_nodeIS1_E = comdat any

$_ZNSt8_Rb_treeIN7testing11ExpectationES1_St9_IdentityIS1_ENS1_4LessESaIS1_EE11_M_put_nodeEPSt13_Rb_tree_nodeIS1_E = comdat any

$_ZNSt16allocator_traitsISaISt13_Rb_tree_nodeIN7testing11ExpectationEEEE7destroyIS2_EEvRS4_PT_ = comdat any

$_ZNSt8_Rb_treeIN7testing11ExpectationES1_St9_IdentityIS1_ENS1_4LessESaIS1_EE21_M_get_Node_allocatorEv = comdat any

$_ZNSt13_Rb_tree_nodeIN7testing11ExpectationEE9_M_valptrEv = comdat any

$_ZNSt15__new_allocatorISt13_Rb_tree_nodeIN7testing11ExpectationEEE7destroyIS2_EEvPT_ = comdat any

$_ZN9__gnu_cxx16__aligned_membufIN7testing11ExpectationEE6_M_ptrEv = comdat any

$_ZN9__gnu_cxx16__aligned_membufIN7testing11ExpectationEE7_M_addrEv = comdat any

$_ZNSt16allocator_traitsISaISt13_Rb_tree_nodeIN7testing11ExpectationEEEE10deallocateERS4_PS3_m = comdat any

$_ZNSt15__new_allocatorISt13_Rb_tree_nodeIN7testing11ExpectationEEE10deallocateEPS3_m = comdat any

$_ZNKSt8_Rb_treeIN7testing11ExpectationES1_St9_IdentityIS1_ENS1_4LessESaIS1_EE9_M_mbeginEv = comdat any

$_ZNSt12__shared_ptrIKN7testing20CardinalityInterfaceELN9__gnu_cxx12_Lock_policyE2EED2Ev = comdat any

$_ZNSt14__shared_countILN9__gnu_cxx12_Lock_policyE2EED2Ev = comdat any

$_ZNSt16_Sp_counted_baseILN9__gnu_cxx12_Lock_policyE2EE10_M_releaseEv = comdat any

$_ZN9__gnu_cxx27__exchange_and_add_dispatchEPii = comdat any

$_ZNSt16_Sp_counted_baseILN9__gnu_cxx12_Lock_policyE2EE24_M_release_last_use_coldEv = comdat any

$_ZN9__gnu_cxx20__is_single_threadedEv = comdat any

$_ZN9__gnu_cxx25__exchange_and_add_singleEPii = comdat any

$_ZN9__gnu_cxx18__exchange_and_addEPVii = comdat any

$_ZNSt16_Sp_counted_baseILN9__gnu_cxx12_Lock_policyE2EE19_M_release_last_useEv = comdat any

$_ZNSt10shared_ptrIKN7testing20CardinalityInterfaceEEaSERKS3_ = comdat any

$_ZNSt12__shared_ptrIKN7testing20CardinalityInterfaceELN9__gnu_cxx12_Lock_policyE2EEaSERKS5_ = comdat any

$_ZNSt14__shared_countILN9__gnu_cxx12_Lock_policyE2EEaSERKS2_ = comdat any

$_ZNSt16_Sp_counted_baseILN9__gnu_cxx12_Lock_policyE2EE15_M_add_ref_copyEv = comdat any

$_ZN9__gnu_cxx21__atomic_add_dispatchEPii = comdat any

$_ZN9__gnu_cxx19__atomic_add_singleEPii = comdat any

$_ZN9__gnu_cxx12__atomic_addEPVii = comdat any

$_ZNKSt3setIN7testing11ExpectationENS1_4LessESaIS1_EE5beginEv = comdat any

$_ZNKSt8_Rb_treeIN7testing11ExpectationES1_St9_IdentityIS1_ENS1_4LessESaIS1_EE5beginEv = comdat any

$_ZNSt23_Rb_tree_const_iteratorIN7testing11ExpectationEEC2EPKSt18_Rb_tree_node_base = comdat any

$_ZNKSt3setIN7testing11ExpectationENS1_4LessESaIS1_EE3endEv = comdat any

$_ZNKSt8_Rb_treeIN7testing11ExpectationES1_St9_IdentityIS1_ENS1_4LessESaIS1_EE3endEv = comdat any

$_ZNK7testing11Cardinality22IsSatisfiedByCallCountEi = comdat any

$_ZNKSt19__shared_ptr_accessIKN7testing20CardinalityInterfaceELN9__gnu_cxx12_Lock_policyE2ELb0ELb0EEptEv = comdat any

$_ZNKSt19__shared_ptr_accessIKN7testing20CardinalityInterfaceELN9__gnu_cxx12_Lock_policyE2ELb0ELb0EE6_M_getEv = comdat any

$_ZNKSt12__shared_ptrIKN7testing20CardinalityInterfaceELN9__gnu_cxx12_Lock_policyE2EE3getEv = comdat any

$_ZNSt3setIN7testing11ExpectationENS1_4LessESaIS1_EE6insertERKS1_ = comdat any

$_ZNSt8_Rb_treeIN7testing11ExpectationES1_St9_IdentityIS1_ENS1_4LessESaIS1_EE16_M_insert_uniqueIRKS1_EESt4pairISt17_Rb_tree_iteratorIS1_EbEOT_ = comdat any

$_ZNSt4pairISt23_Rb_tree_const_iteratorIN7testing11ExpectationEEbEC2IRSt17_Rb_tree_iteratorIS2_ERbTnNSt9enable_ifIXaaclsr5_PCCPE22_MoveConstructiblePairIT_T0_EEclsr5_PCCPE30_ImplicitlyMoveConvertiblePairISB_SC_EEEbE4typeELb1EEEOSB_OSC_ = comdat any

$_ZNSt8_Rb_treeIN7testing11ExpectationES1_St9_IdentityIS1_ENS1_4LessESaIS1_EE24_M_get_insert_unique_posERKS1_ = comdat any

$_ZNKSt9_IdentityIN7testing11ExpectationEEclERKS1_ = comdat any

$_ZNSt8_Rb_treeIN7testing11ExpectationES1_St9_IdentityIS1_ENS1_4LessESaIS1_EE11_Alloc_nodeC2ERS6_ = comdat any

$_ZNSt8_Rb_treeIN7testing11ExpectationES1_St9_IdentityIS1_ENS1_4LessESaIS1_EE10_M_insert_IRKS1_NS6_11_Alloc_nodeEEESt17_Rb_tree_iteratorIS1_EPSt18_Rb_tree_node_baseSE_OT_RT0_ = comdat any

$_ZNSt4pairISt17_Rb_tree_iteratorIN7testing11ExpectationEEbEC2IS3_bTnNSt9enable_ifIXaaclsr5_PCCPE22_MoveConstructiblePairIT_T0_EEclsr5_PCCPE30_ImplicitlyMoveConvertiblePairIS7_S8_EEEbE4typeELb1EEEOS7_OS8_ = comdat any

$_ZNSt17_Rb_tree_iteratorIN7testing11ExpectationEEC2EPSt18_Rb_tree_node_base = comdat any

$_ZNSt8_Rb_treeIN7testing11ExpectationES1_St9_IdentityIS1_ENS1_4LessESaIS1_EE6_M_endEv = comdat any

$_ZNK7testing11Expectation4LessclERKS0_S3_ = comdat any

$_ZNSt8_Rb_treeIN7testing11ExpectationES1_St9_IdentityIS1_ENS1_4LessESaIS1_EE6_S_keyEPKSt13_Rb_tree_nodeIS1_E = comdat any

$_ZSteqRKSt17_Rb_tree_iteratorIN7testing11ExpectationEES4_ = comdat any

$_ZNSt8_Rb_treeIN7testing11ExpectationES1_St9_IdentityIS1_ENS1_4LessESaIS1_EE5beginEv = comdat any

$_ZNSt4pairIPSt18_Rb_tree_node_baseS1_EC2IRPSt13_Rb_tree_nodeIN7testing11ExpectationEERS1_TnNSt9enable_ifIXaaclsr5_PCCPE22_MoveConstructiblePairIT_T0_EEclsr5_PCCPE30_ImplicitlyMoveConvertiblePairISC_SD_EEEbE4typeELb1EEEOSC_OSD_ = comdat any

$_ZNSt17_Rb_tree_iteratorIN7testing11ExpectationEEmmEv = comdat any

$_ZNSt8_Rb_treeIN7testing11ExpectationES1_St9_IdentityIS1_ENS1_4LessESaIS1_EE6_S_keyEPKSt18_Rb_tree_node_base = comdat any

$_ZNSt4pairIPSt18_Rb_tree_node_baseS1_EC2IS1_S1_TnNSt9enable_ifIXaaclsr5_PCCPE18_ConstructiblePairIT_T0_EEclsr5_PCCPE26_ImplicitlyConvertiblePairIS5_S6_EEEbE4typeELb1EEERKS1_SA_ = comdat any

$_ZNKSt13_Rb_tree_nodeIN7testing11ExpectationEE9_M_valptrEv = comdat any

$_ZNK9__gnu_cxx16__aligned_membufIN7testing11ExpectationEE6_M_ptrEv = comdat any

$_ZNK9__gnu_cxx16__aligned_membufIN7testing11ExpectationEE7_M_addrEv = comdat any

$_ZNKSt8_Rb_treeIN7testing11ExpectationES1_St9_IdentityIS1_ENS1_4LessESaIS1_EE11_Alloc_nodeclIRKS1_EEPSt13_Rb_tree_nodeIS1_EOT_ = comdat any

$_ZNSt8_Rb_treeIN7testing11ExpectationES1_St9_IdentityIS1_ENS1_4LessESaIS1_EE14_M_create_nodeIJRKS1_EEEPSt13_Rb_tree_nodeIS1_EDpOT_ = comdat any

$_ZNSt8_Rb_treeIN7testing11ExpectationES1_St9_IdentityIS1_ENS1_4LessESaIS1_EE11_M_get_nodeEv = comdat any

$_ZNSt8_Rb_treeIN7testing11ExpectationES1_St9_IdentityIS1_ENS1_4LessESaIS1_EE17_M_construct_nodeIJRKS1_EEEvPSt13_Rb_tree_nodeIS1_EDpOT_ = comdat any

$_ZNSt16allocator_traitsISaISt13_Rb_tree_nodeIN7testing11ExpectationEEEE8allocateERS4_m = comdat any

$_ZNSt15__new_allocatorISt13_Rb_tree_nodeIN7testing11ExpectationEEE8allocateEmPKv = comdat any

$_ZNKSt15__new_allocatorISt13_Rb_tree_nodeIN7testing11ExpectationEEE11_M_max_sizeEv = comdat any

$_ZNSt16allocator_traitsISaISt13_Rb_tree_nodeIN7testing11ExpectationEEEE9constructIS2_JRKS2_EEEvRS4_PT_DpOT0_ = comdat any

$_ZNSt15__new_allocatorISt13_Rb_tree_nodeIN7testing11ExpectationEEE9constructIS2_JRKS2_EEEvPT_DpOT0_ = comdat any

$_ZN7testing11ExpectationC2ERKS0_ = comdat any

$_ZNSt23_Rb_tree_const_iteratorIN7testing11ExpectationEEC2ERKSt17_Rb_tree_iteratorIS1_E = comdat any

$_ZNK7testing11Cardinality26IsOverSaturatedByCallCountEi = comdat any

$_ZNK7testing11Cardinality22IsSaturatedByCallCountEi = comdat any

$_ZNSt12_Vector_baseISt10shared_ptrIN7testing8internal15ExpectationBaseEESaIS4_EEC2Ev = comdat any

$_ZNSt12_Vector_baseISt10shared_ptrIN7testing8internal15ExpectationBaseEESaIS4_EE12_Vector_implC2Ev = comdat any

$_ZNSaISt10shared_ptrIN7testing8internal15ExpectationBaseEEEC2Ev = comdat any

$_ZNSt15__new_allocatorISt10shared_ptrIN7testing8internal15ExpectationBaseEEEC2Ev = comdat any

$_ZNSt20_Rb_tree_key_compareISt4lessIPKvEEC2Ev = comdat any

$_ZNSt3setIPN7testing8internal25UntypedFunctionMockerBaseESt4lessIS3_ESaIS3_EED2Ev = comdat any

$_ZNSt8_Rb_treeIPN7testing8internal25UntypedFunctionMockerBaseES3_St9_IdentityIS3_ESt4lessIS3_ESaIS3_EED2Ev = comdat any

$_ZNSt8_Rb_treeIPN7testing8internal25UntypedFunctionMockerBaseES3_St9_IdentityIS3_ESt4lessIS3_ESaIS3_EE8_M_eraseEPSt13_Rb_tree_nodeIS3_E = comdat any

$_ZNSt8_Rb_treeIPN7testing8internal25UntypedFunctionMockerBaseES3_St9_IdentityIS3_ESt4lessIS3_ESaIS3_EE8_M_beginEv = comdat any

$_ZNSt15__new_allocatorISt13_Rb_tree_nodeIPN7testing8internal25UntypedFunctionMockerBaseEEED2Ev = comdat any

$_ZNSt8_Rb_treeIPN7testing8internal25UntypedFunctionMockerBaseES3_St9_IdentityIS3_ESt4lessIS3_ESaIS3_EE8_S_rightEPSt18_Rb_tree_node_base = comdat any

$_ZNSt8_Rb_treeIPN7testing8internal25UntypedFunctionMockerBaseES3_St9_IdentityIS3_ESt4lessIS3_ESaIS3_EE7_S_leftEPSt18_Rb_tree_node_base = comdat any

$_ZNSt8_Rb_treeIPN7testing8internal25UntypedFunctionMockerBaseES3_St9_IdentityIS3_ESt4lessIS3_ESaIS3_EE12_M_drop_nodeEPSt13_Rb_tree_nodeIS3_E = comdat any

$_ZNSt8_Rb_treeIPN7testing8internal25UntypedFunctionMockerBaseES3_St9_IdentityIS3_ESt4lessIS3_ESaIS3_EE15_M_destroy_nodeEPSt13_Rb_tree_nodeIS3_E = comdat any

$_ZNSt8_Rb_treeIPN7testing8internal25UntypedFunctionMockerBaseES3_St9_IdentityIS3_ESt4lessIS3_ESaIS3_EE11_M_put_nodeEPSt13_Rb_tree_nodeIS3_E = comdat any

$_ZNSt16allocator_traitsISaISt13_Rb_tree_nodeIPN7testing8internal25UntypedFunctionMockerBaseEEEE7destroyIS4_EEvRS6_PT_ = comdat any

$_ZNSt8_Rb_treeIPN7testing8internal25UntypedFunctionMockerBaseES3_St9_IdentityIS3_ESt4lessIS3_ESaIS3_EE21_M_get_Node_allocatorEv = comdat any

$_ZNSt13_Rb_tree_nodeIPN7testing8internal25UntypedFunctionMockerBaseEE9_M_valptrEv = comdat any

$_ZNSt15__new_allocatorISt13_Rb_tree_nodeIPN7testing8internal25UntypedFunctionMockerBaseEEE7destroyIS4_EEvPT_ = comdat any

$_ZN9__gnu_cxx16__aligned_membufIPN7testing8internal25UntypedFunctionMockerBaseEE6_M_ptrEv = comdat any

$_ZN9__gnu_cxx16__aligned_membufIPN7testing8internal25UntypedFunctionMockerBaseEE7_M_addrEv = comdat any

$_ZNSt16allocator_traitsISaISt13_Rb_tree_nodeIPN7testing8internal25UntypedFunctionMockerBaseEEEE10deallocateERS6_PS5_m = comdat any

$_ZNSt15__new_allocatorISt13_Rb_tree_nodeIPN7testing8internal25UntypedFunctionMockerBaseEEE10deallocateEPS5_m = comdat any

$_ZNKSt8_Rb_treeIPN7testing8internal25UntypedFunctionMockerBaseES3_St9_IdentityIS3_ESt4lessIS3_ESaIS3_EE9_M_mbeginEv = comdat any

$_ZNSt13unordered_mapImN7testing8internal12CallReactionESt4hashImESt8equal_toImESaISt4pairIKmS2_EEEixERS8_ = comdat any

$_ZNSt8__detail9_Map_baseImSt4pairIKmN7testing8internal12CallReactionEESaIS6_ENS_10_Select1stESt8equal_toImESt4hashImENS_18_Mod_range_hashingENS_20_Default_ranged_hashENS_20_Prime_rehash_policyENS_17_Hashtable_traitsILb0ELb0ELb1EEELb1EEixERS2_ = comdat any

$_ZNKSt8__detail15_Hash_code_baseImSt4pairIKmN7testing8internal12CallReactionEENS_10_Select1stESt4hashImENS_18_Mod_range_hashingENS_20_Default_ranged_hashELb0EE12_M_hash_codeERS2_ = comdat any

$_ZNKSt10_HashtableImSt4pairIKmN7testing8internal12CallReactionEESaIS5_ENSt8__detail10_Select1stESt8equal_toImESt4hashImENS7_18_Mod_range_hashingENS7_20_Default_ranged_hashENS7_20_Prime_rehash_policyENS7_17_Hashtable_traitsILb0ELb0ELb1EEEE15_M_bucket_indexEm = comdat any

$_ZNKSt10_HashtableImSt4pairIKmN7testing8internal12CallReactionEESaIS5_ENSt8__detail10_Select1stESt8equal_toImESt4hashImENS7_18_Mod_range_hashingENS7_20_Default_ranged_hashENS7_20_Prime_rehash_policyENS7_17_Hashtable_traitsILb0ELb0ELb1EEEE12_M_find_nodeEmRS1_m = comdat any

$_ZNSt8__detail21_Hash_node_value_baseISt4pairIKmN7testing8internal12CallReactionEEE4_M_vEv = comdat any

$_ZNSt5tupleIJRKmEEC2ILb1ETnNSt9enable_ifIXclsr4_TCCIXT_EEE29__is_implicitly_constructibleIS1_EEEbE4typeELb1EEES1_ = comdat any

$_ZNSt10_HashtableImSt4pairIKmN7testing8internal12CallReactionEESaIS5_ENSt8__detail10_Select1stESt8equal_toImESt4hashImENS7_18_Mod_range_hashingENS7_20_Default_ranged_hashENS7_20_Prime_rehash_policyENS7_17_Hashtable_traitsILb0ELb0ELb1EEEE12_Scoped_nodeC2IJRKSt21piecewise_construct_tSt5tupleIJRS1_EESO_IJEEEEEPNS7_16_Hashtable_allocISaINS7_10_Hash_nodeIS5_Lb0EEEEEEDpOT_ = comdat any

$_ZNSt10_HashtableImSt4pairIKmN7testing8internal12CallReactionEESaIS5_ENSt8__detail10_Select1stESt8equal_toImESt4hashImENS7_18_Mod_range_hashingENS7_20_Default_ranged_hashENS7_20_Prime_rehash_policyENS7_17_Hashtable_traitsILb0ELb0ELb1EEEE21_M_insert_unique_nodeEmmPNS7_10_Hash_nodeIS5_Lb0EEEm = comdat any

$_ZNKSt8__detail14_Node_iteratorISt4pairIKmN7testing8internal12CallReactionEELb0ELb0EEptEv = comdat any

$_ZNSt10_HashtableImSt4pairIKmN7testing8internal12CallReactionEESaIS5_ENSt8__detail10_Select1stESt8equal_toImESt4hashImENS7_18_Mod_range_hashingENS7_20_Default_ranged_hashENS7_20_Prime_rehash_policyENS7_17_Hashtable_traitsILb0ELb0ELb1EEEE12_Scoped_nodeD2Ev = comdat any

$_ZNKSt8__detail15_Hash_code_baseImSt4pairIKmN7testing8internal12CallReactionEENS_10_Select1stESt4hashImENS_18_Mod_range_hashingENS_20_Default_ranged_hashELb0EE7_M_hashEv = comdat any

$_ZNKSt4hashImEclEm = comdat any

$_ZNKSt8__detail21_Hashtable_ebo_helperILi1ESt4hashImELb1EE7_M_cgetEv = comdat any

$_ZNKSt8__detail15_Hash_code_baseImSt4pairIKmN7testing8internal12CallReactionEENS_10_Select1stESt4hashImENS_18_Mod_range_hashingENS_20_Default_ranged_hashELb0EE15_M_bucket_indexEmm = comdat any

$_ZNKSt8__detail18_Mod_range_hashingclEmm = comdat any

$_ZNKSt10_HashtableImSt4pairIKmN7testing8internal12CallReactionEESaIS5_ENSt8__detail10_Select1stESt8equal_toImESt4hashImENS7_18_Mod_range_hashingENS7_20_Default_ranged_hashENS7_20_Prime_rehash_policyENS7_17_Hashtable_traitsILb0ELb0ELb1EEEE19_M_find_before_nodeEmRS1_m = comdat any

$_ZNKSt8__detail15_Hashtable_baseImSt4pairIKmN7testing8internal12CallReactionEENS_10_Select1stESt8equal_toImESt4hashImENS_18_Mod_range_hashingENS_20_Default_ranged_hashENS_17_Hashtable_traitsILb0ELb0ELb1EEEE9_M_equalsERS2_mRKNS_16_Hash_node_valueIS6_Lb0EEE = comdat any

$_ZNKSt10_HashtableImSt4pairIKmN7testing8internal12CallReactionEESaIS5_ENSt8__detail10_Select1stESt8equal_toImESt4hashImENS7_18_Mod_range_hashingENS7_20_Default_ranged_hashENS7_20_Prime_rehash_policyENS7_17_Hashtable_traitsILb0ELb0ELb1EEEE15_M_bucket_indexERKNS7_16_Hash_node_valueIS5_Lb0EEE = comdat any

$_ZNKSt8__detail10_Hash_nodeISt4pairIKmN7testing8internal12CallReactionEELb0EE7_M_nextEv = comdat any

$_ZNSt8__detail15_Hashtable_baseImSt4pairIKmN7testing8internal12CallReactionEENS_10_Select1stESt8equal_toImESt4hashImENS_18_Mod_range_hashingENS_20_Default_ranged_hashENS_17_Hashtable_traitsILb0ELb0ELb1EEEE9_S_equalsEmRKNS_21_Hash_node_code_cacheILb0EEE = comdat any

$_ZNKSt8__detail15_Hashtable_baseImSt4pairIKmN7testing8internal12CallReactionEENS_10_Select1stESt8equal_toImESt4hashImENS_18_Mod_range_hashingENS_20_Default_ranged_hashENS_17_Hashtable_traitsILb0ELb0ELb1EEEE13_M_key_equalsERS2_RKNS_16_Hash_node_valueIS6_Lb0EEE = comdat any

$_ZNKSt8__detail15_Hashtable_baseImSt4pairIKmN7testing8internal12CallReactionEENS_10_Select1stESt8equal_toImESt4hashImENS_18_Mod_range_hashingENS_20_Default_ranged_hashENS_17_Hashtable_traitsILb0ELb0ELb1EEEE5_M_eqEv = comdat any

$_ZNKSt8equal_toImEclERKmS2_ = comdat any

$_ZNKSt8__detail10_Select1stclIRKSt4pairIKmN7testing8internal12CallReactionEEEEONS0_10__1st_typeIT_E4typeEOSB_ = comdat any

$_ZNKSt8__detail21_Hash_node_value_baseISt4pairIKmN7testing8internal12CallReactionEEE4_M_vEv = comdat any

$_ZNKSt8__detail21_Hashtable_ebo_helperILi0ESt8equal_toImELb1EE7_M_cgetEv = comdat any

$_ZNKSt8__detail21_Hash_node_value_baseISt4pairIKmN7testing8internal12CallReactionEEE9_M_valptrEv = comdat any

$_ZNK9__gnu_cxx16__aligned_bufferISt4pairIKmN7testing8internal12CallReactionEEE6_M_ptrEv = comdat any

$_ZNK9__gnu_cxx16__aligned_bufferISt4pairIKmN7testing8internal12CallReactionEEE7_M_addrEv = comdat any

$_ZNKSt8__detail15_Hash_code_baseImSt4pairIKmN7testing8internal12CallReactionEENS_10_Select1stESt4hashImENS_18_Mod_range_hashingENS_20_Default_ranged_hashELb0EE15_M_bucket_indexERKNS_16_Hash_node_valueIS6_Lb0EEEm = comdat any

$_ZNSt8__detail21_Hash_node_value_baseISt4pairIKmN7testing8internal12CallReactionEEE9_M_valptrEv = comdat any

$_ZN9__gnu_cxx16__aligned_bufferISt4pairIKmN7testing8internal12CallReactionEEE6_M_ptrEv = comdat any

$_ZN9__gnu_cxx16__aligned_bufferISt4pairIKmN7testing8internal12CallReactionEEE7_M_addrEv = comdat any

$_ZNSt11_Tuple_implILm0EJRKmEEC2ES1_ = comdat any

$_ZNSt10_Head_baseILm0ERKmLb0EEC2ES1_ = comdat any

$_ZNSt8__detail16_Hashtable_allocISaINS_10_Hash_nodeISt4pairIKmN7testing8internal12CallReactionEELb0EEEEE16_M_allocate_nodeIJRKSt21piecewise_construct_tSt5tupleIJRS3_EESF_IJEEEEEPS8_DpOT_ = comdat any

$_ZNSt16allocator_traitsISaINSt8__detail10_Hash_nodeISt4pairIKmN7testing8internal12CallReactionEELb0EEEEE8allocateERS9_m = comdat any

$_ZNSt8__detail16_Hashtable_allocISaINS_10_Hash_nodeISt4pairIKmN7testing8internal12CallReactionEELb0EEEEE17_M_node_allocatorEv = comdat any

$_ZSt12__to_addressINSt8__detail10_Hash_nodeISt4pairIKmN7testing8internal12CallReactionEELb0EEEEPT_SA_ = comdat any

$_ZNSt8__detail10_Hash_nodeISt4pairIKmN7testing8internal12CallReactionEELb0EEC2Ev = comdat any

$_ZNSt16allocator_traitsISaINSt8__detail10_Hash_nodeISt4pairIKmN7testing8internal12CallReactionEELb0EEEEE9constructIS7_JRKSt21piecewise_construct_tSt5tupleIJRS3_EESF_IJEEEEEvRS9_PT_DpOT0_ = comdat any

$_ZNSt16allocator_traitsISaINSt8__detail10_Hash_nodeISt4pairIKmN7testing8internal12CallReactionEELb0EEEEE10deallocateERS9_PS8_m = comdat any

$_ZNSt15__new_allocatorINSt8__detail10_Hash_nodeISt4pairIKmN7testing8internal12CallReactionEELb0EEEE8allocateEmPKv = comdat any

$_ZNKSt15__new_allocatorINSt8__detail10_Hash_nodeISt4pairIKmN7testing8internal12CallReactionEELb0EEEE11_M_max_sizeEv = comdat any

$_ZNSt8__detail21_Hashtable_ebo_helperILi0ESaINS_10_Hash_nodeISt4pairIKmN7testing8internal12CallReactionEELb0EEEELb1EE6_M_getEv = comdat any

$_ZNSt15__new_allocatorINSt8__detail10_Hash_nodeISt4pairIKmN7testing8internal12CallReactionEELb0EEEE9constructIS7_JRKSt21piecewise_construct_tSt5tupleIJRS3_EESE_IJEEEEEvPT_DpOT0_ = comdat any

$_ZNSt5tupleIJRKmEEC2EOS2_ = comdat any

$_ZNSt4pairIKmN7testing8internal12CallReactionEEC2IJRS0_EJEEESt21piecewise_construct_tSt5tupleIJDpT_EES8_IJDpT0_EE = comdat any

$_ZNSt11_Tuple_implILm0EJRKmEEC2EOS2_ = comdat any

$_ZNSt4pairIKmN7testing8internal12CallReactionEEC2IJRS0_EJLm0EEJETpTnmJEEERSt5tupleIJDpT_EERS7_IJDpT1_EESt12_Index_tupleIJXspT0_EEESG_IJXspT2_EEE = comdat any

$_ZSt3getILm0EJRKmEERNSt13tuple_elementIXT_ESt5tupleIJDpT0_EEE4typeERS6_ = comdat any

$_ZSt12__get_helperILm0ERKmJEERT0_RSt11_Tuple_implIXT_EJS2_DpT1_EE = comdat any

$_ZNSt11_Tuple_implILm0EJRKmEE7_M_headERS2_ = comdat any

$_ZNSt10_Head_baseILm0ERKmLb0EE7_M_headERS2_ = comdat any

$_ZNSt15__new_allocatorINSt8__detail10_Hash_nodeISt4pairIKmN7testing8internal12CallReactionEELb0EEEE10deallocateEPS8_m = comdat any

$_ZNKSt8__detail20_Prime_rehash_policy8_M_stateEv = comdat any

$_ZNSt10_HashtableImSt4pairIKmN7testing8internal12CallReactionEESaIS5_ENSt8__detail10_Select1stESt8equal_toImESt4hashImENS7_18_Mod_range_hashingENS7_20_Default_ranged_hashENS7_20_Prime_rehash_policyENS7_17_Hashtable_traitsILb0ELb0ELb1EEEE9_M_rehashEmRS1_ = comdat any

$_ZNKSt8__detail15_Hash_code_baseImSt4pairIKmN7testing8internal12CallReactionEENS_10_Select1stESt4hashImENS_18_Mod_range_hashingENS_20_Default_ranged_hashELb0EE13_M_store_codeERNS_21_Hash_node_code_cacheILb0EEEm = comdat any

$_ZNSt10_HashtableImSt4pairIKmN7testing8internal12CallReactionEESaIS5_ENSt8__detail10_Select1stESt8equal_toImESt4hashImENS7_18_Mod_range_hashingENS7_20_Default_ranged_hashENS7_20_Prime_rehash_policyENS7_17_Hashtable_traitsILb0ELb0ELb1EEEE22_M_insert_bucket_beginEmPNS7_10_Hash_nodeIS5_Lb0EEE = comdat any

$_ZNSt8__detail14_Node_iteratorISt4pairIKmN7testing8internal12CallReactionEELb0ELb0EEC2EPNS_10_Hash_nodeIS6_Lb0EEE = comdat any

$_ZNSt10_HashtableImSt4pairIKmN7testing8internal12CallReactionEESaIS5_ENSt8__detail10_Select1stESt8equal_toImESt4hashImENS7_18_Mod_range_hashingENS7_20_Default_ranged_hashENS7_20_Prime_rehash_policyENS7_17_Hashtable_traitsILb0ELb0ELb1EEEE13_M_rehash_auxEmSt17integral_constantIbLb1EE = comdat any

$_ZNSt8__detail20_Prime_rehash_policy8_M_resetEm = comdat any

$_ZNSt10_HashtableImSt4pairIKmN7testing8internal12CallReactionEESaIS5_ENSt8__detail10_Select1stESt8equal_toImESt4hashImENS7_18_Mod_range_hashingENS7_20_Default_ranged_hashENS7_20_Prime_rehash_policyENS7_17_Hashtable_traitsILb0ELb0ELb1EEEE19_M_allocate_bucketsEm = comdat any

$_ZNKSt10_HashtableImSt4pairIKmN7testing8internal12CallReactionEESaIS5_ENSt8__detail10_Select1stESt8equal_toImESt4hashImENS7_18_Mod_range_hashingENS7_20_Default_ranged_hashENS7_20_Prime_rehash_policyENS7_17_Hashtable_traitsILb0ELb0ELb1EEEE8_M_beginEv = comdat any

$_ZNSt10_HashtableImSt4pairIKmN7testing8internal12CallReactionEESaIS5_ENSt8__detail10_Select1stESt8equal_toImESt4hashImENS7_18_Mod_range_hashingENS7_20_Default_ranged_hashENS7_20_Prime_rehash_policyENS7_17_Hashtable_traitsILb0ELb0ELb1EEEE21_M_deallocate_bucketsEv = comdat any

$_ZNSt8__detail16_Hashtable_allocISaINS_10_Hash_nodeISt4pairIKmN7testing8internal12CallReactionEELb0EEEEE19_M_allocate_bucketsEm = comdat any

$_ZNSaIPNSt8__detail15_Hash_node_baseEEC2INS_10_Hash_nodeISt4pairIKmN7testing8internal12CallReactionEELb0EEEEERKSaIT_E = comdat any

$_ZNSt16allocator_traitsISaIPNSt8__detail15_Hash_node_baseEEE8allocateERS3_m = comdat any

$_ZSt12__to_addressIPNSt8__detail15_Hash_node_baseEEPT_S4_ = comdat any

$_ZNSt15__new_allocatorIPNSt8__detail15_Hash_node_baseEED2Ev = comdat any

$_ZNSt15__new_allocatorIPNSt8__detail15_Hash_node_baseEEC2Ev = comdat any

$_ZNSt15__new_allocatorIPNSt8__detail15_Hash_node_baseEE8allocateEmPKv = comdat any

$_ZNKSt15__new_allocatorIPNSt8__detail15_Hash_node_baseEE11_M_max_sizeEv = comdat any

$_ZNSt10_HashtableImSt4pairIKmN7testing8internal12CallReactionEESaIS5_ENSt8__detail10_Select1stESt8equal_toImESt4hashImENS7_18_Mod_range_hashingENS7_20_Default_ranged_hashENS7_20_Prime_rehash_policyENS7_17_Hashtable_traitsILb0ELb0ELb1EEEE21_M_deallocate_bucketsEPPNS7_15_Hash_node_baseEm = comdat any

$_ZNKSt10_HashtableImSt4pairIKmN7testing8internal12CallReactionEESaIS5_ENSt8__detail10_Select1stESt8equal_toImESt4hashImENS7_18_Mod_range_hashingENS7_20_Default_ranged_hashENS7_20_Prime_rehash_policyENS7_17_Hashtable_traitsILb0ELb0ELb1EEEE21_M_uses_single_bucketEPPNS7_15_Hash_node_baseE = comdat any

$_ZNSt8__detail16_Hashtable_allocISaINS_10_Hash_nodeISt4pairIKmN7testing8internal12CallReactionEELb0EEEEE21_M_deallocate_bucketsEPPNS_15_Hash_node_baseEm = comdat any

$_ZNSt19__ptr_traits_ptr_toIPPNSt8__detail15_Hash_node_baseES2_Lb0EE10pointer_toERS2_ = comdat any

$_ZNSt16allocator_traitsISaIPNSt8__detail15_Hash_node_baseEEE10deallocateERS3_PS2_m = comdat any

$_ZNSt15__new_allocatorIPNSt8__detail15_Hash_node_baseEE10deallocateEPS2_m = comdat any

$_ZNSt8__detail19_Node_iterator_baseISt4pairIKmN7testing8internal12CallReactionEELb0EEC2EPNS_10_Hash_nodeIS6_Lb0EEE = comdat any

$_ZNSt8__detail16_Hashtable_allocISaINS_10_Hash_nodeISt4pairIKmN7testing8internal12CallReactionEELb0EEEEE18_M_deallocate_nodeEPS8_ = comdat any

$_ZNSt16allocator_traitsISaINSt8__detail10_Hash_nodeISt4pairIKmN7testing8internal12CallReactionEELb0EEEEE7destroyIS7_EEvRS9_PT_ = comdat any

$_ZNSt8__detail16_Hashtable_allocISaINS_10_Hash_nodeISt4pairIKmN7testing8internal12CallReactionEELb0EEEEE22_M_deallocate_node_ptrEPS8_ = comdat any

$_ZNSt15__new_allocatorINSt8__detail10_Hash_nodeISt4pairIKmN7testing8internal12CallReactionEELb0EEEE7destroyIS7_EEvPT_ = comdat any

$_ZNSt19__ptr_traits_ptr_toIPNSt8__detail10_Hash_nodeISt4pairIKmN7testing8internal12CallReactionEELb0EEES8_Lb0EE10pointer_toERS8_ = comdat any

$_ZNSt13unordered_mapImN7testing8internal12CallReactionESt4hashImESt8equal_toImESaISt4pairIKmS2_EEEC2Ev = comdat any

$_ZNSt10_HashtableImSt4pairIKmN7testing8internal12CallReactionEESaIS5_ENSt8__detail10_Select1stESt8equal_toImESt4hashImENS7_18_Mod_range_hashingENS7_20_Default_ranged_hashENS7_20_Prime_rehash_policyENS7_17_Hashtable_traitsILb0ELb0ELb1EEEEC2Ev = comdat any

$_ZNSt8__detail15_Hashtable_baseImSt4pairIKmN7testing8internal12CallReactionEENS_10_Select1stESt8equal_toImESt4hashImENS_18_Mod_range_hashingENS_20_Default_ranged_hashENS_17_Hashtable_traitsILb0ELb0ELb1EEEEC2Ev = comdat any

$_ZNSt8__detail16_Hashtable_allocISaINS_10_Hash_nodeISt4pairIKmN7testing8internal12CallReactionEELb0EEEEEC2Ev = comdat any

$_ZNSt8__detail15_Hash_node_baseC2Ev = comdat any

$_ZNSt8__detail20_Prime_rehash_policyC2Ef = comdat any

$_ZNSt8__detail15_Hash_code_baseImSt4pairIKmN7testing8internal12CallReactionEENS_10_Select1stESt4hashImENS_18_Mod_range_hashingENS_20_Default_ranged_hashELb0EEC2Ev = comdat any

$_ZNSt8__detail21_Hashtable_ebo_helperILi0ESt8equal_toImELb1EEC2Ev = comdat any

$_ZNSt8__detail21_Hashtable_ebo_helperILi1ESt4hashImELb1EEC2Ev = comdat any

$_ZNSt8__detail21_Hashtable_ebo_helperILi0ESaINS_10_Hash_nodeISt4pairIKmN7testing8internal12CallReactionEELb0EEEELb1EEC2Ev = comdat any

$_ZNSaINSt8__detail10_Hash_nodeISt4pairIKmN7testing8internal12CallReactionEELb0EEEEC2Ev = comdat any

$_ZNSt15__new_allocatorINSt8__detail10_Hash_nodeISt4pairIKmN7testing8internal12CallReactionEELb0EEEEC2Ev = comdat any

$_ZNSt12__shared_ptrIN7testing8internal15ExpectationBaseELN9__gnu_cxx12_Lock_policyE2EEC2Ev = comdat any

$_ZNSt14__shared_countILN9__gnu_cxx12_Lock_policyE2EEC2Ev = comdat any

$_ZNSt12__shared_ptrIN7testing8internal15ExpectationBaseELN9__gnu_cxx12_Lock_policyE2EEC2ERKS5_ = comdat any

$_ZNSt14__shared_countILN9__gnu_cxx12_Lock_policyE2EEC2ERKS2_ = comdat any

$_ZNK7testing11ExpectationeqERKS0_ = comdat any

$_ZSteqIN7testing8internal15ExpectationBaseES2_EbRKSt10shared_ptrIT_ERKS3_IT0_E = comdat any

$_ZNSt10shared_ptrIN7testing8internal15ExpectationBaseEEaSERKS3_ = comdat any

$_ZNSt12__shared_ptrIN7testing8internal15ExpectationBaseELN9__gnu_cxx12_Lock_policyE2EEaSERKS5_ = comdat any

$_ZNSt10shared_ptrIN7testing11ExpectationEEC2IS1_vEEPT_ = comdat any

$_ZNSt12__shared_ptrIN7testing11ExpectationELN9__gnu_cxx12_Lock_policyE2EEC2IS1_vEEPT_ = comdat any

$_ZNSt14__shared_countILN9__gnu_cxx12_Lock_policyE2EEC2IPN7testing11ExpectationEEET_St17integral_constantIbLb0EE = comdat any

$_ZNSt12__shared_ptrIN7testing11ExpectationELN9__gnu_cxx12_Lock_policyE2EE31_M_enable_shared_from_this_withIS1_S1_EENSt9enable_ifIXntsr15__has_esft_baseIT0_EE5valueEvE4typeEPT_ = comdat any

$_ZNSt14__shared_countILN9__gnu_cxx12_Lock_policyE2EEC2IPN7testing11ExpectationEEET_ = comdat any

$_ZNSt15_Sp_counted_ptrIPN7testing11ExpectationELN9__gnu_cxx12_Lock_policyE2EEC2ES2_ = comdat any

$_ZNSt16_Sp_counted_baseILN9__gnu_cxx12_Lock_policyE2EED2Ev = comdat any

$_ZNSt15_Sp_counted_ptrIPN7testing11ExpectationELN9__gnu_cxx12_Lock_policyE2EED0Ev = comdat any

$_ZNSt15_Sp_counted_ptrIPN7testing11ExpectationELN9__gnu_cxx12_Lock_policyE2EE10_M_disposeEv = comdat any

$_ZNSt15_Sp_counted_ptrIPN7testing11ExpectationELN9__gnu_cxx12_Lock_policyE2EE10_M_destroyEv = comdat any

$_ZNSt15_Sp_counted_ptrIPN7testing11ExpectationELN9__gnu_cxx12_Lock_policyE2EE14_M_get_deleterERKSt9type_info = comdat any

$_ZNSt12__shared_ptrIN7testing11ExpectationELN9__gnu_cxx12_Lock_policyE2EED2Ev = comdat any

$_ZNSt16allocator_traitsISaIcEE10deallocateERS0_Pcm = comdat any

$_ZNSt15__new_allocatorIcE10deallocateEPcm = comdat any

$_ZNSt11char_traitsIcE6lengthEPKc = comdat any

$_ZN9__gnu_cxx14__alloc_traitsISaIcEcE17_S_select_on_copyERKS1_ = comdat any

$_ZNSt7__cxx1112basic_stringIcSt11char_traitsIcESaIcEE12_M_constructIPcEEvT_S7_St20forward_iterator_tag = comdat any

$_ZNSt16allocator_traitsISaIcEE37select_on_container_copy_constructionERKS0_ = comdat any

$_ZSt8distanceIPcENSt15iterator_traitsIT_E15difference_typeES2_S2_ = comdat any

$_ZZNSt7__cxx1112basic_stringIcSt11char_traitsIcESaIcEE12_M_constructIPcEEvT_S7_St20forward_iterator_tagEN6_GuardC2EPS4_ = comdat any

$_ZZNSt7__cxx1112basic_stringIcSt11char_traitsIcESaIcEE12_M_constructIPcEEvT_S7_St20forward_iterator_tagEN6_GuardD2Ev = comdat any

$_ZSt10__distanceIPcENSt15iterator_traitsIT_E15difference_typeES2_S2_St26random_access_iterator_tag = comdat any

$_ZStorSt12_Ios_IostateS_ = comdat any

$_ZStorSt13_Ios_OpenmodeS_ = comdat any

$_ZNSt7__cxx1115basic_stringbufIcSt11char_traitsIcESaIcEED2Ev = comdat any

$_ZNSt7__cxx1112basic_stringIcSt11char_traitsIcESaIcEE12_M_constructIPKcEEvT_S8_St20forward_iterator_tag = comdat any

$_ZSt8distanceIPKcENSt15iterator_traitsIT_E15difference_typeES3_S3_ = comdat any

$_ZZNSt7__cxx1112basic_stringIcSt11char_traitsIcESaIcEE12_M_constructIPKcEEvT_S8_St20forward_iterator_tagEN6_GuardC2EPS4_ = comdat any

$_ZZNSt7__cxx1112basic_stringIcSt11char_traitsIcESaIcEE12_M_constructIPKcEEvT_S8_St20forward_iterator_tagEN6_GuardD2Ev = comdat any

$_ZSt10__distanceIPKcENSt15iterator_traitsIT_E15difference_typeES3_S3_St26random_access_iterator_tag = comdat any

$_ZSt19__iterator_categoryIPKcENSt15iterator_traitsIT_E17iterator_categoryERKS3_ = comdat any

$_ZNSt7__cxx1112basic_stringIcSt11char_traitsIcESaIcEE6assignIPcvEERS4_T_S8_ = comdat any

$_ZN9__gnu_cxx17__normal_iteratorIPKcNSt7__cxx1112basic_stringIcSt11char_traitsIcESaIcEEEEC2IPcvEERKNS0_IT_S8_EE = comdat any

$_ZN9__gnu_cxxmiIPKcPcNSt7__cxx1112basic_stringIcSt11char_traitsIcESaIcEEEEEDTmicldtfp_4baseEcldtfp0_4baseEERKNS_17__normal_iteratorIT_T1_EERKNSB_IT0_SD_EE = comdat any

$_ZN9__gnu_cxxmiIPKcNSt7__cxx1112basic_stringIcSt11char_traitsIcESaIcEEEEENS_17__normal_iteratorIT_T0_E15difference_typeERKSC_SF_ = comdat any

$_ZNK9__gnu_cxx17__normal_iteratorIPKcNSt7__cxx1112basic_stringIcSt11char_traitsIcESaIcEEEE4baseEv = comdat any

$_ZNK9__gnu_cxx17__normal_iteratorIPcNSt7__cxx1112basic_stringIcSt11char_traitsIcESaIcEEEE4baseEv = comdat any

$_ZN9__gnu_cxx17__normal_iteratorIPcNSt7__cxx1112basic_stringIcSt11char_traitsIcESaIcEEEEC2ERKS1_ = comdat any

$_ZSt13__check_facetISt5ctypeIcEERKT_PS3_ = comdat any

$_ZNKSt5ctypeIcE5widenEc = comdat any

$_ZNSt6vectorIcSaIcEE17_S_check_init_lenEmRKS0_ = comdat any

$_ZNSt12_Vector_baseIcSaIcEEC2EmRKS0_ = comdat any

$_ZNSt6vectorIcSaIcEE18_M_fill_initializeEmRKc = comdat any

$_ZNSt12_Vector_baseIcSaIcEED2Ev = comdat any

$_ZNSt6vectorIcSaIcEE11_S_max_sizeERKS0_ = comdat any

$_ZNSt12_Vector_baseIcSaIcEE12_Vector_implC2ERKS0_ = comdat any

$_ZNSt12_Vector_baseIcSaIcEE17_M_create_storageEm = comdat any

$_ZNSt15__new_allocatorIcED2Ev = comdat any

$_ZNSt12_Vector_baseIcSaIcEE11_M_allocateEm = comdat any

$_ZNSt16allocator_traitsISaIcEE8allocateERS0_m = comdat any

$_ZNSt15__new_allocatorIcE8allocateEmPKv = comdat any

$_ZNSt12_Vector_baseIcSaIcEE13_M_deallocateEPcm = comdat any

$_ZN9__gnu_cxxeqIPKNSt7__cxx1112basic_stringIcSt11char_traitsIcESaIcEEESt6vectorIS6_SaIS6_EEEEbRKNS_17__normal_iteratorIT_T0_EESH_ = comdat any

$_ZNKSt6vectorINSt7__cxx1112basic_stringIcSt11char_traitsIcESaIcEEESaIS5_EE5beginEv = comdat any

$_ZNKSt6vectorINSt7__cxx1112basic_stringIcSt11char_traitsIcESaIcEEESaIS5_EE3endEv = comdat any

$_ZNK9__gnu_cxx17__normal_iteratorIPKNSt7__cxx1112basic_stringIcSt11char_traitsIcESaIcEEESt6vectorIS6_SaIS6_EEE4baseEv = comdat any

$_ZN9__gnu_cxx17__normal_iteratorIPKNSt7__cxx1112basic_stringIcSt11char_traitsIcESaIcEEESt6vectorIS6_SaIS6_EEEC2ERKS8_ = comdat any

$_ZNSt16reverse_iteratorIN9__gnu_cxx17__normal_iteratorIPKcNSt7__cxx1112basic_stringIcSt11char_traitsIcESaIcEEEEEEC2ESA_ = comdat any

$_ZN9__gnu_cxx17__normal_iteratorIPKcNSt7__cxx1112basic_stringIcSt11char_traitsIcESaIcEEEEC2ERKS2_ = comdat any

$_ZSt8_DestroyIPSt4pairImmES1_EvT_S3_RSaIT0_E = comdat any

$_ZNSt12_Vector_baseISt4pairImmESaIS1_EED2Ev = comdat any

$_ZSt8_DestroyIPSt4pairImmEEvT_S3_ = comdat any

$_ZNSt12_Destroy_auxILb1EE9__destroyIPSt4pairImmEEEvT_S5_ = comdat any

$_ZNSt15__new_allocatorISt4pairImmEED2Ev = comdat any

$_ZN9__gnu_cxxeqIPKPKN7testing25MatcherDescriberInterfaceESt6vectorIS4_SaIS4_EEEEbRKNS_17__normal_iteratorIT_T0_EESF_ = comdat any

$_ZNKSt6vectorIPKN7testing25MatcherDescriberInterfaceESaIS3_EE5beginEv = comdat any

$_ZNKSt6vectorIPKN7testing25MatcherDescriberInterfaceESaIS3_EE3endEv = comdat any

$_ZNK9__gnu_cxx17__normal_iteratorIPKPKN7testing25MatcherDescriberInterfaceESt6vectorIS4_SaIS4_EEE4baseEv = comdat any

$_ZN9__gnu_cxx17__normal_iteratorIPKPKN7testing25MatcherDescriberInterfaceESt6vectorIS4_SaIS4_EEEC2ERKS6_ = comdat any

$_ZSt8_DestroyIPPKvS1_EvT_S3_RSaIT0_E = comdat any

$_ZNSt12_Vector_baseIPKvSaIS1_EE19_M_get_Tp_allocatorEv = comdat any

$_ZNSt12_Vector_baseIPKvSaIS1_EED2Ev = comdat any

$_ZSt8_DestroyIPPKvEvT_S3_ = comdat any

$_ZNSt12_Destroy_auxILb1EE9__destroyIPPKvEEvT_S5_ = comdat any

$_ZNSt12_Vector_baseIPKvSaIS1_EE13_M_deallocateEPS1_m = comdat any

$_ZNSt15__new_allocatorIPKvED2Ev = comdat any

$_ZNSt16allocator_traitsISaIPKvEE10deallocateERS2_PS1_m = comdat any

$_ZNSt15__new_allocatorIPKvE10deallocateEPS1_m = comdat any

$_ZNSt15__new_allocatorIPN7testing8internal15ExpectationBaseEEC2Ev = comdat any

$_ZNSt6vectorIPN7testing8internal15ExpectationBaseESaIS3_EE17_S_check_init_lenEmRKS4_ = comdat any

$_ZNSt12_Vector_baseIPN7testing8internal15ExpectationBaseESaIS3_EEC2EmRKS4_ = comdat any

$_ZNSt6vectorIPN7testing8internal15ExpectationBaseESaIS3_EE18_M_fill_initializeEmRKS3_ = comdat any

$_ZNSt12_Vector_baseIPN7testing8internal15ExpectationBaseESaIS3_EED2Ev = comdat any

$_ZNSt6vectorIPN7testing8internal15ExpectationBaseESaIS3_EE11_S_max_sizeERKS4_ = comdat any

$_ZNSaIPN7testing8internal15ExpectationBaseEEC2ERKS3_ = comdat any

$_ZNSt16allocator_traitsISaIPN7testing8internal15ExpectationBaseEEE8max_sizeERKS4_ = comdat any

$_ZNKSt15__new_allocatorIPN7testing8internal15ExpectationBaseEE8max_sizeEv = comdat any

$_ZNKSt15__new_allocatorIPN7testing8internal15ExpectationBaseEE11_M_max_sizeEv = comdat any

$_ZNSt15__new_allocatorIPN7testing8internal15ExpectationBaseEEC2ERKS4_ = comdat any

$_ZNSt12_Vector_baseIPN7testing8internal15ExpectationBaseESaIS3_EE12_Vector_implC2ERKS4_ = comdat any

$_ZNSt12_Vector_baseIPN7testing8internal15ExpectationBaseESaIS3_EE17_M_create_storageEm = comdat any

$_ZNSt15__new_allocatorIPN7testing8internal15ExpectationBaseEED2Ev = comdat any

$_ZNSt12_Vector_baseIPN7testing8internal15ExpectationBaseESaIS3_EE17_Vector_impl_dataC2Ev = comdat any

$_ZNSt12_Vector_baseIPN7testing8internal15ExpectationBaseESaIS3_EE11_M_allocateEm = comdat any

$_ZNSt16allocator_traitsISaIPN7testing8internal15ExpectationBaseEEE8allocateERS4_m = comdat any

$_ZNSt15__new_allocatorIPN7testing8internal15ExpectationBaseEE8allocateEmPKv = comdat any

$_ZSt24__uninitialized_fill_n_aIPPN7testing8internal15ExpectationBaseEmS3_S3_ET_S5_T0_RKT1_RSaIT2_E = comdat any

$_ZNSt12_Vector_baseIPN7testing8internal15ExpectationBaseESaIS3_EE19_M_get_Tp_allocatorEv = comdat any

$_ZSt20uninitialized_fill_nIPPN7testing8internal15ExpectationBaseEmS3_ET_S5_T0_RKT1_ = comdat any

$_ZNSt22__uninitialized_fill_nILb1EE15__uninit_fill_nIPPN7testing8internal15ExpectationBaseEmS5_EET_S7_T0_RKT1_ = comdat any

$_ZSt6fill_nIPPN7testing8internal15ExpectationBaseEmS3_ET_S5_T0_RKT1_ = comdat any

$_ZSt10__fill_n_aIPPN7testing8internal15ExpectationBaseEmS3_ET_S5_T0_RKT1_St26random_access_iterator_tag = comdat any

$_ZSt19__iterator_categoryIPPN7testing8internal15ExpectationBaseEENSt15iterator_traitsIT_E17iterator_categoryERKS6_ = comdat any

$_ZSt8__fill_aIPPN7testing8internal15ExpectationBaseES3_EvT_S5_RKT0_ = comdat any

$_ZSt9__fill_a1IPPN7testing8internal15ExpectationBaseES3_EN9__gnu_cxx11__enable_ifIXsr11__is_scalarIT0_EE7__valueEvE6__typeET_SA_RKS7_ = comdat any

$_ZNSt12_Vector_baseIPN7testing8internal15ExpectationBaseESaIS3_EE13_M_deallocateEPS3_m = comdat any

$_ZNSt16allocator_traitsISaIPN7testing8internal15ExpectationBaseEEE10deallocateERS4_PS3_m = comdat any

$_ZNSt15__new_allocatorIPN7testing8internal15ExpectationBaseEE10deallocateEPS3_m = comdat any

$_ZSt8_DestroyIPPN7testing8internal15ExpectationBaseES3_EvT_S5_RSaIT0_E = comdat any

$_ZSt8_DestroyIPPN7testing8internal15ExpectationBaseEEvT_S5_ = comdat any

$_ZNSt12_Destroy_auxILb1EE9__destroyIPPN7testing8internal15ExpectationBaseEEEvT_S7_ = comdat any

$_ZN9__gnu_cxxeqIPKPN7testing8internal15ExpectationBaseESt6vectorIS4_SaIS4_EEEEbRKNS_17__normal_iteratorIT_T0_EESF_ = comdat any

$_ZNKSt6vectorIPN7testing8internal15ExpectationBaseESaIS3_EE5beginEv = comdat any

$_ZNKSt6vectorIPN7testing8internal15ExpectationBaseESaIS3_EE3endEv = comdat any

$_ZNK9__gnu_cxx17__normal_iteratorIPKPN7testing8internal15ExpectationBaseESt6vectorIS4_SaIS4_EEE4baseEv = comdat any

$_ZN9__gnu_cxx17__normal_iteratorIPKPN7testing8internal15ExpectationBaseESt6vectorIS4_SaIS4_EEEC2ERKS6_ = comdat any

$_ZNSt6vectorIPN7testing8internal15ExpectationBaseESaIS3_EE3endEv = comdat any

$_ZNK9__gnu_cxx17__normal_iteratorIPPN7testing8internal15ExpectationBaseESt6vectorIS4_SaIS4_EEEmiEl = comdat any

$_ZNK9__gnu_cxx17__normal_iteratorIPPN7testing8internal15ExpectationBaseESt6vectorIS4_SaIS4_EEEdeEv = comdat any

$_ZN9__gnu_cxx17__normal_iteratorIPPN7testing8internal15ExpectationBaseESt6vectorIS4_SaIS4_EEEC2ERKS5_ = comdat any

$_ZNSt16allocator_traitsISaIPN7testing8internal15ExpectationBaseEEE7destroyIS3_EEvRS4_PT_ = comdat any

$_ZNSt15__new_allocatorIPN7testing8internal15ExpectationBaseEE7destroyIS3_EEvPT_ = comdat any

$_ZNSt16allocator_traitsISaIPN7testing8internal15ExpectationBaseEEE9constructIS3_JRKS3_EEEvRS4_PT_DpOT0_ = comdat any

$_ZNSt6vectorIPN7testing8internal15ExpectationBaseESaIS3_EE17_M_realloc_insertIJRKS3_EEEvN9__gnu_cxx17__normal_iteratorIPS3_S5_EEDpOT_ = comdat any

$_ZNSt15__new_allocatorIPN7testing8internal15ExpectationBaseEE9constructIS3_JRKS3_EEEvPT_DpOT0_ = comdat any

$_ZNKSt6vectorIPN7testing8internal15ExpectationBaseESaIS3_EE12_M_check_lenEmPKc = comdat any

$_ZN9__gnu_cxxmiIPPN7testing8internal15ExpectationBaseESt6vectorIS4_SaIS4_EEEENS_17__normal_iteratorIT_T0_E15difference_typeERKSC_SF_ = comdat any

$_ZNSt6vectorIPN7testing8internal15ExpectationBaseESaIS3_EE5beginEv = comdat any

$_ZNSt6vectorIPN7testing8internal15ExpectationBaseESaIS3_EE11_S_relocateEPS3_S6_S6_RS4_ = comdat any

$_ZNK9__gnu_cxx17__normal_iteratorIPPN7testing8internal15ExpectationBaseESt6vectorIS4_SaIS4_EEE4baseEv = comdat any

$_ZNKSt6vectorIPN7testing8internal15ExpectationBaseESaIS3_EE8max_sizeEv = comdat any

$_ZNKSt6vectorIPN7testing8internal15ExpectationBaseESaIS3_EE4sizeEv = comdat any

$_ZNKSt12_Vector_baseIPN7testing8internal15ExpectationBaseESaIS3_EE19_M_get_Tp_allocatorEv = comdat any

$_ZSt12__relocate_aIPPN7testing8internal15ExpectationBaseES4_SaIS3_EET0_T_S7_S6_RT1_ = comdat any

$_ZSt14__relocate_a_1IPN7testing8internal15ExpectationBaseES3_ENSt9enable_ifIXsr3std24__is_bitwise_relocatableIT_EE5valueEPS5_E4typeES6_S6_S6_RSaIT0_E = comdat any

$_ZSt12__niter_baseIPPN7testing8internal15ExpectationBaseEET_S5_ = comdat any

$_ZNSt15__new_allocatorIPKN7testing8internal15ExpectationBaseEEC2Ev = comdat any

$_ZNSt6vectorIPKN7testing8internal15ExpectationBaseESaIS4_EE17_S_check_init_lenEmRKS5_ = comdat any

$_ZNSt12_Vector_baseIPKN7testing8internal15ExpectationBaseESaIS4_EEC2EmRKS5_ = comdat any

$_ZNSt6vectorIPKN7testing8internal15ExpectationBaseESaIS4_EE18_M_fill_initializeEmRKS4_ = comdat any

$_ZNSt12_Vector_baseIPKN7testing8internal15ExpectationBaseESaIS4_EED2Ev = comdat any

$_ZNSt6vectorIPKN7testing8internal15ExpectationBaseESaIS4_EE11_S_max_sizeERKS5_ = comdat any

$_ZNSaIPKN7testing8internal15ExpectationBaseEEC2ERKS4_ = comdat any

$_ZNSt16allocator_traitsISaIPKN7testing8internal15ExpectationBaseEEE8max_sizeERKS5_ = comdat any

$_ZNKSt15__new_allocatorIPKN7testing8internal15ExpectationBaseEE8max_sizeEv = comdat any

$_ZNKSt15__new_allocatorIPKN7testing8internal15ExpectationBaseEE11_M_max_sizeEv = comdat any

$_ZNSt15__new_allocatorIPKN7testing8internal15ExpectationBaseEEC2ERKS5_ = comdat any

$_ZNSt12_Vector_baseIPKN7testing8internal15ExpectationBaseESaIS4_EE12_Vector_implC2ERKS5_ = comdat any

$_ZNSt12_Vector_baseIPKN7testing8internal15ExpectationBaseESaIS4_EE17_M_create_storageEm = comdat any

$_ZNSt15__new_allocatorIPKN7testing8internal15ExpectationBaseEED2Ev = comdat any

$_ZNSt12_Vector_baseIPKN7testing8internal15ExpectationBaseESaIS4_EE17_Vector_impl_dataC2Ev = comdat any

$_ZNSt12_Vector_baseIPKN7testing8internal15ExpectationBaseESaIS4_EE11_M_allocateEm = comdat any

$_ZNSt16allocator_traitsISaIPKN7testing8internal15ExpectationBaseEEE8allocateERS5_m = comdat any

$_ZNSt15__new_allocatorIPKN7testing8internal15ExpectationBaseEE8allocateEmPKv = comdat any

$_ZSt24__uninitialized_fill_n_aIPPKN7testing8internal15ExpectationBaseEmS4_S4_ET_S6_T0_RKT1_RSaIT2_E = comdat any

$_ZNSt12_Vector_baseIPKN7testing8internal15ExpectationBaseESaIS4_EE19_M_get_Tp_allocatorEv = comdat any

$_ZSt20uninitialized_fill_nIPPKN7testing8internal15ExpectationBaseEmS4_ET_S6_T0_RKT1_ = comdat any

$_ZNSt22__uninitialized_fill_nILb1EE15__uninit_fill_nIPPKN7testing8internal15ExpectationBaseEmS6_EET_S8_T0_RKT1_ = comdat any

$_ZSt6fill_nIPPKN7testing8internal15ExpectationBaseEmS4_ET_S6_T0_RKT1_ = comdat any

$_ZSt10__fill_n_aIPPKN7testing8internal15ExpectationBaseEmS4_ET_S6_T0_RKT1_St26random_access_iterator_tag = comdat any

$_ZSt19__iterator_categoryIPPKN7testing8internal15ExpectationBaseEENSt15iterator_traitsIT_E17iterator_categoryERKS7_ = comdat any

$_ZSt8__fill_aIPPKN7testing8internal15ExpectationBaseES4_EvT_S6_RKT0_ = comdat any

$_ZSt9__fill_a1IPPKN7testing8internal15ExpectationBaseES4_EN9__gnu_cxx11__enable_ifIXsr11__is_scalarIT0_EE7__valueEvE6__typeET_SB_RKS8_ = comdat any

$_ZNSt12_Vector_baseIPKN7testing8internal15ExpectationBaseESaIS4_EE13_M_deallocateEPS4_m = comdat any

$_ZNSt16allocator_traitsISaIPKN7testing8internal15ExpectationBaseEEE10deallocateERS5_PS4_m = comdat any

$_ZNSt15__new_allocatorIPKN7testing8internal15ExpectationBaseEE10deallocateEPS4_m = comdat any

$_ZSt8_DestroyIPPKN7testing8internal15ExpectationBaseES4_EvT_S6_RSaIT0_E = comdat any

$_ZSt8_DestroyIPPKN7testing8internal15ExpectationBaseEEvT_S6_ = comdat any

$_ZNSt12_Destroy_auxILb1EE9__destroyIPPKN7testing8internal15ExpectationBaseEEEvT_S8_ = comdat any

$_ZN9__gnu_cxxeqIPKPKN7testing8internal15ExpectationBaseESt6vectorIS5_SaIS5_EEEEbRKNS_17__normal_iteratorIT_T0_EESG_ = comdat any

$_ZNKSt6vectorIPKN7testing8internal15ExpectationBaseESaIS4_EE5beginEv = comdat any

$_ZNKSt6vectorIPKN7testing8internal15ExpectationBaseESaIS4_EE3endEv = comdat any

$_ZNK9__gnu_cxx17__normal_iteratorIPKPKN7testing8internal15ExpectationBaseESt6vectorIS5_SaIS5_EEE4baseEv = comdat any

$_ZN9__gnu_cxx17__normal_iteratorIPKPKN7testing8internal15ExpectationBaseESt6vectorIS5_SaIS5_EEEC2ERKS7_ = comdat any

$_ZNSt6vectorIPKN7testing8internal15ExpectationBaseESaIS4_EE3endEv = comdat any

$_ZNK9__gnu_cxx17__normal_iteratorIPPKN7testing8internal15ExpectationBaseESt6vectorIS5_SaIS5_EEEmiEl = comdat any

$_ZNK9__gnu_cxx17__normal_iteratorIPPKN7testing8internal15ExpectationBaseESt6vectorIS5_SaIS5_EEEdeEv = comdat any

$_ZN9__gnu_cxx17__normal_iteratorIPPKN7testing8internal15ExpectationBaseESt6vectorIS5_SaIS5_EEEC2ERKS6_ = comdat any

$_ZNSt16allocator_traitsISaIPKN7testing8internal15ExpectationBaseEEE7destroyIS4_EEvRS5_PT_ = comdat any

$_ZNSt15__new_allocatorIPKN7testing8internal15ExpectationBaseEE7destroyIS4_EEvPT_ = comdat any

$_ZNSt16allocator_traitsISaIPKN7testing8internal15ExpectationBaseEEE9constructIS4_JRKS4_EEEvRS5_PT_DpOT0_ = comdat any

$_ZNSt6vectorIPKN7testing8internal15ExpectationBaseESaIS4_EE17_M_realloc_insertIJRKS4_EEEvN9__gnu_cxx17__normal_iteratorIPS4_S6_EEDpOT_ = comdat any

$_ZNSt15__new_allocatorIPKN7testing8internal15ExpectationBaseEE9constructIS4_JRKS4_EEEvPT_DpOT0_ = comdat any

$_ZNKSt6vectorIPKN7testing8internal15ExpectationBaseESaIS4_EE12_M_check_lenEmPKc = comdat any

$_ZN9__gnu_cxxmiIPPKN7testing8internal15ExpectationBaseESt6vectorIS5_SaIS5_EEEENS_17__normal_iteratorIT_T0_E15difference_typeERKSD_SG_ = comdat any

$_ZNSt6vectorIPKN7testing8internal15ExpectationBaseESaIS4_EE5beginEv = comdat any

$_ZNSt6vectorIPKN7testing8internal15ExpectationBaseESaIS4_EE11_S_relocateEPS4_S7_S7_RS5_ = comdat any

$_ZNK9__gnu_cxx17__normal_iteratorIPPKN7testing8internal15ExpectationBaseESt6vectorIS5_SaIS5_EEE4baseEv = comdat any

$_ZNKSt6vectorIPKN7testing8internal15ExpectationBaseESaIS4_EE8max_sizeEv = comdat any

$_ZNKSt6vectorIPKN7testing8internal15ExpectationBaseESaIS4_EE4sizeEv = comdat any

$_ZNKSt12_Vector_baseIPKN7testing8internal15ExpectationBaseESaIS4_EE19_M_get_Tp_allocatorEv = comdat any

$_ZSt12__relocate_aIPPKN7testing8internal15ExpectationBaseES5_SaIS4_EET0_T_S8_S7_RT1_ = comdat any

$_ZSt14__relocate_a_1IPKN7testing8internal15ExpectationBaseES4_ENSt9enable_ifIXsr3std24__is_bitwise_relocatableIT_EE5valueEPS6_E4typeES7_S7_S7_RSaIT0_E = comdat any

$_ZSt12__niter_baseIPPKN7testing8internal15ExpectationBaseEET_S6_ = comdat any

$_ZN7testing8internal11ThreadLocalIPNS_8SequenceEE9CreateKeyEv = comdat any

$_ZN7testing8internal11ThreadLocalIPNS_8SequenceEE25DefaultValueHolderFactoryC2Ev = comdat any

$_ZNSt10unique_ptrIN7testing8internal11ThreadLocalIPNS0_8SequenceEE18ValueHolderFactoryESt14default_deleteIS6_EEC2IS8_vEEPS6_ = comdat any

$DeleteThreadLocalValue = comdat any

$_ZN7testing8internal11ThreadLocalIPNS_8SequenceEE18ValueHolderFactoryC2Ev = comdat any

$_ZN7testing8internal11ThreadLocalIPNS_8SequenceEE18ValueHolderFactoryD2Ev = comdat any

$_ZN7testing8internal11ThreadLocalIPNS_8SequenceEE25DefaultValueHolderFactoryD0Ev = comdat any

$_ZNK7testing8internal11ThreadLocalIPNS_8SequenceEE25DefaultValueHolderFactory13MakeNewHolderEv = comdat any

$_ZN7testing8internal11ThreadLocalIPNS_8SequenceEE18ValueHolderFactoryD0Ev = comdat any

$_ZN7testing8internal11ThreadLocalIPNS_8SequenceEE11ValueHolderC2Ev = comdat any

$_ZN7testing8internal26ThreadLocalValueHolderBaseC2Ev = comdat any

$_ZN7testing8internal26ThreadLocalValueHolderBaseD2Ev = comdat any

$_ZN7testing8internal11ThreadLocalIPNS_8SequenceEE11ValueHolderD0Ev = comdat any

$_ZN7testing8internal26ThreadLocalValueHolderBaseD0Ev = comdat any

$_ZNSt15__uniq_ptr_dataIN7testing8internal11ThreadLocalIPNS0_8SequenceEE18ValueHolderFactoryESt14default_deleteIS6_ELb1ELb1EECI2St15__uniq_ptr_implIS6_S8_EEPS6_ = comdat any

$_ZNSt15__uniq_ptr_implIN7testing8internal11ThreadLocalIPNS0_8SequenceEE18ValueHolderFactoryESt14default_deleteIS6_EEC2EPS6_ = comdat any

$_ZNSt5tupleIJPN7testing8internal11ThreadLocalIPNS0_8SequenceEE18ValueHolderFactoryESt14default_deleteIS6_EEEC2ILb1ETnNSt9enable_ifIXclsr17_TupleConstraintsIXT_ES7_S9_EE37__is_implicitly_default_constructibleEEbE4typeELb1EEEv = comdat any

$_ZNSt15__uniq_ptr_implIN7testing8internal11ThreadLocalIPNS0_8SequenceEE18ValueHolderFactoryESt14default_deleteIS6_EE6_M_ptrEv = comdat any

$_ZNSt11_Tuple_implILm0EJPN7testing8internal11ThreadLocalIPNS0_8SequenceEE18ValueHolderFactoryESt14default_deleteIS6_EEEC2Ev = comdat any

$_ZNSt11_Tuple_implILm1EJSt14default_deleteIN7testing8internal11ThreadLocalIPNS1_8SequenceEE18ValueHolderFactoryEEEEC2Ev = comdat any

$_ZNSt10_Head_baseILm0EPN7testing8internal11ThreadLocalIPNS0_8SequenceEE18ValueHolderFactoryELb0EEC2Ev = comdat any

$_ZNSt10_Head_baseILm1ESt14default_deleteIN7testing8internal11ThreadLocalIPNS1_8SequenceEE18ValueHolderFactoryEELb1EEC2Ev = comdat any

$_ZSt3getILm0EJPN7testing8internal11ThreadLocalIPNS0_8SequenceEE18ValueHolderFactoryESt14default_deleteIS6_EEERNSt13tuple_elementIXT_ESt5tupleIJDpT0_EEE4typeERSE_ = comdat any

$_ZSt12__get_helperILm0EPN7testing8internal11ThreadLocalIPNS0_8SequenceEE18ValueHolderFactoryEJSt14default_deleteIS6_EEERT0_RSt11_Tuple_implIXT_EJSA_DpT1_EE = comdat any

$_ZNSt11_Tuple_implILm0EJPN7testing8internal11ThreadLocalIPNS0_8SequenceEE18ValueHolderFactoryESt14default_deleteIS6_EEE7_M_headERSA_ = comdat any

$_ZNSt10_Head_baseILm0EPN7testing8internal11ThreadLocalIPNS0_8SequenceEE18ValueHolderFactoryELb0EE7_M_headERS8_ = comdat any

$_ZNSt10unique_ptrIN7testing8internal11ThreadLocalIPNS0_8SequenceEE18ValueHolderFactoryESt14default_deleteIS6_EED2Ev = comdat any

$_ZNSt10unique_ptrIN7testing8internal11ThreadLocalIPNS0_8SequenceEE18ValueHolderFactoryESt14default_deleteIS6_EE11get_deleterEv = comdat any

$_ZNKSt14default_deleteIN7testing8internal11ThreadLocalIPNS0_8SequenceEE18ValueHolderFactoryEEclEPS6_ = comdat any

$_ZNSt15__uniq_ptr_implIN7testing8internal11ThreadLocalIPNS0_8SequenceEE18ValueHolderFactoryESt14default_deleteIS6_EE10_M_deleterEv = comdat any

$_ZSt3getILm1EJPN7testing8internal11ThreadLocalIPNS0_8SequenceEE18ValueHolderFactoryESt14default_deleteIS6_EEERNSt13tuple_elementIXT_ESt5tupleIJDpT0_EEE4typeERSE_ = comdat any

$_ZSt12__get_helperILm1ESt14default_deleteIN7testing8internal11ThreadLocalIPNS1_8SequenceEE18ValueHolderFactoryEEJEERT0_RSt11_Tuple_implIXT_EJS9_DpT1_EE = comdat any

$_ZNSt11_Tuple_implILm1EJSt14default_deleteIN7testing8internal11ThreadLocalIPNS1_8SequenceEE18ValueHolderFactoryEEEE7_M_headERS9_ = comdat any

$_ZNSt10_Head_baseILm1ESt14default_deleteIN7testing8internal11ThreadLocalIPNS1_8SequenceEE18ValueHolderFactoryEELb1EE7_M_headERS9_ = comdat any

$_ZSt8_DestroyIPSt10shared_ptrIN7testing8internal15ExpectationBaseEES4_EvT_S6_RSaIT0_E = comdat any

$_ZNSt12_Vector_baseISt10shared_ptrIN7testing8internal15ExpectationBaseEESaIS4_EE19_M_get_Tp_allocatorEv = comdat any

$_ZNSt12_Vector_baseISt10shared_ptrIN7testing8internal15ExpectationBaseEESaIS4_EED2Ev = comdat any

$_ZSt8_DestroyIPSt10shared_ptrIN7testing8internal15ExpectationBaseEEEvT_S6_ = comdat any

$_ZNSt12_Destroy_auxILb0EE9__destroyIPSt10shared_ptrIN7testing8internal15ExpectationBaseEEEEvT_S8_ = comdat any

$_ZSt8_DestroyISt10shared_ptrIN7testing8internal15ExpectationBaseEEEvPT_ = comdat any

$_ZNSt12_Vector_baseISt10shared_ptrIN7testing8internal15ExpectationBaseEESaIS4_EE13_M_deallocateEPS4_m = comdat any

$_ZNSt15__new_allocatorISt10shared_ptrIN7testing8internal15ExpectationBaseEEED2Ev = comdat any

$_ZNSt16allocator_traitsISaISt10shared_ptrIN7testing8internal15ExpectationBaseEEEE10deallocateERS5_PS4_m = comdat any

$_ZNSt15__new_allocatorISt10shared_ptrIN7testing8internal15ExpectationBaseEEE10deallocateEPS4_m = comdat any

$_ZN9__gnu_cxx17__normal_iteratorIPSt10shared_ptrIN7testing8internal15ExpectationBaseEESt6vectorIS5_SaIS5_EEEC2ERKS6_ = comdat any

$_ZNK9__gnu_cxx17__normal_iteratorIPSt10shared_ptrIN7testing8internal15ExpectationBaseEESt6vectorIS5_SaIS5_EEE4baseEv = comdat any

$_ZNK9__gnu_cxx17__normal_iteratorIPKSt10shared_ptrIN7testing8internal15ExpectationBaseEESt6vectorIS5_SaIS5_EEE4baseEv = comdat any

$_ZNSt12_Vector_baseISt10shared_ptrIN7testing8internal15ExpectationBaseEESaIS4_EE17_Vector_impl_data12_M_swap_dataERS7_ = comdat any

$_ZN9__gnu_cxx14__alloc_traitsISaISt10shared_ptrIN7testing8internal15ExpectationBaseEEES5_E10_S_on_swapERS6_S8_ = comdat any

$_ZNSt12_Vector_baseISt10shared_ptrIN7testing8internal15ExpectationBaseEESaIS4_EE17_Vector_impl_dataC2Ev = comdat any

$_ZNSt12_Vector_baseISt10shared_ptrIN7testing8internal15ExpectationBaseEESaIS4_EE17_Vector_impl_data12_M_copy_dataERKS7_ = comdat any

$_ZSt15__alloc_on_swapISaISt10shared_ptrIN7testing8internal15ExpectationBaseEEEEvRT_S7_ = comdat any

$_ZNSt6vectorISt10shared_ptrIN7testing8internal15ExpectationBaseEESaIS4_EE15_M_erase_at_endEPS4_ = comdat any

$_ZNSt10_HashtableImSt4pairIKmN7testing8internal12CallReactionEESaIS5_ENSt8__detail10_Select1stESt8equal_toImESt4hashImENS7_18_Mod_range_hashingENS7_20_Default_ranged_hashENS7_20_Prime_rehash_policyENS7_17_Hashtable_traitsILb0ELb0ELb1EEEE5eraseERS1_ = comdat any

$_ZNSt10_HashtableImSt4pairIKmN7testing8internal12CallReactionEESaIS5_ENSt8__detail10_Select1stESt8equal_toImESt4hashImENS7_18_Mod_range_hashingENS7_20_Default_ranged_hashENS7_20_Prime_rehash_policyENS7_17_Hashtable_traitsILb0ELb0ELb1EEEE8_M_eraseESt17integral_constantIbLb1EERS1_ = comdat any

$_ZNKSt10_HashtableImSt4pairIKmN7testing8internal12CallReactionEESaIS5_ENSt8__detail10_Select1stESt8equal_toImESt4hashImENS7_18_Mod_range_hashingENS7_20_Default_ranged_hashENS7_20_Prime_rehash_policyENS7_17_Hashtable_traitsILb0ELb0ELb1EEEE4sizeEv = comdat any

$_ZNSt10_HashtableImSt4pairIKmN7testing8internal12CallReactionEESaIS5_ENSt8__detail10_Select1stESt8equal_toImESt4hashImENS7_18_Mod_range_hashingENS7_20_Default_ranged_hashENS7_20_Prime_rehash_policyENS7_17_Hashtable_traitsILb0ELb0ELb1EEEE22__small_size_thresholdEv = comdat any

$_ZNSt10_HashtableImSt4pairIKmN7testing8internal12CallReactionEESaIS5_ENSt8__detail10_Select1stESt8equal_toImESt4hashImENS7_18_Mod_range_hashingENS7_20_Default_ranged_hashENS7_20_Prime_rehash_policyENS7_17_Hashtable_traitsILb0ELb0ELb1EEEE19_M_find_before_nodeERS1_ = comdat any

$_ZNSt10_HashtableImSt4pairIKmN7testing8internal12CallReactionEESaIS5_ENSt8__detail10_Select1stESt8equal_toImESt4hashImENS7_18_Mod_range_hashingENS7_20_Default_ranged_hashENS7_20_Prime_rehash_policyENS7_17_Hashtable_traitsILb0ELb0ELb1EEEE8_M_eraseEmPNS7_15_Hash_node_baseEPNS7_10_Hash_nodeIS5_Lb0EEE = comdat any

$_ZNSt8__detail22_Hashtable_hash_traitsISt4hashImEE22__small_size_thresholdEv = comdat any

$_ZNSt10_HashtableImSt4pairIKmN7testing8internal12CallReactionEESaIS5_ENSt8__detail10_Select1stESt8equal_toImESt4hashImENS7_18_Mod_range_hashingENS7_20_Default_ranged_hashENS7_20_Prime_rehash_policyENS7_17_Hashtable_traitsILb0ELb0ELb1EEEE22_M_remove_bucket_beginEmPNS7_10_Hash_nodeIS5_Lb0EEEm = comdat any

$_ZNKSt10_HashtableImSt4pairIKmN7testing8internal12CallReactionEESaIS5_ENSt8__detail10_Select1stESt8equal_toImESt4hashImENS7_18_Mod_range_hashingENS7_20_Default_ranged_hashENS7_20_Prime_rehash_policyENS7_17_Hashtable_traitsILb0ELb0ELb1EEEE5countERS1_ = comdat any

$_ZNKSt10_HashtableImSt4pairIKmN7testing8internal12CallReactionEESaIS5_ENSt8__detail10_Select1stESt8equal_toImESt4hashImENS7_18_Mod_range_hashingENS7_20_Default_ranged_hashENS7_20_Prime_rehash_policyENS7_17_Hashtable_traitsILb0ELb0ELb1EEEE4findERS1_ = comdat any

$_ZNKSt10_HashtableImSt4pairIKmN7testing8internal12CallReactionEESaIS5_ENSt8__detail10_Select1stESt8equal_toImESt4hashImENS7_18_Mod_range_hashingENS7_20_Default_ranged_hashENS7_20_Prime_rehash_policyENS7_17_Hashtable_traitsILb0ELb0ELb1EEEE5beginEv = comdat any

$_ZNSt8__detailneERKNS_19_Node_iterator_baseISt4pairIKmN7testing8internal12CallReactionEELb0EEES9_ = comdat any

$_ZNKSt10_HashtableImSt4pairIKmN7testing8internal12CallReactionEESaIS5_ENSt8__detail10_Select1stESt8equal_toImESt4hashImENS7_18_Mod_range_hashingENS7_20_Default_ranged_hashENS7_20_Prime_rehash_policyENS7_17_Hashtable_traitsILb0ELb0ELb1EEEE3endEv = comdat any

$_ZNSt8__detail20_Node_const_iteratorISt4pairIKmN7testing8internal12CallReactionEELb0ELb0EEppEv = comdat any

$_ZNSt8__detail20_Node_const_iteratorISt4pairIKmN7testing8internal12CallReactionEELb0ELb0EEC2EPNS_10_Hash_nodeIS6_Lb0EEE = comdat any

$_ZNSt8__detail19_Node_iterator_baseISt4pairIKmN7testing8internal12CallReactionEELb0EE7_M_incrEv = comdat any

$_ZNSt8__detail9_Map_baseImSt4pairIKmN7testing8internal12CallReactionEESaIS6_ENS_10_Select1stESt8equal_toImESt4hashImENS_18_Mod_range_hashingENS_20_Default_ranged_hashENS_20_Prime_rehash_policyENS_17_Hashtable_traitsILb0ELb0ELb1EEELb1EEixEOm = comdat any

$_ZSt16forward_as_tupleIJmEESt5tupleIJDpOT_EES3_ = comdat any

$_ZNSt10_HashtableImSt4pairIKmN7testing8internal12CallReactionEESaIS5_ENSt8__detail10_Select1stESt8equal_toImESt4hashImENS7_18_Mod_range_hashingENS7_20_Default_ranged_hashENS7_20_Prime_rehash_policyENS7_17_Hashtable_traitsILb0ELb0ELb1EEEE12_Scoped_nodeC2IJRKSt21piecewise_construct_tSt5tupleIJOmEESO_IJEEEEEPNS7_16_Hashtable_allocISaINS7_10_Hash_nodeIS5_Lb0EEEEEEDpOT_ = comdat any

$_ZNSt5tupleIJOmEEC2IJmELb1ETnNSt9enable_ifIXclsr4_TCCIXT0_EEE29__is_implicitly_constructibleIDpT_EEEbE4typeELb1EEEDpOS4_ = comdat any

$_ZNSt11_Tuple_implILm0EJOmEEC2ImEEOT_ = comdat any

$_ZNSt10_Head_baseILm0EOmLb0EEC2ImEEOT_ = comdat any

$_ZNSt8__detail16_Hashtable_allocISaINS_10_Hash_nodeISt4pairIKmN7testing8internal12CallReactionEELb0EEEEE16_M_allocate_nodeIJRKSt21piecewise_construct_tSt5tupleIJOmEESF_IJEEEEEPS8_DpOT_ = comdat any

$_ZNSt16allocator_traitsISaINSt8__detail10_Hash_nodeISt4pairIKmN7testing8internal12CallReactionEELb0EEEEE9constructIS7_JRKSt21piecewise_construct_tSt5tupleIJOmEESF_IJEEEEEvRS9_PT_DpOT0_ = comdat any

$_ZNSt15__new_allocatorINSt8__detail10_Hash_nodeISt4pairIKmN7testing8internal12CallReactionEELb0EEEE9constructIS7_JRKSt21piecewise_construct_tSt5tupleIJOmEESE_IJEEEEEvPT_DpOT0_ = comdat any

$_ZNSt5tupleIJOmEEC2EOS1_ = comdat any

$_ZNSt4pairIKmN7testing8internal12CallReactionEEC2IJOmEJEEESt21piecewise_construct_tSt5tupleIJDpT_EES8_IJDpT0_EE = comdat any

$_ZNSt11_Tuple_implILm0EJOmEEC2EOS1_ = comdat any

$_ZNSt4pairIKmN7testing8internal12CallReactionEEC2IJOmEJLm0EEJETpTnmJEEERSt5tupleIJDpT_EERS7_IJDpT1_EESt12_Index_tupleIJXspT0_EEESG_IJXspT2_EEE = comdat any

$_ZSt3getILm0EJOmEERNSt13tuple_elementIXT_ESt5tupleIJDpT0_EEE4typeERS5_ = comdat any

$_ZSt12__get_helperILm0EOmJEERT0_RSt11_Tuple_implIXT_EJS1_DpT1_EE = comdat any

$_ZNSt11_Tuple_implILm0EJOmEE7_M_headERS1_ = comdat any

$_ZNSt10_Head_baseILm0EOmLb0EE7_M_headERS1_ = comdat any

$_ZNKSt4lessIPKvEclES1_S1_ = comdat any

$_ZNSt5tupleIJRKPKvEEC2ILb1ETnNSt9enable_ifIXclsr4_TCCIXT_EEE29__is_implicitly_constructibleIS3_EEEbE4typeELb1EEES3_ = comdat any

$_ZNSt5tupleIJRKPKvEEC2EOS4_ = comdat any

$_ZNSt11_Tuple_implILm0EJRKPKvEEC2EOS4_ = comdat any

$_ZSt3getILm0EJRKPKvEERNSt13tuple_elementIXT_ESt5tupleIJDpT0_EEE4typeERS8_ = comdat any

$_ZSt12__get_helperILm0ERKPKvJEERT0_RSt11_Tuple_implIXT_EJS4_DpT1_EE = comdat any

$_ZNSt11_Tuple_implILm0EJRKPKvEE7_M_headERS4_ = comdat any

$_ZNSt10_Head_baseILm0ERKPKvLb0EE7_M_headERS4_ = comdat any

$_ZNSt3setIPN7testing8internal25UntypedFunctionMockerBaseESt4lessIS3_ESaIS3_EEC2Ev = comdat any

$_ZNSt8_Rb_treeIPN7testing8internal25UntypedFunctionMockerBaseES3_St9_IdentityIS3_ESt4lessIS3_ESaIS3_EEC2Ev = comdat any

$_ZNSt8_Rb_treeIPN7testing8internal25UntypedFunctionMockerBaseES3_St9_IdentityIS3_ESt4lessIS3_ESaIS3_EE13_Rb_tree_implIS7_Lb1EEC2Ev = comdat any

$_ZNSaISt13_Rb_tree_nodeIPN7testing8internal25UntypedFunctionMockerBaseEEEC2Ev = comdat any

$_ZNSt20_Rb_tree_key_compareISt4lessIPN7testing8internal25UntypedFunctionMockerBaseEEEC2Ev = comdat any

$_ZNSt15__new_allocatorISt13_Rb_tree_nodeIPN7testing8internal25UntypedFunctionMockerBaseEEEC2Ev = comdat any

$_ZNSt4pairIPSt18_Rb_tree_node_baseS1_EC2IRS1_S4_TnNSt9enable_ifIXaaclsr5_PCCPE22_MoveConstructiblePairIT_T0_EEclsr5_PCCPE30_ImplicitlyMoveConvertiblePairIS6_S7_EEEbE4typeELb1EEEOS6_OS7_ = comdat any

$_ZNSt11_Tuple_implILm0EJRKPKvEEC2ES3_ = comdat any

$_ZNSt10_Head_baseILm0ERKPKvLb0EEC2ES3_ = comdat any

$_ZNKSt8_Rb_treeIPN7testing8internal25UntypedFunctionMockerBaseES3_St9_IdentityIS3_ESt4lessIS3_ESaIS3_EE5beginEv = comdat any

$_ZNSt23_Rb_tree_const_iteratorIPN7testing8internal25UntypedFunctionMockerBaseEEC2EPKSt18_Rb_tree_node_base = comdat any

$_ZNKSt8_Rb_treeIPN7testing8internal25UntypedFunctionMockerBaseES3_St9_IdentityIS3_ESt4lessIS3_ESaIS3_EE3endEv = comdat any

$_ZNKSt13_Rb_tree_nodeIPN7testing8internal25UntypedFunctionMockerBaseEE9_M_valptrEv = comdat any

$_ZNK9__gnu_cxx16__aligned_membufIPN7testing8internal25UntypedFunctionMockerBaseEE6_M_ptrEv = comdat any

$_ZNK9__gnu_cxx16__aligned_membufIPN7testing8internal25UntypedFunctionMockerBaseEE7_M_addrEv = comdat any

$_ZNSt8_Rb_treeIPN7testing8internal25UntypedFunctionMockerBaseES3_St9_IdentityIS3_ESt4lessIS3_ESaIS3_EE16_M_insert_uniqueIRKS3_EESt4pairISt17_Rb_tree_iteratorIS3_EbEOT_ = comdat any

$_ZNSt4pairISt23_Rb_tree_const_iteratorIPN7testing8internal25UntypedFunctionMockerBaseEEbEC2IRSt17_Rb_tree_iteratorIS4_ERbTnNSt9enable_ifIXaaclsr5_PCCPE22_MoveConstructiblePairIT_T0_EEclsr5_PCCPE30_ImplicitlyMoveConvertiblePairISD_SE_EEEbE4typeELb1EEEOSD_OSE_ = comdat any

$_ZNSt8_Rb_treeIPN7testing8internal25UntypedFunctionMockerBaseES3_St9_IdentityIS3_ESt4lessIS3_ESaIS3_EE24_M_get_insert_unique_posERKS3_ = comdat any

$_ZNKSt9_IdentityIPN7testing8internal25UntypedFunctionMockerBaseEEclERKS3_ = comdat any

$_ZNSt8_Rb_treeIPN7testing8internal25UntypedFunctionMockerBaseES3_St9_IdentityIS3_ESt4lessIS3_ESaIS3_EE11_Alloc_nodeC2ERS9_ = comdat any

$_ZNSt8_Rb_treeIPN7testing8internal25UntypedFunctionMockerBaseES3_St9_IdentityIS3_ESt4lessIS3_ESaIS3_EE10_M_insert_IRKS3_NS9_11_Alloc_nodeEEESt17_Rb_tree_iteratorIS3_EPSt18_Rb_tree_node_baseSH_OT_RT0_ = comdat any

$_ZNSt4pairISt17_Rb_tree_iteratorIPN7testing8internal25UntypedFunctionMockerBaseEEbEC2IS5_bTnNSt9enable_ifIXaaclsr5_PCCPE22_MoveConstructiblePairIT_T0_EEclsr5_PCCPE30_ImplicitlyMoveConvertiblePairIS9_SA_EEEbE4typeELb1EEEOS9_OSA_ = comdat any

$_ZNSt17_Rb_tree_iteratorIPN7testing8internal25UntypedFunctionMockerBaseEEC2EPSt18_Rb_tree_node_base = comdat any

$_ZNSt8_Rb_treeIPN7testing8internal25UntypedFunctionMockerBaseES3_St9_IdentityIS3_ESt4lessIS3_ESaIS3_EE6_M_endEv = comdat any

$_ZNKSt4lessIPN7testing8internal25UntypedFunctionMockerBaseEEclES3_S3_ = comdat any

$_ZNSt8_Rb_treeIPN7testing8internal25UntypedFunctionMockerBaseES3_St9_IdentityIS3_ESt4lessIS3_ESaIS3_EE6_S_keyEPKSt13_Rb_tree_nodeIS3_E = comdat any

$_ZSteqRKSt17_Rb_tree_iteratorIPN7testing8internal25UntypedFunctionMockerBaseEES6_ = comdat any

$_ZNSt8_Rb_treeIPN7testing8internal25UntypedFunctionMockerBaseES3_St9_IdentityIS3_ESt4lessIS3_ESaIS3_EE5beginEv = comdat any

$_ZNSt4pairIPSt18_Rb_tree_node_baseS1_EC2IRPSt13_Rb_tree_nodeIPN7testing8internal25UntypedFunctionMockerBaseEERS1_TnNSt9enable_ifIXaaclsr5_PCCPE22_MoveConstructiblePairIT_T0_EEclsr5_PCCPE30_ImplicitlyMoveConvertiblePairISE_SF_EEEbE4typeELb1EEEOSE_OSF_ = comdat any

$_ZNSt17_Rb_tree_iteratorIPN7testing8internal25UntypedFunctionMockerBaseEEmmEv = comdat any

$_ZNSt8_Rb_treeIPN7testing8internal25UntypedFunctionMockerBaseES3_St9_IdentityIS3_ESt4lessIS3_ESaIS3_EE6_S_keyEPKSt18_Rb_tree_node_base = comdat any

$_ZNKSt8_Rb_treeIPN7testing8internal25UntypedFunctionMockerBaseES3_St9_IdentityIS3_ESt4lessIS3_ESaIS3_EE11_Alloc_nodeclIRKS3_EEPSt13_Rb_tree_nodeIS3_EOT_ = comdat any

$_ZNSt8_Rb_treeIPN7testing8internal25UntypedFunctionMockerBaseES3_St9_IdentityIS3_ESt4lessIS3_ESaIS3_EE14_M_create_nodeIJRKS3_EEEPSt13_Rb_tree_nodeIS3_EDpOT_ = comdat any

$_ZNSt8_Rb_treeIPN7testing8internal25UntypedFunctionMockerBaseES3_St9_IdentityIS3_ESt4lessIS3_ESaIS3_EE11_M_get_nodeEv = comdat any

$_ZNSt8_Rb_treeIPN7testing8internal25UntypedFunctionMockerBaseES3_St9_IdentityIS3_ESt4lessIS3_ESaIS3_EE17_M_construct_nodeIJRKS3_EEEvPSt13_Rb_tree_nodeIS3_EDpOT_ = comdat any

$_ZNSt16allocator_traitsISaISt13_Rb_tree_nodeIPN7testing8internal25UntypedFunctionMockerBaseEEEE8allocateERS6_m = comdat any

$_ZNSt15__new_allocatorISt13_Rb_tree_nodeIPN7testing8internal25UntypedFunctionMockerBaseEEE8allocateEmPKv = comdat any

$_ZNKSt15__new_allocatorISt13_Rb_tree_nodeIPN7testing8internal25UntypedFunctionMockerBaseEEE11_M_max_sizeEv = comdat any

$_ZNSt16allocator_traitsISaISt13_Rb_tree_nodeIPN7testing8internal25UntypedFunctionMockerBaseEEEE9constructIS4_JRKS4_EEEvRS6_PT_DpOT0_ = comdat any

$_ZNSt15__new_allocatorISt13_Rb_tree_nodeIPN7testing8internal25UntypedFunctionMockerBaseEEE9constructIS4_JRKS4_EEEvPT_DpOT0_ = comdat any

$_ZNSt23_Rb_tree_const_iteratorIPN7testing8internal25UntypedFunctionMockerBaseEEC2ERKSt17_Rb_tree_iteratorIS3_E = comdat any

$_ZNSt8_Rb_treeIPN7testing8internal25UntypedFunctionMockerBaseES3_St9_IdentityIS3_ESt4lessIS3_ESaIS3_EE5eraseERKS3_ = comdat any

$_ZNSt8_Rb_treeIPN7testing8internal25UntypedFunctionMockerBaseES3_St9_IdentityIS3_ESt4lessIS3_ESaIS3_EE11equal_rangeERKS3_ = comdat any

$_ZNKSt8_Rb_treeIPN7testing8internal25UntypedFunctionMockerBaseES3_St9_IdentityIS3_ESt4lessIS3_ESaIS3_EE4sizeEv = comdat any

$_ZNSt8_Rb_treeIPN7testing8internal25UntypedFunctionMockerBaseES3_St9_IdentityIS3_ESt4lessIS3_ESaIS3_EE12_M_erase_auxESt23_Rb_tree_const_iteratorIS3_ESB_ = comdat any

$_ZNSt8_Rb_treeIPN7testing8internal25UntypedFunctionMockerBaseES3_St9_IdentityIS3_ESt4lessIS3_ESaIS3_EE14_M_lower_boundEPSt13_Rb_tree_nodeIS3_EPSt18_Rb_tree_node_baseRKS3_ = comdat any

$_ZNSt8_Rb_treeIPN7testing8internal25UntypedFunctionMockerBaseES3_St9_IdentityIS3_ESt4lessIS3_ESaIS3_EE14_M_upper_boundEPSt13_Rb_tree_nodeIS3_EPSt18_Rb_tree_node_baseRKS3_ = comdat any

$_ZNSt4pairISt17_Rb_tree_iteratorIPN7testing8internal25UntypedFunctionMockerBaseEES5_EC2IS5_S5_TnNSt9enable_ifIXaaclsr5_PCCPE22_MoveConstructiblePairIT_T0_EEclsr5_PCCPE30_ImplicitlyMoveConvertiblePairIS9_SA_EEEbE4typeELb1EEEOS9_OSA_ = comdat any

$_ZSteqRKSt23_Rb_tree_const_iteratorIPN7testing8internal25UntypedFunctionMockerBaseEES6_ = comdat any

$_ZNSt8_Rb_treeIPN7testing8internal25UntypedFunctionMockerBaseES3_St9_IdentityIS3_ESt4lessIS3_ESaIS3_EE3endEv = comdat any

$_ZNSt8_Rb_treeIPN7testing8internal25UntypedFunctionMockerBaseES3_St9_IdentityIS3_ESt4lessIS3_ESaIS3_EE5clearEv = comdat any

$_ZNSt8_Rb_treeIPN7testing8internal25UntypedFunctionMockerBaseES3_St9_IdentityIS3_ESt4lessIS3_ESaIS3_EE12_M_erase_auxESt23_Rb_tree_const_iteratorIS3_E = comdat any

$_ZNSt23_Rb_tree_const_iteratorIPN7testing8internal25UntypedFunctionMockerBaseEEppEi = comdat any

$_ZNKSt8_Rb_treeIPN7testing8internal25UntypedFunctionMockerBaseES3_St9_IdentityIS3_ESt4lessIS3_ESaIS3_EE5emptyEv = comdat any

$_ZNKSt19__shared_ptr_accessIN7testing11ExpectationELN9__gnu_cxx12_Lock_policyE2ELb0ELb0EE6_M_getEv = comdat any

$_ZNKSt12__shared_ptrIN7testing11ExpectationELN9__gnu_cxx12_Lock_policyE2EE3getEv = comdat any

$_ZNKSt12__shared_ptrIN7testing8internal15ExpectationBaseELN9__gnu_cxx12_Lock_policyE2EEcvbEv = comdat any

$_ZNKSt19__shared_ptr_accessIN7testing8internal15ExpectationBaseELN9__gnu_cxx12_Lock_policyE2ELb0ELb0EE6_M_getEv = comdat any

$_ZNK7testing8internal11ThreadLocalIPNS_8SequenceEE7pointerEv = comdat any

$_ZNK7testing8internal11ThreadLocalIPNS_8SequenceEE16GetOrCreateValueEv = comdat any

$_ZN7testing8internal27CheckedDowncastToActualTypeINS0_11ThreadLocalIPNS_8SequenceEE11ValueHolderENS0_26ThreadLocalValueHolderBaseEEEPT_PT0_ = comdat any

$_ZN7testing8internal11ThreadLocalIPNS_8SequenceEE11ValueHolder7pointerEv = comdat any

$_ZNKSt10unique_ptrIN7testing8internal11ThreadLocalIPNS0_8SequenceEE18ValueHolderFactoryESt14default_deleteIS6_EEptEv = comdat any

$_ZNKSt10unique_ptrIN7testing8internal11ThreadLocalIPNS0_8SequenceEE18ValueHolderFactoryESt14default_deleteIS6_EE3getEv = comdat any

$_ZNKSt15__uniq_ptr_implIN7testing8internal11ThreadLocalIPNS0_8SequenceEE18ValueHolderFactoryESt14default_deleteIS6_EE6_M_ptrEv = comdat any

$_ZSt3getILm0EJPN7testing8internal11ThreadLocalIPNS0_8SequenceEE18ValueHolderFactoryESt14default_deleteIS6_EEERKNSt13tuple_elementIXT_ESt5tupleIJDpT0_EEE4typeERKSE_ = comdat any

$_ZSt12__get_helperILm0EPN7testing8internal11ThreadLocalIPNS0_8SequenceEE18ValueHolderFactoryEJSt14default_deleteIS6_EEERKT0_RKSt11_Tuple_implIXT_EJSA_DpT1_EE = comdat any

$_ZNSt11_Tuple_implILm0EJPN7testing8internal11ThreadLocalIPNS0_8SequenceEE18ValueHolderFactoryESt14default_deleteIS6_EEE7_M_headERKSA_ = comdat any

$_ZNSt10_Head_baseILm0EPN7testing8internal11ThreadLocalIPNS0_8SequenceEE18ValueHolderFactoryELb0EE7_M_headERKS8_ = comdat any

$_ZN7testing8internal11ThreadLocalIPNS_8SequenceEE7pointerEv = comdat any

$_ZN7testing8internal18StreamableToStringIPcEENSt7__cxx1112basic_stringIcSt11char_traitsIcESaIcEEERKT_ = comdat any

$_ZN7testing7MessagelsIcEERS0_RKPT_ = comdat any

$_ZN7testing7MessagelsIA21_cEERS0_RKT_ = comdat any

$_ZN7testing8internal18StreamableToStringIPwEENSt7__cxx1112basic_stringIcSt11char_traitsIcESaIcEEERKT_ = comdat any

$_ZTIN7testing20CardinalityInterfaceE = comdat any

$_ZTSN7testing20CardinalityInterfaceE = comdat any

$_ZTVN7testing20CardinalityInterfaceE = comdat any

$_ZTVSt15_Sp_counted_ptrIPKN7testing20CardinalityInterfaceELN9__gnu_cxx12_Lock_policyE2EE = comdat any

$_ZTISt15_Sp_counted_ptrIPKN7testing20CardinalityInterfaceELN9__gnu_cxx12_Lock_policyE2EE = comdat any

$_ZTSSt15_Sp_counted_ptrIPKN7testing20CardinalityInterfaceELN9__gnu_cxx12_Lock_policyE2EE = comdat any

$_ZTISt16_Sp_counted_baseILN9__gnu_cxx12_Lock_policyE2EE = comdat any

$_ZTSSt16_Sp_counted_baseILN9__gnu_cxx12_Lock_policyE2EE = comdat any

$_ZTISt11_Mutex_baseILN9__gnu_cxx12_Lock_policyE2EE = comdat any

$_ZTSSt11_Mutex_baseILN9__gnu_cxx12_Lock_policyE2EE = comdat any

$_ZTVSt16_Sp_counted_baseILN9__gnu_cxx12_Lock_policyE2EE = comdat any

$_ZTVN7testing8internal25GoogleTestFailureReporterE = comdat any

$_ZTIN7testing8internal25GoogleTestFailureReporterE = comdat any

$_ZTSN7testing8internal25GoogleTestFailureReporterE = comdat any

$_ZTIN7testing8internal24FailureReporterInterfaceE = comdat any

$_ZTSN7testing8internal24FailureReporterInterfaceE = comdat any

$_ZTVN7testing8internal24FailureReporterInterfaceE = comdat any

$_ZSt19piecewise_construct = comdat any

$_ZTVSt15_Sp_counted_ptrIPN7testing11ExpectationELN9__gnu_cxx12_Lock_policyE2EE = comdat any

$_ZTISt15_Sp_counted_ptrIPN7testing11ExpectationELN9__gnu_cxx12_Lock_policyE2EE = comdat any

$_ZTSSt15_Sp_counted_ptrIPN7testing11ExpectationELN9__gnu_cxx12_Lock_policyE2EE = comdat any

$_ZTVN7testing8internal11ThreadLocalIPNS_8SequenceEE25DefaultValueHolderFactoryE = comdat any

$_ZTIN7testing8internal11ThreadLocalIPNS_8SequenceEE25DefaultValueHolderFactoryE = comdat any

$_ZTSN7testing8internal11ThreadLocalIPNS_8SequenceEE25DefaultValueHolderFactoryE = comdat any

$_ZTIN7testing8internal11ThreadLocalIPNS_8SequenceEE18ValueHolderFactoryE = comdat any

$_ZTSN7testing8internal11ThreadLocalIPNS_8SequenceEE18ValueHolderFactoryE = comdat any

$_ZTVN7testing8internal11ThreadLocalIPNS_8SequenceEE18ValueHolderFactoryE = comdat any

$_ZTVN7testing8internal11ThreadLocalIPNS_8SequenceEE11ValueHolderE = comdat any

$_ZTIN7testing8internal11ThreadLocalIPNS_8SequenceEE11ValueHolderE = comdat any

$_ZTSN7testing8internal11ThreadLocalIPNS_8SequenceEE11ValueHolderE = comdat any

$_ZTIN7testing8internal26ThreadLocalValueHolderBaseE = comdat any

$_ZTSN7testing8internal26ThreadLocalValueHolderBaseE = comdat any

$_ZTVN7testing8internal26ThreadLocalValueHolderBaseE = comdat any

@_ZStL8__ioinit = internal global %"class.std::ios_base::Init" zeroinitializer, align 1
@__dso_handle = external hidden global i8
@.str = private unnamed_addr constant [8 x i8] c"called \00", align 1
@.str.1 = private unnamed_addr constant [13 x i8] c"never called\00", align 1
@.str.2 = private unnamed_addr constant [153 x i8] c"generated/home/dtcxzyw/WorkSpace/Projects/compilers/llvm-opt-benchmark/bench/abc/bench_build/_deps/googletest-src/googlemock/src/gmock-internal-utils.cc\00", align 1
@.str.3 = private unnamed_addr constant [49 x i8] c"Condition names.size() == values.size() failed. \00", align 1
@.str.4 = private unnamed_addr constant [1 x i8] zeroinitializer, align 1
@.str.5 = private unnamed_addr constant [2 x i8] c"(\00", align 1
@.str.6 = private unnamed_addr constant [3 x i8] c", \00", align 1
@.str.7 = private unnamed_addr constant [2 x i8] c")\00", align 1
@_ZZN7testing8internal18GetFailureReporterEvE16failure_reporter = internal global ptr null, align 8
@_ZGVZN7testing8internal18GetFailureReporterEvE16failure_reporter = internal global i64 0, align 8
@_ZN7testing19FLAGS_gmock_verboseB5cxx11E = global %"class.std::__cxx11::basic_string" zeroinitializer, align 8
@_ZN7testing8internalL14kInfoVerbosityE = internal constant [5 x i8] c"info\00", align 1
@_ZN7testing8internalL15kErrorVerbosityE = internal constant [6 x i8] c"error\00", align 1
@_ZN7testing8internalL11g_log_mutexE = internal global %"class.testing::internal::MutexBase" zeroinitializer, align 8
@_ZSt4cout = external global %"class.std::basic_ostream", align 8
@.str.8 = private unnamed_addr constant [16 x i8] c"\0AGMOCK WARNING:\00", align 1
@.str.9 = private unnamed_addr constant [2 x i8] c"\0A\00", align 1
@.str.10 = private unnamed_addr constant [14 x i8] c"Stack trace:\0A\00", align 1
@.str.11 = private unnamed_addr constant [263 x i8] c"You are using DoDefault() inside a composite action like DoAll() or WithArgs().  This is not supported for technical reasons.  Please instead spell out the default action, or assign the default action to an Action variable and use the variable in various places.\00", align 1
@_ZN7testing8internalL9kUnBase64E = internal constant %"struct.std::array" { [256 x i8] c"AAAAAAAAAAAAAAAAAAAAAAAAAAAAAAAAAAAAAAAAAAA>A>A?456789:;<=AAAAAAA\00\01\02\03\04\05\06\07\08\09\0A\0B\0C\0D\0E\0F\10\11\12\13\14\15\16\17\18\19AAAA?A\1A\1B\1C\1D\1E\1F !\22#$%&'()*+,-./0123AAAAAAAAAAAAAAAAAAAAAAAAAAAAAAAAAAAAAAAAAAAAAAAAAAAAAAAAAAAAAAAAAAAAAAAAAAAAAAAAAAAAAAAAAAAAAAAAAAAAAAAAAAAAAAAAAAAAAAAAAAAAAAAAAAAAA" }, align 1
@.str.12 = private unnamed_addr constant [2 x i8] c" \00", align 1
@.str.13 = private unnamed_addr constant [6 x i8] c"not (\00", align 1
@_ZN7testing8internal22MaxBipartiteMatchState7kUnusedE = constant i64 -1, align 8
@.str.14 = private unnamed_addr constant [2 x i8] c";\00", align 1
@.str.15 = private unnamed_addr constant [9 x i8] c"is empty\00", align 1
@.str.16 = private unnamed_addr constant [5 x i8] c"has \00", align 1
@.str.17 = private unnamed_addr constant [19 x i8] c" and that element \00", align 1
@.str.18 = private unnamed_addr constant [59 x i8] c" and there exists some permutation of elements such that:\0A\00", align 1
@.str.19 = private unnamed_addr constant [62 x i8] c"a surjection from elements to requirements exists such that:\0A\00", align 1
@.str.20 = private unnamed_addr constant [62 x i8] c"an injection from elements to requirements exists such that:\0A\00", align 1
@.str.21 = private unnamed_addr constant [13 x i8] c" - element #\00", align 1
@.str.22 = private unnamed_addr constant [15 x i8] c" - an element \00", align 1
@.str.23 = private unnamed_addr constant [7 x i8] c", and\0A\00", align 1
@.str.24 = private unnamed_addr constant [12 x i8] c"isn't empty\00", align 1
@.str.25 = private unnamed_addr constant [14 x i8] c"doesn't have \00", align 1
@.str.26 = private unnamed_addr constant [10 x i8] c", or has \00", align 1
@.str.27 = private unnamed_addr constant [7 x i8] c" that \00", align 1
@.str.28 = private unnamed_addr constant [57 x i8] c", or there exists no permutation of elements such that:\0A\00", align 1
@.str.29 = private unnamed_addr constant [63 x i8] c"no surjection from elements to requirements exists such that:\0A\00", align 1
@.str.30 = private unnamed_addr constant [62 x i8] c"no injection from elements to requirements exists such that:\0A\00", align 1
@.str.31 = private unnamed_addr constant [11 x i8] c"which has \00", align 1
@.str.32 = private unnamed_addr constant [56 x i8] c"where the following matchers don't match any elements:\0A\00", align 1
@.str.33 = private unnamed_addr constant [10 x i8] c"matcher #\00", align 1
@.str.34 = private unnamed_addr constant [3 x i8] c": \00", align 1
@.str.35 = private unnamed_addr constant [3 x i8] c",\0A\00", align 1
@.str.36 = private unnamed_addr constant [56 x i8] c"where the following elements don't match any matchers:\0A\00", align 1
@.str.37 = private unnamed_addr constant [6 x i8] c"\0Aand \00", align 1
@.str.38 = private unnamed_addr constant [10 x i8] c"element #\00", align 1
@.str.39 = private unnamed_addr constant [89 x i8] c"where no permutation of the elements can satisfy all matchers, and the closest match is \00", align 1
@.str.40 = private unnamed_addr constant [5 x i8] c" of \00", align 1
@.str.41 = private unnamed_addr constant [30 x i8] c" matchers with the pairings:\0A\00", align 1
@.str.42 = private unnamed_addr constant [65 x i8] c"where not all elements can be matched, and the closest match is \00", align 1
@.str.43 = private unnamed_addr constant [8 x i8] c"where:\0A\00", align 1
@.str.44 = private unnamed_addr constant [25 x i8] c" is matched by matcher #\00", align 1
@_ZN7testing8internal13g_gmock_mutexE = global %"class.testing::internal::MutexBase" zeroinitializer, align 8
@_ZTVN7testing8internal15ExpectationBaseE = unnamed_addr constant { [6 x ptr] } { [6 x ptr] [ptr null, ptr @_ZTIN7testing8internal15ExpectationBaseE, ptr @_ZN7testing8internal15ExpectationBaseD1Ev, ptr @_ZN7testing8internal15ExpectationBaseD0Ev, ptr @__cxa_pure_virtual, ptr @__cxa_pure_virtual] }, align 8
@.str.45 = private unnamed_addr constant [26 x i8] c"         Expected: to be \00", align 1
@.str.46 = private unnamed_addr constant [21 x i8] c"\0A           Actual: \00", align 1
@.str.47 = private unnamed_addr constant [4 x i8] c" - \00", align 1
@.str.48 = private unnamed_addr constant [15 x i8] c"over-saturated\00", align 1
@.str.49 = private unnamed_addr constant [10 x i8] c"saturated\00", align 1
@.str.50 = private unnamed_addr constant [10 x i8] c"satisfied\00", align 1
@.str.51 = private unnamed_addr constant [12 x i8] c"unsatisfied\00", align 1
@.str.52 = private unnamed_addr constant [6 x i8] c" and \00", align 1
@.str.53 = private unnamed_addr constant [8 x i8] c"retired\00", align 1
@.str.54 = private unnamed_addr constant [7 x i8] c"active\00", align 1
@.str.55 = private unnamed_addr constant [5 x i8] c"Too \00", align 1
@.str.56 = private unnamed_addr constant [5 x i8] c"many\00", align 1
@.str.57 = private unnamed_addr constant [4 x i8] c"few\00", align 1
@.str.58 = private unnamed_addr constant [23 x i8] c" actions specified in \00", align 1
@.str.59 = private unnamed_addr constant [5 x i8] c"...\0A\00", align 1
@.str.60 = private unnamed_addr constant [16 x i8] c"Expected to be \00", align 1
@.str.61 = private unnamed_addr constant [11 x i8] c", but has \00", align 1
@.str.62 = private unnamed_addr constant [6 x i8] c"only \00", align 1
@.str.63 = private unnamed_addr constant [12 x i8] c" WillOnce()\00", align 1
@.str.64 = private unnamed_addr constant [2 x i8] c"s\00", align 1
@.str.65 = private unnamed_addr constant [24 x i8] c" and a WillRepeatedly()\00", align 1
@.str.66 = private unnamed_addr constant [2 x i8] c".\00", align 1
@.str.67 = private unnamed_addr constant [59 x i8] c".Times() cannot appear more than once in an EXPECT_CALL().\00", align 1
@.str.68 = private unnamed_addr constant [119 x i8] c".Times() may only appear *before* .InSequence(), .WillOnce(), .WillRepeatedly(), or .RetiresOnSaturation(), not after.\00", align 1
@_ZN7testing8internal25g_gmock_implicit_sequenceE = global %"class.testing::internal::ThreadLocal" zeroinitializer, align 8
@.str.70 = private unnamed_addr constant [300 x i8] c"\0ANOTE: You can safely ignore the above warning unless this call should not happen.  Do not suppress it by blindly adding an EXPECT_CALL() if you don't mean to enforce the call.  See https://github.com/google/googletest/blob/main/docs/gmock_cook_book.md#knowing-when-to-expect-useoncall for details.\0A\00", align 1
@_ZTVN7testing8internal25UntypedFunctionMockerBaseE = unnamed_addr constant { [8 x ptr] } { [8 x ptr] [ptr null, ptr @_ZTIN7testing8internal25UntypedFunctionMockerBaseE, ptr @_ZN7testing8internal25UntypedFunctionMockerBaseD1Ev, ptr @_ZN7testing8internal25UntypedFunctionMockerBaseD0Ev, ptr @__cxa_pure_virtual, ptr @__cxa_pure_virtual, ptr @__cxa_pure_virtual, ptr @__cxa_pure_virtual] }, align 8
@.str.71 = private unnamed_addr constant [152 x i8] c"generated/home/dtcxzyw/WorkSpace/Projects/compilers/llvm-opt-benchmark/bench/abc/bench_build/_deps/googletest-src/googlemock/src/gmock-spec-builders.cc\00", align 1
@.str.72 = private unnamed_addr constant [93 x i8] c"MockObject() must not be called before RegisterOwner() or SetOwnerAndName() has been called.\00", align 1
@.str.73 = private unnamed_addr constant [68 x i8] c"Name() must not be called before SetOwnerAndName() has been called.\00", align 1
@.str.74 = private unnamed_addr constant [25 x i8] c"Cannot find expectation.\00", align 1
@.str.75 = private unnamed_addr constant [17 x i8] c"Actual function \00", align 1
@.str.76 = private unnamed_addr constant [2 x i8] c"\22\00", align 1
@.str.77 = private unnamed_addr constant [3 x i8] c"\22 \00", align 1
@.str.78 = private unnamed_addr constant [26 x i8] c"call count doesn't match \00", align 1
@_ZN7testing12_GLOBAL__N_122g_mock_object_registryE = internal global %"class.testing::(anonymous namespace)::MockObjectRegistry" zeroinitializer, align 8
@_ZN7testing33FLAGS_gmock_default_mock_behaviorE = global i32 1, align 4
@_ZN7testing30FLAGS_gmock_catch_leaked_mocksE = global i8 1, align 1
@_ZN7testing8internalL17kWarningVerbosityE = internal constant [8 x i8] c"warning\00", align 1
@.str.81 = private unnamed_addr constant [6 x i8] c"dummy\00", align 1
@_ZTIN7testing8internal15ExpectationBaseE = constant { ptr, ptr } { ptr getelementptr inbounds (ptr, ptr @_ZTVN10__cxxabiv117__class_type_infoE, i64 2), ptr @_ZTSN7testing8internal15ExpectationBaseE }, align 8
@_ZTVN10__cxxabiv117__class_type_infoE = external global [0 x ptr]
@_ZTSN7testing8internal15ExpectationBaseE = constant [37 x i8] c"N7testing8internal15ExpectationBaseE\00", align 1
@_ZTIN7testing8internal25UntypedFunctionMockerBaseE = constant { ptr, ptr } { ptr getelementptr inbounds (ptr, ptr @_ZTVN10__cxxabiv117__class_type_infoE, i64 2), ptr @_ZTSN7testing8internal25UntypedFunctionMockerBaseE }, align 8
@_ZTSN7testing8internal25UntypedFunctionMockerBaseE = constant [47 x i8] c"N7testing8internal25UntypedFunctionMockerBaseE\00", align 1
@.str.82 = private unnamed_addr constant [5 x i8] c"once\00", align 1
@.str.83 = private unnamed_addr constant [6 x i8] c"twice\00", align 1
@.str.84 = private unnamed_addr constant [7 x i8] c" times\00", align 1
@_ZTVN7testing12_GLOBAL__N_122BetweenCardinalityImplE = internal unnamed_addr constant { [9 x ptr] } { [9 x ptr] [ptr null, ptr @_ZTIN7testing12_GLOBAL__N_122BetweenCardinalityImplE, ptr @_ZN7testing20CardinalityInterfaceD2Ev, ptr @_ZN7testing12_GLOBAL__N_122BetweenCardinalityImplD0Ev, ptr @_ZNK7testing12_GLOBAL__N_122BetweenCardinalityImpl22ConservativeLowerBoundEv, ptr @_ZNK7testing12_GLOBAL__N_122BetweenCardinalityImpl22ConservativeUpperBoundEv, ptr @_ZNK7testing12_GLOBAL__N_122BetweenCardinalityImpl22IsSatisfiedByCallCountEi, ptr @_ZNK7testing12_GLOBAL__N_122BetweenCardinalityImpl22IsSaturatedByCallCountEi, ptr @_ZNK7testing12_GLOBAL__N_122BetweenCardinalityImpl10DescribeToEPSo] }, align 8
@.str.85 = private unnamed_addr constant [42 x i8] c"The invocation lower bound must be >= 0, \00", align 1
@.str.86 = private unnamed_addr constant [17 x i8] c"but is actually \00", align 1
@.str.87 = private unnamed_addr constant [152 x i8] c"generated/home/dtcxzyw/WorkSpace/Projects/compilers/llvm-opt-benchmark/bench/abc/bench_build/_deps/googletest-src/googlemock/src/gmock-cardinalities.cc\00", align 1
@.str.88 = private unnamed_addr constant [42 x i8] c"The invocation upper bound must be >= 0, \00", align 1
@.str.89 = private unnamed_addr constant [29 x i8] c"The invocation upper bound (\00", align 1
@.str.90 = private unnamed_addr constant [42 x i8] c") must be >= the invocation lower bound (\00", align 1
@.str.91 = private unnamed_addr constant [3 x i8] c").\00", align 1
@_ZTIN7testing12_GLOBAL__N_122BetweenCardinalityImplE = internal constant { ptr, ptr, ptr } { ptr getelementptr inbounds (ptr, ptr @_ZTVN10__cxxabiv120__si_class_type_infoE, i64 2), ptr @_ZTSN7testing12_GLOBAL__N_122BetweenCardinalityImplE, ptr @_ZTIN7testing20CardinalityInterfaceE }, align 8
@_ZTVN10__cxxabiv120__si_class_type_infoE = external global [0 x ptr]
@_ZTSN7testing12_GLOBAL__N_122BetweenCardinalityImplE = internal constant [49 x i8] c"N7testing12_GLOBAL__N_122BetweenCardinalityImplE\00", align 1
@_ZTIN7testing20CardinalityInterfaceE = linkonce_odr constant { ptr, ptr } { ptr getelementptr inbounds (ptr, ptr @_ZTVN10__cxxabiv117__class_type_infoE, i64 2), ptr @_ZTSN7testing20CardinalityInterfaceE }, comdat, align 8
@_ZTSN7testing20CardinalityInterfaceE = linkonce_odr constant [33 x i8] c"N7testing20CardinalityInterfaceE\00", comdat, align 1
@_ZTVN7testing20CardinalityInterfaceE = linkonce_odr unnamed_addr constant { [9 x ptr] } { [9 x ptr] [ptr null, ptr @_ZTIN7testing20CardinalityInterfaceE, ptr @_ZN7testing20CardinalityInterfaceD2Ev, ptr @_ZN7testing20CardinalityInterfaceD0Ev, ptr @_ZNK7testing20CardinalityInterface22ConservativeLowerBoundEv, ptr @_ZNK7testing20CardinalityInterface22ConservativeUpperBoundEv, ptr @__cxa_pure_virtual, ptr @__cxa_pure_virtual, ptr @__cxa_pure_virtual] }, comdat, align 8
@.str.92 = private unnamed_addr constant [27 x i8] c"called any number of times\00", align 1
@.str.93 = private unnamed_addr constant [16 x i8] c"called at most \00", align 1
@.str.94 = private unnamed_addr constant [17 x i8] c"called at least \00", align 1
@.str.95 = private unnamed_addr constant [16 x i8] c"called between \00", align 1
@_ZTVSt15_Sp_counted_ptrIPKN7testing20CardinalityInterfaceELN9__gnu_cxx12_Lock_policyE2EE = linkonce_odr unnamed_addr constant { [7 x ptr] } { [7 x ptr] [ptr null, ptr @_ZTISt15_Sp_counted_ptrIPKN7testing20CardinalityInterfaceELN9__gnu_cxx12_Lock_policyE2EE, ptr @_ZNSt16_Sp_counted_baseILN9__gnu_cxx12_Lock_policyE2EED2Ev, ptr @_ZNSt15_Sp_counted_ptrIPKN7testing20CardinalityInterfaceELN9__gnu_cxx12_Lock_policyE2EED0Ev, ptr @_ZNSt15_Sp_counted_ptrIPKN7testing20CardinalityInterfaceELN9__gnu_cxx12_Lock_policyE2EE10_M_disposeEv, ptr @_ZNSt15_Sp_counted_ptrIPKN7testing20CardinalityInterfaceELN9__gnu_cxx12_Lock_policyE2EE10_M_destroyEv, ptr @_ZNSt15_Sp_counted_ptrIPKN7testing20CardinalityInterfaceELN9__gnu_cxx12_Lock_policyE2EE14_M_get_deleterERKSt9type_info] }, comdat, align 8
@_ZTISt15_Sp_counted_ptrIPKN7testing20CardinalityInterfaceELN9__gnu_cxx12_Lock_policyE2EE = linkonce_odr constant { ptr, ptr, ptr } { ptr getelementptr inbounds (ptr, ptr @_ZTVN10__cxxabiv120__si_class_type_infoE, i64 2), ptr @_ZTSSt15_Sp_counted_ptrIPKN7testing20CardinalityInterfaceELN9__gnu_cxx12_Lock_policyE2EE, ptr @_ZTISt16_Sp_counted_baseILN9__gnu_cxx12_Lock_policyE2EE }, comdat, align 8
@_ZTSSt15_Sp_counted_ptrIPKN7testing20CardinalityInterfaceELN9__gnu_cxx12_Lock_policyE2EE = linkonce_odr constant [85 x i8] c"St15_Sp_counted_ptrIPKN7testing20CardinalityInterfaceELN9__gnu_cxx12_Lock_policyE2EE\00", comdat, align 1
@_ZTISt16_Sp_counted_baseILN9__gnu_cxx12_Lock_policyE2EE = linkonce_odr constant { ptr, ptr, ptr } { ptr getelementptr inbounds (ptr, ptr @_ZTVN10__cxxabiv120__si_class_type_infoE, i64 2), ptr @_ZTSSt16_Sp_counted_baseILN9__gnu_cxx12_Lock_policyE2EE, ptr @_ZTISt11_Mutex_baseILN9__gnu_cxx12_Lock_policyE2EE }, comdat, align 8
@_ZTSSt16_Sp_counted_baseILN9__gnu_cxx12_Lock_policyE2EE = linkonce_odr constant [52 x i8] c"St16_Sp_counted_baseILN9__gnu_cxx12_Lock_policyE2EE\00", comdat, align 1
@_ZTISt11_Mutex_baseILN9__gnu_cxx12_Lock_policyE2EE = linkonce_odr constant { ptr, ptr } { ptr getelementptr inbounds (ptr, ptr @_ZTVN10__cxxabiv117__class_type_infoE, i64 2), ptr @_ZTSSt11_Mutex_baseILN9__gnu_cxx12_Lock_policyE2EE }, comdat, align 8
@_ZTSSt11_Mutex_baseILN9__gnu_cxx12_Lock_policyE2EE = linkonce_odr constant [47 x i8] c"St11_Mutex_baseILN9__gnu_cxx12_Lock_policyE2EE\00", comdat, align 1
@_ZTVSt16_Sp_counted_baseILN9__gnu_cxx12_Lock_policyE2EE = linkonce_odr unnamed_addr constant { [7 x ptr] } { [7 x ptr] [ptr null, ptr @_ZTISt16_Sp_counted_baseILN9__gnu_cxx12_Lock_policyE2EE, ptr @_ZNSt16_Sp_counted_baseILN9__gnu_cxx12_Lock_policyE2EED2Ev, ptr @_ZNSt16_Sp_counted_baseILN9__gnu_cxx12_Lock_policyE2EED0Ev, ptr @__cxa_pure_virtual, ptr @_ZNSt16_Sp_counted_baseILN9__gnu_cxx12_Lock_policyE2EE10_M_destroyEv, ptr @__cxa_pure_virtual] }, comdat, align 8
@_ZSt4cerr = external global %"class.std::basic_ostream", align 8
@.str.96 = private unnamed_addr constant [21 x i8] c"basic_string::append\00", align 1
@_ZTVN7testing8internal25GoogleTestFailureReporterE = linkonce_odr unnamed_addr constant { [5 x ptr] } { [5 x ptr] [ptr null, ptr @_ZTIN7testing8internal25GoogleTestFailureReporterE, ptr @_ZN7testing8internal24FailureReporterInterfaceD2Ev, ptr @_ZN7testing8internal25GoogleTestFailureReporterD0Ev, ptr @_ZN7testing8internal25GoogleTestFailureReporter13ReportFailureENS0_24FailureReporterInterface11FailureTypeEPKciRKNSt7__cxx1112basic_stringIcSt11char_traitsIcESaIcEEE] }, comdat, align 8
@_ZTIN7testing8internal25GoogleTestFailureReporterE = linkonce_odr constant { ptr, ptr, ptr } { ptr getelementptr inbounds (ptr, ptr @_ZTVN10__cxxabiv120__si_class_type_infoE, i64 2), ptr @_ZTSN7testing8internal25GoogleTestFailureReporterE, ptr @_ZTIN7testing8internal24FailureReporterInterfaceE }, comdat, align 8
@_ZTSN7testing8internal25GoogleTestFailureReporterE = linkonce_odr constant [47 x i8] c"N7testing8internal25GoogleTestFailureReporterE\00", comdat, align 1
@_ZTIN7testing8internal24FailureReporterInterfaceE = linkonce_odr constant { ptr, ptr } { ptr getelementptr inbounds (ptr, ptr @_ZTVN10__cxxabiv117__class_type_infoE, i64 2), ptr @_ZTSN7testing8internal24FailureReporterInterfaceE }, comdat, align 8
@_ZTSN7testing8internal24FailureReporterInterfaceE = linkonce_odr constant [46 x i8] c"N7testing8internal24FailureReporterInterfaceE\00", comdat, align 1
@_ZTVN7testing8internal24FailureReporterInterfaceE = linkonce_odr unnamed_addr constant { [5 x ptr] } { [5 x ptr] [ptr null, ptr @_ZTIN7testing8internal24FailureReporterInterfaceE, ptr @_ZN7testing8internal24FailureReporterInterfaceD2Ev, ptr @_ZN7testing8internal24FailureReporterInterfaceD0Ev, ptr @__cxa_pure_virtual] }, comdat, align 8
@.str.97 = private unnamed_addr constant [49 x i8] c"cannot create std::vector larger than max_size()\00", align 1
@.str.98 = private unnamed_addr constant [147 x i8] c"generated/home/dtcxzyw/WorkSpace/Projects/compilers/llvm-opt-benchmark/bench/abc/bench_build/_deps/googletest-src/googlemock/src/gmock-matchers.cc\00", align 1
@.str.99 = private unnamed_addr constant [42 x i8] c"Condition left_[ilhs] == kUnused failed. \00", align 1
@.str.100 = private unnamed_addr constant [7 x i8] c"ilhs: \00", align 1
@.str.101 = private unnamed_addr constant [16 x i8] c", left_[ilhs]: \00", align 1
@.str.102 = private unnamed_addr constant [26 x i8] c"vector::_M_realloc_insert\00", align 1
@.str.103 = private unnamed_addr constant [9 x i8] c" element\00", align 1
@.str.104 = private unnamed_addr constant [7 x i8] c"(null)\00", align 1
@.str.105 = private unnamed_addr constant [2 x i8] c"{\00", align 1
@.str.106 = private unnamed_addr constant [5 x i8] c"\0A  (\00", align 1
@.str.107 = private unnamed_addr constant [2 x i8] c",\00", align 1
@.str.108 = private unnamed_addr constant [3 x i8] c"\0A}\00", align 1
@.str.109 = private unnamed_addr constant [161 x i8] c"generated/home/dtcxzyw/WorkSpace/Projects/compilers/llvm-opt-benchmark/bench/abc/bench_build/_deps/googletest-src/googletest/include/gtest/internal/gtest-port.h\00", align 1
@.str.110 = private unnamed_addr constant [37 x i8] c"pthread_mutex_init(&mutex_, nullptr)\00", align 1
@.str.111 = private unnamed_addr constant [19 x i8] c"failed with error \00", align 1
@__libc_single_threaded = external global i8, align 1
@.str.112 = private unnamed_addr constant [31 x i8] c"pthread_mutex_destroy(&mutex_)\00", align 1
@.str.113 = private unnamed_addr constant [71 x i8] c"Condition has_owner_ && pthread_equal(owner_, pthread_self()) failed. \00", align 1
@.str.114 = private unnamed_addr constant [46 x i8] c"The current thread is not holding the mutex @\00", align 1
@.str.115 = private unnamed_addr constant [30 x i8] c"pthread_mutex_unlock(&mutex_)\00", align 1
@.str.116 = private unnamed_addr constant [28 x i8] c"pthread_mutex_lock(&mutex_)\00", align 1
@.str.117 = private unnamed_addr constant [25 x i8] c" ERROR: this mock object\00", align 1
@.str.118 = private unnamed_addr constant [16 x i8] c" (used in test \00", align 1
@.str.119 = private unnamed_addr constant [50 x i8] c" should be deleted but never is. Its address is @\00", align 1
@.str.120 = private unnamed_addr constant [9 x i8] c"\0AERROR: \00", align 1
@.str.121 = private unnamed_addr constant [14 x i8] c" leaked mock \00", align 1
@.str.122 = private unnamed_addr constant [7 x i8] c"object\00", align 1
@.str.123 = private unnamed_addr constant [8 x i8] c"objects\00", align 1
@.str.124 = private unnamed_addr constant [347 x i8] c" found at program exit. Expectations on a mock object are verified when the object is destructed. Leaking a mock means that its expectations aren't verified, which is usually a test bug. If you really intend to leak a mock, you can suppress this error using testing::Mock::AllowLeak(mock_object), or you may use a fake or stub instead of a mock.\0A\00", align 1
@_ZSt19piecewise_construct = linkonce_odr constant %"struct.std::piecewise_construct_t" zeroinitializer, comdat, align 1
@_ZZN7testing12_GLOBAL__N_128UninterestingCallReactionMapEvE3map = internal global ptr null, align 8
@_ZGVZN7testing12_GLOBAL__N_128UninterestingCallReactionMapEvE3map = internal global i64 0, align 8
@_ZTVSt15_Sp_counted_ptrIPN7testing11ExpectationELN9__gnu_cxx12_Lock_policyE2EE = linkonce_odr unnamed_addr constant { [7 x ptr] } { [7 x ptr] [ptr null, ptr @_ZTISt15_Sp_counted_ptrIPN7testing11ExpectationELN9__gnu_cxx12_Lock_policyE2EE, ptr @_ZNSt16_Sp_counted_baseILN9__gnu_cxx12_Lock_policyE2EED2Ev, ptr @_ZNSt15_Sp_counted_ptrIPN7testing11ExpectationELN9__gnu_cxx12_Lock_policyE2EED0Ev, ptr @_ZNSt15_Sp_counted_ptrIPN7testing11ExpectationELN9__gnu_cxx12_Lock_policyE2EE10_M_disposeEv, ptr @_ZNSt15_Sp_counted_ptrIPN7testing11ExpectationELN9__gnu_cxx12_Lock_policyE2EE10_M_destroyEv, ptr @_ZNSt15_Sp_counted_ptrIPN7testing11ExpectationELN9__gnu_cxx12_Lock_policyE2EE14_M_get_deleterERKSt9type_info] }, comdat, align 8
@_ZTISt15_Sp_counted_ptrIPN7testing11ExpectationELN9__gnu_cxx12_Lock_policyE2EE = linkonce_odr constant { ptr, ptr, ptr } { ptr getelementptr inbounds (ptr, ptr @_ZTVN10__cxxabiv120__si_class_type_infoE, i64 2), ptr @_ZTSSt15_Sp_counted_ptrIPN7testing11ExpectationELN9__gnu_cxx12_Lock_policyE2EE, ptr @_ZTISt16_Sp_counted_baseILN9__gnu_cxx12_Lock_policyE2EE }, comdat, align 8
@_ZTSSt15_Sp_counted_ptrIPN7testing11ExpectationELN9__gnu_cxx12_Lock_policyE2EE = linkonce_odr constant [75 x i8] c"St15_Sp_counted_ptrIPN7testing11ExpectationELN9__gnu_cxx12_Lock_policyE2EE\00", comdat, align 1
@.str.125 = private unnamed_addr constant [22 x i8] c"basic_string::replace\00", align 1
@.str.126 = private unnamed_addr constant [55 x i8] c"%s: __pos (which is %zu) > this->size() (which is %zu)\00", align 1
@_ZTVNSt7__cxx1118basic_stringstreamIcSt11char_traitsIcESaIcEEE = external unnamed_addr constant { [5 x ptr], [5 x ptr], [5 x ptr] }, align 8
@_ZTTNSt7__cxx1118basic_stringstreamIcSt11char_traitsIcESaIcEEE = external unnamed_addr constant [10 x ptr], align 8
@_ZTVSt9basic_iosIcSt11char_traitsIcEE = external unnamed_addr constant { [4 x ptr] }, align 8
@_ZTVNSt7__cxx1115basic_stringbufIcSt11char_traitsIcESaIcEEE = external unnamed_addr constant { [16 x ptr] }, align 8
@_ZTVSt15basic_streambufIcSt11char_traitsIcEE = external unnamed_addr constant { [16 x ptr] }, align 8
@.str.127 = private unnamed_addr constant [50 x i8] c"basic_string: construction from null is not valid\00", align 1
@_ZTVNSt7__cxx1119basic_ostringstreamIcSt11char_traitsIcESaIcEEE = external unnamed_addr constant { [5 x ptr], [5 x ptr] }, align 8
@_ZTTNSt7__cxx1119basic_ostringstreamIcSt11char_traitsIcESaIcEEE = external unnamed_addr constant [4 x ptr], align 8
@.str.128 = private unnamed_addr constant [50 x i8] c"pthread_key_create(&key, &DeleteThreadLocalValue)\00", align 1
@_ZTVN7testing8internal11ThreadLocalIPNS_8SequenceEE25DefaultValueHolderFactoryE = linkonce_odr unnamed_addr constant { [5 x ptr] } { [5 x ptr] [ptr null, ptr @_ZTIN7testing8internal11ThreadLocalIPNS_8SequenceEE25DefaultValueHolderFactoryE, ptr @_ZN7testing8internal11ThreadLocalIPNS_8SequenceEE18ValueHolderFactoryD2Ev, ptr @_ZN7testing8internal11ThreadLocalIPNS_8SequenceEE25DefaultValueHolderFactoryD0Ev, ptr @_ZNK7testing8internal11ThreadLocalIPNS_8SequenceEE25DefaultValueHolderFactory13MakeNewHolderEv] }, comdat, align 8
@_ZTIN7testing8internal11ThreadLocalIPNS_8SequenceEE25DefaultValueHolderFactoryE = linkonce_odr constant { ptr, ptr, ptr } { ptr getelementptr inbounds (ptr, ptr @_ZTVN10__cxxabiv120__si_class_type_infoE, i64 2), ptr @_ZTSN7testing8internal11ThreadLocalIPNS_8SequenceEE25DefaultValueHolderFactoryE, ptr @_ZTIN7testing8internal11ThreadLocalIPNS_8SequenceEE18ValueHolderFactoryE }, comdat, align 8
@_ZTSN7testing8internal11ThreadLocalIPNS_8SequenceEE25DefaultValueHolderFactoryE = linkonce_odr constant [76 x i8] c"N7testing8internal11ThreadLocalIPNS_8SequenceEE25DefaultValueHolderFactoryE\00", comdat, align 1
@_ZTIN7testing8internal11ThreadLocalIPNS_8SequenceEE18ValueHolderFactoryE = linkonce_odr constant { ptr, ptr } { ptr getelementptr inbounds (ptr, ptr @_ZTVN10__cxxabiv117__class_type_infoE, i64 2), ptr @_ZTSN7testing8internal11ThreadLocalIPNS_8SequenceEE18ValueHolderFactoryE }, comdat, align 8
@_ZTSN7testing8internal11ThreadLocalIPNS_8SequenceEE18ValueHolderFactoryE = linkonce_odr constant [69 x i8] c"N7testing8internal11ThreadLocalIPNS_8SequenceEE18ValueHolderFactoryE\00", comdat, align 1
@_ZTVN7testing8internal11ThreadLocalIPNS_8SequenceEE18ValueHolderFactoryE = linkonce_odr unnamed_addr constant { [5 x ptr] } { [5 x ptr] [ptr null, ptr @_ZTIN7testing8internal11ThreadLocalIPNS_8SequenceEE18ValueHolderFactoryE, ptr @_ZN7testing8internal11ThreadLocalIPNS_8SequenceEE18ValueHolderFactoryD2Ev, ptr @_ZN7testing8internal11ThreadLocalIPNS_8SequenceEE18ValueHolderFactoryD0Ev, ptr @__cxa_pure_virtual] }, comdat, align 8
@_ZTVN7testing8internal11ThreadLocalIPNS_8SequenceEE11ValueHolderE = linkonce_odr unnamed_addr constant { [4 x ptr] } { [4 x ptr] [ptr null, ptr @_ZTIN7testing8internal11ThreadLocalIPNS_8SequenceEE11ValueHolderE, ptr @_ZN7testing8internal26ThreadLocalValueHolderBaseD2Ev, ptr @_ZN7testing8internal11ThreadLocalIPNS_8SequenceEE11ValueHolderD0Ev] }, comdat, align 8
@_ZTIN7testing8internal11ThreadLocalIPNS_8SequenceEE11ValueHolderE = linkonce_odr constant { ptr, ptr, ptr } { ptr getelementptr inbounds (ptr, ptr @_ZTVN10__cxxabiv120__si_class_type_infoE, i64 2), ptr @_ZTSN7testing8internal11ThreadLocalIPNS_8SequenceEE11ValueHolderE, ptr @_ZTIN7testing8internal26ThreadLocalValueHolderBaseE }, comdat, align 8
@_ZTSN7testing8internal11ThreadLocalIPNS_8SequenceEE11ValueHolderE = linkonce_odr constant [62 x i8] c"N7testing8internal11ThreadLocalIPNS_8SequenceEE11ValueHolderE\00", comdat, align 1
@_ZTIN7testing8internal26ThreadLocalValueHolderBaseE = linkonce_odr constant { ptr, ptr } { ptr getelementptr inbounds (ptr, ptr @_ZTVN10__cxxabiv117__class_type_infoE, i64 2), ptr @_ZTSN7testing8internal26ThreadLocalValueHolderBaseE }, comdat, align 8
@_ZTSN7testing8internal26ThreadLocalValueHolderBaseE = linkonce_odr constant [48 x i8] c"N7testing8internal26ThreadLocalValueHolderBaseE\00", comdat, align 1
@_ZTVN7testing8internal26ThreadLocalValueHolderBaseE = linkonce_odr unnamed_addr constant { [4 x ptr] } { [4 x ptr] [ptr null, ptr @_ZTIN7testing8internal26ThreadLocalValueHolderBaseE, ptr @_ZN7testing8internal26ThreadLocalValueHolderBaseD2Ev, ptr @_ZN7testing8internal26ThreadLocalValueHolderBaseD0Ev] }, comdat, align 8
@.str.129 = private unnamed_addr constant [25 x i8] c"pthread_key_delete(key_)\00", align 1
@.str.130 = private unnamed_addr constant [39 x i8] c"pthread_setspecific(key_, holder_base)\00", align 1
@.str.131 = private unnamed_addr constant [78 x i8] c"Condition base == nullptr || dynamic_cast<Derived*>(base) != nullptr failed. \00", align 1
@.str.132 = private unnamed_addr constant [19 x i8] c"catch_leaked_mocks\00", align 1
@.str.133 = private unnamed_addr constant [8 x i8] c"verbose\00", align 1
@.str.134 = private unnamed_addr constant [22 x i8] c"default_mock_behavior\00", align 1
@.str.135 = private unnamed_addr constant [9 x i8] c"--gmock_\00", align 1
@.str.136 = private unnamed_addr constant [21 x i8] c"The value of flag --\00", align 1
@llvm.global_ctors = appending global [1 x { i32, ptr, ptr }] [{ i32, ptr, ptr } { i32 65535, ptr @_GLOBAL__sub_I_gmock_all.cc, ptr null }]

@_ZN7testing8internal15ExpectationBaseD1Ev = unnamed_addr alias void (ptr), ptr @_ZN7testing8internal15ExpectationBaseD2Ev
@_ZN7testing8internal25UntypedFunctionMockerBaseD1Ev = unnamed_addr alias void (ptr), ptr @_ZN7testing8internal25UntypedFunctionMockerBaseD2Ev
@_ZN7testing11ExpectationC1Ev = unnamed_addr alias void (ptr), ptr @_ZN7testing11ExpectationC2Ev
@_ZN7testing11ExpectationC1ERKSt10shared_ptrINS_8internal15ExpectationBaseEE = unnamed_addr alias void (ptr, ptr), ptr @_ZN7testing11ExpectationC2ERKSt10shared_ptrINS_8internal15ExpectationBaseEE
@_ZN7testing11ExpectationD1Ev = unnamed_addr alias void (ptr), ptr @_ZN7testing11ExpectationD2Ev
@_ZN7testing10InSequenceC1Ev = unnamed_addr alias void (ptr), ptr @_ZN7testing10InSequenceC2Ev
@_ZN7testing10InSequenceD1Ev = unnamed_addr alias void (ptr), ptr @_ZN7testing10InSequenceD2Ev

; Function Attrs: uwtable
define internal void @__cxx_global_var_init() #0 section ".text.startup" {
  call void @_ZNSt8ios_base4InitC1Ev(ptr noundef nonnull align 1 dereferenceable(1) @_ZStL8__ioinit)
  %1 = call i32 @__cxa_atexit(ptr @_ZNSt8ios_base4InitD1Ev, ptr @_ZStL8__ioinit, ptr @__dso_handle) #3
  ret void
}

declare void @_ZNSt8ios_base4InitC1Ev(ptr noundef nonnull align 1 dereferenceable(1)) unnamed_addr #1

; Function Attrs: nounwind
declare void @_ZNSt8ios_base4InitD1Ev(ptr noundef nonnull align 1 dereferenceable(1)) unnamed_addr #2

; Function Attrs: nounwind
declare i32 @__cxa_atexit(ptr, ptr, ptr) #3

; Function Attrs: mustprogress uwtable
define void @_ZN7testing11Cardinality25DescribeActualCallCountToEiPSo(i32 noundef %0, ptr noundef %1) #4 align 2 personality ptr @__gxx_personality_v0 {
  %3 = alloca i32, align 4
  %4 = alloca ptr, align 8
  %5 = alloca %"class.std::__cxx11::basic_string", align 8
  %6 = alloca ptr, align 8
  %7 = alloca i32, align 4
  store i32 %0, ptr %3, align 4, !tbaa !3
  store ptr %1, ptr %4, align 8, !tbaa !7
  %8 = load i32, ptr %3, align 4, !tbaa !3
  %9 = icmp sgt i32 %8, 0
  br i1 %9, label %10, label %20

10:                                               ; preds = %2
  %11 = load ptr, ptr %4, align 8, !tbaa !7
  %12 = call noundef nonnull align 8 dereferenceable(8) ptr @_ZStlsISt11char_traitsIcEERSt13basic_ostreamIcT_ES5_PKc(ptr noundef nonnull align 8 dereferenceable(8) %11, ptr noundef @.str)
  call void @llvm.lifetime.start.p0(i64 32, ptr %5) #3
  %13 = load i32, ptr %3, align 4, !tbaa !3
  call void @_ZN7testing12_GLOBAL__N_111FormatTimesB5cxx11Ei(ptr dead_on_unwind writable sret(%"class.std::__cxx11::basic_string") align 8 %5, i32 noundef %13)
  %14 = invoke noundef nonnull align 8 dereferenceable(8) ptr @_ZStlsIcSt11char_traitsIcESaIcEERSt13basic_ostreamIT_T0_ES7_RKNSt7__cxx1112basic_stringIS4_S5_T1_EE(ptr noundef nonnull align 8 dereferenceable(8) %12, ptr noundef nonnull align 8 dereferenceable(32) %5)
          to label %15 unwind label %16

15:                                               ; preds = %10
  call void @_ZNSt7__cxx1112basic_stringIcSt11char_traitsIcESaIcEED2Ev(ptr noundef nonnull align 8 dereferenceable(32) %5) #3
  call void @llvm.lifetime.end.p0(i64 32, ptr %5) #3
  br label %23

16:                                               ; preds = %10
  %17 = landingpad { ptr, i32 }
          cleanup
  %18 = extractvalue { ptr, i32 } %17, 0
  store ptr %18, ptr %6, align 8
  %19 = extractvalue { ptr, i32 } %17, 1
  store i32 %19, ptr %7, align 4
  call void @_ZNSt7__cxx1112basic_stringIcSt11char_traitsIcESaIcEED2Ev(ptr noundef nonnull align 8 dereferenceable(32) %5) #3
  call void @llvm.lifetime.end.p0(i64 32, ptr %5) #3
  br label %24

20:                                               ; preds = %2
  %21 = load ptr, ptr %4, align 8, !tbaa !7
  %22 = call noundef nonnull align 8 dereferenceable(8) ptr @_ZStlsISt11char_traitsIcEERSt13basic_ostreamIcT_ES5_PKc(ptr noundef nonnull align 8 dereferenceable(8) %21, ptr noundef @.str.1)
  br label %23

23:                                               ; preds = %20, %15
  ret void

24:                                               ; preds = %16
  %25 = load ptr, ptr %6, align 8
  %26 = load i32, ptr %7, align 4
  %27 = insertvalue { ptr, i32 } poison, ptr %25, 0
  %28 = insertvalue { ptr, i32 } %27, i32 %26, 1
  resume { ptr, i32 } %28
}

; Function Attrs: inlinehint mustprogress uwtable
define available_externally noundef nonnull align 8 dereferenceable(8) ptr @_ZStlsIcSt11char_traitsIcESaIcEERSt13basic_ostreamIT_T0_ES7_RKNSt7__cxx1112basic_stringIS4_S5_T1_EE(ptr noundef nonnull align 8 dereferenceable(8) %0, ptr noundef nonnull align 8 dereferenceable(32) %1) #5 {
  %3 = alloca ptr, align 8
  %4 = alloca ptr, align 8
  store ptr %0, ptr %3, align 8, !tbaa !7
  store ptr %1, ptr %4, align 8, !tbaa !10
  %5 = load ptr, ptr %3, align 8, !tbaa !7
  %6 = load ptr, ptr %4, align 8, !tbaa !10
  %7 = call noundef ptr @_ZNKSt7__cxx1112basic_stringIcSt11char_traitsIcESaIcEE4dataEv(ptr noundef nonnull align 8 dereferenceable(32) %6) #3
  %8 = load ptr, ptr %4, align 8, !tbaa !10
  %9 = call noundef i64 @_ZNKSt7__cxx1112basic_stringIcSt11char_traitsIcESaIcEE4sizeEv(ptr noundef nonnull align 8 dereferenceable(32) %8) #3
  %10 = call noundef nonnull align 8 dereferenceable(8) ptr @_ZSt16__ostream_insertIcSt11char_traitsIcEERSt13basic_ostreamIT_T0_ES6_PKS3_l(ptr noundef nonnull align 8 dereferenceable(8) %5, ptr noundef %7, i64 noundef %9)
  ret ptr %10
}

; Function Attrs: inlinehint mustprogress uwtable
define available_externally noundef nonnull align 8 dereferenceable(8) ptr @_ZStlsISt11char_traitsIcEERSt13basic_ostreamIcT_ES5_PKc(ptr noundef nonnull align 8 dereferenceable(8) %0, ptr noundef %1) #5 {
  %3 = alloca ptr, align 8
  %4 = alloca ptr, align 8
  store ptr %0, ptr %3, align 8, !tbaa !7
  store ptr %1, ptr %4, align 8, !tbaa !12
  %5 = load ptr, ptr %4, align 8, !tbaa !12
  %6 = icmp ne ptr %5, null
  br i1 %6, label %13, label %7

7:                                                ; preds = %2
  %8 = load ptr, ptr %3, align 8, !tbaa !7
  %9 = load ptr, ptr %8, align 8, !tbaa !14
  %10 = getelementptr i8, ptr %9, i64 -24
  %11 = load i64, ptr %10, align 8
  %12 = getelementptr inbounds i8, ptr %8, i64 %11
  call void @_ZNSt9basic_iosIcSt11char_traitsIcEE8setstateESt12_Ios_Iostate(ptr noundef nonnull align 8 dereferenceable(264) %12, i32 noundef 1)
  br label %19

13:                                               ; preds = %2
  %14 = load ptr, ptr %3, align 8, !tbaa !7
  %15 = load ptr, ptr %4, align 8, !tbaa !12
  %16 = load ptr, ptr %4, align 8, !tbaa !12
  %17 = call noundef i64 @_ZNSt11char_traitsIcE6lengthEPKc(ptr noundef %16)
  %18 = call noundef nonnull align 8 dereferenceable(8) ptr @_ZSt16__ostream_insertIcSt11char_traitsIcEERSt13basic_ostreamIT_T0_ES6_PKS3_l(ptr noundef nonnull align 8 dereferenceable(8) %14, ptr noundef %15, i64 noundef %17)
  br label %19

19:                                               ; preds = %13, %7
  %20 = load ptr, ptr %3, align 8, !tbaa !7
  ret ptr %20
}

; Function Attrs: nocallback nofree nosync nounwind willreturn memory(argmem: readwrite)
declare void @llvm.lifetime.start.p0(i64 immarg, ptr captures(none)) #6

; Function Attrs: inlinehint mustprogress uwtable
define internal void @_ZN7testing12_GLOBAL__N_111FormatTimesB5cxx11Ei(ptr dead_on_unwind noalias writable sret(%"class.std::__cxx11::basic_string") align 8 %0, i32 noundef %1) #5 personality ptr @__gxx_personality_v0 {
  %3 = alloca ptr, align 8
  %4 = alloca i32, align 4
  %5 = alloca %"class.std::allocator", align 1
  %6 = alloca ptr, align 8
  %7 = alloca i32, align 4
  %8 = alloca %"class.std::allocator", align 1
  %9 = alloca %"class.std::__cxx11::basic_stringstream", align 8
  store ptr %0, ptr %3, align 8
  store i32 %1, ptr %4, align 4, !tbaa !3
  %10 = load i32, ptr %4, align 4, !tbaa !3
  %11 = icmp eq i32 %10, 1
  br i1 %11, label %12, label %18

12:                                               ; preds = %2
  call void @llvm.lifetime.start.p0(i64 1, ptr %5) #3
  call void @_ZNSaIcEC2Ev(ptr noundef nonnull align 1 dereferenceable(1) %5) #3
  invoke void @_ZNSt7__cxx1112basic_stringIcSt11char_traitsIcESaIcEEC2IS3_EEPKcRKS3_(ptr noundef nonnull align 8 dereferenceable(32) %0, ptr noundef @.str.82, ptr noundef nonnull align 1 dereferenceable(1) %5)
          to label %13 unwind label %14

13:                                               ; preds = %12
  call void @_ZNSt15__new_allocatorIcED2Ev(ptr noundef nonnull align 1 dereferenceable(1) %5) #3
  call void @llvm.lifetime.end.p0(i64 1, ptr %5) #3
  br label %39

14:                                               ; preds = %12
  %15 = landingpad { ptr, i32 }
          cleanup
  %16 = extractvalue { ptr, i32 } %15, 0
  store ptr %16, ptr %6, align 8
  %17 = extractvalue { ptr, i32 } %15, 1
  store i32 %17, ptr %7, align 4
  call void @_ZNSt15__new_allocatorIcED2Ev(ptr noundef nonnull align 1 dereferenceable(1) %5) #3
  call void @llvm.lifetime.end.p0(i64 1, ptr %5) #3
  br label %40

18:                                               ; preds = %2
  %19 = load i32, ptr %4, align 4, !tbaa !3
  %20 = icmp eq i32 %19, 2
  br i1 %20, label %21, label %27

21:                                               ; preds = %18
  call void @llvm.lifetime.start.p0(i64 1, ptr %8) #3
  call void @_ZNSaIcEC2Ev(ptr noundef nonnull align 1 dereferenceable(1) %8) #3
  invoke void @_ZNSt7__cxx1112basic_stringIcSt11char_traitsIcESaIcEEC2IS3_EEPKcRKS3_(ptr noundef nonnull align 8 dereferenceable(32) %0, ptr noundef @.str.83, ptr noundef nonnull align 1 dereferenceable(1) %8)
          to label %22 unwind label %23

22:                                               ; preds = %21
  call void @_ZNSt15__new_allocatorIcED2Ev(ptr noundef nonnull align 1 dereferenceable(1) %8) #3
  call void @llvm.lifetime.end.p0(i64 1, ptr %8) #3
  br label %39

23:                                               ; preds = %21
  %24 = landingpad { ptr, i32 }
          cleanup
  %25 = extractvalue { ptr, i32 } %24, 0
  store ptr %25, ptr %6, align 8
  %26 = extractvalue { ptr, i32 } %24, 1
  store i32 %26, ptr %7, align 4
  call void @_ZNSt15__new_allocatorIcED2Ev(ptr noundef nonnull align 1 dereferenceable(1) %8) #3
  call void @llvm.lifetime.end.p0(i64 1, ptr %8) #3
  br label %40

27:                                               ; preds = %18
  call void @llvm.lifetime.start.p0(i64 392, ptr %9) #3
  call void @_ZNSt7__cxx1118basic_stringstreamIcSt11char_traitsIcESaIcEEC1Ev(ptr noundef nonnull align 8 dereferenceable(128) %9)
  %28 = getelementptr inbounds i8, ptr %9, i64 16
  %29 = load i32, ptr %4, align 4, !tbaa !3
  %30 = invoke noundef nonnull align 8 dereferenceable(8) ptr @_ZNSolsEi(ptr noundef nonnull align 8 dereferenceable(8) %28, i32 noundef %29)
          to label %31 unwind label %35

31:                                               ; preds = %27
  %32 = invoke noundef nonnull align 8 dereferenceable(8) ptr @_ZStlsISt11char_traitsIcEERSt13basic_ostreamIcT_ES5_PKc(ptr noundef nonnull align 8 dereferenceable(8) %30, ptr noundef @.str.84)
          to label %33 unwind label %35

33:                                               ; preds = %31
  invoke void @_ZNKSt7__cxx1118basic_stringstreamIcSt11char_traitsIcESaIcEE3strEv(ptr dead_on_unwind writable sret(%"class.std::__cxx11::basic_string") align 8 %0, ptr noundef nonnull align 8 dereferenceable(128) %9)
          to label %34 unwind label %35

34:                                               ; preds = %33
  call void @_ZNSt7__cxx1118basic_stringstreamIcSt11char_traitsIcESaIcEED1Ev(ptr noundef nonnull align 8 dereferenceable(128) %9) #3
  call void @llvm.lifetime.end.p0(i64 392, ptr %9) #3
  br label %39

35:                                               ; preds = %33, %31, %27
  %36 = landingpad { ptr, i32 }
          cleanup
  %37 = extractvalue { ptr, i32 } %36, 0
  store ptr %37, ptr %6, align 8
  %38 = extractvalue { ptr, i32 } %36, 1
  store i32 %38, ptr %7, align 4
  call void @_ZNSt7__cxx1118basic_stringstreamIcSt11char_traitsIcESaIcEED1Ev(ptr noundef nonnull align 8 dereferenceable(128) %9) #3
  call void @llvm.lifetime.end.p0(i64 392, ptr %9) #3
  br label %40

39:                                               ; preds = %34, %22, %13
  ret void

40:                                               ; preds = %35, %23, %14
  %41 = load ptr, ptr %6, align 8
  %42 = load i32, ptr %7, align 4
  %43 = insertvalue { ptr, i32 } poison, ptr %41, 0
  %44 = insertvalue { ptr, i32 } %43, i32 %42, 1
  resume { ptr, i32 } %44
}

declare i32 @__gxx_personality_v0(...)

; Function Attrs: mustprogress nounwind uwtable
define available_externally void @_ZNSt7__cxx1112basic_stringIcSt11char_traitsIcESaIcEED2Ev(ptr noundef nonnull align 8 dereferenceable(32) %0) unnamed_addr #7 align 2 personality ptr @__gxx_personality_v0 {
  %2 = alloca ptr, align 8
  store ptr %0, ptr %2, align 8, !tbaa !10
  %3 = load ptr, ptr %2, align 8
  invoke void @_ZNSt7__cxx1112basic_stringIcSt11char_traitsIcESaIcEE10_M_disposeEv(ptr noundef nonnull align 8 dereferenceable(32) %3)
          to label %4 unwind label %6

4:                                                ; preds = %1
  %5 = getelementptr inbounds nuw %"class.std::__cxx11::basic_string", ptr %3, i32 0, i32 0
  call void @_ZNSt15__new_allocatorIcED2Ev(ptr noundef nonnull align 8 dereferenceable(8) %5) #3
  ret void

6:                                                ; preds = %1
  %7 = landingpad { ptr, i32 }
          catch ptr null
  %8 = extractvalue { ptr, i32 } %7, 0
  call void @__clang_call_terminate(ptr %8) #26
  unreachable
}

; Function Attrs: nocallback nofree nosync nounwind willreturn memory(argmem: readwrite)
declare void @llvm.lifetime.end.p0(i64 immarg, ptr captures(none)) #6

; Function Attrs: mustprogress uwtable
define void @_ZN7testing7AtLeastEi(ptr dead_on_unwind noalias writable sret(%"class.testing::Cardinality") align 8 %0, i32 noundef %1) #4 {
  %3 = alloca ptr, align 8
  %4 = alloca i32, align 4
  store ptr %0, ptr %3, align 8
  store i32 %1, ptr %4, align 4, !tbaa !3
  %5 = load i32, ptr %4, align 4, !tbaa !3
  call void @_ZN7testing7BetweenEii(ptr dead_on_unwind writable sret(%"class.testing::Cardinality") align 8 %0, i32 noundef %5, i32 noundef 2147483647)
  ret void
}

; Function Attrs: mustprogress uwtable
define void @_ZN7testing7BetweenEii(ptr dead_on_unwind noalias writable sret(%"class.testing::Cardinality") align 8 %0, i32 noundef %1, i32 noundef %2) #4 personality ptr @__gxx_personality_v0 {
  %4 = alloca ptr, align 8
  %5 = alloca i32, align 4
  %6 = alloca i32, align 4
  %7 = alloca ptr, align 8
  %8 = alloca i32, align 4
  store ptr %0, ptr %4, align 8
  store i32 %1, ptr %5, align 4, !tbaa !3
  store i32 %2, ptr %6, align 4, !tbaa !3
  %9 = call noalias noundef nonnull ptr @_Znwm(i64 noundef 16) #27
  %10 = load i32, ptr %5, align 4, !tbaa !3
  %11 = load i32, ptr %6, align 4, !tbaa !3
  invoke void @_ZN7testing12_GLOBAL__N_122BetweenCardinalityImplC2Eii(ptr noundef nonnull align 8 dereferenceable(16) %9, i32 noundef %10, i32 noundef %11)
          to label %12 unwind label %13

12:                                               ; preds = %3
  call void @_ZN7testing11CardinalityC2EPKNS_20CardinalityInterfaceE(ptr noundef nonnull align 8 dereferenceable(16) %0, ptr noundef %9)
  ret void

13:                                               ; preds = %3
  %14 = landingpad { ptr, i32 }
          cleanup
  %15 = extractvalue { ptr, i32 } %14, 0
  store ptr %15, ptr %7, align 8
  %16 = extractvalue { ptr, i32 } %14, 1
  store i32 %16, ptr %8, align 4
  call void @_ZdlPvm(ptr noundef %9, i64 noundef 16) #28
  br label %17

17:                                               ; preds = %13
  %18 = load ptr, ptr %7, align 8
  %19 = load i32, ptr %8, align 4
  %20 = insertvalue { ptr, i32 } poison, ptr %18, 0
  %21 = insertvalue { ptr, i32 } %20, i32 %19, 1
  resume { ptr, i32 } %21
}

; Function Attrs: mustprogress uwtable
define void @_ZN7testing6AtMostEi(ptr dead_on_unwind noalias writable sret(%"class.testing::Cardinality") align 8 %0, i32 noundef %1) #4 {
  %3 = alloca ptr, align 8
  %4 = alloca i32, align 4
  store ptr %0, ptr %3, align 8
  store i32 %1, ptr %4, align 4, !tbaa !3
  %5 = load i32, ptr %4, align 4, !tbaa !3
  call void @_ZN7testing7BetweenEii(ptr dead_on_unwind writable sret(%"class.testing::Cardinality") align 8 %0, i32 noundef 0, i32 noundef %5)
  ret void
}

; Function Attrs: mustprogress uwtable
define void @_ZN7testing9AnyNumberEv(ptr dead_on_unwind noalias writable sret(%"class.testing::Cardinality") align 8 %0) #4 {
  %2 = alloca ptr, align 8
  store ptr %0, ptr %2, align 8
  call void @_ZN7testing7AtLeastEi(ptr dead_on_unwind writable sret(%"class.testing::Cardinality") align 8 %0, i32 noundef 0)
  ret void
}

; Function Attrs: nobuiltin allocsize(0)
declare noundef nonnull ptr @_Znwm(i64 noundef) #8

; Function Attrs: mustprogress uwtable
define internal void @_ZN7testing12_GLOBAL__N_122BetweenCardinalityImplC2Eii(ptr noundef nonnull align 8 dereferenceable(16) %0, i32 noundef %1, i32 noundef %2) unnamed_addr #4 align 2 personality ptr @__gxx_personality_v0 {
  %4 = alloca ptr, align 8
  %5 = alloca i32, align 4
  %6 = alloca i32, align 4
  %7 = alloca %"class.std::__cxx11::basic_stringstream", align 8
  %8 = alloca ptr, align 8
  %9 = alloca i32, align 4
  %10 = alloca %"class.std::__cxx11::basic_string", align 8
  %11 = alloca %"class.std::__cxx11::basic_string", align 8
  %12 = alloca %"class.std::__cxx11::basic_string", align 8
  store ptr %0, ptr %4, align 8, !tbaa !16
  store i32 %1, ptr %5, align 4, !tbaa !3
  store i32 %2, ptr %6, align 4, !tbaa !3
  %13 = load ptr, ptr %4, align 8
  call void @_ZN7testing20CardinalityInterfaceC2Ev(ptr noundef nonnull align 8 dereferenceable(8) %13) #3
  store ptr getelementptr inbounds inrange(-16, 56) ({ [9 x ptr] }, ptr @_ZTVN7testing12_GLOBAL__N_122BetweenCardinalityImplE, i32 0, i32 0, i32 2), ptr %13, align 8, !tbaa !14
  %14 = getelementptr inbounds nuw %"class.testing::(anonymous namespace)::BetweenCardinalityImpl", ptr %13, i32 0, i32 1
  %15 = load i32, ptr %5, align 4, !tbaa !3
  %16 = icmp sge i32 %15, 0
  br i1 %16, label %17, label %19

17:                                               ; preds = %3
  %18 = load i32, ptr %5, align 4, !tbaa !3
  br label %20

19:                                               ; preds = %3
  br label %20

20:                                               ; preds = %19, %17
  %21 = phi i32 [ %18, %17 ], [ 0, %19 ]
  store i32 %21, ptr %14, align 8, !tbaa !18
  %22 = getelementptr inbounds nuw %"class.testing::(anonymous namespace)::BetweenCardinalityImpl", ptr %13, i32 0, i32 2
  %23 = load i32, ptr %6, align 4, !tbaa !3
  %24 = getelementptr inbounds nuw %"class.testing::(anonymous namespace)::BetweenCardinalityImpl", ptr %13, i32 0, i32 1
  %25 = load i32, ptr %24, align 8, !tbaa !18
  %26 = icmp sge i32 %23, %25
  br i1 %26, label %27, label %29

27:                                               ; preds = %20
  %28 = load i32, ptr %6, align 4, !tbaa !3
  br label %32

29:                                               ; preds = %20
  %30 = getelementptr inbounds nuw %"class.testing::(anonymous namespace)::BetweenCardinalityImpl", ptr %13, i32 0, i32 1
  %31 = load i32, ptr %30, align 8, !tbaa !18
  br label %32

32:                                               ; preds = %29, %27
  %33 = phi i32 [ %28, %27 ], [ %31, %29 ]
  store i32 %33, ptr %22, align 4, !tbaa !21
  call void @llvm.lifetime.start.p0(i64 392, ptr %7) #3
  invoke void @_ZNSt7__cxx1118basic_stringstreamIcSt11char_traitsIcESaIcEEC1Ev(ptr noundef nonnull align 8 dereferenceable(128) %7)
          to label %34 unwind label %50

34:                                               ; preds = %32
  %35 = load i32, ptr %5, align 4, !tbaa !3
  %36 = icmp slt i32 %35, 0
  br i1 %36, label %37, label %67

37:                                               ; preds = %34
  %38 = getelementptr inbounds i8, ptr %7, i64 16
  %39 = invoke noundef nonnull align 8 dereferenceable(8) ptr @_ZStlsISt11char_traitsIcEERSt13basic_ostreamIcT_ES5_PKc(ptr noundef nonnull align 8 dereferenceable(8) %38, ptr noundef @.str.85)
          to label %40 unwind label %54

40:                                               ; preds = %37
  %41 = invoke noundef nonnull align 8 dereferenceable(8) ptr @_ZStlsISt11char_traitsIcEERSt13basic_ostreamIcT_ES5_PKc(ptr noundef nonnull align 8 dereferenceable(8) %39, ptr noundef @.str.86)
          to label %42 unwind label %54

42:                                               ; preds = %40
  %43 = load i32, ptr %5, align 4, !tbaa !3
  %44 = invoke noundef nonnull align 8 dereferenceable(8) ptr @_ZNSolsEi(ptr noundef nonnull align 8 dereferenceable(8) %41, i32 noundef %43)
          to label %45 unwind label %54

45:                                               ; preds = %42
  %46 = invoke noundef nonnull align 8 dereferenceable(8) ptr @_ZStlsISt11char_traitsIcEERSt13basic_ostreamIcT_ES5_PKc(ptr noundef nonnull align 8 dereferenceable(8) %44, ptr noundef @.str.66)
          to label %47 unwind label %54

47:                                               ; preds = %45
  call void @llvm.lifetime.start.p0(i64 32, ptr %10) #3
  invoke void @_ZNKSt7__cxx1118basic_stringstreamIcSt11char_traitsIcESaIcEE3strEv(ptr dead_on_unwind writable sret(%"class.std::__cxx11::basic_string") align 8 %10, ptr noundef nonnull align 8 dereferenceable(128) %7)
          to label %48 unwind label %58

48:                                               ; preds = %47
  invoke void @_ZN7testing8internal6ExpectEbPKciRKNSt7__cxx1112basic_stringIcSt11char_traitsIcESaIcEEE(i1 noundef zeroext false, ptr noundef @.str.87, i32 noundef 58, ptr noundef nonnull align 8 dereferenceable(32) %10)
          to label %49 unwind label %62

49:                                               ; preds = %48
  call void @_ZNSt7__cxx1112basic_stringIcSt11char_traitsIcESaIcEED2Ev(ptr noundef nonnull align 8 dereferenceable(32) %10) #3
  call void @llvm.lifetime.end.p0(i64 32, ptr %10) #3
  br label %123

50:                                               ; preds = %32
  %51 = landingpad { ptr, i32 }
          cleanup
  %52 = extractvalue { ptr, i32 } %51, 0
  store ptr %52, ptr %8, align 8
  %53 = extractvalue { ptr, i32 } %51, 1
  store i32 %53, ptr %9, align 4
  br label %125

54:                                               ; preds = %107, %104, %102, %99, %96, %78, %75, %73, %70, %45, %42, %40, %37
  %55 = landingpad { ptr, i32 }
          cleanup
  %56 = extractvalue { ptr, i32 } %55, 0
  store ptr %56, ptr %8, align 8
  %57 = extractvalue { ptr, i32 } %55, 1
  store i32 %57, ptr %9, align 4
  br label %124

58:                                               ; preds = %47
  %59 = landingpad { ptr, i32 }
          cleanup
  %60 = extractvalue { ptr, i32 } %59, 0
  store ptr %60, ptr %8, align 8
  %61 = extractvalue { ptr, i32 } %59, 1
  store i32 %61, ptr %9, align 4
  br label %66

62:                                               ; preds = %48
  %63 = landingpad { ptr, i32 }
          cleanup
  %64 = extractvalue { ptr, i32 } %63, 0
  store ptr %64, ptr %8, align 8
  %65 = extractvalue { ptr, i32 } %63, 1
  store i32 %65, ptr %9, align 4
  call void @_ZNSt7__cxx1112basic_stringIcSt11char_traitsIcESaIcEED2Ev(ptr noundef nonnull align 8 dereferenceable(32) %10) #3
  br label %66

66:                                               ; preds = %62, %58
  call void @llvm.lifetime.end.p0(i64 32, ptr %10) #3
  br label %124

67:                                               ; preds = %34
  %68 = load i32, ptr %6, align 4, !tbaa !3
  %69 = icmp slt i32 %68, 0
  br i1 %69, label %70, label %92

70:                                               ; preds = %67
  %71 = getelementptr inbounds i8, ptr %7, i64 16
  %72 = invoke noundef nonnull align 8 dereferenceable(8) ptr @_ZStlsISt11char_traitsIcEERSt13basic_ostreamIcT_ES5_PKc(ptr noundef nonnull align 8 dereferenceable(8) %71, ptr noundef @.str.88)
          to label %73 unwind label %54

73:                                               ; preds = %70
  %74 = invoke noundef nonnull align 8 dereferenceable(8) ptr @_ZStlsISt11char_traitsIcEERSt13basic_ostreamIcT_ES5_PKc(ptr noundef nonnull align 8 dereferenceable(8) %72, ptr noundef @.str.86)
          to label %75 unwind label %54

75:                                               ; preds = %73
  %76 = load i32, ptr %6, align 4, !tbaa !3
  %77 = invoke noundef nonnull align 8 dereferenceable(8) ptr @_ZNSolsEi(ptr noundef nonnull align 8 dereferenceable(8) %74, i32 noundef %76)
          to label %78 unwind label %54

78:                                               ; preds = %75
  %79 = invoke noundef nonnull align 8 dereferenceable(8) ptr @_ZStlsISt11char_traitsIcEERSt13basic_ostreamIcT_ES5_PKc(ptr noundef nonnull align 8 dereferenceable(8) %77, ptr noundef @.str.66)
          to label %80 unwind label %54

80:                                               ; preds = %78
  call void @llvm.lifetime.start.p0(i64 32, ptr %11) #3
  invoke void @_ZNKSt7__cxx1118basic_stringstreamIcSt11char_traitsIcESaIcEE3strEv(ptr dead_on_unwind writable sret(%"class.std::__cxx11::basic_string") align 8 %11, ptr noundef nonnull align 8 dereferenceable(128) %7)
          to label %81 unwind label %83

81:                                               ; preds = %80
  invoke void @_ZN7testing8internal6ExpectEbPKciRKNSt7__cxx1112basic_stringIcSt11char_traitsIcESaIcEEE(i1 noundef zeroext false, ptr noundef @.str.87, i32 noundef 62, ptr noundef nonnull align 8 dereferenceable(32) %11)
          to label %82 unwind label %87

82:                                               ; preds = %81
  call void @_ZNSt7__cxx1112basic_stringIcSt11char_traitsIcESaIcEED2Ev(ptr noundef nonnull align 8 dereferenceable(32) %11) #3
  call void @llvm.lifetime.end.p0(i64 32, ptr %11) #3
  br label %122

83:                                               ; preds = %80
  %84 = landingpad { ptr, i32 }
          cleanup
  %85 = extractvalue { ptr, i32 } %84, 0
  store ptr %85, ptr %8, align 8
  %86 = extractvalue { ptr, i32 } %84, 1
  store i32 %86, ptr %9, align 4
  br label %91

87:                                               ; preds = %81
  %88 = landingpad { ptr, i32 }
          cleanup
  %89 = extractvalue { ptr, i32 } %88, 0
  store ptr %89, ptr %8, align 8
  %90 = extractvalue { ptr, i32 } %88, 1
  store i32 %90, ptr %9, align 4
  call void @_ZNSt7__cxx1112basic_stringIcSt11char_traitsIcESaIcEED2Ev(ptr noundef nonnull align 8 dereferenceable(32) %11) #3
  br label %91

91:                                               ; preds = %87, %83
  call void @llvm.lifetime.end.p0(i64 32, ptr %11) #3
  br label %124

92:                                               ; preds = %67
  %93 = load i32, ptr %5, align 4, !tbaa !3
  %94 = load i32, ptr %6, align 4, !tbaa !3
  %95 = icmp sgt i32 %93, %94
  br i1 %95, label %96, label %121

96:                                               ; preds = %92
  %97 = getelementptr inbounds i8, ptr %7, i64 16
  %98 = invoke noundef nonnull align 8 dereferenceable(8) ptr @_ZStlsISt11char_traitsIcEERSt13basic_ostreamIcT_ES5_PKc(ptr noundef nonnull align 8 dereferenceable(8) %97, ptr noundef @.str.89)
          to label %99 unwind label %54

99:                                               ; preds = %96
  %100 = load i32, ptr %6, align 4, !tbaa !3
  %101 = invoke noundef nonnull align 8 dereferenceable(8) ptr @_ZNSolsEi(ptr noundef nonnull align 8 dereferenceable(8) %98, i32 noundef %100)
          to label %102 unwind label %54

102:                                              ; preds = %99
  %103 = invoke noundef nonnull align 8 dereferenceable(8) ptr @_ZStlsISt11char_traitsIcEERSt13basic_ostreamIcT_ES5_PKc(ptr noundef nonnull align 8 dereferenceable(8) %101, ptr noundef @.str.90)
          to label %104 unwind label %54

104:                                              ; preds = %102
  %105 = load i32, ptr %5, align 4, !tbaa !3
  %106 = invoke noundef nonnull align 8 dereferenceable(8) ptr @_ZNSolsEi(ptr noundef nonnull align 8 dereferenceable(8) %103, i32 noundef %105)
          to label %107 unwind label %54

107:                                              ; preds = %104
  %108 = invoke noundef nonnull align 8 dereferenceable(8) ptr @_ZStlsISt11char_traitsIcEERSt13basic_ostreamIcT_ES5_PKc(ptr noundef nonnull align 8 dereferenceable(8) %106, ptr noundef @.str.91)
          to label %109 unwind label %54

109:                                              ; preds = %107
  call void @llvm.lifetime.start.p0(i64 32, ptr %12) #3
  invoke void @_ZNKSt7__cxx1118basic_stringstreamIcSt11char_traitsIcESaIcEE3strEv(ptr dead_on_unwind writable sret(%"class.std::__cxx11::basic_string") align 8 %12, ptr noundef nonnull align 8 dereferenceable(128) %7)
          to label %110 unwind label %112

110:                                              ; preds = %109
  invoke void @_ZN7testing8internal6ExpectEbPKciRKNSt7__cxx1112basic_stringIcSt11char_traitsIcESaIcEEE(i1 noundef zeroext false, ptr noundef @.str.87, i32 noundef 66, ptr noundef nonnull align 8 dereferenceable(32) %12)
          to label %111 unwind label %116

111:                                              ; preds = %110
  call void @_ZNSt7__cxx1112basic_stringIcSt11char_traitsIcESaIcEED2Ev(ptr noundef nonnull align 8 dereferenceable(32) %12) #3
  call void @llvm.lifetime.end.p0(i64 32, ptr %12) #3
  br label %121

112:                                              ; preds = %109
  %113 = landingpad { ptr, i32 }
          cleanup
  %114 = extractvalue { ptr, i32 } %113, 0
  store ptr %114, ptr %8, align 8
  %115 = extractvalue { ptr, i32 } %113, 1
  store i32 %115, ptr %9, align 4
  br label %120

116:                                              ; preds = %110
  %117 = landingpad { ptr, i32 }
          cleanup
  %118 = extractvalue { ptr, i32 } %117, 0
  store ptr %118, ptr %8, align 8
  %119 = extractvalue { ptr, i32 } %117, 1
  store i32 %119, ptr %9, align 4
  call void @_ZNSt7__cxx1112basic_stringIcSt11char_traitsIcESaIcEED2Ev(ptr noundef nonnull align 8 dereferenceable(32) %12) #3
  br label %120

120:                                              ; preds = %116, %112
  call void @llvm.lifetime.end.p0(i64 32, ptr %12) #3
  br label %124

121:                                              ; preds = %111, %92
  br label %122

122:                                              ; preds = %121, %82
  br label %123

123:                                              ; preds = %122, %49
  call void @_ZNSt7__cxx1118basic_stringstreamIcSt11char_traitsIcESaIcEED1Ev(ptr noundef nonnull align 8 dereferenceable(128) %7) #3
  call void @llvm.lifetime.end.p0(i64 392, ptr %7) #3
  ret void

124:                                              ; preds = %120, %91, %66, %54
  call void @_ZNSt7__cxx1118basic_stringstreamIcSt11char_traitsIcESaIcEED1Ev(ptr noundef nonnull align 8 dereferenceable(128) %7) #3
  br label %125

125:                                              ; preds = %124, %50
  call void @llvm.lifetime.end.p0(i64 392, ptr %7) #3
  call void @_ZN7testing20CardinalityInterfaceD2Ev(ptr noundef nonnull align 8 dereferenceable(8) %13) #3
  br label %126

126:                                              ; preds = %125
  %127 = load ptr, ptr %8, align 8
  %128 = load i32, ptr %9, align 4
  %129 = insertvalue { ptr, i32 } poison, ptr %127, 0
  %130 = insertvalue { ptr, i32 } %129, i32 %128, 1
  resume { ptr, i32 } %130
}

; Function Attrs: nobuiltin nounwind
declare void @_ZdlPvm(ptr noundef, i64 noundef) #9

; Function Attrs: mustprogress uwtable
define linkonce_odr void @_ZN7testing11CardinalityC2EPKNS_20CardinalityInterfaceE(ptr noundef nonnull align 8 dereferenceable(16) %0, ptr noundef %1) unnamed_addr #4 comdat align 2 {
  %3 = alloca ptr, align 8
  %4 = alloca ptr, align 8
  store ptr %0, ptr %3, align 8, !tbaa !22
  store ptr %1, ptr %4, align 8, !tbaa !24
  %5 = load ptr, ptr %3, align 8
  %6 = getelementptr inbounds nuw %"class.testing::Cardinality", ptr %5, i32 0, i32 0
  %7 = load ptr, ptr %4, align 8, !tbaa !24
  call void @_ZNSt10shared_ptrIKN7testing20CardinalityInterfaceEEC2IS2_vEEPT_(ptr noundef nonnull align 8 dereferenceable(16) %6, ptr noundef %7)
  ret void
}

; Function Attrs: mustprogress uwtable
define void @_ZN7testing7ExactlyEi(ptr dead_on_unwind noalias writable sret(%"class.testing::Cardinality") align 8 %0, i32 noundef %1) #4 {
  %3 = alloca ptr, align 8
  %4 = alloca i32, align 4
  store ptr %0, ptr %3, align 8
  store i32 %1, ptr %4, align 4, !tbaa !3
  %5 = load i32, ptr %4, align 4, !tbaa !3
  %6 = load i32, ptr %4, align 4, !tbaa !3
  call void @_ZN7testing7BetweenEii(ptr dead_on_unwind writable sret(%"class.testing::Cardinality") align 8 %0, i32 noundef %5, i32 noundef %6)
  ret void
}

; Function Attrs: mustprogress uwtable
define void @_ZN7testing8internal19JoinAsKeyValueTupleERKSt6vectorIPKcSaIS3_EERKS1_INSt7__cxx1112basic_stringIcSt11char_traitsIcESaIcEEESaISD_EE(ptr dead_on_unwind noalias writable sret(%"class.std::__cxx11::basic_string") align 8 %0, ptr noundef nonnull align 8 dereferenceable(24) %1, ptr noundef nonnull align 8 dereferenceable(24) %2) #4 personality ptr @__gxx_personality_v0 {
  %4 = alloca ptr, align 8
  %5 = alloca ptr, align 8
  %6 = alloca ptr, align 8
  %7 = alloca %"class.testing::internal::GTestLog", align 4
  %8 = alloca ptr, align 8
  %9 = alloca i32, align 4
  %10 = alloca %"class.std::allocator", align 1
  %11 = alloca %class.anon, align 8
  %12 = alloca i1, align 1
  %13 = alloca %"class.std::__cxx11::basic_string", align 8
  %14 = alloca i64, align 8
  %15 = alloca %"class.std::__cxx11::basic_string", align 8
  store ptr %0, ptr %4, align 8
  store ptr %1, ptr %5, align 8, !tbaa !26
  store ptr %2, ptr %6, align 8, !tbaa !28
  %16 = load ptr, ptr %5, align 8, !tbaa !26
  %17 = call noundef i64 @_ZNKSt6vectorIPKcSaIS1_EE4sizeEv(ptr noundef nonnull align 8 dereferenceable(24) %16) #3
  %18 = load ptr, ptr %6, align 8, !tbaa !28
  %19 = call noundef i64 @_ZNKSt6vectorINSt7__cxx1112basic_stringIcSt11char_traitsIcESaIcEEESaIS5_EE4sizeEv(ptr noundef nonnull align 8 dereferenceable(24) %18) #3
  %20 = icmp eq i64 %17, %19
  %21 = call noundef zeroext i1 @_ZN7testing8internal6IsTrueEb(i1 noundef zeroext %20)
  br i1 %21, label %22, label %23

22:                                               ; preds = %3
  br label %32

23:                                               ; preds = %3
  call void @llvm.lifetime.start.p0(i64 4, ptr %7) #3
  call void @_ZN7testing8internal8GTestLogC1ENS0_16GTestLogSeverityEPKci(ptr noundef nonnull align 4 dereferenceable(4) %7, i32 noundef 3, ptr noundef @.str.2, i32 noundef 60)
  %24 = invoke noundef nonnull align 8 dereferenceable(8) ptr @_ZN7testing8internal8GTestLog9GetStreamEv(ptr noundef nonnull align 4 dereferenceable(4) %7)
          to label %25 unwind label %28

25:                                               ; preds = %23
  %26 = invoke noundef nonnull align 8 dereferenceable(8) ptr @_ZStlsISt11char_traitsIcEERSt13basic_ostreamIcT_ES5_PKc(ptr noundef nonnull align 8 dereferenceable(8) %24, ptr noundef @.str.3)
          to label %27 unwind label %28

27:                                               ; preds = %25
  call void @_ZN7testing8internal8GTestLogD1Ev(ptr noundef nonnull align 4 dereferenceable(4) %7) #3
  call void @llvm.lifetime.end.p0(i64 4, ptr %7) #3
  br label %32

28:                                               ; preds = %25, %23
  %29 = landingpad { ptr, i32 }
          cleanup
  %30 = extractvalue { ptr, i32 } %29, 0
  store ptr %30, ptr %8, align 8
  %31 = extractvalue { ptr, i32 } %29, 1
  store i32 %31, ptr %9, align 4
  call void @_ZN7testing8internal8GTestLogD1Ev(ptr noundef nonnull align 4 dereferenceable(4) %7) #3
  call void @llvm.lifetime.end.p0(i64 4, ptr %7) #3
  br label %94

32:                                               ; preds = %27, %22
  %33 = load ptr, ptr %6, align 8, !tbaa !28
  %34 = call noundef zeroext i1 @_ZNKSt6vectorINSt7__cxx1112basic_stringIcSt11char_traitsIcESaIcEEESaIS5_EE5emptyEv(ptr noundef nonnull align 8 dereferenceable(24) %33) #3
  br i1 %34, label %35, label %41

35:                                               ; preds = %32
  call void @llvm.lifetime.start.p0(i64 1, ptr %10) #3
  call void @_ZNSaIcEC2Ev(ptr noundef nonnull align 1 dereferenceable(1) %10) #3
  invoke void @_ZNSt7__cxx1112basic_stringIcSt11char_traitsIcESaIcEEC2IS3_EEPKcRKS3_(ptr noundef nonnull align 8 dereferenceable(32) %0, ptr noundef @.str.4, ptr noundef nonnull align 1 dereferenceable(1) %10)
          to label %36 unwind label %37

36:                                               ; preds = %35
  call void @_ZNSt15__new_allocatorIcED2Ev(ptr noundef nonnull align 1 dereferenceable(1) %10) #3
  call void @llvm.lifetime.end.p0(i64 1, ptr %10) #3
  br label %93

37:                                               ; preds = %35
  %38 = landingpad { ptr, i32 }
          cleanup
  %39 = extractvalue { ptr, i32 } %38, 0
  store ptr %39, ptr %8, align 8
  %40 = extractvalue { ptr, i32 } %38, 1
  store i32 %40, ptr %9, align 4
  call void @_ZNSt15__new_allocatorIcED2Ev(ptr noundef nonnull align 1 dereferenceable(1) %10) #3
  call void @llvm.lifetime.end.p0(i64 1, ptr %10) #3
  br label %94

41:                                               ; preds = %32
  call void @llvm.lifetime.start.p0(i64 16, ptr %11) #3
  %42 = getelementptr inbounds nuw %class.anon, ptr %11, i32 0, i32 0
  %43 = load ptr, ptr %5, align 8, !tbaa !26
  store ptr %43, ptr %42, align 8, !tbaa !26
  %44 = getelementptr inbounds nuw %class.anon, ptr %11, i32 0, i32 1
  %45 = load ptr, ptr %6, align 8, !tbaa !28
  store ptr %45, ptr %44, align 8, !tbaa !28
  store i1 false, ptr %12, align 1
  call void @llvm.lifetime.start.p0(i64 32, ptr %13) #3
  call void @"_ZZN7testing8internal19JoinAsKeyValueTupleERKSt6vectorIPKcSaIS3_EERKS1_INSt7__cxx1112basic_stringIcSt11char_traitsIcESaIcEEESaISD_EEENK3$_0clB5cxx11Em"(ptr dead_on_unwind writable sret(%"class.std::__cxx11::basic_string") align 8 %13, ptr noundef nonnull align 8 dereferenceable(16) %11, i64 noundef 0)
  invoke void @_ZStplIcSt11char_traitsIcESaIcEENSt7__cxx1112basic_stringIT_T0_T1_EEPKS5_OS8_(ptr dead_on_unwind writable sret(%"class.std::__cxx11::basic_string") align 8 %0, ptr noundef @.str.5, ptr noundef nonnull align 8 dereferenceable(32) %13)
          to label %46 unwind label %53

46:                                               ; preds = %41
  call void @_ZNSt7__cxx1112basic_stringIcSt11char_traitsIcESaIcEED2Ev(ptr noundef nonnull align 8 dereferenceable(32) %13) #3
  call void @llvm.lifetime.end.p0(i64 32, ptr %13) #3
  call void @llvm.lifetime.start.p0(i64 8, ptr %14) #3
  store i64 1, ptr %14, align 8, !tbaa !30
  br label %47

47:                                               ; preds = %64, %46
  %48 = load i64, ptr %14, align 8, !tbaa !30
  %49 = load ptr, ptr %6, align 8, !tbaa !28
  %50 = call noundef i64 @_ZNKSt6vectorINSt7__cxx1112basic_stringIcSt11char_traitsIcESaIcEEESaIS5_EE4sizeEv(ptr noundef nonnull align 8 dereferenceable(24) %49) #3
  %51 = icmp ult i64 %48, %50
  br i1 %51, label %57, label %52

52:                                               ; preds = %47
  call void @llvm.lifetime.end.p0(i64 8, ptr %14) #3
  br label %81

53:                                               ; preds = %41
  %54 = landingpad { ptr, i32 }
          cleanup
  %55 = extractvalue { ptr, i32 } %54, 0
  store ptr %55, ptr %8, align 8
  %56 = extractvalue { ptr, i32 } %54, 1
  store i32 %56, ptr %9, align 4
  call void @_ZNSt7__cxx1112basic_stringIcSt11char_traitsIcESaIcEED2Ev(ptr noundef nonnull align 8 dereferenceable(32) %13) #3
  call void @llvm.lifetime.end.p0(i64 32, ptr %13) #3
  br label %92

57:                                               ; preds = %47
  %58 = invoke noundef nonnull align 8 dereferenceable(32) ptr @_ZNSt7__cxx1112basic_stringIcSt11char_traitsIcESaIcEEpLEPKc(ptr noundef nonnull align 8 dereferenceable(32) %0, ptr noundef @.str.6)
          to label %59 unwind label %67

59:                                               ; preds = %57
  call void @llvm.lifetime.start.p0(i64 32, ptr %15) #3
  %60 = load i64, ptr %14, align 8, !tbaa !30
  invoke void @"_ZZN7testing8internal19JoinAsKeyValueTupleERKSt6vectorIPKcSaIS3_EERKS1_INSt7__cxx1112basic_stringIcSt11char_traitsIcESaIcEEESaISD_EEENK3$_0clB5cxx11Em"(ptr dead_on_unwind writable sret(%"class.std::__cxx11::basic_string") align 8 %15, ptr noundef nonnull align 8 dereferenceable(16) %11, i64 noundef %60)
          to label %61 unwind label %71

61:                                               ; preds = %59
  %62 = invoke noundef nonnull align 8 dereferenceable(32) ptr @_ZNSt7__cxx1112basic_stringIcSt11char_traitsIcESaIcEEpLERKS4_(ptr noundef nonnull align 8 dereferenceable(32) %0, ptr noundef nonnull align 8 dereferenceable(32) %15)
          to label %63 unwind label %75

63:                                               ; preds = %61
  call void @_ZNSt7__cxx1112basic_stringIcSt11char_traitsIcESaIcEED2Ev(ptr noundef nonnull align 8 dereferenceable(32) %15) #3
  call void @llvm.lifetime.end.p0(i64 32, ptr %15) #3
  br label %64

64:                                               ; preds = %63
  %65 = load i64, ptr %14, align 8, !tbaa !30
  %66 = add i64 %65, 1
  store i64 %66, ptr %14, align 8, !tbaa !30
  br label %47, !llvm.loop !32

67:                                               ; preds = %57
  %68 = landingpad { ptr, i32 }
          cleanup
  %69 = extractvalue { ptr, i32 } %68, 0
  store ptr %69, ptr %8, align 8
  %70 = extractvalue { ptr, i32 } %68, 1
  store i32 %70, ptr %9, align 4
  br label %80

71:                                               ; preds = %59
  %72 = landingpad { ptr, i32 }
          cleanup
  %73 = extractvalue { ptr, i32 } %72, 0
  store ptr %73, ptr %8, align 8
  %74 = extractvalue { ptr, i32 } %72, 1
  store i32 %74, ptr %9, align 4
  br label %79

75:                                               ; preds = %61
  %76 = landingpad { ptr, i32 }
          cleanup
  %77 = extractvalue { ptr, i32 } %76, 0
  store ptr %77, ptr %8, align 8
  %78 = extractvalue { ptr, i32 } %76, 1
  store i32 %78, ptr %9, align 4
  call void @_ZNSt7__cxx1112basic_stringIcSt11char_traitsIcESaIcEED2Ev(ptr noundef nonnull align 8 dereferenceable(32) %15) #3
  br label %79

79:                                               ; preds = %75, %71
  call void @llvm.lifetime.end.p0(i64 32, ptr %15) #3
  br label %80

80:                                               ; preds = %79, %67
  call void @llvm.lifetime.end.p0(i64 8, ptr %14) #3
  br label %91

81:                                               ; preds = %52
  %82 = invoke noundef nonnull align 8 dereferenceable(32) ptr @_ZNSt7__cxx1112basic_stringIcSt11char_traitsIcESaIcEEpLEPKc(ptr noundef nonnull align 8 dereferenceable(32) %0, ptr noundef @.str.7)
          to label %83 unwind label %85

83:                                               ; preds = %81
  store i1 true, ptr %12, align 1
  %84 = load i1, ptr %12, align 1
  br i1 %84, label %90, label %89

85:                                               ; preds = %81
  %86 = landingpad { ptr, i32 }
          cleanup
  %87 = extractvalue { ptr, i32 } %86, 0
  store ptr %87, ptr %8, align 8
  %88 = extractvalue { ptr, i32 } %86, 1
  store i32 %88, ptr %9, align 4
  br label %91

89:                                               ; preds = %83
  call void @_ZNSt7__cxx1112basic_stringIcSt11char_traitsIcESaIcEED2Ev(ptr noundef nonnull align 8 dereferenceable(32) %0) #3
  br label %90

90:                                               ; preds = %89, %83
  call void @llvm.lifetime.end.p0(i64 16, ptr %11) #3
  br label %93

91:                                               ; preds = %85, %80
  call void @_ZNSt7__cxx1112basic_stringIcSt11char_traitsIcESaIcEED2Ev(ptr noundef nonnull align 8 dereferenceable(32) %0) #3
  br label %92

92:                                               ; preds = %91, %53
  call void @llvm.lifetime.end.p0(i64 16, ptr %11) #3
  br label %94

93:                                               ; preds = %90, %36
  ret void

94:                                               ; preds = %92, %37, %28
  %95 = load ptr, ptr %8, align 8
  %96 = load i32, ptr %9, align 4
  %97 = insertvalue { ptr, i32 } poison, ptr %95, 0
  %98 = insertvalue { ptr, i32 } %97, i32 %96, 1
  resume { ptr, i32 } %98
}

declare noundef zeroext i1 @_ZN7testing8internal6IsTrueEb(i1 noundef zeroext) #1

; Function Attrs: mustprogress nounwind uwtable
define linkonce_odr noundef i64 @_ZNKSt6vectorIPKcSaIS1_EE4sizeEv(ptr noundef nonnull align 8 dereferenceable(24) %0) #7 comdat align 2 {
  %2 = alloca ptr, align 8
  store ptr %0, ptr %2, align 8, !tbaa !26
  %3 = load ptr, ptr %2, align 8
  %4 = getelementptr inbounds nuw %"struct.std::_Vector_base", ptr %3, i32 0, i32 0
  %5 = getelementptr inbounds nuw %"struct.std::_Vector_base<const char *, std::allocator<const char *>>::_Vector_impl_data", ptr %4, i32 0, i32 1
  %6 = load ptr, ptr %5, align 8, !tbaa !34
  %7 = getelementptr inbounds nuw %"struct.std::_Vector_base", ptr %3, i32 0, i32 0
  %8 = getelementptr inbounds nuw %"struct.std::_Vector_base<const char *, std::allocator<const char *>>::_Vector_impl_data", ptr %7, i32 0, i32 0
  %9 = load ptr, ptr %8, align 8, !tbaa !37
  %10 = ptrtoint ptr %6 to i64
  %11 = ptrtoint ptr %9 to i64
  %12 = sub i64 %10, %11
  %13 = sdiv exact i64 %12, 8
  ret i64 %13
}

; Function Attrs: mustprogress nounwind uwtable
define linkonce_odr noundef i64 @_ZNKSt6vectorINSt7__cxx1112basic_stringIcSt11char_traitsIcESaIcEEESaIS5_EE4sizeEv(ptr noundef nonnull align 8 dereferenceable(24) %0) #7 comdat align 2 {
  %2 = alloca ptr, align 8
  store ptr %0, ptr %2, align 8, !tbaa !28
  %3 = load ptr, ptr %2, align 8
  %4 = getelementptr inbounds nuw %"struct.std::_Vector_base.4", ptr %3, i32 0, i32 0
  %5 = getelementptr inbounds nuw %"struct.std::_Vector_base<std::__cxx11::basic_string<char>, std::allocator<std::__cxx11::basic_string<char>>>::_Vector_impl_data", ptr %4, i32 0, i32 1
  %6 = load ptr, ptr %5, align 8, !tbaa !38
  %7 = getelementptr inbounds nuw %"struct.std::_Vector_base.4", ptr %3, i32 0, i32 0
  %8 = getelementptr inbounds nuw %"struct.std::_Vector_base<std::__cxx11::basic_string<char>, std::allocator<std::__cxx11::basic_string<char>>>::_Vector_impl_data", ptr %7, i32 0, i32 0
  %9 = load ptr, ptr %8, align 8, !tbaa !40
  %10 = ptrtoint ptr %6 to i64
  %11 = ptrtoint ptr %9 to i64
  %12 = sub i64 %10, %11
  %13 = sdiv exact i64 %12, 32
  ret i64 %13
}

declare void @_ZN7testing8internal8GTestLogC1ENS0_16GTestLogSeverityEPKci(ptr noundef nonnull align 4 dereferenceable(4), i32 noundef, ptr noundef, i32 noundef) unnamed_addr #1

; Function Attrs: mustprogress nounwind uwtable
define linkonce_odr noundef nonnull align 8 dereferenceable(8) ptr @_ZN7testing8internal8GTestLog9GetStreamEv(ptr noundef nonnull align 4 dereferenceable(4) %0) #7 comdat align 2 {
  %2 = alloca ptr, align 8
  store ptr %0, ptr %2, align 8, !tbaa !41
  ret ptr @_ZSt4cerr
}

; Function Attrs: nounwind
declare void @_ZN7testing8internal8GTestLogD1Ev(ptr noundef nonnull align 4 dereferenceable(4)) unnamed_addr #2

; Function Attrs: mustprogress nounwind uwtable
define linkonce_odr noundef zeroext i1 @_ZNKSt6vectorINSt7__cxx1112basic_stringIcSt11char_traitsIcESaIcEEESaIS5_EE5emptyEv(ptr noundef nonnull align 8 dereferenceable(24) %0) #7 comdat align 2 {
  %2 = alloca ptr, align 8
  %3 = alloca %"class.__gnu_cxx::__normal_iterator.140", align 8
  %4 = alloca %"class.__gnu_cxx::__normal_iterator.140", align 8
  store ptr %0, ptr %2, align 8, !tbaa !28
  %5 = load ptr, ptr %2, align 8
  call void @llvm.lifetime.start.p0(i64 8, ptr %3) #3
  %6 = call ptr @_ZNKSt6vectorINSt7__cxx1112basic_stringIcSt11char_traitsIcESaIcEEESaIS5_EE5beginEv(ptr noundef nonnull align 8 dereferenceable(24) %5) #3
  %7 = getelementptr inbounds nuw %"class.__gnu_cxx::__normal_iterator.140", ptr %3, i32 0, i32 0
  store ptr %6, ptr %7, align 8
  call void @llvm.lifetime.start.p0(i64 8, ptr %4) #3
  %8 = call ptr @_ZNKSt6vectorINSt7__cxx1112basic_stringIcSt11char_traitsIcESaIcEEESaIS5_EE3endEv(ptr noundef nonnull align 8 dereferenceable(24) %5) #3
  %9 = getelementptr inbounds nuw %"class.__gnu_cxx::__normal_iterator.140", ptr %4, i32 0, i32 0
  store ptr %8, ptr %9, align 8
  %10 = call noundef zeroext i1 @_ZN9__gnu_cxxeqIPKNSt7__cxx1112basic_stringIcSt11char_traitsIcESaIcEEESt6vectorIS6_SaIS6_EEEEbRKNS_17__normal_iteratorIT_T0_EESH_(ptr noundef nonnull align 8 dereferenceable(8) %3, ptr noundef nonnull align 8 dereferenceable(8) %4) #3
  call void @llvm.lifetime.end.p0(i64 8, ptr %4) #3
  call void @llvm.lifetime.end.p0(i64 8, ptr %3) #3
  ret i1 %10
}

; Function Attrs: mustprogress nounwind uwtable
define available_externally void @_ZNSaIcEC2Ev(ptr noundef nonnull align 1 dereferenceable(1) %0) unnamed_addr #7 align 2 {
  %2 = alloca ptr, align 8
  store ptr %0, ptr %2, align 8, !tbaa !43
  %3 = load ptr, ptr %2, align 8
  call void @_ZNSt15__new_allocatorIcEC2Ev(ptr noundef nonnull align 1 dereferenceable(1) %3) #3
  ret void
}

; Function Attrs: mustprogress uwtable
define linkonce_odr void @_ZNSt7__cxx1112basic_stringIcSt11char_traitsIcESaIcEEC2IS3_EEPKcRKS3_(ptr noundef nonnull align 8 dereferenceable(32) %0, ptr noundef %1, ptr noundef nonnull align 1 dereferenceable(1) %2) unnamed_addr #4 comdat align 2 personality ptr @__gxx_personality_v0 {
  %4 = alloca ptr, align 8
  %5 = alloca ptr, align 8
  %6 = alloca ptr, align 8
  %7 = alloca ptr, align 8
  %8 = alloca i32, align 4
  %9 = alloca ptr, align 8
  store ptr %0, ptr %4, align 8, !tbaa !10
  store ptr %1, ptr %5, align 8, !tbaa !12
  store ptr %2, ptr %6, align 8, !tbaa !43
  %10 = load ptr, ptr %4, align 8
  %11 = getelementptr inbounds nuw %"class.std::__cxx11::basic_string", ptr %10, i32 0, i32 0
  %12 = call noundef ptr @_ZNSt7__cxx1112basic_stringIcSt11char_traitsIcESaIcEE13_M_local_dataEv(ptr noundef nonnull align 8 dereferenceable(32) %10)
  %13 = load ptr, ptr %6, align 8, !tbaa !43
  call void @_ZNSt7__cxx1112basic_stringIcSt11char_traitsIcESaIcEE12_Alloc_hiderC2EPcRKS3_(ptr noundef nonnull align 8 dereferenceable(8) %11, ptr noundef %12, ptr noundef nonnull align 1 dereferenceable(1) %13)
  %14 = load ptr, ptr %5, align 8, !tbaa !12
  %15 = icmp eq ptr %14, null
  br i1 %15, label %16, label %22

16:                                               ; preds = %3
  invoke void @_ZSt19__throw_logic_errorPKc(ptr noundef @.str.127) #29
          to label %17 unwind label %18

17:                                               ; preds = %16
  unreachable

18:                                               ; preds = %16
  %19 = landingpad { ptr, i32 }
          cleanup
  %20 = extractvalue { ptr, i32 } %19, 0
  store ptr %20, ptr %7, align 8
  %21 = extractvalue { ptr, i32 } %19, 1
  store i32 %21, ptr %8, align 4
  br label %34

22:                                               ; preds = %3
  call void @llvm.lifetime.start.p0(i64 8, ptr %9) #3
  %23 = load ptr, ptr %5, align 8, !tbaa !12
  %24 = load ptr, ptr %5, align 8, !tbaa !12
  %25 = call noundef i64 @_ZNSt11char_traitsIcE6lengthEPKc(ptr noundef %24)
  %26 = getelementptr inbounds nuw i8, ptr %23, i64 %25
  store ptr %26, ptr %9, align 8, !tbaa !12
  %27 = load ptr, ptr %5, align 8, !tbaa !12
  %28 = load ptr, ptr %9, align 8, !tbaa !12
  invoke void @_ZNSt7__cxx1112basic_stringIcSt11char_traitsIcESaIcEE12_M_constructIPKcEEvT_S8_St20forward_iterator_tag(ptr noundef nonnull align 8 dereferenceable(32) %10, ptr noundef %27, ptr noundef %28)
          to label %29 unwind label %30

29:                                               ; preds = %22
  call void @llvm.lifetime.end.p0(i64 8, ptr %9) #3
  ret void

30:                                               ; preds = %22
  %31 = landingpad { ptr, i32 }
          cleanup
  %32 = extractvalue { ptr, i32 } %31, 0
  store ptr %32, ptr %7, align 8
  %33 = extractvalue { ptr, i32 } %31, 1
  store i32 %33, ptr %8, align 4
  call void @llvm.lifetime.end.p0(i64 8, ptr %9) #3
  br label %34

34:                                               ; preds = %30, %18
  call void @_ZNSt15__new_allocatorIcED2Ev(ptr noundef nonnull align 8 dereferenceable(8) %11) #3
  br label %35

35:                                               ; preds = %34
  %36 = load ptr, ptr %7, align 8
  %37 = load i32, ptr %8, align 4
  %38 = insertvalue { ptr, i32 } poison, ptr %36, 0
  %39 = insertvalue { ptr, i32 } %38, i32 %37, 1
  resume { ptr, i32 } %39
}

; Function Attrs: inlinehint mustprogress uwtable
define linkonce_odr void @_ZStplIcSt11char_traitsIcESaIcEENSt7__cxx1112basic_stringIT_T0_T1_EEPKS5_OS8_(ptr dead_on_unwind noalias writable sret(%"class.std::__cxx11::basic_string") align 8 %0, ptr noundef %1, ptr noundef nonnull align 8 dereferenceable(32) %2) #5 comdat {
  %4 = alloca ptr, align 8
  %5 = alloca ptr, align 8
  %6 = alloca ptr, align 8
  store ptr %0, ptr %4, align 8
  store ptr %1, ptr %5, align 8, !tbaa !12
  store ptr %2, ptr %6, align 8, !tbaa !10
  %7 = load ptr, ptr %6, align 8, !tbaa !10
  %8 = load ptr, ptr %5, align 8, !tbaa !12
  %9 = call noundef nonnull align 8 dereferenceable(32) ptr @_ZNSt7__cxx1112basic_stringIcSt11char_traitsIcESaIcEE6insertEmPKc(ptr noundef nonnull align 8 dereferenceable(32) %7, i64 noundef 0, ptr noundef %8)
  call void @_ZNSt7__cxx1112basic_stringIcSt11char_traitsIcESaIcEEC2EOS4_(ptr noundef nonnull align 8 dereferenceable(32) %0, ptr noundef nonnull align 8 dereferenceable(32) %9) #3
  ret void
}

; Function Attrs: inlinehint mustprogress uwtable
define internal void @"_ZZN7testing8internal19JoinAsKeyValueTupleERKSt6vectorIPKcSaIS3_EERKS1_INSt7__cxx1112basic_stringIcSt11char_traitsIcESaIcEEESaISD_EEENK3$_0clB5cxx11Em"(ptr dead_on_unwind noalias writable sret(%"class.std::__cxx11::basic_string") align 8 %0, ptr noundef nonnull align 8 dereferenceable(16) %1, i64 noundef %2) #5 align 2 personality ptr @__gxx_personality_v0 {
  %4 = alloca ptr, align 8
  %5 = alloca ptr, align 8
  %6 = alloca i64, align 8
  %7 = alloca %"class.std::__cxx11::basic_string", align 8
  %8 = alloca %"class.std::__cxx11::basic_string", align 8
  %9 = alloca %"class.std::allocator", align 1
  %10 = alloca ptr, align 8
  %11 = alloca i32, align 4
  store ptr %0, ptr %4, align 8
  store ptr %1, ptr %5, align 8, !tbaa !45
  store i64 %2, ptr %6, align 8, !tbaa !30
  %12 = load ptr, ptr %5, align 8
  call void @llvm.lifetime.start.p0(i64 32, ptr %7) #3
  call void @llvm.lifetime.start.p0(i64 32, ptr %8) #3
  %13 = getelementptr inbounds nuw %class.anon, ptr %12, i32 0, i32 0
  %14 = load ptr, ptr %13, align 8, !tbaa !46
  %15 = load i64, ptr %6, align 8, !tbaa !30
  %16 = call noundef nonnull align 8 dereferenceable(8) ptr @_ZNKSt6vectorIPKcSaIS1_EEixEm(ptr noundef nonnull align 8 dereferenceable(24) %14, i64 noundef %15) #3
  %17 = load ptr, ptr %16, align 8, !tbaa !12
  call void @llvm.lifetime.start.p0(i64 1, ptr %9) #3
  call void @_ZNSaIcEC2Ev(ptr noundef nonnull align 1 dereferenceable(1) %9) #3
  invoke void @_ZNSt7__cxx1112basic_stringIcSt11char_traitsIcESaIcEEC2IS3_EEPKcRKS3_(ptr noundef nonnull align 8 dereferenceable(32) %8, ptr noundef %17, ptr noundef nonnull align 1 dereferenceable(1) %9)
          to label %18 unwind label %25

18:                                               ; preds = %3
  invoke void @_ZStplIcSt11char_traitsIcESaIcEENSt7__cxx1112basic_stringIT_T0_T1_EEOS8_PKS5_(ptr dead_on_unwind writable sret(%"class.std::__cxx11::basic_string") align 8 %7, ptr noundef nonnull align 8 dereferenceable(32) %8, ptr noundef @.str.34)
          to label %19 unwind label %29

19:                                               ; preds = %18
  %20 = getelementptr inbounds nuw %class.anon, ptr %12, i32 0, i32 1
  %21 = load ptr, ptr %20, align 8, !tbaa !48
  %22 = load i64, ptr %6, align 8, !tbaa !30
  %23 = call noundef nonnull align 8 dereferenceable(32) ptr @_ZNKSt6vectorINSt7__cxx1112basic_stringIcSt11char_traitsIcESaIcEEESaIS5_EEixEm(ptr noundef nonnull align 8 dereferenceable(24) %21, i64 noundef %22) #3
  invoke void @_ZStplIcSt11char_traitsIcESaIcEENSt7__cxx1112basic_stringIT_T0_T1_EEOS8_RKS8_(ptr dead_on_unwind writable sret(%"class.std::__cxx11::basic_string") align 8 %0, ptr noundef nonnull align 8 dereferenceable(32) %7, ptr noundef nonnull align 8 dereferenceable(32) %23)
          to label %24 unwind label %33

24:                                               ; preds = %19
  call void @_ZNSt7__cxx1112basic_stringIcSt11char_traitsIcESaIcEED2Ev(ptr noundef nonnull align 8 dereferenceable(32) %7) #3
  call void @_ZNSt7__cxx1112basic_stringIcSt11char_traitsIcESaIcEED2Ev(ptr noundef nonnull align 8 dereferenceable(32) %8) #3
  call void @_ZNSt15__new_allocatorIcED2Ev(ptr noundef nonnull align 1 dereferenceable(1) %9) #3
  call void @llvm.lifetime.end.p0(i64 1, ptr %9) #3
  call void @llvm.lifetime.end.p0(i64 32, ptr %8) #3
  call void @llvm.lifetime.end.p0(i64 32, ptr %7) #3
  ret void

25:                                               ; preds = %3
  %26 = landingpad { ptr, i32 }
          cleanup
  %27 = extractvalue { ptr, i32 } %26, 0
  store ptr %27, ptr %10, align 8
  %28 = extractvalue { ptr, i32 } %26, 1
  store i32 %28, ptr %11, align 4
  br label %38

29:                                               ; preds = %18
  %30 = landingpad { ptr, i32 }
          cleanup
  %31 = extractvalue { ptr, i32 } %30, 0
  store ptr %31, ptr %10, align 8
  %32 = extractvalue { ptr, i32 } %30, 1
  store i32 %32, ptr %11, align 4
  br label %37

33:                                               ; preds = %19
  %34 = landingpad { ptr, i32 }
          cleanup
  %35 = extractvalue { ptr, i32 } %34, 0
  store ptr %35, ptr %10, align 8
  %36 = extractvalue { ptr, i32 } %34, 1
  store i32 %36, ptr %11, align 4
  call void @_ZNSt7__cxx1112basic_stringIcSt11char_traitsIcESaIcEED2Ev(ptr noundef nonnull align 8 dereferenceable(32) %7) #3
  br label %37

37:                                               ; preds = %33, %29
  call void @_ZNSt7__cxx1112basic_stringIcSt11char_traitsIcESaIcEED2Ev(ptr noundef nonnull align 8 dereferenceable(32) %8) #3
  br label %38

38:                                               ; preds = %37, %25
  call void @_ZNSt15__new_allocatorIcED2Ev(ptr noundef nonnull align 1 dereferenceable(1) %9) #3
  call void @llvm.lifetime.end.p0(i64 1, ptr %9) #3
  call void @llvm.lifetime.end.p0(i64 32, ptr %8) #3
  call void @llvm.lifetime.end.p0(i64 32, ptr %7) #3
  br label %39

39:                                               ; preds = %38
  %40 = load ptr, ptr %10, align 8
  %41 = load i32, ptr %11, align 4
  %42 = insertvalue { ptr, i32 } poison, ptr %40, 0
  %43 = insertvalue { ptr, i32 } %42, i32 %41, 1
  resume { ptr, i32 } %43
}

; Function Attrs: mustprogress uwtable
define available_externally noundef nonnull align 8 dereferenceable(32) ptr @_ZNSt7__cxx1112basic_stringIcSt11char_traitsIcESaIcEEpLEPKc(ptr noundef nonnull align 8 dereferenceable(32) %0, ptr noundef %1) #4 align 2 {
  %3 = alloca ptr, align 8
  %4 = alloca ptr, align 8
  store ptr %0, ptr %3, align 8, !tbaa !10
  store ptr %1, ptr %4, align 8, !tbaa !12
  %5 = load ptr, ptr %3, align 8
  %6 = load ptr, ptr %4, align 8, !tbaa !12
  %7 = call noundef nonnull align 8 dereferenceable(32) ptr @_ZNSt7__cxx1112basic_stringIcSt11char_traitsIcESaIcEE6appendEPKc(ptr noundef nonnull align 8 dereferenceable(32) %5, ptr noundef %6)
  ret ptr %7
}

; Function Attrs: mustprogress uwtable
define available_externally noundef nonnull align 8 dereferenceable(32) ptr @_ZNSt7__cxx1112basic_stringIcSt11char_traitsIcESaIcEEpLERKS4_(ptr noundef nonnull align 8 dereferenceable(32) %0, ptr noundef nonnull align 8 dereferenceable(32) %1) #4 align 2 {
  %3 = alloca ptr, align 8
  %4 = alloca ptr, align 8
  store ptr %0, ptr %3, align 8, !tbaa !10
  store ptr %1, ptr %4, align 8, !tbaa !10
  %5 = load ptr, ptr %3, align 8
  %6 = load ptr, ptr %4, align 8, !tbaa !10
  %7 = call noundef nonnull align 8 dereferenceable(32) ptr @_ZNSt7__cxx1112basic_stringIcSt11char_traitsIcESaIcEE6appendERKS4_(ptr noundef nonnull align 8 dereferenceable(32) %5, ptr noundef nonnull align 8 dereferenceable(32) %6)
  ret ptr %7
}

; Function Attrs: mustprogress uwtable
define void @_ZN7testing8internal28ConvertIdentifierNameToWordsB5cxx11EPKc(ptr dead_on_unwind noalias writable sret(%"class.std::__cxx11::basic_string") align 8 %0, ptr noundef %1) #4 personality ptr @__gxx_personality_v0 {
  %3 = alloca ptr, align 8
  %4 = alloca ptr, align 8
  %5 = alloca i1, align 1
  %6 = alloca i8, align 1
  %7 = alloca ptr, align 8
  %8 = alloca i8, align 1
  %9 = alloca ptr, align 8
  %10 = alloca i32, align 4
  store ptr %0, ptr %3, align 8
  store ptr %1, ptr %4, align 8, !tbaa !12
  store i1 false, ptr %5, align 1
  call void @_ZNSt7__cxx1112basic_stringIcSt11char_traitsIcESaIcEEC2Ev(ptr noundef nonnull align 8 dereferenceable(32) %0) #3
  call void @llvm.lifetime.start.p0(i64 1, ptr %6) #3
  store i8 0, ptr %6, align 1, !tbaa !49
  call void @llvm.lifetime.start.p0(i64 8, ptr %7) #3
  %11 = load ptr, ptr %4, align 8, !tbaa !12
  store ptr %11, ptr %7, align 8, !tbaa !12
  br label %12

12:                                               ; preds = %70, %2
  %13 = load ptr, ptr %7, align 8, !tbaa !12
  %14 = load i8, ptr %13, align 1, !tbaa !49
  %15 = sext i8 %14 to i32
  %16 = icmp ne i32 %15, 0
  br i1 %16, label %18, label %17

17:                                               ; preds = %12
  call void @llvm.lifetime.end.p0(i64 8, ptr %7) #3
  br label %74

18:                                               ; preds = %12
  call void @llvm.lifetime.start.p0(i64 1, ptr %8) #3
  %19 = load ptr, ptr %7, align 8, !tbaa !12
  %20 = load i8, ptr %19, align 1, !tbaa !49
  %21 = invoke noundef zeroext i1 @_ZN7testing8internal7IsUpperEc(i8 noundef signext %20)
          to label %22 unwind label %58

22:                                               ; preds = %18
  br i1 %21, label %43, label %23

23:                                               ; preds = %22
  %24 = load i8, ptr %6, align 1, !tbaa !49
  %25 = invoke noundef zeroext i1 @_ZN7testing8internal7IsAlphaEc(i8 noundef signext %24)
          to label %26 unwind label %58

26:                                               ; preds = %23
  br i1 %25, label %32, label %27

27:                                               ; preds = %26
  %28 = load ptr, ptr %7, align 8, !tbaa !12
  %29 = load i8, ptr %28, align 1, !tbaa !49
  %30 = invoke noundef zeroext i1 @_ZN7testing8internal7IsLowerEc(i8 noundef signext %29)
          to label %31 unwind label %58

31:                                               ; preds = %27
  br i1 %30, label %43, label %32

32:                                               ; preds = %31, %26
  %33 = load i8, ptr %6, align 1, !tbaa !49
  %34 = invoke noundef zeroext i1 @_ZN7testing8internal7IsDigitEc(i8 noundef signext %33)
          to label %35 unwind label %58

35:                                               ; preds = %32
  br i1 %34, label %41, label %36

36:                                               ; preds = %35
  %37 = load ptr, ptr %7, align 8, !tbaa !12
  %38 = load i8, ptr %37, align 1, !tbaa !49
  %39 = invoke noundef zeroext i1 @_ZN7testing8internal7IsDigitEc(i8 noundef signext %38)
          to label %40 unwind label %58

40:                                               ; preds = %36
  br label %41

41:                                               ; preds = %40, %35
  %42 = phi i1 [ false, %35 ], [ %39, %40 ]
  br label %43

43:                                               ; preds = %41, %31, %22
  %44 = phi i1 [ true, %31 ], [ true, %22 ], [ %42, %41 ]
  %45 = zext i1 %44 to i8
  store i8 %45, ptr %8, align 1, !tbaa !50
  %46 = load ptr, ptr %7, align 8, !tbaa !12
  %47 = load i8, ptr %46, align 1, !tbaa !49
  %48 = invoke noundef zeroext i1 @_ZN7testing8internal7IsAlNumEc(i8 noundef signext %47)
          to label %49 unwind label %58

49:                                               ; preds = %43
  br i1 %48, label %50, label %69

50:                                               ; preds = %49
  %51 = load i8, ptr %8, align 1, !tbaa !50, !range !52, !noundef !53
  %52 = trunc i8 %51 to i1
  br i1 %52, label %53, label %62

53:                                               ; preds = %50
  %54 = call noundef zeroext i1 @_ZNKSt7__cxx1112basic_stringIcSt11char_traitsIcESaIcEE5emptyEv(ptr noundef nonnull align 8 dereferenceable(32) %0) #3
  br i1 %54, label %62, label %55

55:                                               ; preds = %53
  %56 = invoke noundef nonnull align 8 dereferenceable(32) ptr @_ZNSt7__cxx1112basic_stringIcSt11char_traitsIcESaIcEEpLEc(ptr noundef nonnull align 8 dereferenceable(32) %0, i8 noundef signext 32)
          to label %57 unwind label %58

57:                                               ; preds = %55
  br label %62

58:                                               ; preds = %66, %62, %55, %43, %36, %32, %27, %23, %18
  %59 = landingpad { ptr, i32 }
          cleanup
  %60 = extractvalue { ptr, i32 } %59, 0
  store ptr %60, ptr %9, align 8
  %61 = extractvalue { ptr, i32 } %59, 1
  store i32 %61, ptr %10, align 4
  call void @llvm.lifetime.end.p0(i64 1, ptr %8) #3
  call void @llvm.lifetime.end.p0(i64 8, ptr %7) #3
  call void @llvm.lifetime.end.p0(i64 1, ptr %6) #3
  call void @_ZNSt7__cxx1112basic_stringIcSt11char_traitsIcESaIcEED2Ev(ptr noundef nonnull align 8 dereferenceable(32) %0) #3
  br label %78

62:                                               ; preds = %57, %53, %50
  %63 = load ptr, ptr %7, align 8, !tbaa !12
  %64 = load i8, ptr %63, align 1, !tbaa !49
  %65 = invoke noundef signext i8 @_ZN7testing8internal7ToLowerEc(i8 noundef signext %64)
          to label %66 unwind label %58

66:                                               ; preds = %62
  %67 = invoke noundef nonnull align 8 dereferenceable(32) ptr @_ZNSt7__cxx1112basic_stringIcSt11char_traitsIcESaIcEEpLEc(ptr noundef nonnull align 8 dereferenceable(32) %0, i8 noundef signext %65)
          to label %68 unwind label %58

68:                                               ; preds = %66
  br label %69

69:                                               ; preds = %68, %49
  call void @llvm.lifetime.end.p0(i64 1, ptr %8) #3
  br label %70

70:                                               ; preds = %69
  %71 = load ptr, ptr %7, align 8, !tbaa !12
  %72 = getelementptr inbounds nuw i8, ptr %71, i32 1
  store ptr %72, ptr %7, align 8, !tbaa !12
  %73 = load i8, ptr %71, align 1, !tbaa !49
  store i8 %73, ptr %6, align 1, !tbaa !49
  br label %12, !llvm.loop !54

74:                                               ; preds = %17
  store i1 true, ptr %5, align 1
  call void @llvm.lifetime.end.p0(i64 1, ptr %6) #3
  %75 = load i1, ptr %5, align 1
  br i1 %75, label %77, label %76

76:                                               ; preds = %74
  call void @_ZNSt7__cxx1112basic_stringIcSt11char_traitsIcESaIcEED2Ev(ptr noundef nonnull align 8 dereferenceable(32) %0) #3
  br label %77

77:                                               ; preds = %76, %74
  ret void

78:                                               ; preds = %58
  %79 = load ptr, ptr %9, align 8
  %80 = load i32, ptr %10, align 4
  %81 = insertvalue { ptr, i32 } poison, ptr %79, 0
  %82 = insertvalue { ptr, i32 } %81, i32 %80, 1
  resume { ptr, i32 } %82
}

; Function Attrs: mustprogress nounwind uwtable
define available_externally void @_ZNSt7__cxx1112basic_stringIcSt11char_traitsIcESaIcEEC2Ev(ptr noundef nonnull align 8 dereferenceable(32) %0) unnamed_addr #7 align 2 personality ptr @__gxx_personality_v0 {
  %2 = alloca ptr, align 8
  %3 = alloca %"class.std::allocator", align 1
  store ptr %0, ptr %2, align 8, !tbaa !10
  %4 = load ptr, ptr %2, align 8
  %5 = getelementptr inbounds nuw %"class.std::__cxx11::basic_string", ptr %4, i32 0, i32 0
  %6 = call noundef ptr @_ZNSt7__cxx1112basic_stringIcSt11char_traitsIcESaIcEE13_M_local_dataEv(ptr noundef nonnull align 8 dereferenceable(32) %4)
  call void @llvm.lifetime.start.p0(i64 1, ptr %3) #3
  call void @_ZNSaIcEC2Ev(ptr noundef nonnull align 1 dereferenceable(1) %3) #3
  invoke void @_ZNSt7__cxx1112basic_stringIcSt11char_traitsIcESaIcEE12_Alloc_hiderC2EPcOS3_(ptr noundef nonnull align 8 dereferenceable(8) %5, ptr noundef %6, ptr noundef nonnull align 1 dereferenceable(1) %3)
          to label %7 unwind label %9

7:                                                ; preds = %1
  call void @_ZNSt15__new_allocatorIcED2Ev(ptr noundef nonnull align 1 dereferenceable(1) %3) #3
  call void @llvm.lifetime.end.p0(i64 1, ptr %3) #3
  %8 = call noundef ptr @_ZNSt7__cxx1112basic_stringIcSt11char_traitsIcESaIcEE17_M_use_local_dataEv(ptr noundef nonnull align 8 dereferenceable(32) %4) #3
  call void @_ZNSt7__cxx1112basic_stringIcSt11char_traitsIcESaIcEE13_M_set_lengthEm(ptr noundef nonnull align 8 dereferenceable(32) %4, i64 noundef 0)
  ret void

9:                                                ; preds = %1
  %10 = landingpad { ptr, i32 }
          catch ptr null
  %11 = extractvalue { ptr, i32 } %10, 0
  call void @__clang_call_terminate(ptr %11) #26
  unreachable
}

; Function Attrs: inlinehint mustprogress nounwind uwtable
define linkonce_odr noundef zeroext i1 @_ZN7testing8internal7IsUpperEc(i8 noundef signext %0) #10 comdat {
  %2 = alloca i8, align 1
  store i8 %0, ptr %2, align 1, !tbaa !49
  %3 = load i8, ptr %2, align 1, !tbaa !49
  %4 = zext i8 %3 to i32
  %5 = call i32 @isupper(i32 noundef %4) #25
  %6 = icmp ne i32 %5, 0
  ret i1 %6
}

; Function Attrs: inlinehint mustprogress nounwind uwtable
define linkonce_odr noundef zeroext i1 @_ZN7testing8internal7IsAlphaEc(i8 noundef signext %0) #10 comdat {
  %2 = alloca i8, align 1
  store i8 %0, ptr %2, align 1, !tbaa !49
  %3 = load i8, ptr %2, align 1, !tbaa !49
  %4 = zext i8 %3 to i32
  %5 = call i32 @isalpha(i32 noundef %4) #25
  %6 = icmp ne i32 %5, 0
  ret i1 %6
}

; Function Attrs: inlinehint mustprogress nounwind uwtable
define linkonce_odr noundef zeroext i1 @_ZN7testing8internal7IsLowerEc(i8 noundef signext %0) #10 comdat {
  %2 = alloca i8, align 1
  store i8 %0, ptr %2, align 1, !tbaa !49
  %3 = load i8, ptr %2, align 1, !tbaa !49
  %4 = zext i8 %3 to i32
  %5 = call i32 @islower(i32 noundef %4) #25
  %6 = icmp ne i32 %5, 0
  ret i1 %6
}

; Function Attrs: inlinehint mustprogress nounwind uwtable
define linkonce_odr noundef zeroext i1 @_ZN7testing8internal7IsDigitEc(i8 noundef signext %0) #10 comdat {
  %2 = alloca i8, align 1
  store i8 %0, ptr %2, align 1, !tbaa !49
  %3 = load i8, ptr %2, align 1, !tbaa !49
  %4 = zext i8 %3 to i32
  %5 = call i32 @isdigit(i32 noundef %4) #25
  %6 = icmp ne i32 %5, 0
  ret i1 %6
}

; Function Attrs: inlinehint mustprogress nounwind uwtable
define linkonce_odr noundef zeroext i1 @_ZN7testing8internal7IsAlNumEc(i8 noundef signext %0) #10 comdat {
  %2 = alloca i8, align 1
  store i8 %0, ptr %2, align 1, !tbaa !49
  %3 = load i8, ptr %2, align 1, !tbaa !49
  %4 = zext i8 %3 to i32
  %5 = call i32 @isalnum(i32 noundef %4) #25
  %6 = icmp ne i32 %5, 0
  ret i1 %6
}

; Function Attrs: mustprogress nounwind uwtable
define available_externally noundef zeroext i1 @_ZNKSt7__cxx1112basic_stringIcSt11char_traitsIcESaIcEE5emptyEv(ptr noundef nonnull align 8 dereferenceable(32) %0) #7 align 2 {
  %2 = alloca ptr, align 8
  store ptr %0, ptr %2, align 8, !tbaa !10
  %3 = load ptr, ptr %2, align 8
  %4 = call noundef i64 @_ZNKSt7__cxx1112basic_stringIcSt11char_traitsIcESaIcEE4sizeEv(ptr noundef nonnull align 8 dereferenceable(32) %3) #3
  %5 = icmp eq i64 %4, 0
  ret i1 %5
}

; Function Attrs: mustprogress uwtable
define available_externally noundef nonnull align 8 dereferenceable(32) ptr @_ZNSt7__cxx1112basic_stringIcSt11char_traitsIcESaIcEEpLEc(ptr noundef nonnull align 8 dereferenceable(32) %0, i8 noundef signext %1) #4 align 2 {
  %3 = alloca ptr, align 8
  %4 = alloca i8, align 1
  store ptr %0, ptr %3, align 8, !tbaa !10
  store i8 %1, ptr %4, align 1, !tbaa !49
  %5 = load ptr, ptr %3, align 8
  %6 = load i8, ptr %4, align 1, !tbaa !49
  call void @_ZNSt7__cxx1112basic_stringIcSt11char_traitsIcESaIcEE9push_backEc(ptr noundef nonnull align 8 dereferenceable(32) %5, i8 noundef signext %6)
  ret ptr %5
}

; Function Attrs: inlinehint mustprogress nounwind uwtable
define linkonce_odr noundef signext i8 @_ZN7testing8internal7ToLowerEc(i8 noundef signext %0) #10 comdat {
  %2 = alloca i8, align 1
  store i8 %0, ptr %2, align 1, !tbaa !49
  %3 = load i8, ptr %2, align 1, !tbaa !49
  %4 = zext i8 %3 to i32
  %5 = call i32 @tolower(i32 noundef %4) #25
  %6 = trunc i32 %5 to i8
  ret i8 %6
}

; Function Attrs: mustprogress uwtable
define noundef ptr @_ZN7testing8internal18GetFailureReporterEv() #4 personality ptr @__gxx_personality_v0 {
  %1 = alloca ptr, align 8
  %2 = alloca i32, align 4
  %3 = load atomic i8, ptr @_ZGVZN7testing8internal18GetFailureReporterEvE16failure_reporter acquire, align 8
  %4 = icmp eq i8 %3, 0
  br i1 %4, label %5, label %12, !prof !55

5:                                                ; preds = %0
  %6 = call i32 @__cxa_guard_acquire(ptr @_ZGVZN7testing8internal18GetFailureReporterEvE16failure_reporter) #3
  %7 = icmp ne i32 %6, 0
  br i1 %7, label %8, label %12

8:                                                ; preds = %5
  %9 = invoke noalias noundef nonnull ptr @_Znwm(i64 noundef 8) #27
          to label %10 unwind label %14

10:                                               ; preds = %8
  call void @llvm.memset.p0.i64(ptr align 8 %9, i8 0, i64 8, i1 false)
  call void @_ZN7testing8internal25GoogleTestFailureReporterC2Ev(ptr noundef nonnull align 8 dereferenceable(8) %9) #3
  store ptr %9, ptr @_ZZN7testing8internal18GetFailureReporterEvE16failure_reporter, align 8, !tbaa !56
  %11 = call ptr @llvm.invariant.start.p0(i64 8, ptr @_ZZN7testing8internal18GetFailureReporterEvE16failure_reporter)
  call void @__cxa_guard_release(ptr @_ZGVZN7testing8internal18GetFailureReporterEvE16failure_reporter) #3
  br label %12

12:                                               ; preds = %10, %5, %0
  %13 = load ptr, ptr @_ZZN7testing8internal18GetFailureReporterEvE16failure_reporter, align 8, !tbaa !56
  ret ptr %13

14:                                               ; preds = %8
  %15 = landingpad { ptr, i32 }
          cleanup
  %16 = extractvalue { ptr, i32 } %15, 0
  store ptr %16, ptr %1, align 8
  %17 = extractvalue { ptr, i32 } %15, 1
  store i32 %17, ptr %2, align 4
  call void @__cxa_guard_abort(ptr @_ZGVZN7testing8internal18GetFailureReporterEvE16failure_reporter) #3
  br label %18

18:                                               ; preds = %14
  %19 = load ptr, ptr %1, align 8
  %20 = load i32, ptr %2, align 4
  %21 = insertvalue { ptr, i32 } poison, ptr %19, 0
  %22 = insertvalue { ptr, i32 } %21, i32 %20, 1
  resume { ptr, i32 } %22
}

; Function Attrs: nounwind
declare i32 @__cxa_guard_acquire(ptr) #3

; Function Attrs: nocallback nofree nounwind willreturn memory(argmem: write)
declare void @llvm.memset.p0.i64(ptr writeonly captures(none), i8, i64, i1 immarg) #11

; Function Attrs: inlinehint mustprogress nounwind uwtable
define linkonce_odr void @_ZN7testing8internal25GoogleTestFailureReporterC2Ev(ptr noundef nonnull align 8 dereferenceable(8) %0) unnamed_addr #10 comdat align 2 {
  %2 = alloca ptr, align 8
  store ptr %0, ptr %2, align 8, !tbaa !58
  %3 = load ptr, ptr %2, align 8
  call void @_ZN7testing8internal24FailureReporterInterfaceC2Ev(ptr noundef nonnull align 8 dereferenceable(8) %3) #3
  store ptr getelementptr inbounds inrange(-16, 24) ({ [5 x ptr] }, ptr @_ZTVN7testing8internal25GoogleTestFailureReporterE, i32 0, i32 0, i32 2), ptr %3, align 8, !tbaa !14
  ret void
}

; Function Attrs: nocallback nofree nosync nounwind willreturn memory(argmem: readwrite)
declare ptr @llvm.invariant.start.p0(i64 immarg, ptr captures(none)) #6

; Function Attrs: nounwind
declare void @__cxa_guard_abort(ptr) #3

; Function Attrs: nounwind
declare void @__cxa_guard_release(ptr) #3

; Function Attrs: mustprogress uwtable
define noundef zeroext i1 @_ZN7testing8internal12LogIsVisibleENS0_11LogSeverityE(i32 noundef %0) #4 {
  %2 = alloca i1, align 1
  %3 = alloca i32, align 4
  store i32 %0, ptr %3, align 4, !tbaa !60
  %4 = call noundef zeroext i1 @_ZSteqIcSt11char_traitsIcESaIcEEbRKNSt7__cxx1112basic_stringIT_T0_T1_EEPKS5_(ptr noundef nonnull align 8 dereferenceable(32) @_ZN7testing19FLAGS_gmock_verboseB5cxx11E, ptr noundef @_ZN7testing8internalL14kInfoVerbosityE)
  br i1 %4, label %5, label %6

5:                                                ; preds = %1
  store i1 true, ptr %2, align 1
  br label %12

6:                                                ; preds = %1
  %7 = call noundef zeroext i1 @_ZSteqIcSt11char_traitsIcESaIcEEbRKNSt7__cxx1112basic_stringIT_T0_T1_EEPKS5_(ptr noundef nonnull align 8 dereferenceable(32) @_ZN7testing19FLAGS_gmock_verboseB5cxx11E, ptr noundef @_ZN7testing8internalL15kErrorVerbosityE)
  br i1 %7, label %8, label %9

8:                                                ; preds = %6
  store i1 false, ptr %2, align 1
  br label %12

9:                                                ; preds = %6
  %10 = load i32, ptr %3, align 4, !tbaa !60
  %11 = icmp eq i32 %10, 1
  store i1 %11, ptr %2, align 1
  br label %12

12:                                               ; preds = %9, %8, %5
  %13 = load i1, ptr %2, align 1
  ret i1 %13
}

; Function Attrs: inlinehint mustprogress nounwind uwtable
define linkonce_odr noundef zeroext i1 @_ZSteqIcSt11char_traitsIcESaIcEEbRKNSt7__cxx1112basic_stringIT_T0_T1_EEPKS5_(ptr noundef nonnull align 8 dereferenceable(32) %0, ptr noundef %1) #10 comdat {
  %3 = alloca ptr, align 8
  %4 = alloca ptr, align 8
  store ptr %0, ptr %3, align 8, !tbaa !10
  store ptr %1, ptr %4, align 8, !tbaa !12
  %5 = load ptr, ptr %3, align 8, !tbaa !10
  %6 = load ptr, ptr %4, align 8, !tbaa !12
  %7 = call noundef i32 @_ZNKSt7__cxx1112basic_stringIcSt11char_traitsIcESaIcEE7compareEPKc(ptr noundef nonnull align 8 dereferenceable(32) %5, ptr noundef %6) #3
  %8 = icmp eq i32 %7, 0
  ret i1 %8
}

; Function Attrs: mustprogress uwtable
define void @_ZN7testing8internal3LogENS0_11LogSeverityERKNSt7__cxx1112basic_stringIcSt11char_traitsIcESaIcEEEi(i32 noundef %0, ptr noundef nonnull align 8 dereferenceable(32) %1, i32 noundef %2) #4 personality ptr @__gxx_personality_v0 {
  %4 = alloca i32, align 4
  %5 = alloca ptr, align 8
  %6 = alloca i32, align 4
  %7 = alloca %"class.testing::internal::GTestMutexLock", align 8
  %8 = alloca ptr, align 8
  %9 = alloca i32, align 4
  %10 = alloca i32, align 4
  %11 = alloca %"class.std::reverse_iterator", align 8
  %12 = alloca %"class.std::__cxx11::basic_string", align 8
  store i32 %0, ptr %4, align 4, !tbaa !60
  store ptr %1, ptr %5, align 8, !tbaa !10
  store i32 %2, ptr %6, align 4, !tbaa !3
  %13 = load i32, ptr %4, align 4, !tbaa !60
  %14 = call noundef zeroext i1 @_ZN7testing8internal12LogIsVisibleENS0_11LogSeverityE(i32 noundef %13)
  br i1 %14, label %16, label %15

15:                                               ; preds = %3
  br label %86

16:                                               ; preds = %3
  call void @llvm.lifetime.start.p0(i64 8, ptr %7) #3
  call void @_ZN7testing8internal14GTestMutexLockC2EPNS0_9MutexBaseE(ptr noundef nonnull align 8 dereferenceable(8) %7, ptr noundef @_ZN7testing8internalL11g_log_mutexE)
  %17 = load i32, ptr %4, align 4, !tbaa !60
  %18 = icmp eq i32 %17, 1
  br i1 %18, label %19, label %26

19:                                               ; preds = %16
  %20 = invoke noundef nonnull align 8 dereferenceable(8) ptr @_ZStlsISt11char_traitsIcEERSt13basic_ostreamIcT_ES5_PKc(ptr noundef nonnull align 8 dereferenceable(8) @_ZSt4cout, ptr noundef @.str.8)
          to label %21 unwind label %22

21:                                               ; preds = %19
  br label %26

22:                                               ; preds = %83, %38, %35, %19
  %23 = landingpad { ptr, i32 }
          cleanup
  %24 = extractvalue { ptr, i32 } %23, 0
  store ptr %24, ptr %8, align 8
  %25 = extractvalue { ptr, i32 } %23, 1
  store i32 %25, ptr %9, align 4
  br label %87

26:                                               ; preds = %21, %16
  %27 = load ptr, ptr %5, align 8, !tbaa !10
  %28 = call noundef zeroext i1 @_ZNKSt7__cxx1112basic_stringIcSt11char_traitsIcESaIcEE5emptyEv(ptr noundef nonnull align 8 dereferenceable(32) %27) #3
  br i1 %28, label %35, label %29

29:                                               ; preds = %26
  %30 = load ptr, ptr %5, align 8, !tbaa !10
  %31 = call noundef nonnull align 1 dereferenceable(1) ptr @_ZNKSt7__cxx1112basic_stringIcSt11char_traitsIcESaIcEEixEm(ptr noundef nonnull align 8 dereferenceable(32) %30, i64 noundef 0) #3
  %32 = load i8, ptr %31, align 1, !tbaa !49
  %33 = sext i8 %32 to i32
  %34 = icmp ne i32 %33, 10
  br i1 %34, label %35, label %38

35:                                               ; preds = %29, %26
  %36 = invoke noundef nonnull align 8 dereferenceable(8) ptr @_ZStlsISt11char_traitsIcEERSt13basic_ostreamIcT_ES5_PKc(ptr noundef nonnull align 8 dereferenceable(8) @_ZSt4cout, ptr noundef @.str.9)
          to label %37 unwind label %22

37:                                               ; preds = %35
  br label %38

38:                                               ; preds = %37, %29
  %39 = load ptr, ptr %5, align 8, !tbaa !10
  %40 = invoke noundef nonnull align 8 dereferenceable(8) ptr @_ZStlsIcSt11char_traitsIcESaIcEERSt13basic_ostreamIT_T0_ES7_RKNSt7__cxx1112basic_stringIS4_S5_T1_EE(ptr noundef nonnull align 8 dereferenceable(8) @_ZSt4cout, ptr noundef nonnull align 8 dereferenceable(32) %39)
          to label %41 unwind label %22

41:                                               ; preds = %38
  %42 = load i32, ptr %6, align 4, !tbaa !3
  %43 = icmp sge i32 %42, 0
  br i1 %43, label %44, label %83

44:                                               ; preds = %41
  call void @llvm.lifetime.start.p0(i64 4, ptr %10) #3
  store i32 0, ptr %10, align 4, !tbaa !3
  %45 = load ptr, ptr %5, align 8, !tbaa !10
  %46 = call noundef zeroext i1 @_ZNKSt7__cxx1112basic_stringIcSt11char_traitsIcESaIcEE5emptyEv(ptr noundef nonnull align 8 dereferenceable(32) %45) #3
  call void @llvm.lifetime.start.p0(i64 8, ptr %11) #3
  br i1 %46, label %54, label %47

47:                                               ; preds = %44
  %48 = load ptr, ptr %5, align 8, !tbaa !10
  call void @_ZNKSt7__cxx1112basic_stringIcSt11char_traitsIcESaIcEE6rbeginEv(ptr dead_on_unwind writable sret(%"class.std::reverse_iterator") align 8 %11, ptr noundef nonnull align 8 dereferenceable(32) %48) #3
  %49 = invoke noundef nonnull align 1 dereferenceable(1) ptr @_ZNKSt16reverse_iteratorIN9__gnu_cxx17__normal_iteratorIPKcNSt7__cxx1112basic_stringIcSt11char_traitsIcESaIcEEEEEEdeEv(ptr noundef nonnull align 8 dereferenceable(8) %11)
          to label %50 unwind label %59

50:                                               ; preds = %47
  %51 = load i8, ptr %49, align 1, !tbaa !49
  %52 = sext i8 %51 to i32
  %53 = icmp ne i32 %52, 10
  br label %54

54:                                               ; preds = %50, %44
  %55 = phi i1 [ false, %44 ], [ %53, %50 ]
  call void @llvm.lifetime.end.p0(i64 8, ptr %11) #3
  br i1 %55, label %56, label %67

56:                                               ; preds = %54
  %57 = invoke noundef nonnull align 8 dereferenceable(8) ptr @_ZStlsISt11char_traitsIcEERSt13basic_ostreamIcT_ES5_PKc(ptr noundef nonnull align 8 dereferenceable(8) @_ZSt4cout, ptr noundef @.str.9)
          to label %58 unwind label %63

58:                                               ; preds = %56
  br label %67

59:                                               ; preds = %47
  %60 = landingpad { ptr, i32 }
          cleanup
  %61 = extractvalue { ptr, i32 } %60, 0
  store ptr %61, ptr %8, align 8
  %62 = extractvalue { ptr, i32 } %60, 1
  store i32 %62, ptr %9, align 4
  call void @llvm.lifetime.end.p0(i64 8, ptr %11) #3
  br label %82

63:                                               ; preds = %67, %56
  %64 = landingpad { ptr, i32 }
          cleanup
  %65 = extractvalue { ptr, i32 } %64, 0
  store ptr %65, ptr %8, align 8
  %66 = extractvalue { ptr, i32 } %64, 1
  store i32 %66, ptr %9, align 4
  br label %82

67:                                               ; preds = %58, %54
  %68 = invoke noundef nonnull align 8 dereferenceable(8) ptr @_ZStlsISt11char_traitsIcEERSt13basic_ostreamIcT_ES5_PKc(ptr noundef nonnull align 8 dereferenceable(8) @_ZSt4cout, ptr noundef @.str.10)
          to label %69 unwind label %63

69:                                               ; preds = %67
  call void @llvm.lifetime.start.p0(i64 32, ptr %12) #3
  invoke void @_ZN7testing8internal31GetCurrentOsStackTraceExceptTopB5cxx11Ei(ptr dead_on_unwind writable sret(%"class.std::__cxx11::basic_string") align 8 %12, i32 noundef 0)
          to label %70 unwind label %73

70:                                               ; preds = %69
  %71 = invoke noundef nonnull align 8 dereferenceable(8) ptr @_ZStlsIcSt11char_traitsIcESaIcEERSt13basic_ostreamIT_T0_ES7_RKNSt7__cxx1112basic_stringIS4_S5_T1_EE(ptr noundef nonnull align 8 dereferenceable(8) %68, ptr noundef nonnull align 8 dereferenceable(32) %12)
          to label %72 unwind label %77

72:                                               ; preds = %70
  call void @_ZNSt7__cxx1112basic_stringIcSt11char_traitsIcESaIcEED2Ev(ptr noundef nonnull align 8 dereferenceable(32) %12) #3
  call void @llvm.lifetime.end.p0(i64 32, ptr %12) #3
  call void @llvm.lifetime.end.p0(i64 4, ptr %10) #3
  br label %83

73:                                               ; preds = %69
  %74 = landingpad { ptr, i32 }
          cleanup
  %75 = extractvalue { ptr, i32 } %74, 0
  store ptr %75, ptr %8, align 8
  %76 = extractvalue { ptr, i32 } %74, 1
  store i32 %76, ptr %9, align 4
  br label %81

77:                                               ; preds = %70
  %78 = landingpad { ptr, i32 }
          cleanup
  %79 = extractvalue { ptr, i32 } %78, 0
  store ptr %79, ptr %8, align 8
  %80 = extractvalue { ptr, i32 } %78, 1
  store i32 %80, ptr %9, align 4
  call void @_ZNSt7__cxx1112basic_stringIcSt11char_traitsIcESaIcEED2Ev(ptr noundef nonnull align 8 dereferenceable(32) %12) #3
  br label %81

81:                                               ; preds = %77, %73
  call void @llvm.lifetime.end.p0(i64 32, ptr %12) #3
  br label %82

82:                                               ; preds = %81, %63, %59
  call void @llvm.lifetime.end.p0(i64 4, ptr %10) #3
  br label %87

83:                                               ; preds = %72, %41
  %84 = invoke noundef nonnull align 8 dereferenceable(8) ptr @_ZNSolsEPFRSoS_E(ptr noundef nonnull align 8 dereferenceable(8) @_ZSt4cout, ptr noundef @_ZSt5flushIcSt11char_traitsIcEERSt13basic_ostreamIT_T0_ES6_)
          to label %85 unwind label %22

85:                                               ; preds = %83
  call void @_ZN7testing8internal14GTestMutexLockD2Ev(ptr noundef nonnull align 8 dereferenceable(8) %7) #3
  call void @llvm.lifetime.end.p0(i64 8, ptr %7) #3
  br label %86

86:                                               ; preds = %85, %15
  ret void

87:                                               ; preds = %82, %22
  call void @_ZN7testing8internal14GTestMutexLockD2Ev(ptr noundef nonnull align 8 dereferenceable(8) %7) #3
  call void @llvm.lifetime.end.p0(i64 8, ptr %7) #3
  br label %88

88:                                               ; preds = %87
  %89 = load ptr, ptr %8, align 8
  %90 = load i32, ptr %9, align 4
  %91 = insertvalue { ptr, i32 } poison, ptr %89, 0
  %92 = insertvalue { ptr, i32 } %91, i32 %90, 1
  resume { ptr, i32 } %92
}

; Function Attrs: mustprogress uwtable
define linkonce_odr void @_ZN7testing8internal14GTestMutexLockC2EPNS0_9MutexBaseE(ptr noundef nonnull align 8 dereferenceable(8) %0, ptr noundef %1) unnamed_addr #4 comdat align 2 {
  %3 = alloca ptr, align 8
  %4 = alloca ptr, align 8
  store ptr %0, ptr %3, align 8, !tbaa !62
  store ptr %1, ptr %4, align 8, !tbaa !64
  %5 = load ptr, ptr %3, align 8
  %6 = getelementptr inbounds nuw %"class.testing::internal::GTestMutexLock", ptr %5, i32 0, i32 0
  %7 = load ptr, ptr %4, align 8, !tbaa !64
  store ptr %7, ptr %6, align 8, !tbaa !66
  %8 = getelementptr inbounds nuw %"class.testing::internal::GTestMutexLock", ptr %5, i32 0, i32 0
  %9 = load ptr, ptr %8, align 8, !tbaa !66
  call void @_ZN7testing8internal9MutexBase4LockEv(ptr noundef nonnull align 8 dereferenceable(56) %9)
  ret void
}

; Function Attrs: mustprogress nounwind uwtable
define available_externally noundef nonnull align 1 dereferenceable(1) ptr @_ZNKSt7__cxx1112basic_stringIcSt11char_traitsIcESaIcEEixEm(ptr noundef nonnull align 8 dereferenceable(32) %0, i64 noundef %1) #7 align 2 {
  %3 = alloca ptr, align 8
  %4 = alloca i64, align 8
  store ptr %0, ptr %3, align 8, !tbaa !10
  store i64 %1, ptr %4, align 8, !tbaa !30
  %5 = load ptr, ptr %3, align 8
  br label %6

6:                                                ; preds = %2
  br label %7

7:                                                ; preds = %6
  br label %8

8:                                                ; preds = %7
  %9 = call noundef ptr @_ZNKSt7__cxx1112basic_stringIcSt11char_traitsIcESaIcEE7_M_dataEv(ptr noundef nonnull align 8 dereferenceable(32) %5)
  %10 = load i64, ptr %4, align 8, !tbaa !30
  %11 = getelementptr inbounds nuw i8, ptr %9, i64 %10
  ret ptr %11
}

; Function Attrs: mustprogress nounwind uwtable
define available_externally void @_ZNKSt7__cxx1112basic_stringIcSt11char_traitsIcESaIcEE6rbeginEv(ptr dead_on_unwind noalias writable sret(%"class.std::reverse_iterator") align 8 %0, ptr noundef nonnull align 8 dereferenceable(32) %1) #7 align 2 {
  %3 = alloca ptr, align 8
  %4 = alloca ptr, align 8
  %5 = alloca %"class.__gnu_cxx::__normal_iterator", align 8
  store ptr %0, ptr %3, align 8
  store ptr %1, ptr %4, align 8, !tbaa !10
  %6 = load ptr, ptr %4, align 8
  %7 = call ptr @_ZNKSt7__cxx1112basic_stringIcSt11char_traitsIcESaIcEE3endEv(ptr noundef nonnull align 8 dereferenceable(32) %6) #3
  %8 = getelementptr inbounds nuw %"class.__gnu_cxx::__normal_iterator", ptr %5, i32 0, i32 0
  store ptr %7, ptr %8, align 8
  %9 = getelementptr inbounds nuw %"class.__gnu_cxx::__normal_iterator", ptr %5, i32 0, i32 0
  %10 = load ptr, ptr %9, align 8
  call void @_ZNSt16reverse_iteratorIN9__gnu_cxx17__normal_iteratorIPKcNSt7__cxx1112basic_stringIcSt11char_traitsIcESaIcEEEEEEC2ESA_(ptr noundef nonnull align 8 dereferenceable(8) %0, ptr %10) #3
  ret void
}

; Function Attrs: mustprogress nounwind uwtable
define linkonce_odr noundef nonnull align 1 dereferenceable(1) ptr @_ZNKSt16reverse_iteratorIN9__gnu_cxx17__normal_iteratorIPKcNSt7__cxx1112basic_stringIcSt11char_traitsIcESaIcEEEEEEdeEv(ptr noundef nonnull align 8 dereferenceable(8) %0) #7 comdat align 2 {
  %2 = alloca ptr, align 8
  %3 = alloca %"class.__gnu_cxx::__normal_iterator", align 8
  store ptr %0, ptr %2, align 8, !tbaa !68
  %4 = load ptr, ptr %2, align 8
  call void @llvm.lifetime.start.p0(i64 8, ptr %3) #3
  %5 = getelementptr inbounds nuw %"class.std::reverse_iterator", ptr %4, i32 0, i32 0
  call void @llvm.memcpy.p0.p0.i64(ptr align 8 %3, ptr align 8 %5, i64 8, i1 false), !tbaa.struct !70
  %6 = call noundef nonnull align 8 dereferenceable(8) ptr @_ZN9__gnu_cxx17__normal_iteratorIPKcNSt7__cxx1112basic_stringIcSt11char_traitsIcESaIcEEEEmmEv(ptr noundef nonnull align 8 dereferenceable(8) %3) #3
  %7 = call noundef nonnull align 1 dereferenceable(1) ptr @_ZNK9__gnu_cxx17__normal_iteratorIPKcNSt7__cxx1112basic_stringIcSt11char_traitsIcESaIcEEEEdeEv(ptr noundef nonnull align 8 dereferenceable(8) %6) #3
  call void @llvm.lifetime.end.p0(i64 8, ptr %3) #3
  ret ptr %7
}

declare void @_ZN7testing8internal31GetCurrentOsStackTraceExceptTopB5cxx11Ei(ptr dead_on_unwind writable sret(%"class.std::__cxx11::basic_string") align 8, i32 noundef) #1

; Function Attrs: mustprogress uwtable
define available_externally noundef nonnull align 8 dereferenceable(8) ptr @_ZNSolsEPFRSoS_E(ptr noundef nonnull align 8 dereferenceable(8) %0, ptr noundef %1) #4 align 2 {
  %3 = alloca ptr, align 8
  %4 = alloca ptr, align 8
  store ptr %0, ptr %3, align 8, !tbaa !7
  store ptr %1, ptr %4, align 8, !tbaa !45
  %5 = load ptr, ptr %3, align 8
  %6 = load ptr, ptr %4, align 8, !tbaa !45
  %7 = call noundef nonnull align 8 dereferenceable(8) ptr %6(ptr noundef nonnull align 8 dereferenceable(8) %5)
  ret ptr %7
}

; Function Attrs: inlinehint mustprogress uwtable
define available_externally noundef nonnull align 8 dereferenceable(8) ptr @_ZSt5flushIcSt11char_traitsIcEERSt13basic_ostreamIT_T0_ES6_(ptr noundef nonnull align 8 dereferenceable(8) %0) #5 {
  %2 = alloca ptr, align 8
  store ptr %0, ptr %2, align 8, !tbaa !7
  %3 = load ptr, ptr %2, align 8, !tbaa !7
  %4 = call noundef nonnull align 8 dereferenceable(8) ptr @_ZNSo5flushEv(ptr noundef nonnull align 8 dereferenceable(8) %3)
  ret ptr %4
}

; Function Attrs: mustprogress nounwind uwtable
define linkonce_odr void @_ZN7testing8internal14GTestMutexLockD2Ev(ptr noundef nonnull align 8 dereferenceable(8) %0) unnamed_addr #7 comdat align 2 personality ptr @__gxx_personality_v0 {
  %2 = alloca ptr, align 8
  store ptr %0, ptr %2, align 8, !tbaa !62
  %3 = load ptr, ptr %2, align 8
  %4 = getelementptr inbounds nuw %"class.testing::internal::GTestMutexLock", ptr %3, i32 0, i32 0
  %5 = load ptr, ptr %4, align 8, !tbaa !66
  invoke void @_ZN7testing8internal9MutexBase6UnlockEv(ptr noundef nonnull align 8 dereferenceable(56) %5)
          to label %6 unwind label %7

6:                                                ; preds = %1
  ret void

7:                                                ; preds = %1
  %8 = landingpad { ptr, i32 }
          catch ptr null
  %9 = extractvalue { ptr, i32 } %8, 0
  call void @__clang_call_terminate(ptr %9) #26
  unreachable
}

; Function Attrs: mustprogress uwtable
define void @_ZN7testing8internal18GetWithoutMatchersEv() #4 {
  %1 = alloca %"class.testing::internal::WithoutMatchers", align 1
  call void @_ZN7testing8internal15WithoutMatchersC2Ev(ptr noundef nonnull align 1 dereferenceable(1) %1)
  ret void
}

; Function Attrs: mustprogress nounwind uwtable
define linkonce_odr void @_ZN7testing8internal15WithoutMatchersC2Ev(ptr noundef nonnull align 1 dereferenceable(1) %0) unnamed_addr #7 comdat align 2 {
  %2 = alloca ptr, align 8
  store ptr %0, ptr %2, align 8, !tbaa !71
  ret void
}

; Function Attrs: mustprogress uwtable
define void @_ZN7testing8internal16IllegalDoDefaultEPKci(ptr noundef %0, i32 noundef %1) #4 personality ptr @__gxx_personality_v0 {
  %3 = alloca ptr, align 8
  %4 = alloca i32, align 4
  %5 = alloca %"class.std::__cxx11::basic_string", align 8
  %6 = alloca %"class.std::allocator", align 1
  %7 = alloca ptr, align 8
  %8 = alloca i32, align 4
  store ptr %0, ptr %3, align 8, !tbaa !12
  store i32 %1, ptr %4, align 4, !tbaa !3
  %9 = load ptr, ptr %3, align 8, !tbaa !12
  %10 = load i32, ptr %4, align 4, !tbaa !3
  call void @llvm.lifetime.start.p0(i64 32, ptr %5) #3
  call void @llvm.lifetime.start.p0(i64 1, ptr %6) #3
  call void @_ZNSaIcEC2Ev(ptr noundef nonnull align 1 dereferenceable(1) %6) #3
  invoke void @_ZNSt7__cxx1112basic_stringIcSt11char_traitsIcESaIcEEC2IS3_EEPKcRKS3_(ptr noundef nonnull align 8 dereferenceable(32) %5, ptr noundef @.str.11, ptr noundef nonnull align 1 dereferenceable(1) %6)
          to label %11 unwind label %13

11:                                               ; preds = %2
  invoke void @_ZN7testing8internal6AssertEbPKciRKNSt7__cxx1112basic_stringIcSt11char_traitsIcESaIcEEE(i1 noundef zeroext false, ptr noundef %9, i32 noundef %10, ptr noundef nonnull align 8 dereferenceable(32) %5)
          to label %12 unwind label %17

12:                                               ; preds = %11
  call void @_ZNSt7__cxx1112basic_stringIcSt11char_traitsIcESaIcEED2Ev(ptr noundef nonnull align 8 dereferenceable(32) %5) #3
  call void @_ZNSt15__new_allocatorIcED2Ev(ptr noundef nonnull align 1 dereferenceable(1) %6) #3
  call void @llvm.lifetime.end.p0(i64 1, ptr %6) #3
  call void @llvm.lifetime.end.p0(i64 32, ptr %5) #3
  ret void

13:                                               ; preds = %2
  %14 = landingpad { ptr, i32 }
          cleanup
  %15 = extractvalue { ptr, i32 } %14, 0
  store ptr %15, ptr %7, align 8
  %16 = extractvalue { ptr, i32 } %14, 1
  store i32 %16, ptr %8, align 4
  br label %21

17:                                               ; preds = %11
  %18 = landingpad { ptr, i32 }
          cleanup
  %19 = extractvalue { ptr, i32 } %18, 0
  store ptr %19, ptr %7, align 8
  %20 = extractvalue { ptr, i32 } %18, 1
  store i32 %20, ptr %8, align 4
  call void @_ZNSt7__cxx1112basic_stringIcSt11char_traitsIcESaIcEED2Ev(ptr noundef nonnull align 8 dereferenceable(32) %5) #3
  br label %21

21:                                               ; preds = %17, %13
  call void @_ZNSt15__new_allocatorIcED2Ev(ptr noundef nonnull align 1 dereferenceable(1) %6) #3
  call void @llvm.lifetime.end.p0(i64 1, ptr %6) #3
  call void @llvm.lifetime.end.p0(i64 32, ptr %5) #3
  br label %22

22:                                               ; preds = %21
  %23 = load ptr, ptr %7, align 8
  %24 = load i32, ptr %8, align 4
  %25 = insertvalue { ptr, i32 } poison, ptr %23, 0
  %26 = insertvalue { ptr, i32 } %25, i32 %24, 1
  resume { ptr, i32 } %26
}

; Function Attrs: inlinehint mustprogress uwtable
define linkonce_odr void @_ZN7testing8internal6AssertEbPKciRKNSt7__cxx1112basic_stringIcSt11char_traitsIcESaIcEEE(i1 noundef zeroext %0, ptr noundef %1, i32 noundef %2, ptr noundef nonnull align 8 dereferenceable(32) %3) #5 comdat {
  %5 = alloca i8, align 1
  %6 = alloca ptr, align 8
  %7 = alloca i32, align 4
  %8 = alloca ptr, align 8
  %9 = zext i1 %0 to i8
  store i8 %9, ptr %5, align 1, !tbaa !50
  store ptr %1, ptr %6, align 8, !tbaa !12
  store i32 %2, ptr %7, align 4, !tbaa !3
  store ptr %3, ptr %8, align 8, !tbaa !10
  %10 = load i8, ptr %5, align 1, !tbaa !50, !range !52, !noundef !53
  %11 = trunc i8 %10 to i1
  br i1 %11, label %20, label %12

12:                                               ; preds = %4
  %13 = call noundef ptr @_ZN7testing8internal18GetFailureReporterEv()
  %14 = load ptr, ptr %6, align 8, !tbaa !12
  %15 = load i32, ptr %7, align 4, !tbaa !3
  %16 = load ptr, ptr %8, align 8, !tbaa !10
  %17 = load ptr, ptr %13, align 8, !tbaa !14
  %18 = getelementptr inbounds ptr, ptr %17, i64 2
  %19 = load ptr, ptr %18, align 8
  call void %19(ptr noundef nonnull align 8 dereferenceable(8) %13, i32 noundef 1, ptr noundef %14, i32 noundef %15, ptr noundef nonnull align 8 dereferenceable(32) %16)
  br label %20

20:                                               ; preds = %12, %4
  ret void
}

; Function Attrs: mustprogress uwtable
define noundef zeroext i1 @_ZN7testing8internal14Base64UnescapeERKNSt7__cxx1112basic_stringIcSt11char_traitsIcESaIcEEEPS6_(ptr noundef nonnull align 8 dereferenceable(32) %0, ptr noundef %1) #4 {
  %3 = alloca i1, align 1
  %4 = alloca ptr, align 8
  %5 = alloca ptr, align 8
  %6 = alloca i64, align 8
  %7 = alloca i32, align 4
  %8 = alloca i8, align 1
  %9 = alloca ptr, align 8
  %10 = alloca %"class.__gnu_cxx::__normal_iterator", align 8
  %11 = alloca %"class.__gnu_cxx::__normal_iterator", align 8
  %12 = alloca i32, align 4
  %13 = alloca i32, align 4
  %14 = alloca i8, align 1
  store ptr %0, ptr %4, align 8, !tbaa !10
  store ptr %1, ptr %5, align 8, !tbaa !10
  %15 = load ptr, ptr %5, align 8, !tbaa !10
  call void @_ZNSt7__cxx1112basic_stringIcSt11char_traitsIcESaIcEE5clearEv(ptr noundef nonnull align 8 dereferenceable(32) %15) #3
  call void @llvm.lifetime.start.p0(i64 8, ptr %6) #3
  %16 = load ptr, ptr %4, align 8, !tbaa !10
  %17 = call noundef i64 @_ZNKSt7__cxx1112basic_stringIcSt11char_traitsIcESaIcEE4sizeEv(ptr noundef nonnull align 8 dereferenceable(32) %16) #3
  store i64 %17, ptr %6, align 8, !tbaa !30
  %18 = load ptr, ptr %5, align 8, !tbaa !10
  %19 = load i64, ptr %6, align 8, !tbaa !30
  %20 = udiv i64 %19, 4
  %21 = mul i64 3, %20
  %22 = load i64, ptr %6, align 8, !tbaa !30
  %23 = urem i64 %22, 4
  %24 = add i64 %21, %23
  call void @_ZNSt7__cxx1112basic_stringIcSt11char_traitsIcESaIcEE7reserveEm(ptr noundef nonnull align 8 dereferenceable(32) %18, i64 noundef %24)
  call void @llvm.lifetime.start.p0(i64 4, ptr %7) #3
  store i32 0, ptr %7, align 4, !tbaa !3
  call void @llvm.lifetime.start.p0(i64 1, ptr %8) #3
  store i8 0, ptr %8, align 1, !tbaa !49
  call void @llvm.lifetime.start.p0(i64 8, ptr %9) #3
  %25 = load ptr, ptr %4, align 8, !tbaa !10
  store ptr %25, ptr %9, align 8, !tbaa !10
  call void @llvm.lifetime.start.p0(i64 8, ptr %10) #3
  %26 = load ptr, ptr %9, align 8, !tbaa !10
  %27 = call ptr @_ZNKSt7__cxx1112basic_stringIcSt11char_traitsIcESaIcEE5beginEv(ptr noundef nonnull align 8 dereferenceable(32) %26) #3
  %28 = getelementptr inbounds nuw %"class.__gnu_cxx::__normal_iterator", ptr %10, i32 0, i32 0
  store ptr %27, ptr %28, align 8
  call void @llvm.lifetime.start.p0(i64 8, ptr %11) #3
  %29 = load ptr, ptr %9, align 8, !tbaa !10
  %30 = call ptr @_ZNKSt7__cxx1112basic_stringIcSt11char_traitsIcESaIcEE3endEv(ptr noundef nonnull align 8 dereferenceable(32) %29) #3
  %31 = getelementptr inbounds nuw %"class.__gnu_cxx::__normal_iterator", ptr %11, i32 0, i32 0
  store ptr %30, ptr %31, align 8
  br label %32

32:                                               ; preds = %99, %2
  %33 = call noundef zeroext i1 @_ZN9__gnu_cxxneIPKcNSt7__cxx1112basic_stringIcSt11char_traitsIcESaIcEEEEEbRKNS_17__normal_iteratorIT_T0_EESE_(ptr noundef nonnull align 8 dereferenceable(8) %10, ptr noundef nonnull align 8 dereferenceable(8) %11) #3
  br i1 %33, label %35, label %34

34:                                               ; preds = %32
  store i32 2, ptr %12, align 4
  br label %101

35:                                               ; preds = %32
  call void @llvm.lifetime.start.p0(i64 4, ptr %13) #3
  %36 = call noundef nonnull align 1 dereferenceable(1) ptr @_ZNK9__gnu_cxx17__normal_iteratorIPKcNSt7__cxx1112basic_stringIcSt11char_traitsIcESaIcEEEEdeEv(ptr noundef nonnull align 8 dereferenceable(8) %10) #3
  %37 = load i8, ptr %36, align 1, !tbaa !49
  %38 = sext i8 %37 to i32
  store i32 %38, ptr %13, align 4, !tbaa !3
  %39 = load i32, ptr %13, align 4, !tbaa !3
  %40 = call i32 @isspace(i32 noundef %39) #25
  %41 = icmp ne i32 %40, 0
  br i1 %41, label %45, label %42

42:                                               ; preds = %35
  %43 = load i32, ptr %13, align 4, !tbaa !3
  %44 = icmp eq i32 %43, 61
  br i1 %44, label %45, label %46

45:                                               ; preds = %42, %35
  store i32 3, ptr %12, align 4
  br label %96

46:                                               ; preds = %42
  call void @llvm.lifetime.start.p0(i64 1, ptr %14) #3
  %47 = load i32, ptr %13, align 4, !tbaa !3
  %48 = sext i32 %47 to i64
  %49 = call noundef nonnull align 1 dereferenceable(1) ptr @_ZNKSt5arrayIcLm256EEixEm(ptr noundef nonnull align 1 dereferenceable(256) @_ZN7testing8internalL9kUnBase64E, i64 noundef %48) #3
  %50 = load i8, ptr %49, align 1, !tbaa !49
  store i8 %50, ptr %14, align 1, !tbaa !49
  %51 = load i8, ptr %14, align 1, !tbaa !49
  %52 = sext i8 %51 to i32
  %53 = icmp sge i32 %52, 64
  br i1 %53, label %54, label %56

54:                                               ; preds = %46
  %55 = load ptr, ptr %5, align 8, !tbaa !10
  call void @_ZNSt7__cxx1112basic_stringIcSt11char_traitsIcESaIcEE5clearEv(ptr noundef nonnull align 8 dereferenceable(32) %55) #3
  store i1 false, ptr %3, align 1
  store i32 1, ptr %12, align 4
  br label %93

56:                                               ; preds = %46
  %57 = load i32, ptr %7, align 4, !tbaa !3
  %58 = icmp eq i32 %57, 0
  br i1 %58, label %59, label %69

59:                                               ; preds = %56
  %60 = load i8, ptr %14, align 1, !tbaa !49
  %61 = sext i8 %60 to i32
  %62 = shl i32 %61, 2
  %63 = trunc i32 %62 to i8
  %64 = sext i8 %63 to i32
  %65 = load i8, ptr %8, align 1, !tbaa !49
  %66 = sext i8 %65 to i32
  %67 = or i32 %66, %64
  %68 = trunc i32 %67 to i8
  store i8 %68, ptr %8, align 1, !tbaa !49
  store i32 6, ptr %7, align 4, !tbaa !3
  br label %92

69:                                               ; preds = %56
  %70 = load i8, ptr %14, align 1, !tbaa !49
  %71 = sext i8 %70 to i32
  %72 = load i32, ptr %7, align 4, !tbaa !3
  %73 = sub nsw i32 %72, 2
  %74 = ashr i32 %71, %73
  %75 = trunc i32 %74 to i8
  %76 = sext i8 %75 to i32
  %77 = load i8, ptr %8, align 1, !tbaa !49
  %78 = sext i8 %77 to i32
  %79 = or i32 %78, %76
  %80 = trunc i32 %79 to i8
  store i8 %80, ptr %8, align 1, !tbaa !49
  %81 = load ptr, ptr %5, align 8, !tbaa !10
  %82 = load i8, ptr %8, align 1, !tbaa !49
  call void @_ZNSt7__cxx1112basic_stringIcSt11char_traitsIcESaIcEE9push_backEc(ptr noundef nonnull align 8 dereferenceable(32) %81, i8 noundef signext %82)
  %83 = load i8, ptr %14, align 1, !tbaa !49
  %84 = sext i8 %83 to i32
  %85 = load i32, ptr %7, align 4, !tbaa !3
  %86 = sub nsw i32 10, %85
  %87 = shl i32 %84, %86
  %88 = trunc i32 %87 to i8
  store i8 %88, ptr %8, align 1, !tbaa !49
  %89 = load i32, ptr %7, align 4, !tbaa !3
  %90 = add nsw i32 %89, 6
  %91 = srem i32 %90, 8
  store i32 %91, ptr %7, align 4, !tbaa !3
  br label %92

92:                                               ; preds = %69, %59
  store i32 0, ptr %12, align 4
  br label %93

93:                                               ; preds = %92, %54
  call void @llvm.lifetime.end.p0(i64 1, ptr %14) #3
  %94 = load i32, ptr %12, align 4
  switch i32 %94, label %96 [
    i32 0, label %95
  ]

95:                                               ; preds = %93
  store i32 0, ptr %12, align 4
  br label %96

96:                                               ; preds = %95, %93, %45
  call void @llvm.lifetime.end.p0(i64 4, ptr %13) #3
  %97 = load i32, ptr %12, align 4
  switch i32 %97, label %101 [
    i32 0, label %98
    i32 3, label %99
  ]

98:                                               ; preds = %96
  br label %99

99:                                               ; preds = %98, %96
  %100 = call noundef nonnull align 8 dereferenceable(8) ptr @_ZN9__gnu_cxx17__normal_iteratorIPKcNSt7__cxx1112basic_stringIcSt11char_traitsIcESaIcEEEEppEv(ptr noundef nonnull align 8 dereferenceable(8) %10) #3
  br label %32

101:                                              ; preds = %96, %34
  call void @llvm.lifetime.end.p0(i64 8, ptr %11) #3
  call void @llvm.lifetime.end.p0(i64 8, ptr %10) #3
  call void @llvm.lifetime.end.p0(i64 8, ptr %9) #3
  %102 = load i32, ptr %12, align 4
  switch i32 %102, label %104 [
    i32 2, label %103
  ]

103:                                              ; preds = %101
  store i1 true, ptr %3, align 1
  store i32 1, ptr %12, align 4
  br label %104

104:                                              ; preds = %103, %101
  call void @llvm.lifetime.end.p0(i64 1, ptr %8) #3
  call void @llvm.lifetime.end.p0(i64 4, ptr %7) #3
  call void @llvm.lifetime.end.p0(i64 8, ptr %6) #3
  %105 = load i1, ptr %3, align 1
  ret i1 %105
}

; Function Attrs: mustprogress nounwind uwtable
define available_externally void @_ZNSt7__cxx1112basic_stringIcSt11char_traitsIcESaIcEE5clearEv(ptr noundef nonnull align 8 dereferenceable(32) %0) #7 align 2 {
  %2 = alloca ptr, align 8
  store ptr %0, ptr %2, align 8, !tbaa !10
  %3 = load ptr, ptr %2, align 8
  call void @_ZNSt7__cxx1112basic_stringIcSt11char_traitsIcESaIcEE13_M_set_lengthEm(ptr noundef nonnull align 8 dereferenceable(32) %3, i64 noundef 0)
  ret void
}

; Function Attrs: mustprogress nounwind uwtable
define available_externally noundef i64 @_ZNKSt7__cxx1112basic_stringIcSt11char_traitsIcESaIcEE4sizeEv(ptr noundef nonnull align 8 dereferenceable(32) %0) #7 align 2 {
  %2 = alloca ptr, align 8
  store ptr %0, ptr %2, align 8, !tbaa !10
  %3 = load ptr, ptr %2, align 8
  %4 = getelementptr inbounds nuw %"class.std::__cxx11::basic_string", ptr %3, i32 0, i32 1
  %5 = load i64, ptr %4, align 8, !tbaa !73
  ret i64 %5
}

declare void @_ZNSt7__cxx1112basic_stringIcSt11char_traitsIcESaIcEE7reserveEm(ptr noundef nonnull align 8 dereferenceable(32), i64 noundef) #1

; Function Attrs: mustprogress nounwind uwtable
define available_externally ptr @_ZNKSt7__cxx1112basic_stringIcSt11char_traitsIcESaIcEE5beginEv(ptr noundef nonnull align 8 dereferenceable(32) %0) #7 align 2 {
  %2 = alloca %"class.__gnu_cxx::__normal_iterator", align 8
  %3 = alloca ptr, align 8
  %4 = alloca ptr, align 8
  store ptr %0, ptr %3, align 8, !tbaa !10
  %5 = load ptr, ptr %3, align 8
  call void @llvm.lifetime.start.p0(i64 8, ptr %4) #3
  %6 = call noundef ptr @_ZNKSt7__cxx1112basic_stringIcSt11char_traitsIcESaIcEE7_M_dataEv(ptr noundef nonnull align 8 dereferenceable(32) %5)
  store ptr %6, ptr %4, align 8, !tbaa !12
  call void @_ZN9__gnu_cxx17__normal_iteratorIPKcNSt7__cxx1112basic_stringIcSt11char_traitsIcESaIcEEEEC2ERKS2_(ptr noundef nonnull align 8 dereferenceable(8) %2, ptr noundef nonnull align 8 dereferenceable(8) %4) #3
  call void @llvm.lifetime.end.p0(i64 8, ptr %4) #3
  %7 = getelementptr inbounds nuw %"class.__gnu_cxx::__normal_iterator", ptr %2, i32 0, i32 0
  %8 = load ptr, ptr %7, align 8
  ret ptr %8
}

; Function Attrs: mustprogress nounwind uwtable
define available_externally ptr @_ZNKSt7__cxx1112basic_stringIcSt11char_traitsIcESaIcEE3endEv(ptr noundef nonnull align 8 dereferenceable(32) %0) #7 align 2 {
  %2 = alloca %"class.__gnu_cxx::__normal_iterator", align 8
  %3 = alloca ptr, align 8
  %4 = alloca ptr, align 8
  store ptr %0, ptr %3, align 8, !tbaa !10
  %5 = load ptr, ptr %3, align 8
  call void @llvm.lifetime.start.p0(i64 8, ptr %4) #3
  %6 = call noundef ptr @_ZNKSt7__cxx1112basic_stringIcSt11char_traitsIcESaIcEE7_M_dataEv(ptr noundef nonnull align 8 dereferenceable(32) %5)
  %7 = call noundef i64 @_ZNKSt7__cxx1112basic_stringIcSt11char_traitsIcESaIcEE4sizeEv(ptr noundef nonnull align 8 dereferenceable(32) %5) #3
  %8 = getelementptr inbounds nuw i8, ptr %6, i64 %7
  store ptr %8, ptr %4, align 8, !tbaa !12
  call void @_ZN9__gnu_cxx17__normal_iteratorIPKcNSt7__cxx1112basic_stringIcSt11char_traitsIcESaIcEEEEC2ERKS2_(ptr noundef nonnull align 8 dereferenceable(8) %2, ptr noundef nonnull align 8 dereferenceable(8) %4) #3
  call void @llvm.lifetime.end.p0(i64 8, ptr %4) #3
  %9 = getelementptr inbounds nuw %"class.__gnu_cxx::__normal_iterator", ptr %2, i32 0, i32 0
  %10 = load ptr, ptr %9, align 8
  ret ptr %10
}

; Function Attrs: inlinehint mustprogress nounwind uwtable
define linkonce_odr noundef zeroext i1 @_ZN9__gnu_cxxneIPKcNSt7__cxx1112basic_stringIcSt11char_traitsIcESaIcEEEEEbRKNS_17__normal_iteratorIT_T0_EESE_(ptr noundef nonnull align 8 dereferenceable(8) %0, ptr noundef nonnull align 8 dereferenceable(8) %1) #10 comdat {
  %3 = alloca ptr, align 8
  %4 = alloca ptr, align 8
  store ptr %0, ptr %3, align 8, !tbaa !76
  store ptr %1, ptr %4, align 8, !tbaa !76
  %5 = load ptr, ptr %3, align 8, !tbaa !76
  %6 = call noundef nonnull align 8 dereferenceable(8) ptr @_ZNK9__gnu_cxx17__normal_iteratorIPKcNSt7__cxx1112basic_stringIcSt11char_traitsIcESaIcEEEE4baseEv(ptr noundef nonnull align 8 dereferenceable(8) %5) #3
  %7 = load ptr, ptr %6, align 8, !tbaa !12
  %8 = load ptr, ptr %4, align 8, !tbaa !76
  %9 = call noundef nonnull align 8 dereferenceable(8) ptr @_ZNK9__gnu_cxx17__normal_iteratorIPKcNSt7__cxx1112basic_stringIcSt11char_traitsIcESaIcEEEE4baseEv(ptr noundef nonnull align 8 dereferenceable(8) %8) #3
  %10 = load ptr, ptr %9, align 8, !tbaa !12
  %11 = icmp ne ptr %7, %10
  ret i1 %11
}

; Function Attrs: mustprogress nounwind uwtable
define linkonce_odr noundef nonnull align 1 dereferenceable(1) ptr @_ZNK9__gnu_cxx17__normal_iteratorIPKcNSt7__cxx1112basic_stringIcSt11char_traitsIcESaIcEEEEdeEv(ptr noundef nonnull align 8 dereferenceable(8) %0) #7 comdat align 2 {
  %2 = alloca ptr, align 8
  store ptr %0, ptr %2, align 8, !tbaa !76
  %3 = load ptr, ptr %2, align 8
  %4 = getelementptr inbounds nuw %"class.__gnu_cxx::__normal_iterator", ptr %3, i32 0, i32 0
  %5 = load ptr, ptr %4, align 8, !tbaa !78
  ret ptr %5
}

; Function Attrs: nounwind willreturn memory(read)
declare i32 @isspace(i32 noundef) #12

; Function Attrs: mustprogress nounwind uwtable
define linkonce_odr noundef nonnull align 1 dereferenceable(1) ptr @_ZNKSt5arrayIcLm256EEixEm(ptr noundef nonnull align 1 dereferenceable(256) %0, i64 noundef %1) #7 comdat align 2 {
  %3 = alloca ptr, align 8
  %4 = alloca i64, align 8
  store ptr %0, ptr %3, align 8, !tbaa !80
  store i64 %1, ptr %4, align 8, !tbaa !30
  %5 = load ptr, ptr %3, align 8
  %6 = getelementptr inbounds nuw %"struct.std::array", ptr %5, i32 0, i32 0
  %7 = load i64, ptr %4, align 8, !tbaa !30
  %8 = call noundef nonnull align 1 dereferenceable(1) ptr @_ZNSt14__array_traitsIcLm256EE6_S_refERA256_Kcm(ptr noundef nonnull align 1 dereferenceable(256) %6, i64 noundef %7) #3
  ret ptr %8
}

; Function Attrs: mustprogress uwtable
define available_externally void @_ZNSt7__cxx1112basic_stringIcSt11char_traitsIcESaIcEE9push_backEc(ptr noundef nonnull align 8 dereferenceable(32) %0, i8 noundef signext %1) #4 align 2 {
  %3 = alloca ptr, align 8
  %4 = alloca i8, align 1
  %5 = alloca i64, align 8
  store ptr %0, ptr %3, align 8, !tbaa !10
  store i8 %1, ptr %4, align 1, !tbaa !49
  %6 = load ptr, ptr %3, align 8
  call void @llvm.lifetime.start.p0(i64 8, ptr %5) #3
  %7 = call noundef i64 @_ZNKSt7__cxx1112basic_stringIcSt11char_traitsIcESaIcEE4sizeEv(ptr noundef nonnull align 8 dereferenceable(32) %6) #3
  store i64 %7, ptr %5, align 8, !tbaa !30
  %8 = load i64, ptr %5, align 8, !tbaa !30
  %9 = add i64 %8, 1
  %10 = call noundef i64 @_ZNKSt7__cxx1112basic_stringIcSt11char_traitsIcESaIcEE8capacityEv(ptr noundef nonnull align 8 dereferenceable(32) %6) #3
  %11 = icmp ugt i64 %9, %10
  br i1 %11, label %12, label %14

12:                                               ; preds = %2
  %13 = load i64, ptr %5, align 8, !tbaa !30
  call void @_ZNSt7__cxx1112basic_stringIcSt11char_traitsIcESaIcEE9_M_mutateEmmPKcm(ptr noundef nonnull align 8 dereferenceable(32) %6, i64 noundef %13, i64 noundef 0, ptr noundef null, i64 noundef 1)
  br label %14

14:                                               ; preds = %12, %2
  %15 = call noundef ptr @_ZNKSt7__cxx1112basic_stringIcSt11char_traitsIcESaIcEE7_M_dataEv(ptr noundef nonnull align 8 dereferenceable(32) %6)
  %16 = load i64, ptr %5, align 8, !tbaa !30
  %17 = getelementptr inbounds nuw i8, ptr %15, i64 %16
  call void @_ZNSt11char_traitsIcE6assignERcRKc(ptr noundef nonnull align 1 dereferenceable(1) %17, ptr noundef nonnull align 1 dereferenceable(1) %4) #3
  %18 = load i64, ptr %5, align 8, !tbaa !30
  %19 = add i64 %18, 1
  call void @_ZNSt7__cxx1112basic_stringIcSt11char_traitsIcESaIcEE13_M_set_lengthEm(ptr noundef nonnull align 8 dereferenceable(32) %6, i64 noundef %19)
  call void @llvm.lifetime.end.p0(i64 8, ptr %5) #3
  ret void
}

; Function Attrs: mustprogress nounwind uwtable
define linkonce_odr noundef nonnull align 8 dereferenceable(8) ptr @_ZN9__gnu_cxx17__normal_iteratorIPKcNSt7__cxx1112basic_stringIcSt11char_traitsIcESaIcEEEEppEv(ptr noundef nonnull align 8 dereferenceable(8) %0) #7 comdat align 2 {
  %2 = alloca ptr, align 8
  store ptr %0, ptr %2, align 8, !tbaa !76
  %3 = load ptr, ptr %2, align 8
  %4 = getelementptr inbounds nuw %"class.__gnu_cxx::__normal_iterator", ptr %3, i32 0, i32 0
  %5 = load ptr, ptr %4, align 8, !tbaa !78
  %6 = getelementptr inbounds nuw i8, ptr %5, i32 1
  store ptr %6, ptr %4, align 8, !tbaa !78
  ret ptr %3
}

; Function Attrs: mustprogress uwtable
define void @_ZN7testing8internal24FormatMatcherDescriptionEbPKcRKSt6vectorIS2_SaIS2_EERKS3_INSt7__cxx1112basic_stringIcSt11char_traitsIcESaIcEEESaISD_EE(ptr dead_on_unwind noalias writable sret(%"class.std::__cxx11::basic_string") align 8 %0, i1 noundef zeroext %1, ptr noundef %2, ptr noundef nonnull align 8 dereferenceable(24) %3, ptr noundef nonnull align 8 dereferenceable(24) %4) #4 personality ptr @__gxx_personality_v0 {
  %6 = alloca ptr, align 8
  %7 = alloca i8, align 1
  %8 = alloca ptr, align 8
  %9 = alloca ptr, align 8
  %10 = alloca ptr, align 8
  %11 = alloca %"class.std::__cxx11::basic_string", align 8
  %12 = alloca %"class.std::__cxx11::basic_string", align 8
  %13 = alloca %"class.std::__cxx11::basic_string", align 8
  %14 = alloca ptr, align 8
  %15 = alloca i32, align 4
  %16 = alloca %"class.std::__cxx11::basic_string", align 8
  %17 = alloca i1, align 1
  %18 = alloca i1, align 1
  store ptr %0, ptr %6, align 8
  %19 = zext i1 %1 to i8
  store i8 %19, ptr %7, align 1, !tbaa !50
  store ptr %2, ptr %8, align 8, !tbaa !12
  store ptr %3, ptr %9, align 8, !tbaa !26
  store ptr %4, ptr %10, align 8, !tbaa !28
  call void @llvm.lifetime.start.p0(i64 32, ptr %11) #3
  %20 = load ptr, ptr %8, align 8, !tbaa !12
  call void @_ZN7testing8internal28ConvertIdentifierNameToWordsB5cxx11EPKc(ptr dead_on_unwind writable sret(%"class.std::__cxx11::basic_string") align 8 %11, ptr noundef %20)
  %21 = load ptr, ptr %10, align 8, !tbaa !28
  %22 = call noundef zeroext i1 @_ZNKSt6vectorINSt7__cxx1112basic_stringIcSt11char_traitsIcESaIcEEESaIS5_EE5emptyEv(ptr noundef nonnull align 8 dereferenceable(24) %21) #3
  br i1 %22, label %44, label %23

23:                                               ; preds = %5
  call void @llvm.lifetime.start.p0(i64 32, ptr %12) #3
  call void @llvm.lifetime.start.p0(i64 32, ptr %13) #3
  %24 = load ptr, ptr %9, align 8, !tbaa !26
  %25 = load ptr, ptr %10, align 8, !tbaa !28
  invoke void @_ZN7testing8internal19JoinAsKeyValueTupleERKSt6vectorIPKcSaIS3_EERKS1_INSt7__cxx1112basic_stringIcSt11char_traitsIcESaIcEEESaISD_EE(ptr dead_on_unwind writable sret(%"class.std::__cxx11::basic_string") align 8 %13, ptr noundef nonnull align 8 dereferenceable(24) %24, ptr noundef nonnull align 8 dereferenceable(24) %25)
          to label %26 unwind label %30

26:                                               ; preds = %23
  invoke void @_ZStplIcSt11char_traitsIcESaIcEENSt7__cxx1112basic_stringIT_T0_T1_EEPKS5_OS8_(ptr dead_on_unwind writable sret(%"class.std::__cxx11::basic_string") align 8 %12, ptr noundef @.str.12, ptr noundef nonnull align 8 dereferenceable(32) %13)
          to label %27 unwind label %34

27:                                               ; preds = %26
  %28 = invoke noundef nonnull align 8 dereferenceable(32) ptr @_ZNSt7__cxx1112basic_stringIcSt11char_traitsIcESaIcEEpLERKS4_(ptr noundef nonnull align 8 dereferenceable(32) %11, ptr noundef nonnull align 8 dereferenceable(32) %12)
          to label %29 unwind label %38

29:                                               ; preds = %27
  call void @_ZNSt7__cxx1112basic_stringIcSt11char_traitsIcESaIcEED2Ev(ptr noundef nonnull align 8 dereferenceable(32) %12) #3
  call void @_ZNSt7__cxx1112basic_stringIcSt11char_traitsIcESaIcEED2Ev(ptr noundef nonnull align 8 dereferenceable(32) %13) #3
  call void @llvm.lifetime.end.p0(i64 32, ptr %13) #3
  call void @llvm.lifetime.end.p0(i64 32, ptr %12) #3
  br label %44

30:                                               ; preds = %23
  %31 = landingpad { ptr, i32 }
          cleanup
  %32 = extractvalue { ptr, i32 } %31, 0
  store ptr %32, ptr %14, align 8
  %33 = extractvalue { ptr, i32 } %31, 1
  store i32 %33, ptr %15, align 4
  br label %43

34:                                               ; preds = %26
  %35 = landingpad { ptr, i32 }
          cleanup
  %36 = extractvalue { ptr, i32 } %35, 0
  store ptr %36, ptr %14, align 8
  %37 = extractvalue { ptr, i32 } %35, 1
  store i32 %37, ptr %15, align 4
  br label %42

38:                                               ; preds = %27
  %39 = landingpad { ptr, i32 }
          cleanup
  %40 = extractvalue { ptr, i32 } %39, 0
  store ptr %40, ptr %14, align 8
  %41 = extractvalue { ptr, i32 } %39, 1
  store i32 %41, ptr %15, align 4
  call void @_ZNSt7__cxx1112basic_stringIcSt11char_traitsIcESaIcEED2Ev(ptr noundef nonnull align 8 dereferenceable(32) %12) #3
  br label %42

42:                                               ; preds = %38, %34
  call void @_ZNSt7__cxx1112basic_stringIcSt11char_traitsIcESaIcEED2Ev(ptr noundef nonnull align 8 dereferenceable(32) %13) #3
  br label %43

43:                                               ; preds = %42, %30
  call void @llvm.lifetime.end.p0(i64 32, ptr %13) #3
  call void @llvm.lifetime.end.p0(i64 32, ptr %12) #3
  br label %74

44:                                               ; preds = %29, %5
  %45 = load i8, ptr %7, align 1, !tbaa !50, !range !52, !noundef !53
  %46 = trunc i8 %45 to i1
  store i1 false, ptr %17, align 1
  store i1 false, ptr %18, align 1
  br i1 %46, label %47, label %50

47:                                               ; preds = %44
  call void @llvm.lifetime.start.p0(i64 32, ptr %16) #3
  store i1 true, ptr %17, align 1
  invoke void @_ZStplIcSt11char_traitsIcESaIcEENSt7__cxx1112basic_stringIT_T0_T1_EEPKS5_RKS8_(ptr dead_on_unwind writable sret(%"class.std::__cxx11::basic_string") align 8 %16, ptr noundef @.str.13, ptr noundef nonnull align 8 dereferenceable(32) %11)
          to label %48 unwind label %59

48:                                               ; preds = %47
  store i1 true, ptr %18, align 1
  invoke void @_ZStplIcSt11char_traitsIcESaIcEENSt7__cxx1112basic_stringIT_T0_T1_EEOS8_PKS5_(ptr dead_on_unwind writable sret(%"class.std::__cxx11::basic_string") align 8 %0, ptr noundef nonnull align 8 dereferenceable(32) %16, ptr noundef @.str.7)
          to label %49 unwind label %63

49:                                               ; preds = %48
  br label %52

50:                                               ; preds = %44
  invoke void @_ZNSt7__cxx1112basic_stringIcSt11char_traitsIcESaIcEEC2ERKS4_(ptr noundef nonnull align 8 dereferenceable(32) %0, ptr noundef nonnull align 8 dereferenceable(32) %11)
          to label %51 unwind label %63

51:                                               ; preds = %50
  br label %52

52:                                               ; preds = %51, %49
  %53 = load i1, ptr %18, align 1
  br i1 %53, label %54, label %55

54:                                               ; preds = %52
  call void @_ZNSt7__cxx1112basic_stringIcSt11char_traitsIcESaIcEED2Ev(ptr noundef nonnull align 8 dereferenceable(32) %16) #3
  br label %55

55:                                               ; preds = %54, %52
  %56 = load i1, ptr %17, align 1
  br i1 %56, label %57, label %58

57:                                               ; preds = %55
  call void @llvm.lifetime.end.p0(i64 32, ptr %16) #3
  br label %58

58:                                               ; preds = %57, %55
  call void @_ZNSt7__cxx1112basic_stringIcSt11char_traitsIcESaIcEED2Ev(ptr noundef nonnull align 8 dereferenceable(32) %11) #3
  call void @llvm.lifetime.end.p0(i64 32, ptr %11) #3
  ret void

59:                                               ; preds = %47
  %60 = landingpad { ptr, i32 }
          cleanup
  %61 = extractvalue { ptr, i32 } %60, 0
  store ptr %61, ptr %14, align 8
  %62 = extractvalue { ptr, i32 } %60, 1
  store i32 %62, ptr %15, align 4
  br label %70

63:                                               ; preds = %50, %48
  %64 = landingpad { ptr, i32 }
          cleanup
  %65 = extractvalue { ptr, i32 } %64, 0
  store ptr %65, ptr %14, align 8
  %66 = extractvalue { ptr, i32 } %64, 1
  store i32 %66, ptr %15, align 4
  %67 = load i1, ptr %18, align 1
  br i1 %67, label %68, label %69

68:                                               ; preds = %63
  call void @_ZNSt7__cxx1112basic_stringIcSt11char_traitsIcESaIcEED2Ev(ptr noundef nonnull align 8 dereferenceable(32) %16) #3
  br label %69

69:                                               ; preds = %68, %63
  br label %70

70:                                               ; preds = %69, %59
  %71 = load i1, ptr %17, align 1
  br i1 %71, label %72, label %73

72:                                               ; preds = %70
  call void @llvm.lifetime.end.p0(i64 32, ptr %16) #3
  br label %73

73:                                               ; preds = %72, %70
  br label %74

74:                                               ; preds = %73, %43
  call void @_ZNSt7__cxx1112basic_stringIcSt11char_traitsIcESaIcEED2Ev(ptr noundef nonnull align 8 dereferenceable(32) %11) #3
  call void @llvm.lifetime.end.p0(i64 32, ptr %11) #3
  br label %75

75:                                               ; preds = %74
  %76 = load ptr, ptr %14, align 8
  %77 = load i32, ptr %15, align 4
  %78 = insertvalue { ptr, i32 } poison, ptr %76, 0
  %79 = insertvalue { ptr, i32 } %78, i32 %77, 1
  resume { ptr, i32 } %79
}

; Function Attrs: inlinehint mustprogress uwtable
define linkonce_odr void @_ZStplIcSt11char_traitsIcESaIcEENSt7__cxx1112basic_stringIT_T0_T1_EEOS8_PKS5_(ptr dead_on_unwind noalias writable sret(%"class.std::__cxx11::basic_string") align 8 %0, ptr noundef nonnull align 8 dereferenceable(32) %1, ptr noundef %2) #5 comdat {
  %4 = alloca ptr, align 8
  %5 = alloca ptr, align 8
  %6 = alloca ptr, align 8
  store ptr %0, ptr %4, align 8
  store ptr %1, ptr %5, align 8, !tbaa !10
  store ptr %2, ptr %6, align 8, !tbaa !12
  %7 = load ptr, ptr %5, align 8, !tbaa !10
  %8 = load ptr, ptr %6, align 8, !tbaa !12
  %9 = call noundef nonnull align 8 dereferenceable(32) ptr @_ZNSt7__cxx1112basic_stringIcSt11char_traitsIcESaIcEE6appendEPKc(ptr noundef nonnull align 8 dereferenceable(32) %7, ptr noundef %8)
  call void @_ZNSt7__cxx1112basic_stringIcSt11char_traitsIcESaIcEEC2EOS4_(ptr noundef nonnull align 8 dereferenceable(32) %0, ptr noundef nonnull align 8 dereferenceable(32) %9) #3
  ret void
}

; Function Attrs: mustprogress uwtable
define linkonce_odr void @_ZStplIcSt11char_traitsIcESaIcEENSt7__cxx1112basic_stringIT_T0_T1_EEPKS5_RKS8_(ptr dead_on_unwind noalias writable sret(%"class.std::__cxx11::basic_string") align 8 %0, ptr noundef %1, ptr noundef nonnull align 8 dereferenceable(32) %2) #4 comdat personality ptr @__gxx_personality_v0 {
  %4 = alloca ptr, align 8
  %5 = alloca ptr, align 8
  %6 = alloca ptr, align 8
  %7 = alloca i64, align 8
  %8 = alloca i1, align 1
  %9 = alloca %"class.std::allocator", align 1
  %10 = alloca %"class.std::allocator", align 1
  %11 = alloca ptr, align 8
  %12 = alloca i32, align 4
  store ptr %0, ptr %4, align 8
  store ptr %1, ptr %5, align 8, !tbaa !12
  store ptr %2, ptr %6, align 8, !tbaa !10
  call void @llvm.lifetime.start.p0(i64 8, ptr %7) #3
  %13 = load ptr, ptr %5, align 8, !tbaa !12
  %14 = call noundef i64 @_ZNSt11char_traitsIcE6lengthEPKc(ptr noundef %13)
  store i64 %14, ptr %7, align 8, !tbaa !30
  store i1 false, ptr %8, align 1
  call void @llvm.lifetime.start.p0(i64 1, ptr %9) #3
  call void @llvm.lifetime.start.p0(i64 1, ptr %10) #3
  %15 = load ptr, ptr %6, align 8, !tbaa !10
  call void @_ZNKSt7__cxx1112basic_stringIcSt11char_traitsIcESaIcEE13get_allocatorEv(ptr dead_on_unwind writable sret(%"class.std::allocator") align 1 %10, ptr noundef nonnull align 8 dereferenceable(32) %15) #3
  invoke void @_ZN9__gnu_cxx14__alloc_traitsISaIcEcE17_S_select_on_copyERKS1_(ptr dead_on_unwind writable sret(%"class.std::allocator") align 1 %9, ptr noundef nonnull align 1 dereferenceable(1) %10)
          to label %16 unwind label %30

16:                                               ; preds = %3
  call void @_ZNSt7__cxx1112basic_stringIcSt11char_traitsIcESaIcEEC2ERKS3_(ptr noundef nonnull align 8 dereferenceable(32) %0, ptr noundef nonnull align 1 dereferenceable(1) %9) #3
  call void @_ZNSt15__new_allocatorIcED2Ev(ptr noundef nonnull align 1 dereferenceable(1) %9) #3
  call void @_ZNSt15__new_allocatorIcED2Ev(ptr noundef nonnull align 1 dereferenceable(1) %10) #3
  call void @llvm.lifetime.end.p0(i64 1, ptr %10) #3
  call void @llvm.lifetime.end.p0(i64 1, ptr %9) #3
  %17 = load i64, ptr %7, align 8, !tbaa !30
  %18 = load ptr, ptr %6, align 8, !tbaa !10
  %19 = call noundef i64 @_ZNKSt7__cxx1112basic_stringIcSt11char_traitsIcESaIcEE4sizeEv(ptr noundef nonnull align 8 dereferenceable(32) %18) #3
  %20 = add i64 %17, %19
  invoke void @_ZNSt7__cxx1112basic_stringIcSt11char_traitsIcESaIcEE7reserveEm(ptr noundef nonnull align 8 dereferenceable(32) %0, i64 noundef %20)
          to label %21 unwind label %34

21:                                               ; preds = %16
  %22 = load ptr, ptr %5, align 8, !tbaa !12
  %23 = load i64, ptr %7, align 8, !tbaa !30
  %24 = invoke noundef nonnull align 8 dereferenceable(32) ptr @_ZNSt7__cxx1112basic_stringIcSt11char_traitsIcESaIcEE6appendEPKcm(ptr noundef nonnull align 8 dereferenceable(32) %0, ptr noundef %22, i64 noundef %23)
          to label %25 unwind label %34

25:                                               ; preds = %21
  %26 = load ptr, ptr %6, align 8, !tbaa !10
  %27 = invoke noundef nonnull align 8 dereferenceable(32) ptr @_ZNSt7__cxx1112basic_stringIcSt11char_traitsIcESaIcEE6appendERKS4_(ptr noundef nonnull align 8 dereferenceable(32) %0, ptr noundef nonnull align 8 dereferenceable(32) %26)
          to label %28 unwind label %34

28:                                               ; preds = %25
  store i1 true, ptr %8, align 1
  %29 = load i1, ptr %8, align 1
  br i1 %29, label %39, label %38

30:                                               ; preds = %3
  %31 = landingpad { ptr, i32 }
          cleanup
  %32 = extractvalue { ptr, i32 } %31, 0
  store ptr %32, ptr %11, align 8
  %33 = extractvalue { ptr, i32 } %31, 1
  store i32 %33, ptr %12, align 4
  call void @_ZNSt15__new_allocatorIcED2Ev(ptr noundef nonnull align 1 dereferenceable(1) %10) #3
  call void @llvm.lifetime.end.p0(i64 1, ptr %10) #3
  call void @llvm.lifetime.end.p0(i64 1, ptr %9) #3
  br label %40

34:                                               ; preds = %25, %21, %16
  %35 = landingpad { ptr, i32 }
          cleanup
  %36 = extractvalue { ptr, i32 } %35, 0
  store ptr %36, ptr %11, align 8
  %37 = extractvalue { ptr, i32 } %35, 1
  store i32 %37, ptr %12, align 4
  call void @_ZNSt7__cxx1112basic_stringIcSt11char_traitsIcESaIcEED2Ev(ptr noundef nonnull align 8 dereferenceable(32) %0) #3
  br label %40

38:                                               ; preds = %28
  call void @_ZNSt7__cxx1112basic_stringIcSt11char_traitsIcESaIcEED2Ev(ptr noundef nonnull align 8 dereferenceable(32) %0) #3
  br label %39

39:                                               ; preds = %38, %28
  call void @llvm.lifetime.end.p0(i64 8, ptr %7) #3
  ret void

40:                                               ; preds = %34, %30
  call void @llvm.lifetime.end.p0(i64 8, ptr %7) #3
  br label %41

41:                                               ; preds = %40
  %42 = load ptr, ptr %11, align 8
  %43 = load i32, ptr %12, align 4
  %44 = insertvalue { ptr, i32 } poison, ptr %42, 0
  %45 = insertvalue { ptr, i32 } %44, i32 %43, 1
  resume { ptr, i32 } %45
}

; Function Attrs: mustprogress uwtable
define available_externally void @_ZNSt7__cxx1112basic_stringIcSt11char_traitsIcESaIcEEC2ERKS4_(ptr noundef nonnull align 8 dereferenceable(32) %0, ptr noundef nonnull align 8 dereferenceable(32) %1) unnamed_addr #4 align 2 personality ptr @__gxx_personality_v0 {
  %3 = alloca ptr, align 8
  %4 = alloca ptr, align 8
  %5 = alloca %"class.std::allocator", align 1
  %6 = alloca ptr, align 8
  %7 = alloca i32, align 4
  store ptr %0, ptr %3, align 8, !tbaa !10
  store ptr %1, ptr %4, align 8, !tbaa !10
  %8 = load ptr, ptr %3, align 8
  %9 = getelementptr inbounds nuw %"class.std::__cxx11::basic_string", ptr %8, i32 0, i32 0
  %10 = call noundef ptr @_ZNSt7__cxx1112basic_stringIcSt11char_traitsIcESaIcEE13_M_local_dataEv(ptr noundef nonnull align 8 dereferenceable(32) %8)
  call void @llvm.lifetime.start.p0(i64 1, ptr %5) #3
  %11 = load ptr, ptr %4, align 8, !tbaa !10
  %12 = call noundef nonnull align 1 dereferenceable(1) ptr @_ZNKSt7__cxx1112basic_stringIcSt11char_traitsIcESaIcEE16_M_get_allocatorEv(ptr noundef nonnull align 8 dereferenceable(32) %11)
  call void @_ZN9__gnu_cxx14__alloc_traitsISaIcEcE17_S_select_on_copyERKS1_(ptr dead_on_unwind writable sret(%"class.std::allocator") align 1 %5, ptr noundef nonnull align 1 dereferenceable(1) %12)
  invoke void @_ZNSt7__cxx1112basic_stringIcSt11char_traitsIcESaIcEE12_Alloc_hiderC2EPcOS3_(ptr noundef nonnull align 8 dereferenceable(8) %9, ptr noundef %10, ptr noundef nonnull align 1 dereferenceable(1) %5)
          to label %13 unwind label %22

13:                                               ; preds = %2
  call void @_ZNSt15__new_allocatorIcED2Ev(ptr noundef nonnull align 1 dereferenceable(1) %5) #3
  call void @llvm.lifetime.end.p0(i64 1, ptr %5) #3
  %14 = load ptr, ptr %4, align 8, !tbaa !10
  %15 = call noundef ptr @_ZNKSt7__cxx1112basic_stringIcSt11char_traitsIcESaIcEE7_M_dataEv(ptr noundef nonnull align 8 dereferenceable(32) %14)
  %16 = load ptr, ptr %4, align 8, !tbaa !10
  %17 = call noundef ptr @_ZNKSt7__cxx1112basic_stringIcSt11char_traitsIcESaIcEE7_M_dataEv(ptr noundef nonnull align 8 dereferenceable(32) %16)
  %18 = load ptr, ptr %4, align 8, !tbaa !10
  %19 = call noundef i64 @_ZNKSt7__cxx1112basic_stringIcSt11char_traitsIcESaIcEE6lengthEv(ptr noundef nonnull align 8 dereferenceable(32) %18) #3
  %20 = getelementptr inbounds nuw i8, ptr %17, i64 %19
  invoke void @_ZNSt7__cxx1112basic_stringIcSt11char_traitsIcESaIcEE12_M_constructIPcEEvT_S7_St20forward_iterator_tag(ptr noundef nonnull align 8 dereferenceable(32) %8, ptr noundef %15, ptr noundef %20)
          to label %21 unwind label %26

21:                                               ; preds = %13
  ret void

22:                                               ; preds = %2
  %23 = landingpad { ptr, i32 }
          cleanup
  %24 = extractvalue { ptr, i32 } %23, 0
  store ptr %24, ptr %6, align 8
  %25 = extractvalue { ptr, i32 } %23, 1
  store i32 %25, ptr %7, align 4
  call void @_ZNSt15__new_allocatorIcED2Ev(ptr noundef nonnull align 1 dereferenceable(1) %5) #3
  call void @llvm.lifetime.end.p0(i64 1, ptr %5) #3
  br label %30

26:                                               ; preds = %13
  %27 = landingpad { ptr, i32 }
          cleanup
  %28 = extractvalue { ptr, i32 } %27, 0
  store ptr %28, ptr %6, align 8
  %29 = extractvalue { ptr, i32 } %27, 1
  store i32 %29, ptr %7, align 4
  call void @_ZNSt15__new_allocatorIcED2Ev(ptr noundef nonnull align 8 dereferenceable(8) %9) #3
  br label %30

30:                                               ; preds = %26, %22
  %31 = load ptr, ptr %6, align 8
  %32 = load i32, ptr %7, align 4
  %33 = insertvalue { ptr, i32 } poison, ptr %31, 0
  %34 = insertvalue { ptr, i32 } %33, i32 %32, 1
  resume { ptr, i32 } %34
}

; Function Attrs: mustprogress uwtable
define void @_ZN7testing8internal24FindMaxBipartiteMatchingERKNS0_11MatchMatrixE(ptr dead_on_unwind noalias writable sret(%"class.std::vector.8") align 8 %0, ptr noundef nonnull align 8 dereferenceable(40) %1) #4 personality ptr @__gxx_personality_v0 {
  %3 = alloca ptr, align 8
  %4 = alloca ptr, align 8
  %5 = alloca %"class.testing::internal::MaxBipartiteMatchState", align 8
  %6 = alloca ptr, align 8
  %7 = alloca i32, align 4
  store ptr %0, ptr %3, align 8
  store ptr %1, ptr %4, align 8, !tbaa !82
  call void @llvm.lifetime.start.p0(i64 56, ptr %5) #3
  %8 = load ptr, ptr %4, align 8, !tbaa !82
  call void @_ZN7testing8internal22MaxBipartiteMatchStateC2ERKNS0_11MatchMatrixE(ptr noundef nonnull align 8 dereferenceable(56) %5, ptr noundef nonnull align 8 dereferenceable(40) %8)
  invoke void @_ZN7testing8internal22MaxBipartiteMatchState7ComputeEv(ptr dead_on_unwind writable sret(%"class.std::vector.8") align 8 %0, ptr noundef nonnull align 8 dereferenceable(56) %5)
          to label %9 unwind label %10

9:                                                ; preds = %2
  call void @_ZN7testing8internal22MaxBipartiteMatchStateD2Ev(ptr noundef nonnull align 8 dereferenceable(56) %5) #3
  call void @llvm.lifetime.end.p0(i64 56, ptr %5) #3
  ret void

10:                                               ; preds = %2
  %11 = landingpad { ptr, i32 }
          cleanup
  %12 = extractvalue { ptr, i32 } %11, 0
  store ptr %12, ptr %6, align 8
  %13 = extractvalue { ptr, i32 } %11, 1
  store i32 %13, ptr %7, align 4
  call void @_ZN7testing8internal22MaxBipartiteMatchStateD2Ev(ptr noundef nonnull align 8 dereferenceable(56) %5) #3
  call void @llvm.lifetime.end.p0(i64 56, ptr %5) #3
  br label %14

14:                                               ; preds = %10
  %15 = load ptr, ptr %6, align 8
  %16 = load i32, ptr %7, align 4
  %17 = insertvalue { ptr, i32 } poison, ptr %15, 0
  %18 = insertvalue { ptr, i32 } %17, i32 %16, 1
  resume { ptr, i32 } %18
}

; Function Attrs: mustprogress uwtable
define linkonce_odr void @_ZN7testing8internal22MaxBipartiteMatchStateC2ERKNS0_11MatchMatrixE(ptr noundef nonnull align 8 dereferenceable(56) %0, ptr noundef nonnull align 8 dereferenceable(40) %1) unnamed_addr #4 comdat align 2 personality ptr @__gxx_personality_v0 {
  %3 = alloca ptr, align 8
  %4 = alloca ptr, align 8
  %5 = alloca %"class.std::allocator.15", align 1
  %6 = alloca ptr, align 8
  %7 = alloca i32, align 4
  %8 = alloca %"class.std::allocator.15", align 1
  store ptr %0, ptr %3, align 8, !tbaa !84
  store ptr %1, ptr %4, align 8, !tbaa !82
  %9 = load ptr, ptr %3, align 8
  %10 = getelementptr inbounds nuw %"class.testing::internal::MaxBipartiteMatchState", ptr %9, i32 0, i32 0
  %11 = load ptr, ptr %4, align 8, !tbaa !82
  store ptr %11, ptr %10, align 8, !tbaa !86
  %12 = getelementptr inbounds nuw %"class.testing::internal::MaxBipartiteMatchState", ptr %9, i32 0, i32 1
  %13 = getelementptr inbounds nuw %"class.testing::internal::MaxBipartiteMatchState", ptr %9, i32 0, i32 0
  %14 = load ptr, ptr %13, align 8, !tbaa !86
  %15 = call noundef i64 @_ZNK7testing8internal11MatchMatrix7LhsSizeEv(ptr noundef nonnull align 8 dereferenceable(40) %14)
  call void @llvm.lifetime.start.p0(i64 1, ptr %5) #3
  call void @_ZNSaImEC2Ev(ptr noundef nonnull align 1 dereferenceable(1) %5) #3
  invoke void @_ZNSt6vectorImSaImEEC2EmRKmRKS0_(ptr noundef nonnull align 8 dereferenceable(24) %12, i64 noundef %15, ptr noundef nonnull align 8 dereferenceable(8) @_ZN7testing8internal22MaxBipartiteMatchState7kUnusedE, ptr noundef nonnull align 1 dereferenceable(1) %5)
          to label %16 unwind label %23

16:                                               ; preds = %2
  call void @_ZNSt15__new_allocatorImED2Ev(ptr noundef nonnull align 1 dereferenceable(1) %5) #3
  call void @llvm.lifetime.end.p0(i64 1, ptr %5) #3
  %17 = getelementptr inbounds nuw %"class.testing::internal::MaxBipartiteMatchState", ptr %9, i32 0, i32 2
  %18 = getelementptr inbounds nuw %"class.testing::internal::MaxBipartiteMatchState", ptr %9, i32 0, i32 0
  %19 = load ptr, ptr %18, align 8, !tbaa !86
  %20 = invoke noundef i64 @_ZNK7testing8internal11MatchMatrix7RhsSizeEv(ptr noundef nonnull align 8 dereferenceable(40) %19)
          to label %21 unwind label %27

21:                                               ; preds = %16
  call void @llvm.lifetime.start.p0(i64 1, ptr %8) #3
  call void @_ZNSaImEC2Ev(ptr noundef nonnull align 1 dereferenceable(1) %8) #3
  invoke void @_ZNSt6vectorImSaImEEC2EmRKmRKS0_(ptr noundef nonnull align 8 dereferenceable(24) %17, i64 noundef %20, ptr noundef nonnull align 8 dereferenceable(8) @_ZN7testing8internal22MaxBipartiteMatchState7kUnusedE, ptr noundef nonnull align 1 dereferenceable(1) %8)
          to label %22 unwind label %31

22:                                               ; preds = %21
  call void @_ZNSt15__new_allocatorImED2Ev(ptr noundef nonnull align 1 dereferenceable(1) %8) #3
  call void @llvm.lifetime.end.p0(i64 1, ptr %8) #3
  ret void

23:                                               ; preds = %2
  %24 = landingpad { ptr, i32 }
          cleanup
  %25 = extractvalue { ptr, i32 } %24, 0
  store ptr %25, ptr %6, align 8
  %26 = extractvalue { ptr, i32 } %24, 1
  store i32 %26, ptr %7, align 4
  call void @_ZNSt15__new_allocatorImED2Ev(ptr noundef nonnull align 1 dereferenceable(1) %5) #3
  call void @llvm.lifetime.end.p0(i64 1, ptr %5) #3
  br label %36

27:                                               ; preds = %16
  %28 = landingpad { ptr, i32 }
          cleanup
  %29 = extractvalue { ptr, i32 } %28, 0
  store ptr %29, ptr %6, align 8
  %30 = extractvalue { ptr, i32 } %28, 1
  store i32 %30, ptr %7, align 4
  br label %35

31:                                               ; preds = %21
  %32 = landingpad { ptr, i32 }
          cleanup
  %33 = extractvalue { ptr, i32 } %32, 0
  store ptr %33, ptr %6, align 8
  %34 = extractvalue { ptr, i32 } %32, 1
  store i32 %34, ptr %7, align 4
  call void @_ZNSt15__new_allocatorImED2Ev(ptr noundef nonnull align 1 dereferenceable(1) %8) #3
  call void @llvm.lifetime.end.p0(i64 1, ptr %8) #3
  br label %35

35:                                               ; preds = %31, %27
  call void @_ZNSt6vectorImSaImEED2Ev(ptr noundef nonnull align 8 dereferenceable(24) %12) #3
  br label %36

36:                                               ; preds = %35, %23
  %37 = load ptr, ptr %6, align 8
  %38 = load i32, ptr %7, align 4
  %39 = insertvalue { ptr, i32 } poison, ptr %37, 0
  %40 = insertvalue { ptr, i32 } %39, i32 %38, 1
  resume { ptr, i32 } %40
}

; Function Attrs: mustprogress uwtable
define linkonce_odr void @_ZN7testing8internal22MaxBipartiteMatchState7ComputeEv(ptr dead_on_unwind noalias writable sret(%"class.std::vector.8") align 8 %0, ptr noundef nonnull align 8 dereferenceable(56) %1) #4 comdat align 2 personality ptr @__gxx_personality_v0 {
  %3 = alloca ptr, align 8
  %4 = alloca ptr, align 8
  %5 = alloca %"class.std::vector.18", align 8
  %6 = alloca i64, align 8
  %7 = alloca ptr, align 8
  %8 = alloca i32, align 4
  %9 = alloca %"class.testing::internal::GTestLog", align 4
  %10 = alloca i8, align 1
  %11 = alloca i1, align 1
  %12 = alloca i64, align 8
  %13 = alloca i32, align 4
  %14 = alloca i64, align 8
  %15 = alloca %"struct.std::pair", align 8
  store ptr %0, ptr %3, align 8
  store ptr %1, ptr %4, align 8, !tbaa !84
  %16 = load ptr, ptr %4, align 8
  call void @llvm.lifetime.start.p0(i64 24, ptr %5) #3
  call void @_ZNSt6vectorIcSaIcEEC2Ev(ptr noundef nonnull align 8 dereferenceable(24) %5) #3
  call void @llvm.lifetime.start.p0(i64 8, ptr %6) #3
  store i64 0, ptr %6, align 8, !tbaa !30
  br label %17

17:                                               ; preds = %74, %2
  %18 = load i64, ptr %6, align 8, !tbaa !30
  %19 = getelementptr inbounds nuw %"class.testing::internal::MaxBipartiteMatchState", ptr %16, i32 0, i32 0
  %20 = load ptr, ptr %19, align 8, !tbaa !86
  %21 = invoke noundef i64 @_ZNK7testing8internal11MatchMatrix7LhsSizeEv(ptr noundef nonnull align 8 dereferenceable(40) %20)
          to label %22 unwind label %25

22:                                               ; preds = %17
  %23 = icmp ult i64 %18, %21
  br i1 %23, label %29, label %24

24:                                               ; preds = %22
  call void @llvm.lifetime.end.p0(i64 8, ptr %6) #3
  br label %82

25:                                               ; preds = %70, %65, %29, %17
  %26 = landingpad { ptr, i32 }
          cleanup
  %27 = extractvalue { ptr, i32 } %26, 0
  store ptr %27, ptr %7, align 8
  %28 = extractvalue { ptr, i32 } %26, 1
  store i32 %28, ptr %8, align 4
  br label %81

29:                                               ; preds = %22
  %30 = getelementptr inbounds nuw %"class.testing::internal::MaxBipartiteMatchState", ptr %16, i32 0, i32 1
  %31 = load i64, ptr %6, align 8, !tbaa !30
  %32 = call noundef nonnull align 8 dereferenceable(8) ptr @_ZNSt6vectorImSaImEEixEm(ptr noundef nonnull align 8 dereferenceable(24) %30, i64 noundef %31) #3
  %33 = load i64, ptr %32, align 8, !tbaa !30
  %34 = icmp eq i64 %33, -1
  %35 = invoke noundef zeroext i1 @_ZN7testing8internal6IsTrueEb(i1 noundef zeroext %34)
          to label %36 unwind label %25

36:                                               ; preds = %29
  br i1 %35, label %37, label %38

37:                                               ; preds = %36
  br label %65

38:                                               ; preds = %36
  call void @llvm.lifetime.start.p0(i64 4, ptr %9) #3
  invoke void @_ZN7testing8internal8GTestLogC1ENS0_16GTestLogSeverityEPKci(ptr noundef nonnull align 4 dereferenceable(4) %9, i32 noundef 3, ptr noundef @.str.98, i32 noundef 150)
          to label %39 unwind label %56

39:                                               ; preds = %38
  %40 = call noundef nonnull align 8 dereferenceable(8) ptr @_ZN7testing8internal8GTestLog9GetStreamEv(ptr noundef nonnull align 4 dereferenceable(4) %9)
  %41 = invoke noundef nonnull align 8 dereferenceable(8) ptr @_ZStlsISt11char_traitsIcEERSt13basic_ostreamIcT_ES5_PKc(ptr noundef nonnull align 8 dereferenceable(8) %40, ptr noundef @.str.99)
          to label %42 unwind label %60

42:                                               ; preds = %39
  %43 = invoke noundef nonnull align 8 dereferenceable(8) ptr @_ZStlsISt11char_traitsIcEERSt13basic_ostreamIcT_ES5_PKc(ptr noundef nonnull align 8 dereferenceable(8) %41, ptr noundef @.str.100)
          to label %44 unwind label %60

44:                                               ; preds = %42
  %45 = load i64, ptr %6, align 8, !tbaa !30
  %46 = invoke noundef nonnull align 8 dereferenceable(8) ptr @_ZNSolsEm(ptr noundef nonnull align 8 dereferenceable(8) %43, i64 noundef %45)
          to label %47 unwind label %60

47:                                               ; preds = %44
  %48 = invoke noundef nonnull align 8 dereferenceable(8) ptr @_ZStlsISt11char_traitsIcEERSt13basic_ostreamIcT_ES5_PKc(ptr noundef nonnull align 8 dereferenceable(8) %46, ptr noundef @.str.101)
          to label %49 unwind label %60

49:                                               ; preds = %47
  %50 = getelementptr inbounds nuw %"class.testing::internal::MaxBipartiteMatchState", ptr %16, i32 0, i32 1
  %51 = load i64, ptr %6, align 8, !tbaa !30
  %52 = call noundef nonnull align 8 dereferenceable(8) ptr @_ZNSt6vectorImSaImEEixEm(ptr noundef nonnull align 8 dereferenceable(24) %50, i64 noundef %51) #3
  %53 = load i64, ptr %52, align 8, !tbaa !30
  %54 = invoke noundef nonnull align 8 dereferenceable(8) ptr @_ZNSolsEm(ptr noundef nonnull align 8 dereferenceable(8) %48, i64 noundef %53)
          to label %55 unwind label %60

55:                                               ; preds = %49
  call void @_ZN7testing8internal8GTestLogD1Ev(ptr noundef nonnull align 4 dereferenceable(4) %9) #3
  call void @llvm.lifetime.end.p0(i64 4, ptr %9) #3
  br label %65

56:                                               ; preds = %38
  %57 = landingpad { ptr, i32 }
          cleanup
  %58 = extractvalue { ptr, i32 } %57, 0
  store ptr %58, ptr %7, align 8
  %59 = extractvalue { ptr, i32 } %57, 1
  store i32 %59, ptr %8, align 4
  br label %64

60:                                               ; preds = %49, %47, %44, %42, %39
  %61 = landingpad { ptr, i32 }
          cleanup
  %62 = extractvalue { ptr, i32 } %61, 0
  store ptr %62, ptr %7, align 8
  %63 = extractvalue { ptr, i32 } %61, 1
  store i32 %63, ptr %8, align 4
  call void @_ZN7testing8internal8GTestLogD1Ev(ptr noundef nonnull align 4 dereferenceable(4) %9) #3
  br label %64

64:                                               ; preds = %60, %56
  call void @llvm.lifetime.end.p0(i64 4, ptr %9) #3
  br label %81

65:                                               ; preds = %55, %37
  %66 = getelementptr inbounds nuw %"class.testing::internal::MaxBipartiteMatchState", ptr %16, i32 0, i32 0
  %67 = load ptr, ptr %66, align 8, !tbaa !86
  %68 = invoke noundef i64 @_ZNK7testing8internal11MatchMatrix7RhsSizeEv(ptr noundef nonnull align 8 dereferenceable(40) %67)
          to label %69 unwind label %25

69:                                               ; preds = %65
  call void @llvm.lifetime.start.p0(i64 1, ptr %10) #3
  store i8 0, ptr %10, align 1, !tbaa !49
  invoke void @_ZNSt6vectorIcSaIcEE6assignEmRKc(ptr noundef nonnull align 8 dereferenceable(24) %5, i64 noundef %68, ptr noundef nonnull align 1 dereferenceable(1) %10)
          to label %70 unwind label %77

70:                                               ; preds = %69
  call void @llvm.lifetime.end.p0(i64 1, ptr %10) #3
  %71 = load i64, ptr %6, align 8, !tbaa !30
  %72 = invoke noundef zeroext i1 @_ZN7testing8internal22MaxBipartiteMatchState10TryAugmentEmPSt6vectorIcSaIcEE(ptr noundef nonnull align 8 dereferenceable(56) %16, i64 noundef %71, ptr noundef %5)
          to label %73 unwind label %25

73:                                               ; preds = %70
  br label %74

74:                                               ; preds = %73
  %75 = load i64, ptr %6, align 8, !tbaa !30
  %76 = add i64 %75, 1
  store i64 %76, ptr %6, align 8, !tbaa !30
  br label %17, !llvm.loop !93

77:                                               ; preds = %69
  %78 = landingpad { ptr, i32 }
          cleanup
  %79 = extractvalue { ptr, i32 } %78, 0
  store ptr %79, ptr %7, align 8
  %80 = extractvalue { ptr, i32 } %78, 1
  store i32 %80, ptr %8, align 4
  call void @llvm.lifetime.end.p0(i64 1, ptr %10) #3
  br label %81

81:                                               ; preds = %77, %64, %25
  call void @llvm.lifetime.end.p0(i64 8, ptr %6) #3
  br label %114

82:                                               ; preds = %24
  store i1 false, ptr %11, align 1
  call void @_ZNSt6vectorISt4pairImmESaIS1_EEC2Ev(ptr noundef nonnull align 8 dereferenceable(24) %0) #3
  call void @llvm.lifetime.start.p0(i64 8, ptr %12) #3
  store i64 0, ptr %12, align 8, !tbaa !30
  br label %83

83:                                               ; preds = %103, %82
  %84 = load i64, ptr %12, align 8, !tbaa !30
  %85 = getelementptr inbounds nuw %"class.testing::internal::MaxBipartiteMatchState", ptr %16, i32 0, i32 1
  %86 = call noundef i64 @_ZNKSt6vectorImSaImEE4sizeEv(ptr noundef nonnull align 8 dereferenceable(24) %85) #3
  %87 = icmp ult i64 %84, %86
  br i1 %87, label %89, label %88

88:                                               ; preds = %83
  store i32 5, ptr %13, align 4
  call void @llvm.lifetime.end.p0(i64 8, ptr %12) #3
  br label %110

89:                                               ; preds = %83
  call void @llvm.lifetime.start.p0(i64 8, ptr %14) #3
  %90 = getelementptr inbounds nuw %"class.testing::internal::MaxBipartiteMatchState", ptr %16, i32 0, i32 1
  %91 = load i64, ptr %12, align 8, !tbaa !30
  %92 = call noundef nonnull align 8 dereferenceable(8) ptr @_ZNSt6vectorImSaImEEixEm(ptr noundef nonnull align 8 dereferenceable(24) %90, i64 noundef %91) #3
  %93 = load i64, ptr %92, align 8, !tbaa !30
  store i64 %93, ptr %14, align 8, !tbaa !30
  %94 = load i64, ptr %14, align 8, !tbaa !30
  %95 = icmp eq i64 %94, -1
  br i1 %95, label %96, label %97

96:                                               ; preds = %89
  store i32 7, ptr %13, align 4
  br label %100

97:                                               ; preds = %89
  call void @llvm.lifetime.start.p0(i64 16, ptr %15) #3
  invoke void @_ZNSt4pairImmEC2IRmS2_TnNSt9enable_ifIXaaclsr5_PCCPE22_MoveConstructiblePairIT_T0_EEclsr5_PCCPE30_ImplicitlyMoveConvertiblePairIS4_S5_EEEbE4typeELb1EEEOS4_OS5_(ptr noundef nonnull align 8 dereferenceable(16) %15, ptr noundef nonnull align 8 dereferenceable(8) %12, ptr noundef nonnull align 8 dereferenceable(8) %14)
          to label %98 unwind label %106

98:                                               ; preds = %97
  invoke void @_ZNSt6vectorISt4pairImmESaIS1_EE9push_backEOS1_(ptr noundef nonnull align 8 dereferenceable(24) %0, ptr noundef nonnull align 8 dereferenceable(16) %15)
          to label %99 unwind label %106

99:                                               ; preds = %98
  call void @llvm.lifetime.end.p0(i64 16, ptr %15) #3
  store i32 0, ptr %13, align 4
  br label %100

100:                                              ; preds = %99, %96
  call void @llvm.lifetime.end.p0(i64 8, ptr %14) #3
  %101 = load i32, ptr %13, align 4
  switch i32 %101, label %120 [
    i32 0, label %102
    i32 7, label %103
  ]

102:                                              ; preds = %100
  br label %103

103:                                              ; preds = %102, %100
  %104 = load i64, ptr %12, align 8, !tbaa !30
  %105 = add i64 %104, 1
  store i64 %105, ptr %12, align 8, !tbaa !30
  br label %83, !llvm.loop !94

106:                                              ; preds = %98, %97
  %107 = landingpad { ptr, i32 }
          cleanup
  %108 = extractvalue { ptr, i32 } %107, 0
  store ptr %108, ptr %7, align 8
  %109 = extractvalue { ptr, i32 } %107, 1
  store i32 %109, ptr %8, align 4
  call void @llvm.lifetime.end.p0(i64 16, ptr %15) #3
  call void @llvm.lifetime.end.p0(i64 8, ptr %14) #3
  call void @llvm.lifetime.end.p0(i64 8, ptr %12) #3
  call void @_ZNSt6vectorISt4pairImmESaIS1_EED2Ev(ptr noundef nonnull align 8 dereferenceable(24) %0) #3
  br label %114

110:                                              ; preds = %88
  store i1 true, ptr %11, align 1
  store i32 1, ptr %13, align 4
  %111 = load i1, ptr %11, align 1
  br i1 %111, label %113, label %112

112:                                              ; preds = %110
  call void @_ZNSt6vectorISt4pairImmESaIS1_EED2Ev(ptr noundef nonnull align 8 dereferenceable(24) %0) #3
  br label %113

113:                                              ; preds = %112, %110
  call void @_ZNSt6vectorIcSaIcEED2Ev(ptr noundef nonnull align 8 dereferenceable(24) %5) #3
  call void @llvm.lifetime.end.p0(i64 24, ptr %5) #3
  ret void

114:                                              ; preds = %106, %81
  call void @_ZNSt6vectorIcSaIcEED2Ev(ptr noundef nonnull align 8 dereferenceable(24) %5) #3
  call void @llvm.lifetime.end.p0(i64 24, ptr %5) #3
  br label %115

115:                                              ; preds = %114
  %116 = load ptr, ptr %7, align 8
  %117 = load i32, ptr %8, align 4
  %118 = insertvalue { ptr, i32 } poison, ptr %116, 0
  %119 = insertvalue { ptr, i32 } %118, i32 %117, 1
  resume { ptr, i32 } %119

120:                                              ; preds = %100
  unreachable
}

; Function Attrs: inlinehint mustprogress nounwind uwtable
define linkonce_odr void @_ZN7testing8internal22MaxBipartiteMatchStateD2Ev(ptr noundef nonnull align 8 dereferenceable(56) %0) unnamed_addr #10 comdat align 2 {
  %2 = alloca ptr, align 8
  store ptr %0, ptr %2, align 8, !tbaa !84
  %3 = load ptr, ptr %2, align 8
  %4 = getelementptr inbounds nuw %"class.testing::internal::MaxBipartiteMatchState", ptr %3, i32 0, i32 2
  call void @_ZNSt6vectorImSaImEED2Ev(ptr noundef nonnull align 8 dereferenceable(24) %4) #3
  %5 = getelementptr inbounds nuw %"class.testing::internal::MaxBipartiteMatchState", ptr %3, i32 0, i32 1
  call void @_ZNSt6vectorImSaImEED2Ev(ptr noundef nonnull align 8 dereferenceable(24) %5) #3
  ret void
}

; Function Attrs: mustprogress uwtable
define noundef zeroext i1 @_ZN7testing8internal11MatchMatrix9NextGraphEv(ptr noundef nonnull align 8 dereferenceable(40) %0) #4 align 2 {
  %2 = alloca i1, align 1
  %3 = alloca ptr, align 8
  %4 = alloca i64, align 8
  %5 = alloca i32, align 4
  %6 = alloca i64, align 8
  %7 = alloca ptr, align 8
  store ptr %0, ptr %3, align 8, !tbaa !82
  %8 = load ptr, ptr %3, align 8
  call void @llvm.lifetime.start.p0(i64 8, ptr %4) #3
  store i64 0, ptr %4, align 8, !tbaa !30
  br label %9

9:                                                ; preds = %42, %1
  %10 = load i64, ptr %4, align 8, !tbaa !30
  %11 = call noundef i64 @_ZNK7testing8internal11MatchMatrix7LhsSizeEv(ptr noundef nonnull align 8 dereferenceable(40) %8)
  %12 = icmp ult i64 %10, %11
  br i1 %12, label %14, label %13

13:                                               ; preds = %9
  store i32 2, ptr %5, align 4
  br label %45

14:                                               ; preds = %9
  call void @llvm.lifetime.start.p0(i64 8, ptr %6) #3
  store i64 0, ptr %6, align 8, !tbaa !30
  br label %15

15:                                               ; preds = %36, %14
  %16 = load i64, ptr %6, align 8, !tbaa !30
  %17 = call noundef i64 @_ZNK7testing8internal11MatchMatrix7RhsSizeEv(ptr noundef nonnull align 8 dereferenceable(40) %8)
  %18 = icmp ult i64 %16, %17
  br i1 %18, label %20, label %19

19:                                               ; preds = %15
  store i32 5, ptr %5, align 4
  br label %39

20:                                               ; preds = %15
  call void @llvm.lifetime.start.p0(i64 8, ptr %7) #3
  %21 = getelementptr inbounds nuw %"class.testing::internal::MatchMatrix", ptr %8, i32 0, i32 2
  %22 = load i64, ptr %4, align 8, !tbaa !30
  %23 = load i64, ptr %6, align 8, !tbaa !30
  %24 = call noundef i64 @_ZNK7testing8internal11MatchMatrix10SpaceIndexEmm(ptr noundef nonnull align 8 dereferenceable(40) %8, i64 noundef %22, i64 noundef %23)
  %25 = call noundef nonnull align 1 dereferenceable(1) ptr @_ZNSt6vectorIcSaIcEEixEm(ptr noundef nonnull align 8 dereferenceable(24) %21, i64 noundef %24) #3
  store ptr %25, ptr %7, align 8, !tbaa !12
  %26 = load ptr, ptr %7, align 8, !tbaa !12
  %27 = load i8, ptr %26, align 1, !tbaa !49
  %28 = icmp ne i8 %27, 0
  br i1 %28, label %31, label %29

29:                                               ; preds = %20
  %30 = load ptr, ptr %7, align 8, !tbaa !12
  store i8 1, ptr %30, align 1, !tbaa !49
  store i1 true, ptr %2, align 1
  store i32 1, ptr %5, align 4
  br label %33

31:                                               ; preds = %20
  %32 = load ptr, ptr %7, align 8, !tbaa !12
  store i8 0, ptr %32, align 1, !tbaa !49
  store i32 0, ptr %5, align 4
  br label %33

33:                                               ; preds = %31, %29
  call void @llvm.lifetime.end.p0(i64 8, ptr %7) #3
  %34 = load i32, ptr %5, align 4
  switch i32 %34, label %39 [
    i32 0, label %35
  ]

35:                                               ; preds = %33
  br label %36

36:                                               ; preds = %35
  %37 = load i64, ptr %6, align 8, !tbaa !30
  %38 = add i64 %37, 1
  store i64 %38, ptr %6, align 8, !tbaa !30
  br label %15, !llvm.loop !95

39:                                               ; preds = %33, %19
  call void @llvm.lifetime.end.p0(i64 8, ptr %6) #3
  %40 = load i32, ptr %5, align 4
  switch i32 %40, label %45 [
    i32 5, label %41
  ]

41:                                               ; preds = %39
  br label %42

42:                                               ; preds = %41
  %43 = load i64, ptr %4, align 8, !tbaa !30
  %44 = add i64 %43, 1
  store i64 %44, ptr %4, align 8, !tbaa !30
  br label %9, !llvm.loop !96

45:                                               ; preds = %39, %13
  call void @llvm.lifetime.end.p0(i64 8, ptr %4) #3
  %46 = load i32, ptr %5, align 4
  switch i32 %46, label %50 [
    i32 2, label %47
    i32 1, label %48
  ]

47:                                               ; preds = %45
  store i1 false, ptr %2, align 1
  br label %48

48:                                               ; preds = %47, %45
  %49 = load i1, ptr %2, align 1
  ret i1 %49

50:                                               ; preds = %45
  unreachable
}

; Function Attrs: mustprogress nounwind uwtable
define linkonce_odr noundef i64 @_ZNK7testing8internal11MatchMatrix7LhsSizeEv(ptr noundef nonnull align 8 dereferenceable(40) %0) #7 comdat align 2 {
  %2 = alloca ptr, align 8
  store ptr %0, ptr %2, align 8, !tbaa !82
  %3 = load ptr, ptr %2, align 8
  %4 = getelementptr inbounds nuw %"class.testing::internal::MatchMatrix", ptr %3, i32 0, i32 0
  %5 = load i64, ptr %4, align 8, !tbaa !97
  ret i64 %5
}

; Function Attrs: mustprogress nounwind uwtable
define linkonce_odr noundef i64 @_ZNK7testing8internal11MatchMatrix7RhsSizeEv(ptr noundef nonnull align 8 dereferenceable(40) %0) #7 comdat align 2 {
  %2 = alloca ptr, align 8
  store ptr %0, ptr %2, align 8, !tbaa !82
  %3 = load ptr, ptr %2, align 8
  %4 = getelementptr inbounds nuw %"class.testing::internal::MatchMatrix", ptr %3, i32 0, i32 1
  %5 = load i64, ptr %4, align 8, !tbaa !103
  ret i64 %5
}

; Function Attrs: mustprogress nounwind uwtable
define linkonce_odr noundef nonnull align 1 dereferenceable(1) ptr @_ZNSt6vectorIcSaIcEEixEm(ptr noundef nonnull align 8 dereferenceable(24) %0, i64 noundef %1) #7 comdat align 2 {
  %3 = alloca ptr, align 8
  %4 = alloca i64, align 8
  store ptr %0, ptr %3, align 8, !tbaa !104
  store i64 %1, ptr %4, align 8, !tbaa !30
  %5 = load ptr, ptr %3, align 8
  %6 = getelementptr inbounds nuw %"struct.std::_Vector_base.19", ptr %5, i32 0, i32 0
  %7 = getelementptr inbounds nuw %"struct.std::_Vector_base<char, std::allocator<char>>::_Vector_impl_data", ptr %6, i32 0, i32 0
  %8 = load ptr, ptr %7, align 8, !tbaa !106
  %9 = load i64, ptr %4, align 8, !tbaa !30
  %10 = getelementptr inbounds nuw i8, ptr %8, i64 %9
  ret ptr %10
}

; Function Attrs: mustprogress nounwind uwtable
define linkonce_odr noundef i64 @_ZNK7testing8internal11MatchMatrix10SpaceIndexEmm(ptr noundef nonnull align 8 dereferenceable(40) %0, i64 noundef %1, i64 noundef %2) #7 comdat align 2 {
  %4 = alloca ptr, align 8
  %5 = alloca i64, align 8
  %6 = alloca i64, align 8
  store ptr %0, ptr %4, align 8, !tbaa !82
  store i64 %1, ptr %5, align 8, !tbaa !30
  store i64 %2, ptr %6, align 8, !tbaa !30
  %7 = load ptr, ptr %4, align 8
  %8 = load i64, ptr %5, align 8, !tbaa !30
  %9 = getelementptr inbounds nuw %"class.testing::internal::MatchMatrix", ptr %7, i32 0, i32 1
  %10 = load i64, ptr %9, align 8, !tbaa !103
  %11 = mul i64 %8, %10
  %12 = load i64, ptr %6, align 8, !tbaa !30
  %13 = add i64 %11, %12
  ret i64 %13
}

; Function Attrs: mustprogress uwtable
define void @_ZN7testing8internal11MatchMatrix9RandomizeEv(ptr noundef nonnull align 8 dereferenceable(40) %0) #4 align 2 {
  %2 = alloca ptr, align 8
  %3 = alloca i64, align 8
  %4 = alloca i32, align 4
  %5 = alloca i64, align 8
  %6 = alloca ptr, align 8
  store ptr %0, ptr %2, align 8, !tbaa !82
  %7 = load ptr, ptr %2, align 8
  call void @llvm.lifetime.start.p0(i64 8, ptr %3) #3
  store i64 0, ptr %3, align 8, !tbaa !30
  br label %8

8:                                                ; preds = %33, %1
  %9 = load i64, ptr %3, align 8, !tbaa !30
  %10 = call noundef i64 @_ZNK7testing8internal11MatchMatrix7LhsSizeEv(ptr noundef nonnull align 8 dereferenceable(40) %7)
  %11 = icmp ult i64 %9, %10
  br i1 %11, label %13, label %12

12:                                               ; preds = %8
  store i32 2, ptr %4, align 4
  call void @llvm.lifetime.end.p0(i64 8, ptr %3) #3
  br label %36

13:                                               ; preds = %8
  call void @llvm.lifetime.start.p0(i64 8, ptr %5) #3
  store i64 0, ptr %5, align 8, !tbaa !30
  br label %14

14:                                               ; preds = %29, %13
  %15 = load i64, ptr %5, align 8, !tbaa !30
  %16 = call noundef i64 @_ZNK7testing8internal11MatchMatrix7RhsSizeEv(ptr noundef nonnull align 8 dereferenceable(40) %7)
  %17 = icmp ult i64 %15, %16
  br i1 %17, label %19, label %18

18:                                               ; preds = %14
  store i32 5, ptr %4, align 4
  call void @llvm.lifetime.end.p0(i64 8, ptr %5) #3
  br label %32

19:                                               ; preds = %14
  call void @llvm.lifetime.start.p0(i64 8, ptr %6) #3
  %20 = getelementptr inbounds nuw %"class.testing::internal::MatchMatrix", ptr %7, i32 0, i32 2
  %21 = load i64, ptr %3, align 8, !tbaa !30
  %22 = load i64, ptr %5, align 8, !tbaa !30
  %23 = call noundef i64 @_ZNK7testing8internal11MatchMatrix10SpaceIndexEmm(ptr noundef nonnull align 8 dereferenceable(40) %7, i64 noundef %21, i64 noundef %22)
  %24 = call noundef nonnull align 1 dereferenceable(1) ptr @_ZNSt6vectorIcSaIcEEixEm(ptr noundef nonnull align 8 dereferenceable(24) %20, i64 noundef %23) #3
  store ptr %24, ptr %6, align 8, !tbaa !12
  %25 = call i32 @rand() #3
  %26 = and i32 %25, 1
  %27 = trunc i32 %26 to i8
  %28 = load ptr, ptr %6, align 8, !tbaa !12
  store i8 %27, ptr %28, align 1, !tbaa !49
  call void @llvm.lifetime.end.p0(i64 8, ptr %6) #3
  br label %29

29:                                               ; preds = %19
  %30 = load i64, ptr %5, align 8, !tbaa !30
  %31 = add i64 %30, 1
  store i64 %31, ptr %5, align 8, !tbaa !30
  br label %14, !llvm.loop !107

32:                                               ; preds = %18
  br label %33

33:                                               ; preds = %32
  %34 = load i64, ptr %3, align 8, !tbaa !30
  %35 = add i64 %34, 1
  store i64 %35, ptr %3, align 8, !tbaa !30
  br label %8, !llvm.loop !108

36:                                               ; preds = %12
  ret void
}

; Function Attrs: nounwind
declare i32 @rand() #2

; Function Attrs: mustprogress uwtable
define void @_ZNK7testing8internal11MatchMatrix11DebugStringB5cxx11Ev(ptr dead_on_unwind noalias writable sret(%"class.std::__cxx11::basic_string") align 8 %0, ptr noundef nonnull align 8 dereferenceable(40) %1) #4 align 2 personality ptr @__gxx_personality_v0 {
  %3 = alloca ptr, align 8
  %4 = alloca ptr, align 8
  %5 = alloca %"class.std::__cxx11::basic_stringstream", align 8
  %6 = alloca ptr, align 8
  %7 = alloca i64, align 8
  %8 = alloca ptr, align 8
  %9 = alloca i32, align 4
  %10 = alloca i32, align 4
  %11 = alloca i64, align 8
  store ptr %0, ptr %3, align 8
  store ptr %1, ptr %4, align 8, !tbaa !82
  %12 = load ptr, ptr %4, align 8
  call void @llvm.lifetime.start.p0(i64 392, ptr %5) #3
  call void @_ZNSt7__cxx1118basic_stringstreamIcSt11char_traitsIcESaIcEEC1Ev(ptr noundef nonnull align 8 dereferenceable(128) %5)
  call void @llvm.lifetime.start.p0(i64 8, ptr %6) #3
  store ptr @.str.4, ptr %6, align 8, !tbaa !12
  call void @llvm.lifetime.start.p0(i64 8, ptr %7) #3
  store i64 0, ptr %7, align 8, !tbaa !30
  br label %13

13:                                               ; preds = %50, %2
  %14 = load i64, ptr %7, align 8, !tbaa !30
  %15 = invoke noundef i64 @_ZNK7testing8internal11MatchMatrix7LhsSizeEv(ptr noundef nonnull align 8 dereferenceable(40) %12)
          to label %16 unwind label %19

16:                                               ; preds = %13
  %17 = icmp ult i64 %14, %15
  br i1 %17, label %23, label %18

18:                                               ; preds = %16
  store i32 2, ptr %10, align 4
  call void @llvm.lifetime.end.p0(i64 8, ptr %7) #3
  br label %54

19:                                               ; preds = %23, %13
  %20 = landingpad { ptr, i32 }
          cleanup
  %21 = extractvalue { ptr, i32 } %20, 0
  store ptr %21, ptr %8, align 8
  %22 = extractvalue { ptr, i32 } %20, 1
  store i32 %22, ptr %9, align 4
  br label %53

23:                                               ; preds = %16
  %24 = getelementptr inbounds i8, ptr %5, i64 16
  %25 = load ptr, ptr %6, align 8, !tbaa !12
  %26 = invoke noundef nonnull align 8 dereferenceable(8) ptr @_ZStlsISt11char_traitsIcEERSt13basic_ostreamIcT_ES5_PKc(ptr noundef nonnull align 8 dereferenceable(8) %24, ptr noundef %25)
          to label %27 unwind label %19

27:                                               ; preds = %23
  call void @llvm.lifetime.start.p0(i64 8, ptr %11) #3
  store i64 0, ptr %11, align 8, !tbaa !30
  br label %28

28:                                               ; preds = %46, %27
  %29 = load i64, ptr %11, align 8, !tbaa !30
  %30 = invoke noundef i64 @_ZNK7testing8internal11MatchMatrix7RhsSizeEv(ptr noundef nonnull align 8 dereferenceable(40) %12)
          to label %31 unwind label %34

31:                                               ; preds = %28
  %32 = icmp ult i64 %29, %30
  br i1 %32, label %38, label %33

33:                                               ; preds = %31
  store i32 5, ptr %10, align 4
  call void @llvm.lifetime.end.p0(i64 8, ptr %11) #3
  br label %49

34:                                               ; preds = %43, %38, %28
  %35 = landingpad { ptr, i32 }
          cleanup
  %36 = extractvalue { ptr, i32 } %35, 0
  store ptr %36, ptr %8, align 8
  %37 = extractvalue { ptr, i32 } %35, 1
  store i32 %37, ptr %9, align 4
  call void @llvm.lifetime.end.p0(i64 8, ptr %11) #3
  br label %53

38:                                               ; preds = %31
  %39 = getelementptr inbounds i8, ptr %5, i64 16
  %40 = load i64, ptr %7, align 8, !tbaa !30
  %41 = load i64, ptr %11, align 8, !tbaa !30
  %42 = invoke noundef zeroext i1 @_ZNK7testing8internal11MatchMatrix7HasEdgeEmm(ptr noundef nonnull align 8 dereferenceable(40) %12, i64 noundef %40, i64 noundef %41)
          to label %43 unwind label %34

43:                                               ; preds = %38
  %44 = invoke noundef nonnull align 8 dereferenceable(8) ptr @_ZNSolsEb(ptr noundef nonnull align 8 dereferenceable(8) %39, i1 noundef zeroext %42)
          to label %45 unwind label %34

45:                                               ; preds = %43
  br label %46

46:                                               ; preds = %45
  %47 = load i64, ptr %11, align 8, !tbaa !30
  %48 = add i64 %47, 1
  store i64 %48, ptr %11, align 8, !tbaa !30
  br label %28, !llvm.loop !109

49:                                               ; preds = %33
  store ptr @.str.14, ptr %6, align 8, !tbaa !12
  br label %50

50:                                               ; preds = %49
  %51 = load i64, ptr %7, align 8, !tbaa !30
  %52 = add i64 %51, 1
  store i64 %52, ptr %7, align 8, !tbaa !30
  br label %13, !llvm.loop !110

53:                                               ; preds = %34, %19
  call void @llvm.lifetime.end.p0(i64 8, ptr %7) #3
  br label %60

54:                                               ; preds = %18
  invoke void @_ZNKSt7__cxx1118basic_stringstreamIcSt11char_traitsIcESaIcEE3strEv(ptr dead_on_unwind writable sret(%"class.std::__cxx11::basic_string") align 8 %0, ptr noundef nonnull align 8 dereferenceable(128) %5)
          to label %55 unwind label %56

55:                                               ; preds = %54
  store i32 1, ptr %10, align 4
  call void @llvm.lifetime.end.p0(i64 8, ptr %6) #3
  call void @_ZNSt7__cxx1118basic_stringstreamIcSt11char_traitsIcESaIcEED1Ev(ptr noundef nonnull align 8 dereferenceable(128) %5) #3
  call void @llvm.lifetime.end.p0(i64 392, ptr %5) #3
  ret void

56:                                               ; preds = %54
  %57 = landingpad { ptr, i32 }
          cleanup
  %58 = extractvalue { ptr, i32 } %57, 0
  store ptr %58, ptr %8, align 8
  %59 = extractvalue { ptr, i32 } %57, 1
  store i32 %59, ptr %9, align 4
  br label %60

60:                                               ; preds = %56, %53
  call void @llvm.lifetime.end.p0(i64 8, ptr %6) #3
  call void @_ZNSt7__cxx1118basic_stringstreamIcSt11char_traitsIcESaIcEED1Ev(ptr noundef nonnull align 8 dereferenceable(128) %5) #3
  call void @llvm.lifetime.end.p0(i64 392, ptr %5) #3
  br label %61

61:                                               ; preds = %60
  %62 = load ptr, ptr %8, align 8
  %63 = load i32, ptr %9, align 4
  %64 = insertvalue { ptr, i32 } poison, ptr %62, 0
  %65 = insertvalue { ptr, i32 } %64, i32 %63, 1
  resume { ptr, i32 } %65
}

; Function Attrs: mustprogress uwtable
define available_externally void @_ZNSt7__cxx1118basic_stringstreamIcSt11char_traitsIcESaIcEEC1Ev(ptr noundef nonnull align 8 dereferenceable(128) %0) unnamed_addr #4 align 2 personality ptr @__gxx_personality_v0 {
  %2 = alloca ptr, align 8
  %3 = alloca ptr, align 8
  %4 = alloca i32, align 4
  store ptr %0, ptr %2, align 8, !tbaa !111
  %5 = load ptr, ptr %2, align 8
  %6 = getelementptr inbounds i8, ptr %5, i64 128
  call void @_ZNSt9basic_iosIcSt11char_traitsIcEEC2Ev(ptr noundef nonnull align 8 dereferenceable(264) %6)
  invoke void @_ZNSdC2Ev(ptr noundef nonnull align 8 dereferenceable(24) %5, ptr noundef getelementptr inbounds ([10 x ptr], ptr @_ZTTNSt7__cxx1118basic_stringstreamIcSt11char_traitsIcESaIcEEE, i64 0, i64 1))
          to label %7 unwind label %20

7:                                                ; preds = %1
  store ptr getelementptr inbounds inrange(-24, 16) ({ [5 x ptr], [5 x ptr], [5 x ptr] }, ptr @_ZTVNSt7__cxx1118basic_stringstreamIcSt11char_traitsIcESaIcEEE, i32 0, i32 0, i32 3), ptr %5, align 8, !tbaa !14
  %8 = getelementptr inbounds i8, ptr %5, i64 128
  store ptr getelementptr inbounds inrange(-24, 16) ({ [5 x ptr], [5 x ptr], [5 x ptr] }, ptr @_ZTVNSt7__cxx1118basic_stringstreamIcSt11char_traitsIcESaIcEEE, i32 0, i32 2, i32 3), ptr %8, align 8, !tbaa !14
  %9 = getelementptr inbounds i8, ptr %5, i64 16
  store ptr getelementptr inbounds inrange(-24, 16) ({ [5 x ptr], [5 x ptr], [5 x ptr] }, ptr @_ZTVNSt7__cxx1118basic_stringstreamIcSt11char_traitsIcESaIcEEE, i32 0, i32 1, i32 3), ptr %9, align 8, !tbaa !14
  %10 = getelementptr inbounds nuw %"class.std::__cxx11::basic_stringstream", ptr %5, i32 0, i32 1
  %11 = invoke noundef i32 @_ZStorSt13_Ios_OpenmodeS_(i32 noundef 16, i32 noundef 8)
          to label %12 unwind label %24

12:                                               ; preds = %7
  invoke void @_ZNSt7__cxx1115basic_stringbufIcSt11char_traitsIcESaIcEEC2ESt13_Ios_Openmode(ptr noundef nonnull align 8 dereferenceable(104) %10, i32 noundef %11)
          to label %13 unwind label %24

13:                                               ; preds = %12
  %14 = load ptr, ptr %5, align 8, !tbaa !14
  %15 = getelementptr i8, ptr %14, i64 -24
  %16 = load i64, ptr %15, align 8
  %17 = getelementptr inbounds i8, ptr %5, i64 %16
  %18 = getelementptr inbounds nuw %"class.std::__cxx11::basic_stringstream", ptr %5, i32 0, i32 1
  invoke void @_ZNSt9basic_iosIcSt11char_traitsIcEE4initEPSt15basic_streambufIcS1_E(ptr noundef nonnull align 8 dereferenceable(264) %17, ptr noundef %18)
          to label %19 unwind label %28

19:                                               ; preds = %13
  ret void

20:                                               ; preds = %1
  %21 = landingpad { ptr, i32 }
          cleanup
  %22 = extractvalue { ptr, i32 } %21, 0
  store ptr %22, ptr %3, align 8
  %23 = extractvalue { ptr, i32 } %21, 1
  store i32 %23, ptr %4, align 4
  br label %33

24:                                               ; preds = %12, %7
  %25 = landingpad { ptr, i32 }
          cleanup
  %26 = extractvalue { ptr, i32 } %25, 0
  store ptr %26, ptr %3, align 8
  %27 = extractvalue { ptr, i32 } %25, 1
  store i32 %27, ptr %4, align 4
  br label %32

28:                                               ; preds = %13
  %29 = landingpad { ptr, i32 }
          cleanup
  %30 = extractvalue { ptr, i32 } %29, 0
  store ptr %30, ptr %3, align 8
  %31 = extractvalue { ptr, i32 } %29, 1
  store i32 %31, ptr %4, align 4
  call void @_ZNSt7__cxx1115basic_stringbufIcSt11char_traitsIcESaIcEED2Ev(ptr noundef nonnull align 8 dereferenceable(104) %10) #3
  br label %32

32:                                               ; preds = %28, %24
  call void @_ZNSdD2Ev(ptr noundef nonnull align 8 dereferenceable(24) %5, ptr noundef getelementptr inbounds ([10 x ptr], ptr @_ZTTNSt7__cxx1118basic_stringstreamIcSt11char_traitsIcESaIcEEE, i64 0, i64 1)) #3
  br label %33

33:                                               ; preds = %32, %20
  %34 = getelementptr inbounds i8, ptr %5, i64 128
  call void @_ZNSt8ios_baseD2Ev(ptr noundef nonnull align 8 dereferenceable(264) %34) #3
  br label %35

35:                                               ; preds = %33
  %36 = load ptr, ptr %3, align 8
  %37 = load i32, ptr %4, align 4
  %38 = insertvalue { ptr, i32 } poison, ptr %36, 0
  %39 = insertvalue { ptr, i32 } %38, i32 %37, 1
  resume { ptr, i32 } %39
}

; Function Attrs: mustprogress uwtable
define available_externally noundef nonnull align 8 dereferenceable(8) ptr @_ZNSolsEb(ptr noundef nonnull align 8 dereferenceable(8) %0, i1 noundef zeroext %1) #4 align 2 {
  %3 = alloca ptr, align 8
  %4 = alloca i8, align 1
  store ptr %0, ptr %3, align 8, !tbaa !7
  %5 = zext i1 %1 to i8
  store i8 %5, ptr %4, align 1, !tbaa !50
  %6 = load ptr, ptr %3, align 8
  %7 = load i8, ptr %4, align 1, !tbaa !50, !range !52, !noundef !53
  %8 = trunc i8 %7 to i1
  %9 = call noundef nonnull align 8 dereferenceable(8) ptr @_ZNSo9_M_insertIbEERSoT_(ptr noundef nonnull align 8 dereferenceable(8) %6, i1 noundef zeroext %8)
  ret ptr %9
}

; Function Attrs: mustprogress nounwind uwtable
define linkonce_odr noundef zeroext i1 @_ZNK7testing8internal11MatchMatrix7HasEdgeEmm(ptr noundef nonnull align 8 dereferenceable(40) %0, i64 noundef %1, i64 noundef %2) #7 comdat align 2 {
  %4 = alloca ptr, align 8
  %5 = alloca i64, align 8
  %6 = alloca i64, align 8
  store ptr %0, ptr %4, align 8, !tbaa !82
  store i64 %1, ptr %5, align 8, !tbaa !30
  store i64 %2, ptr %6, align 8, !tbaa !30
  %7 = load ptr, ptr %4, align 8
  %8 = getelementptr inbounds nuw %"class.testing::internal::MatchMatrix", ptr %7, i32 0, i32 2
  %9 = load i64, ptr %5, align 8, !tbaa !30
  %10 = load i64, ptr %6, align 8, !tbaa !30
  %11 = call noundef i64 @_ZNK7testing8internal11MatchMatrix10SpaceIndexEmm(ptr noundef nonnull align 8 dereferenceable(40) %7, i64 noundef %9, i64 noundef %10)
  %12 = call noundef nonnull align 1 dereferenceable(1) ptr @_ZNKSt6vectorIcSaIcEEixEm(ptr noundef nonnull align 8 dereferenceable(24) %8, i64 noundef %11) #3
  %13 = load i8, ptr %12, align 1, !tbaa !49
  %14 = sext i8 %13 to i32
  %15 = icmp eq i32 %14, 1
  ret i1 %15
}

; Function Attrs: mustprogress uwtable
define available_externally void @_ZNKSt7__cxx1118basic_stringstreamIcSt11char_traitsIcESaIcEE3strEv(ptr dead_on_unwind noalias writable sret(%"class.std::__cxx11::basic_string") align 8 %0, ptr noundef nonnull align 8 dereferenceable(128) %1) #4 align 2 {
  %3 = alloca ptr, align 8
  %4 = alloca ptr, align 8
  store ptr %0, ptr %3, align 8
  store ptr %1, ptr %4, align 8, !tbaa !111
  %5 = load ptr, ptr %4, align 8
  %6 = getelementptr inbounds nuw %"class.std::__cxx11::basic_stringstream", ptr %5, i32 0, i32 1
  call void @_ZNKSt7__cxx1115basic_stringbufIcSt11char_traitsIcESaIcEE3strEv(ptr dead_on_unwind writable sret(%"class.std::__cxx11::basic_string") align 8 %0, ptr noundef nonnull align 8 dereferenceable(104) %6)
  ret void
}

; Function Attrs: mustprogress nounwind uwtable
define available_externally void @_ZNSt7__cxx1118basic_stringstreamIcSt11char_traitsIcESaIcEED1Ev(ptr noundef nonnull align 8 dereferenceable(128) %0) unnamed_addr #7 align 2 {
  %2 = alloca ptr, align 8
  store ptr %0, ptr %2, align 8, !tbaa !111
  %3 = load ptr, ptr %2, align 8
  call void @_ZNSt7__cxx1118basic_stringstreamIcSt11char_traitsIcESaIcEED2Ev(ptr noundef nonnull align 8 dereferenceable(128) %3, ptr noundef @_ZTTNSt7__cxx1118basic_stringstreamIcSt11char_traitsIcESaIcEEE) #3
  %4 = getelementptr inbounds i8, ptr %3, i64 128
  call void @_ZNSt8ios_baseD2Ev(ptr noundef nonnull align 8 dereferenceable(264) %4) #3
  ret void
}

; Function Attrs: mustprogress uwtable
define void @_ZNK7testing8internal35UnorderedElementsAreMatcherImplBase14DescribeToImplEPSo(ptr noundef nonnull align 8 dereferenceable(32) %0, ptr noundef %1) #4 align 2 personality ptr @__gxx_personality_v0 {
  %3 = alloca ptr, align 8
  %4 = alloca ptr, align 8
  %5 = alloca %"class.testing::Message", align 8
  %6 = alloca ptr, align 8
  %7 = alloca i32, align 4
  %8 = alloca %"class.testing::Message", align 8
  %9 = alloca ptr, align 8
  %10 = alloca i64, align 8
  store ptr %0, ptr %3, align 8, !tbaa !113
  store ptr %1, ptr %4, align 8, !tbaa !7
  %11 = load ptr, ptr %3, align 8
  %12 = call noundef i32 @_ZNK7testing8internal35UnorderedElementsAreMatcherImplBase11match_flagsEv(ptr noundef nonnull align 8 dereferenceable(32) %11)
  switch i32 %12, label %60 [
    i32 3, label %13
    i32 1, label %54
    i32 2, label %57
  ]

13:                                               ; preds = %2
  %14 = getelementptr inbounds nuw %"class.testing::internal::UnorderedElementsAreMatcherImplBase", ptr %11, i32 0, i32 1
  %15 = call noundef zeroext i1 @_ZNKSt6vectorIPKN7testing25MatcherDescriberInterfaceESaIS3_EE5emptyEv(ptr noundef nonnull align 8 dereferenceable(24) %14) #3
  br i1 %15, label %16, label %19

16:                                               ; preds = %13
  %17 = load ptr, ptr %4, align 8, !tbaa !7
  %18 = call noundef nonnull align 8 dereferenceable(8) ptr @_ZStlsISt11char_traitsIcEERSt13basic_ostreamIcT_ES5_PKc(ptr noundef nonnull align 8 dereferenceable(8) %17, ptr noundef @.str.15)
  br label %100

19:                                               ; preds = %13
  %20 = getelementptr inbounds nuw %"class.testing::internal::UnorderedElementsAreMatcherImplBase", ptr %11, i32 0, i32 1
  %21 = call noundef i64 @_ZNKSt6vectorIPKN7testing25MatcherDescriberInterfaceESaIS3_EE4sizeEv(ptr noundef nonnull align 8 dereferenceable(24) %20) #3
  %22 = icmp eq i64 %21, 1
  br i1 %22, label %23, label %41

23:                                               ; preds = %19
  %24 = load ptr, ptr %4, align 8, !tbaa !7
  %25 = call noundef nonnull align 8 dereferenceable(8) ptr @_ZStlsISt11char_traitsIcEERSt13basic_ostreamIcT_ES5_PKc(ptr noundef nonnull align 8 dereferenceable(8) %24, ptr noundef @.str.16)
  call void @llvm.lifetime.start.p0(i64 8, ptr %5) #3
  call void @_ZN7testing8internal35UnorderedElementsAreMatcherImplBase8ElementsEm(ptr dead_on_unwind writable sret(%"class.testing::Message") align 8 %5, i64 noundef 1)
  %26 = invoke noundef nonnull align 8 dereferenceable(8) ptr @_ZN7testinglsERSoRKNS_7MessageE(ptr noundef nonnull align 8 dereferenceable(8) %25, ptr noundef nonnull align 8 dereferenceable(8) %5)
          to label %27 unwind label %37

27:                                               ; preds = %23
  %28 = invoke noundef nonnull align 8 dereferenceable(8) ptr @_ZStlsISt11char_traitsIcEERSt13basic_ostreamIcT_ES5_PKc(ptr noundef nonnull align 8 dereferenceable(8) %26, ptr noundef @.str.17)
          to label %29 unwind label %37

29:                                               ; preds = %27
  call void @_ZN7testing7MessageD2Ev(ptr noundef nonnull align 8 dereferenceable(8) %5) #3
  call void @llvm.lifetime.end.p0(i64 8, ptr %5) #3
  %30 = getelementptr inbounds nuw %"class.testing::internal::UnorderedElementsAreMatcherImplBase", ptr %11, i32 0, i32 1
  %31 = call noundef nonnull align 8 dereferenceable(8) ptr @_ZNKSt6vectorIPKN7testing25MatcherDescriberInterfaceESaIS3_EEixEm(ptr noundef nonnull align 8 dereferenceable(24) %30, i64 noundef 0) #3
  %32 = load ptr, ptr %31, align 8, !tbaa !115
  %33 = load ptr, ptr %4, align 8, !tbaa !7
  %34 = load ptr, ptr %32, align 8, !tbaa !14
  %35 = getelementptr inbounds ptr, ptr %34, i64 2
  %36 = load ptr, ptr %35, align 8
  call void %36(ptr noundef nonnull align 8 dereferenceable(8) %32, ptr noundef %33)
  br label %100

37:                                               ; preds = %27, %23
  %38 = landingpad { ptr, i32 }
          cleanup
  %39 = extractvalue { ptr, i32 } %38, 0
  store ptr %39, ptr %6, align 8
  %40 = extractvalue { ptr, i32 } %38, 1
  store i32 %40, ptr %7, align 4
  call void @_ZN7testing7MessageD2Ev(ptr noundef nonnull align 8 dereferenceable(8) %5) #3
  call void @llvm.lifetime.end.p0(i64 8, ptr %5) #3
  br label %101

41:                                               ; preds = %19
  %42 = load ptr, ptr %4, align 8, !tbaa !7
  %43 = call noundef nonnull align 8 dereferenceable(8) ptr @_ZStlsISt11char_traitsIcEERSt13basic_ostreamIcT_ES5_PKc(ptr noundef nonnull align 8 dereferenceable(8) %42, ptr noundef @.str.16)
  call void @llvm.lifetime.start.p0(i64 8, ptr %8) #3
  %44 = getelementptr inbounds nuw %"class.testing::internal::UnorderedElementsAreMatcherImplBase", ptr %11, i32 0, i32 1
  %45 = call noundef i64 @_ZNKSt6vectorIPKN7testing25MatcherDescriberInterfaceESaIS3_EE4sizeEv(ptr noundef nonnull align 8 dereferenceable(24) %44) #3
  call void @_ZN7testing8internal35UnorderedElementsAreMatcherImplBase8ElementsEm(ptr dead_on_unwind writable sret(%"class.testing::Message") align 8 %8, i64 noundef %45)
  %46 = invoke noundef nonnull align 8 dereferenceable(8) ptr @_ZN7testinglsERSoRKNS_7MessageE(ptr noundef nonnull align 8 dereferenceable(8) %43, ptr noundef nonnull align 8 dereferenceable(8) %8)
          to label %47 unwind label %50

47:                                               ; preds = %41
  %48 = invoke noundef nonnull align 8 dereferenceable(8) ptr @_ZStlsISt11char_traitsIcEERSt13basic_ostreamIcT_ES5_PKc(ptr noundef nonnull align 8 dereferenceable(8) %46, ptr noundef @.str.18)
          to label %49 unwind label %50

49:                                               ; preds = %47
  call void @_ZN7testing7MessageD2Ev(ptr noundef nonnull align 8 dereferenceable(8) %8) #3
  call void @llvm.lifetime.end.p0(i64 8, ptr %8) #3
  br label %60

50:                                               ; preds = %47, %41
  %51 = landingpad { ptr, i32 }
          cleanup
  %52 = extractvalue { ptr, i32 } %51, 0
  store ptr %52, ptr %6, align 8
  %53 = extractvalue { ptr, i32 } %51, 1
  store i32 %53, ptr %7, align 4
  call void @_ZN7testing7MessageD2Ev(ptr noundef nonnull align 8 dereferenceable(8) %8) #3
  call void @llvm.lifetime.end.p0(i64 8, ptr %8) #3
  br label %101

54:                                               ; preds = %2
  %55 = load ptr, ptr %4, align 8, !tbaa !7
  %56 = call noundef nonnull align 8 dereferenceable(8) ptr @_ZStlsISt11char_traitsIcEERSt13basic_ostreamIcT_ES5_PKc(ptr noundef nonnull align 8 dereferenceable(8) %55, ptr noundef @.str.19)
  br label %60

57:                                               ; preds = %2
  %58 = load ptr, ptr %4, align 8, !tbaa !7
  %59 = call noundef nonnull align 8 dereferenceable(8) ptr @_ZStlsISt11char_traitsIcEERSt13basic_ostreamIcT_ES5_PKc(ptr noundef nonnull align 8 dereferenceable(8) %58, ptr noundef @.str.20)
  br label %60

60:                                               ; preds = %2, %57, %54, %49
  call void @llvm.lifetime.start.p0(i64 8, ptr %9) #3
  store ptr @.str.4, ptr %9, align 8, !tbaa !12
  call void @llvm.lifetime.start.p0(i64 8, ptr %10) #3
  store i64 0, ptr %10, align 8, !tbaa !30
  br label %61

61:                                               ; preds = %96, %60
  %62 = load i64, ptr %10, align 8, !tbaa !30
  %63 = getelementptr inbounds nuw %"class.testing::internal::UnorderedElementsAreMatcherImplBase", ptr %11, i32 0, i32 1
  %64 = call noundef i64 @_ZNKSt6vectorIPKN7testing25MatcherDescriberInterfaceESaIS3_EE4sizeEv(ptr noundef nonnull align 8 dereferenceable(24) %63) #3
  %65 = icmp ne i64 %62, %64
  br i1 %65, label %67, label %66

66:                                               ; preds = %61
  call void @llvm.lifetime.end.p0(i64 8, ptr %10) #3
  br label %99

67:                                               ; preds = %61
  %68 = load ptr, ptr %4, align 8, !tbaa !7
  %69 = load ptr, ptr %9, align 8, !tbaa !12
  %70 = call noundef nonnull align 8 dereferenceable(8) ptr @_ZStlsISt11char_traitsIcEERSt13basic_ostreamIcT_ES5_PKc(ptr noundef nonnull align 8 dereferenceable(8) %68, ptr noundef %69)
  %71 = call noundef i32 @_ZNK7testing8internal35UnorderedElementsAreMatcherImplBase11match_flagsEv(ptr noundef nonnull align 8 dereferenceable(32) %11)
  %72 = icmp eq i32 %71, 3
  br i1 %72, label %73, label %79

73:                                               ; preds = %67
  %74 = load ptr, ptr %4, align 8, !tbaa !7
  %75 = call noundef nonnull align 8 dereferenceable(8) ptr @_ZStlsISt11char_traitsIcEERSt13basic_ostreamIcT_ES5_PKc(ptr noundef nonnull align 8 dereferenceable(8) %74, ptr noundef @.str.21)
  %76 = load i64, ptr %10, align 8, !tbaa !30
  %77 = call noundef nonnull align 8 dereferenceable(8) ptr @_ZNSolsEm(ptr noundef nonnull align 8 dereferenceable(8) %75, i64 noundef %76)
  %78 = call noundef nonnull align 8 dereferenceable(8) ptr @_ZStlsISt11char_traitsIcEERSt13basic_ostreamIcT_ES5_PKc(ptr noundef nonnull align 8 dereferenceable(8) %77, ptr noundef @.str.12)
  br label %82

79:                                               ; preds = %67
  %80 = load ptr, ptr %4, align 8, !tbaa !7
  %81 = call noundef nonnull align 8 dereferenceable(8) ptr @_ZStlsISt11char_traitsIcEERSt13basic_ostreamIcT_ES5_PKc(ptr noundef nonnull align 8 dereferenceable(8) %80, ptr noundef @.str.22)
  br label %82

82:                                               ; preds = %79, %73
  %83 = getelementptr inbounds nuw %"class.testing::internal::UnorderedElementsAreMatcherImplBase", ptr %11, i32 0, i32 1
  %84 = load i64, ptr %10, align 8, !tbaa !30
  %85 = call noundef nonnull align 8 dereferenceable(8) ptr @_ZNKSt6vectorIPKN7testing25MatcherDescriberInterfaceESaIS3_EEixEm(ptr noundef nonnull align 8 dereferenceable(24) %83, i64 noundef %84) #3
  %86 = load ptr, ptr %85, align 8, !tbaa !115
  %87 = load ptr, ptr %4, align 8, !tbaa !7
  %88 = load ptr, ptr %86, align 8, !tbaa !14
  %89 = getelementptr inbounds ptr, ptr %88, i64 2
  %90 = load ptr, ptr %89, align 8
  call void %90(ptr noundef nonnull align 8 dereferenceable(8) %86, ptr noundef %87)
  %91 = call noundef i32 @_ZNK7testing8internal35UnorderedElementsAreMatcherImplBase11match_flagsEv(ptr noundef nonnull align 8 dereferenceable(32) %11)
  %92 = icmp eq i32 %91, 3
  br i1 %92, label %93, label %94

93:                                               ; preds = %82
  store ptr @.str.23, ptr %9, align 8, !tbaa !12
  br label %95

94:                                               ; preds = %82
  store ptr @.str.9, ptr %9, align 8, !tbaa !12
  br label %95

95:                                               ; preds = %94, %93
  br label %96

96:                                               ; preds = %95
  %97 = load i64, ptr %10, align 8, !tbaa !30
  %98 = add i64 %97, 1
  store i64 %98, ptr %10, align 8, !tbaa !30
  br label %61, !llvm.loop !117

99:                                               ; preds = %66
  call void @llvm.lifetime.end.p0(i64 8, ptr %9) #3
  br label %100

100:                                              ; preds = %99, %29, %16
  ret void

101:                                              ; preds = %50, %37
  %102 = load ptr, ptr %6, align 8
  %103 = load i32, ptr %7, align 4
  %104 = insertvalue { ptr, i32 } poison, ptr %102, 0
  %105 = insertvalue { ptr, i32 } %104, i32 %103, 1
  resume { ptr, i32 } %105
}

; Function Attrs: mustprogress nounwind uwtable
define linkonce_odr noundef i32 @_ZNK7testing8internal35UnorderedElementsAreMatcherImplBase11match_flagsEv(ptr noundef nonnull align 8 dereferenceable(32) %0) #7 comdat align 2 {
  %2 = alloca ptr, align 8
  store ptr %0, ptr %2, align 8, !tbaa !113
  %3 = load ptr, ptr %2, align 8
  %4 = getelementptr inbounds nuw %"class.testing::internal::UnorderedElementsAreMatcherImplBase", ptr %3, i32 0, i32 0
  %5 = load i32, ptr %4, align 8, !tbaa !118
  ret i32 %5
}

; Function Attrs: mustprogress nounwind uwtable
define linkonce_odr noundef zeroext i1 @_ZNKSt6vectorIPKN7testing25MatcherDescriberInterfaceESaIS3_EE5emptyEv(ptr noundef nonnull align 8 dereferenceable(24) %0) #7 comdat align 2 {
  %2 = alloca ptr, align 8
  %3 = alloca %"class.__gnu_cxx::__normal_iterator.141", align 8
  %4 = alloca %"class.__gnu_cxx::__normal_iterator.141", align 8
  store ptr %0, ptr %2, align 8, !tbaa !126
  %5 = load ptr, ptr %2, align 8
  call void @llvm.lifetime.start.p0(i64 8, ptr %3) #3
  %6 = call ptr @_ZNKSt6vectorIPKN7testing25MatcherDescriberInterfaceESaIS3_EE5beginEv(ptr noundef nonnull align 8 dereferenceable(24) %5) #3
  %7 = getelementptr inbounds nuw %"class.__gnu_cxx::__normal_iterator.141", ptr %3, i32 0, i32 0
  store ptr %6, ptr %7, align 8
  call void @llvm.lifetime.start.p0(i64 8, ptr %4) #3
  %8 = call ptr @_ZNKSt6vectorIPKN7testing25MatcherDescriberInterfaceESaIS3_EE3endEv(ptr noundef nonnull align 8 dereferenceable(24) %5) #3
  %9 = getelementptr inbounds nuw %"class.__gnu_cxx::__normal_iterator.141", ptr %4, i32 0, i32 0
  store ptr %8, ptr %9, align 8
  %10 = call noundef zeroext i1 @_ZN9__gnu_cxxeqIPKPKN7testing25MatcherDescriberInterfaceESt6vectorIS4_SaIS4_EEEEbRKNS_17__normal_iteratorIT_T0_EESF_(ptr noundef nonnull align 8 dereferenceable(8) %3, ptr noundef nonnull align 8 dereferenceable(8) %4) #3
  call void @llvm.lifetime.end.p0(i64 8, ptr %4) #3
  call void @llvm.lifetime.end.p0(i64 8, ptr %3) #3
  ret i1 %10
}

; Function Attrs: mustprogress nounwind uwtable
define linkonce_odr noundef i64 @_ZNKSt6vectorIPKN7testing25MatcherDescriberInterfaceESaIS3_EE4sizeEv(ptr noundef nonnull align 8 dereferenceable(24) %0) #7 comdat align 2 {
  %2 = alloca ptr, align 8
  store ptr %0, ptr %2, align 8, !tbaa !126
  %3 = load ptr, ptr %2, align 8
  %4 = getelementptr inbounds nuw %"struct.std::_Vector_base.21", ptr %3, i32 0, i32 0
  %5 = getelementptr inbounds nuw %"struct.std::_Vector_base<const testing::MatcherDescriberInterface *, std::allocator<const testing::MatcherDescriberInterface *>>::_Vector_impl_data", ptr %4, i32 0, i32 1
  %6 = load ptr, ptr %5, align 8, !tbaa !128
  %7 = getelementptr inbounds nuw %"struct.std::_Vector_base.21", ptr %3, i32 0, i32 0
  %8 = getelementptr inbounds nuw %"struct.std::_Vector_base<const testing::MatcherDescriberInterface *, std::allocator<const testing::MatcherDescriberInterface *>>::_Vector_impl_data", ptr %7, i32 0, i32 0
  %9 = load ptr, ptr %8, align 8, !tbaa !129
  %10 = ptrtoint ptr %6 to i64
  %11 = ptrtoint ptr %9 to i64
  %12 = sub i64 %10, %11
  %13 = sdiv exact i64 %12, 8
  ret i64 %13
}

; Function Attrs: inlinehint mustprogress uwtable
define linkonce_odr noundef nonnull align 8 dereferenceable(8) ptr @_ZN7testinglsERSoRKNS_7MessageE(ptr noundef nonnull align 8 dereferenceable(8) %0, ptr noundef nonnull align 8 dereferenceable(8) %1) #5 comdat personality ptr @__gxx_personality_v0 {
  %3 = alloca ptr, align 8
  %4 = alloca ptr, align 8
  %5 = alloca %"class.std::__cxx11::basic_string", align 8
  %6 = alloca ptr, align 8
  %7 = alloca i32, align 4
  store ptr %0, ptr %3, align 8, !tbaa !7
  store ptr %1, ptr %4, align 8, !tbaa !130
  %8 = load ptr, ptr %3, align 8, !tbaa !7
  call void @llvm.lifetime.start.p0(i64 32, ptr %5) #3
  %9 = load ptr, ptr %4, align 8, !tbaa !130
  call void @_ZNK7testing7Message9GetStringB5cxx11Ev(ptr dead_on_unwind writable sret(%"class.std::__cxx11::basic_string") align 8 %5, ptr noundef nonnull align 8 dereferenceable(8) %9)
  %10 = invoke noundef nonnull align 8 dereferenceable(8) ptr @_ZStlsIcSt11char_traitsIcESaIcEERSt13basic_ostreamIT_T0_ES7_RKNSt7__cxx1112basic_stringIS4_S5_T1_EE(ptr noundef nonnull align 8 dereferenceable(8) %8, ptr noundef nonnull align 8 dereferenceable(32) %5)
          to label %11 unwind label %12

11:                                               ; preds = %2
  call void @_ZNSt7__cxx1112basic_stringIcSt11char_traitsIcESaIcEED2Ev(ptr noundef nonnull align 8 dereferenceable(32) %5) #3
  call void @llvm.lifetime.end.p0(i64 32, ptr %5) #3
  ret ptr %10

12:                                               ; preds = %2
  %13 = landingpad { ptr, i32 }
          cleanup
  %14 = extractvalue { ptr, i32 } %13, 0
  store ptr %14, ptr %6, align 8
  %15 = extractvalue { ptr, i32 } %13, 1
  store i32 %15, ptr %7, align 4
  call void @_ZNSt7__cxx1112basic_stringIcSt11char_traitsIcESaIcEED2Ev(ptr noundef nonnull align 8 dereferenceable(32) %5) #3
  call void @llvm.lifetime.end.p0(i64 32, ptr %5) #3
  br label %16

16:                                               ; preds = %12
  %17 = load ptr, ptr %6, align 8
  %18 = load i32, ptr %7, align 4
  %19 = insertvalue { ptr, i32 } poison, ptr %17, 0
  %20 = insertvalue { ptr, i32 } %19, i32 %18, 1
  resume { ptr, i32 } %20
}

; Function Attrs: mustprogress uwtable
define linkonce_odr void @_ZN7testing8internal35UnorderedElementsAreMatcherImplBase8ElementsEm(ptr dead_on_unwind noalias writable sret(%"class.testing::Message") align 8 %0, i64 noundef %1) #4 comdat align 2 personality ptr @__gxx_personality_v0 {
  %3 = alloca ptr, align 8
  %4 = alloca i64, align 8
  %5 = alloca %"class.testing::Message", align 8
  %6 = alloca ptr, align 8
  %7 = alloca i32, align 4
  %8 = alloca ptr, align 8
  store ptr %0, ptr %3, align 8
  store i64 %1, ptr %4, align 8, !tbaa !30
  call void @llvm.lifetime.start.p0(i64 8, ptr %5) #3
  call void @_ZN7testing7MessageC1Ev(ptr noundef nonnull align 8 dereferenceable(8) %5)
  %9 = invoke noundef nonnull align 8 dereferenceable(8) ptr @_ZN7testing7MessagelsImEERS0_RKT_(ptr noundef nonnull align 8 dereferenceable(8) %5, ptr noundef nonnull align 8 dereferenceable(8) %4)
          to label %10 unwind label %19

10:                                               ; preds = %2
  %11 = invoke noundef nonnull align 8 dereferenceable(8) ptr @_ZN7testing7MessagelsIA9_cEERS0_RKT_(ptr noundef nonnull align 8 dereferenceable(8) %9, ptr noundef nonnull align 1 dereferenceable(9) @.str.103)
          to label %12 unwind label %19

12:                                               ; preds = %10
  call void @llvm.lifetime.start.p0(i64 8, ptr %8) #3
  %13 = load i64, ptr %4, align 8, !tbaa !30
  %14 = icmp eq i64 %13, 1
  %15 = select i1 %14, ptr @.str.4, ptr @.str.64
  store ptr %15, ptr %8, align 8, !tbaa !12
  %16 = invoke noundef nonnull align 8 dereferenceable(8) ptr @_ZN7testing7MessagelsIKcEERS0_RKPT_(ptr noundef nonnull align 8 dereferenceable(8) %11, ptr noundef nonnull align 8 dereferenceable(8) %8)
          to label %17 unwind label %23

17:                                               ; preds = %12
  invoke void @_ZN7testing7MessageC2ERKS0_(ptr noundef nonnull align 8 dereferenceable(8) %0, ptr noundef nonnull align 8 dereferenceable(8) %16)
          to label %18 unwind label %23

18:                                               ; preds = %17
  call void @llvm.lifetime.end.p0(i64 8, ptr %8) #3
  call void @_ZN7testing7MessageD2Ev(ptr noundef nonnull align 8 dereferenceable(8) %5) #3
  call void @llvm.lifetime.end.p0(i64 8, ptr %5) #3
  ret void

19:                                               ; preds = %10, %2
  %20 = landingpad { ptr, i32 }
          cleanup
  %21 = extractvalue { ptr, i32 } %20, 0
  store ptr %21, ptr %6, align 8
  %22 = extractvalue { ptr, i32 } %20, 1
  store i32 %22, ptr %7, align 4
  br label %27

23:                                               ; preds = %17, %12
  %24 = landingpad { ptr, i32 }
          cleanup
  %25 = extractvalue { ptr, i32 } %24, 0
  store ptr %25, ptr %6, align 8
  %26 = extractvalue { ptr, i32 } %24, 1
  store i32 %26, ptr %7, align 4
  call void @llvm.lifetime.end.p0(i64 8, ptr %8) #3
  br label %27

27:                                               ; preds = %23, %19
  call void @_ZN7testing7MessageD2Ev(ptr noundef nonnull align 8 dereferenceable(8) %5) #3
  call void @llvm.lifetime.end.p0(i64 8, ptr %5) #3
  br label %28

28:                                               ; preds = %27
  %29 = load ptr, ptr %6, align 8
  %30 = load i32, ptr %7, align 4
  %31 = insertvalue { ptr, i32 } poison, ptr %29, 0
  %32 = insertvalue { ptr, i32 } %31, i32 %30, 1
  resume { ptr, i32 } %32
}

; Function Attrs: inlinehint mustprogress nounwind uwtable
define linkonce_odr void @_ZN7testing7MessageD2Ev(ptr noundef nonnull align 8 dereferenceable(8) %0) unnamed_addr #10 comdat align 2 {
  %2 = alloca ptr, align 8
  store ptr %0, ptr %2, align 8, !tbaa !130
  %3 = load ptr, ptr %2, align 8
  %4 = getelementptr inbounds nuw %"class.testing::Message", ptr %3, i32 0, i32 0
  call void @_ZNSt10unique_ptrINSt7__cxx1118basic_stringstreamIcSt11char_traitsIcESaIcEEESt14default_deleteIS5_EED2Ev(ptr noundef nonnull align 8 dereferenceable(8) %4) #3
  ret void
}

; Function Attrs: mustprogress nounwind uwtable
define linkonce_odr noundef nonnull align 8 dereferenceable(8) ptr @_ZNKSt6vectorIPKN7testing25MatcherDescriberInterfaceESaIS3_EEixEm(ptr noundef nonnull align 8 dereferenceable(24) %0, i64 noundef %1) #7 comdat align 2 {
  %3 = alloca ptr, align 8
  %4 = alloca i64, align 8
  store ptr %0, ptr %3, align 8, !tbaa !126
  store i64 %1, ptr %4, align 8, !tbaa !30
  %5 = load ptr, ptr %3, align 8
  %6 = getelementptr inbounds nuw %"struct.std::_Vector_base.21", ptr %5, i32 0, i32 0
  %7 = getelementptr inbounds nuw %"struct.std::_Vector_base<const testing::MatcherDescriberInterface *, std::allocator<const testing::MatcherDescriberInterface *>>::_Vector_impl_data", ptr %6, i32 0, i32 0
  %8 = load ptr, ptr %7, align 8, !tbaa !129
  %9 = load i64, ptr %4, align 8, !tbaa !30
  %10 = getelementptr inbounds nuw ptr, ptr %8, i64 %9
  ret ptr %10
}

; Function Attrs: mustprogress uwtable
define available_externally noundef nonnull align 8 dereferenceable(8) ptr @_ZNSolsEm(ptr noundef nonnull align 8 dereferenceable(8) %0, i64 noundef %1) #4 align 2 {
  %3 = alloca ptr, align 8
  %4 = alloca i64, align 8
  store ptr %0, ptr %3, align 8, !tbaa !7
  store i64 %1, ptr %4, align 8, !tbaa !30
  %5 = load ptr, ptr %3, align 8
  %6 = load i64, ptr %4, align 8, !tbaa !30
  %7 = call noundef nonnull align 8 dereferenceable(8) ptr @_ZNSo9_M_insertImEERSoT_(ptr noundef nonnull align 8 dereferenceable(8) %5, i64 noundef %6)
  ret ptr %7
}

; Function Attrs: mustprogress uwtable
define void @_ZNK7testing8internal35UnorderedElementsAreMatcherImplBase22DescribeNegationToImplEPSo(ptr noundef nonnull align 8 dereferenceable(32) %0, ptr noundef %1) #4 align 2 personality ptr @__gxx_personality_v0 {
  %3 = alloca ptr, align 8
  %4 = alloca ptr, align 8
  %5 = alloca %"class.testing::Message", align 8
  %6 = alloca ptr, align 8
  %7 = alloca i32, align 4
  %8 = alloca %"class.testing::Message", align 8
  %9 = alloca %"class.testing::Message", align 8
  %10 = alloca ptr, align 8
  %11 = alloca i64, align 8
  store ptr %0, ptr %3, align 8, !tbaa !113
  store ptr %1, ptr %4, align 8, !tbaa !7
  %12 = load ptr, ptr %3, align 8
  %13 = call noundef i32 @_ZNK7testing8internal35UnorderedElementsAreMatcherImplBase11match_flagsEv(ptr noundef nonnull align 8 dereferenceable(32) %12)
  switch i32 %13, label %76 [
    i32 3, label %14
    i32 1, label %70
    i32 2, label %73
  ]

14:                                               ; preds = %2
  %15 = getelementptr inbounds nuw %"class.testing::internal::UnorderedElementsAreMatcherImplBase", ptr %12, i32 0, i32 1
  %16 = call noundef zeroext i1 @_ZNKSt6vectorIPKN7testing25MatcherDescriberInterfaceESaIS3_EE5emptyEv(ptr noundef nonnull align 8 dereferenceable(24) %15) #3
  br i1 %16, label %17, label %20

17:                                               ; preds = %14
  %18 = load ptr, ptr %4, align 8, !tbaa !7
  %19 = call noundef nonnull align 8 dereferenceable(8) ptr @_ZStlsISt11char_traitsIcEERSt13basic_ostreamIcT_ES5_PKc(ptr noundef nonnull align 8 dereferenceable(8) %18, ptr noundef @.str.24)
  br label %116

20:                                               ; preds = %14
  %21 = getelementptr inbounds nuw %"class.testing::internal::UnorderedElementsAreMatcherImplBase", ptr %12, i32 0, i32 1
  %22 = call noundef i64 @_ZNKSt6vectorIPKN7testing25MatcherDescriberInterfaceESaIS3_EE4sizeEv(ptr noundef nonnull align 8 dereferenceable(24) %21) #3
  %23 = icmp eq i64 %22, 1
  br i1 %23, label %24, label %57

24:                                               ; preds = %20
  %25 = load ptr, ptr %4, align 8, !tbaa !7
  %26 = call noundef nonnull align 8 dereferenceable(8) ptr @_ZStlsISt11char_traitsIcEERSt13basic_ostreamIcT_ES5_PKc(ptr noundef nonnull align 8 dereferenceable(8) %25, ptr noundef @.str.25)
  call void @llvm.lifetime.start.p0(i64 8, ptr %5) #3
  call void @_ZN7testing8internal35UnorderedElementsAreMatcherImplBase8ElementsEm(ptr dead_on_unwind writable sret(%"class.testing::Message") align 8 %5, i64 noundef 1)
  %27 = invoke noundef nonnull align 8 dereferenceable(8) ptr @_ZN7testinglsERSoRKNS_7MessageE(ptr noundef nonnull align 8 dereferenceable(8) %26, ptr noundef nonnull align 8 dereferenceable(8) %5)
          to label %28 unwind label %43

28:                                               ; preds = %24
  %29 = invoke noundef nonnull align 8 dereferenceable(8) ptr @_ZStlsISt11char_traitsIcEERSt13basic_ostreamIcT_ES5_PKc(ptr noundef nonnull align 8 dereferenceable(8) %27, ptr noundef @.str.26)
          to label %30 unwind label %43

30:                                               ; preds = %28
  call void @llvm.lifetime.start.p0(i64 8, ptr %8) #3
  invoke void @_ZN7testing8internal35UnorderedElementsAreMatcherImplBase8ElementsEm(ptr dead_on_unwind writable sret(%"class.testing::Message") align 8 %8, i64 noundef 1)
          to label %31 unwind label %47

31:                                               ; preds = %30
  %32 = invoke noundef nonnull align 8 dereferenceable(8) ptr @_ZN7testinglsERSoRKNS_7MessageE(ptr noundef nonnull align 8 dereferenceable(8) %29, ptr noundef nonnull align 8 dereferenceable(8) %8)
          to label %33 unwind label %51

33:                                               ; preds = %31
  %34 = invoke noundef nonnull align 8 dereferenceable(8) ptr @_ZStlsISt11char_traitsIcEERSt13basic_ostreamIcT_ES5_PKc(ptr noundef nonnull align 8 dereferenceable(8) %32, ptr noundef @.str.27)
          to label %35 unwind label %51

35:                                               ; preds = %33
  call void @_ZN7testing7MessageD2Ev(ptr noundef nonnull align 8 dereferenceable(8) %8) #3
  call void @llvm.lifetime.end.p0(i64 8, ptr %8) #3
  call void @_ZN7testing7MessageD2Ev(ptr noundef nonnull align 8 dereferenceable(8) %5) #3
  call void @llvm.lifetime.end.p0(i64 8, ptr %5) #3
  %36 = getelementptr inbounds nuw %"class.testing::internal::UnorderedElementsAreMatcherImplBase", ptr %12, i32 0, i32 1
  %37 = call noundef nonnull align 8 dereferenceable(8) ptr @_ZNKSt6vectorIPKN7testing25MatcherDescriberInterfaceESaIS3_EEixEm(ptr noundef nonnull align 8 dereferenceable(24) %36, i64 noundef 0) #3
  %38 = load ptr, ptr %37, align 8, !tbaa !115
  %39 = load ptr, ptr %4, align 8, !tbaa !7
  %40 = load ptr, ptr %38, align 8, !tbaa !14
  %41 = getelementptr inbounds ptr, ptr %40, i64 3
  %42 = load ptr, ptr %41, align 8
  call void %42(ptr noundef nonnull align 8 dereferenceable(8) %38, ptr noundef %39)
  br label %116

43:                                               ; preds = %28, %24
  %44 = landingpad { ptr, i32 }
          cleanup
  %45 = extractvalue { ptr, i32 } %44, 0
  store ptr %45, ptr %6, align 8
  %46 = extractvalue { ptr, i32 } %44, 1
  store i32 %46, ptr %7, align 4
  br label %56

47:                                               ; preds = %30
  %48 = landingpad { ptr, i32 }
          cleanup
  %49 = extractvalue { ptr, i32 } %48, 0
  store ptr %49, ptr %6, align 8
  %50 = extractvalue { ptr, i32 } %48, 1
  store i32 %50, ptr %7, align 4
  br label %55

51:                                               ; preds = %33, %31
  %52 = landingpad { ptr, i32 }
          cleanup
  %53 = extractvalue { ptr, i32 } %52, 0
  store ptr %53, ptr %6, align 8
  %54 = extractvalue { ptr, i32 } %52, 1
  store i32 %54, ptr %7, align 4
  call void @_ZN7testing7MessageD2Ev(ptr noundef nonnull align 8 dereferenceable(8) %8) #3
  br label %55

55:                                               ; preds = %51, %47
  call void @llvm.lifetime.end.p0(i64 8, ptr %8) #3
  br label %56

56:                                               ; preds = %55, %43
  call void @_ZN7testing7MessageD2Ev(ptr noundef nonnull align 8 dereferenceable(8) %5) #3
  call void @llvm.lifetime.end.p0(i64 8, ptr %5) #3
  br label %117

57:                                               ; preds = %20
  %58 = load ptr, ptr %4, align 8, !tbaa !7
  %59 = call noundef nonnull align 8 dereferenceable(8) ptr @_ZStlsISt11char_traitsIcEERSt13basic_ostreamIcT_ES5_PKc(ptr noundef nonnull align 8 dereferenceable(8) %58, ptr noundef @.str.25)
  call void @llvm.lifetime.start.p0(i64 8, ptr %9) #3
  %60 = getelementptr inbounds nuw %"class.testing::internal::UnorderedElementsAreMatcherImplBase", ptr %12, i32 0, i32 1
  %61 = call noundef i64 @_ZNKSt6vectorIPKN7testing25MatcherDescriberInterfaceESaIS3_EE4sizeEv(ptr noundef nonnull align 8 dereferenceable(24) %60) #3
  call void @_ZN7testing8internal35UnorderedElementsAreMatcherImplBase8ElementsEm(ptr dead_on_unwind writable sret(%"class.testing::Message") align 8 %9, i64 noundef %61)
  %62 = invoke noundef nonnull align 8 dereferenceable(8) ptr @_ZN7testinglsERSoRKNS_7MessageE(ptr noundef nonnull align 8 dereferenceable(8) %59, ptr noundef nonnull align 8 dereferenceable(8) %9)
          to label %63 unwind label %66

63:                                               ; preds = %57
  %64 = invoke noundef nonnull align 8 dereferenceable(8) ptr @_ZStlsISt11char_traitsIcEERSt13basic_ostreamIcT_ES5_PKc(ptr noundef nonnull align 8 dereferenceable(8) %62, ptr noundef @.str.28)
          to label %65 unwind label %66

65:                                               ; preds = %63
  call void @_ZN7testing7MessageD2Ev(ptr noundef nonnull align 8 dereferenceable(8) %9) #3
  call void @llvm.lifetime.end.p0(i64 8, ptr %9) #3
  br label %76

66:                                               ; preds = %63, %57
  %67 = landingpad { ptr, i32 }
          cleanup
  %68 = extractvalue { ptr, i32 } %67, 0
  store ptr %68, ptr %6, align 8
  %69 = extractvalue { ptr, i32 } %67, 1
  store i32 %69, ptr %7, align 4
  call void @_ZN7testing7MessageD2Ev(ptr noundef nonnull align 8 dereferenceable(8) %9) #3
  call void @llvm.lifetime.end.p0(i64 8, ptr %9) #3
  br label %117

70:                                               ; preds = %2
  %71 = load ptr, ptr %4, align 8, !tbaa !7
  %72 = call noundef nonnull align 8 dereferenceable(8) ptr @_ZStlsISt11char_traitsIcEERSt13basic_ostreamIcT_ES5_PKc(ptr noundef nonnull align 8 dereferenceable(8) %71, ptr noundef @.str.29)
  br label %76

73:                                               ; preds = %2
  %74 = load ptr, ptr %4, align 8, !tbaa !7
  %75 = call noundef nonnull align 8 dereferenceable(8) ptr @_ZStlsISt11char_traitsIcEERSt13basic_ostreamIcT_ES5_PKc(ptr noundef nonnull align 8 dereferenceable(8) %74, ptr noundef @.str.30)
  br label %76

76:                                               ; preds = %2, %73, %70, %65
  call void @llvm.lifetime.start.p0(i64 8, ptr %10) #3
  store ptr @.str.4, ptr %10, align 8, !tbaa !12
  call void @llvm.lifetime.start.p0(i64 8, ptr %11) #3
  store i64 0, ptr %11, align 8, !tbaa !30
  br label %77

77:                                               ; preds = %112, %76
  %78 = load i64, ptr %11, align 8, !tbaa !30
  %79 = getelementptr inbounds nuw %"class.testing::internal::UnorderedElementsAreMatcherImplBase", ptr %12, i32 0, i32 1
  %80 = call noundef i64 @_ZNKSt6vectorIPKN7testing25MatcherDescriberInterfaceESaIS3_EE4sizeEv(ptr noundef nonnull align 8 dereferenceable(24) %79) #3
  %81 = icmp ne i64 %78, %80
  br i1 %81, label %83, label %82

82:                                               ; preds = %77
  call void @llvm.lifetime.end.p0(i64 8, ptr %11) #3
  br label %115

83:                                               ; preds = %77
  %84 = load ptr, ptr %4, align 8, !tbaa !7
  %85 = load ptr, ptr %10, align 8, !tbaa !12
  %86 = call noundef nonnull align 8 dereferenceable(8) ptr @_ZStlsISt11char_traitsIcEERSt13basic_ostreamIcT_ES5_PKc(ptr noundef nonnull align 8 dereferenceable(8) %84, ptr noundef %85)
  %87 = call noundef i32 @_ZNK7testing8internal35UnorderedElementsAreMatcherImplBase11match_flagsEv(ptr noundef nonnull align 8 dereferenceable(32) %12)
  %88 = icmp eq i32 %87, 3
  br i1 %88, label %89, label %95

89:                                               ; preds = %83
  %90 = load ptr, ptr %4, align 8, !tbaa !7
  %91 = call noundef nonnull align 8 dereferenceable(8) ptr @_ZStlsISt11char_traitsIcEERSt13basic_ostreamIcT_ES5_PKc(ptr noundef nonnull align 8 dereferenceable(8) %90, ptr noundef @.str.21)
  %92 = load i64, ptr %11, align 8, !tbaa !30
  %93 = call noundef nonnull align 8 dereferenceable(8) ptr @_ZNSolsEm(ptr noundef nonnull align 8 dereferenceable(8) %91, i64 noundef %92)
  %94 = call noundef nonnull align 8 dereferenceable(8) ptr @_ZStlsISt11char_traitsIcEERSt13basic_ostreamIcT_ES5_PKc(ptr noundef nonnull align 8 dereferenceable(8) %93, ptr noundef @.str.12)
  br label %98

95:                                               ; preds = %83
  %96 = load ptr, ptr %4, align 8, !tbaa !7
  %97 = call noundef nonnull align 8 dereferenceable(8) ptr @_ZStlsISt11char_traitsIcEERSt13basic_ostreamIcT_ES5_PKc(ptr noundef nonnull align 8 dereferenceable(8) %96, ptr noundef @.str.22)
  br label %98

98:                                               ; preds = %95, %89
  %99 = getelementptr inbounds nuw %"class.testing::internal::UnorderedElementsAreMatcherImplBase", ptr %12, i32 0, i32 1
  %100 = load i64, ptr %11, align 8, !tbaa !30
  %101 = call noundef nonnull align 8 dereferenceable(8) ptr @_ZNKSt6vectorIPKN7testing25MatcherDescriberInterfaceESaIS3_EEixEm(ptr noundef nonnull align 8 dereferenceable(24) %99, i64 noundef %100) #3
  %102 = load ptr, ptr %101, align 8, !tbaa !115
  %103 = load ptr, ptr %4, align 8, !tbaa !7
  %104 = load ptr, ptr %102, align 8, !tbaa !14
  %105 = getelementptr inbounds ptr, ptr %104, i64 2
  %106 = load ptr, ptr %105, align 8
  call void %106(ptr noundef nonnull align 8 dereferenceable(8) %102, ptr noundef %103)
  %107 = call noundef i32 @_ZNK7testing8internal35UnorderedElementsAreMatcherImplBase11match_flagsEv(ptr noundef nonnull align 8 dereferenceable(32) %12)
  %108 = icmp eq i32 %107, 3
  br i1 %108, label %109, label %110

109:                                              ; preds = %98
  store ptr @.str.23, ptr %10, align 8, !tbaa !12
  br label %111

110:                                              ; preds = %98
  store ptr @.str.9, ptr %10, align 8, !tbaa !12
  br label %111

111:                                              ; preds = %110, %109
  br label %112

112:                                              ; preds = %111
  %113 = load i64, ptr %11, align 8, !tbaa !30
  %114 = add i64 %113, 1
  store i64 %114, ptr %11, align 8, !tbaa !30
  br label %77, !llvm.loop !132

115:                                              ; preds = %82
  call void @llvm.lifetime.end.p0(i64 8, ptr %10) #3
  br label %116

116:                                              ; preds = %115, %35, %17
  ret void

117:                                              ; preds = %66, %56
  %118 = load ptr, ptr %6, align 8
  %119 = load i32, ptr %7, align 4
  %120 = insertvalue { ptr, i32 } poison, ptr %118, 0
  %121 = insertvalue { ptr, i32 } %120, i32 %119, 1
  resume { ptr, i32 } %121
}

; Function Attrs: mustprogress uwtable
define noundef zeroext i1 @_ZNK7testing8internal35UnorderedElementsAreMatcherImplBase17VerifyMatchMatrixERKSt6vectorINSt7__cxx1112basic_stringIcSt11char_traitsIcESaIcEEESaIS8_EERKNS0_11MatchMatrixEPNS_19MatchResultListenerE(ptr noundef nonnull align 8 dereferenceable(32) %0, ptr noundef nonnull align 8 dereferenceable(24) %1, ptr noundef nonnull align 8 dereferenceable(40) %2, ptr noundef %3) #4 align 2 personality ptr @__gxx_personality_v0 {
  %5 = alloca i1, align 1
  %6 = alloca ptr, align 8
  %7 = alloca ptr, align 8
  %8 = alloca ptr, align 8
  %9 = alloca ptr, align 8
  %10 = alloca %"class.testing::Message", align 8
  %11 = alloca ptr, align 8
  %12 = alloca i32, align 4
  %13 = alloca i8, align 1
  %14 = alloca %"class.std::vector.18", align 8
  %15 = alloca i8, align 1
  %16 = alloca %"class.std::allocator", align 1
  %17 = alloca %"class.std::vector.18", align 8
  %18 = alloca i8, align 1
  %19 = alloca %"class.std::allocator", align 1
  %20 = alloca i64, align 8
  %21 = alloca i32, align 4
  %22 = alloca i64, align 8
  %23 = alloca i8, align 1
  %24 = alloca ptr, align 8
  %25 = alloca i64, align 8
  %26 = alloca ptr, align 8
  %27 = alloca ptr, align 8
  %28 = alloca i64, align 8
  store ptr %0, ptr %6, align 8, !tbaa !113
  store ptr %1, ptr %7, align 8, !tbaa !28
  store ptr %2, ptr %8, align 8, !tbaa !82
  store ptr %3, ptr %9, align 8, !tbaa !133
  %29 = load ptr, ptr %6, align 8
  %30 = load ptr, ptr %8, align 8, !tbaa !82
  %31 = call noundef i64 @_ZNK7testing8internal11MatchMatrix7LhsSizeEv(ptr noundef nonnull align 8 dereferenceable(40) %30)
  %32 = icmp eq i64 %31, 0
  br i1 %32, label %33, label %38

33:                                               ; preds = %4
  %34 = load ptr, ptr %8, align 8, !tbaa !82
  %35 = call noundef i64 @_ZNK7testing8internal11MatchMatrix7RhsSizeEv(ptr noundef nonnull align 8 dereferenceable(40) %34)
  %36 = icmp eq i64 %35, 0
  br i1 %36, label %37, label %38

37:                                               ; preds = %33
  store i1 true, ptr %5, align 1
  br label %258

38:                                               ; preds = %33, %4
  %39 = call noundef i32 @_ZNK7testing8internal35UnorderedElementsAreMatcherImplBase11match_flagsEv(ptr noundef nonnull align 8 dereferenceable(32) %29)
  %40 = icmp eq i32 %39, 3
  br i1 %40, label %41, label %67

41:                                               ; preds = %38
  %42 = load ptr, ptr %8, align 8, !tbaa !82
  %43 = call noundef i64 @_ZNK7testing8internal11MatchMatrix7LhsSizeEv(ptr noundef nonnull align 8 dereferenceable(40) %42)
  %44 = load ptr, ptr %8, align 8, !tbaa !82
  %45 = call noundef i64 @_ZNK7testing8internal11MatchMatrix7RhsSizeEv(ptr noundef nonnull align 8 dereferenceable(40) %44)
  %46 = icmp ne i64 %43, %45
  br i1 %46, label %47, label %66

47:                                               ; preds = %41
  %48 = load ptr, ptr %8, align 8, !tbaa !82
  %49 = call noundef i64 @_ZNK7testing8internal11MatchMatrix7LhsSizeEv(ptr noundef nonnull align 8 dereferenceable(40) %48)
  %50 = icmp ne i64 %49, 0
  br i1 %50, label %51, label %65

51:                                               ; preds = %47
  %52 = load ptr, ptr %9, align 8, !tbaa !133
  %53 = call noundef zeroext i1 @_ZNK7testing19MatchResultListener12IsInterestedEv(ptr noundef nonnull align 8 dereferenceable(16) %52)
  br i1 %53, label %54, label %65

54:                                               ; preds = %51
  %55 = load ptr, ptr %9, align 8, !tbaa !133
  %56 = call noundef nonnull align 8 dereferenceable(16) ptr @_ZN7testing19MatchResultListenerlsIA11_cEERS0_RKT_(ptr noundef nonnull align 8 dereferenceable(16) %55, ptr noundef nonnull align 1 dereferenceable(11) @.str.31)
  call void @llvm.lifetime.start.p0(i64 8, ptr %10) #3
  %57 = load ptr, ptr %8, align 8, !tbaa !82
  %58 = call noundef i64 @_ZNK7testing8internal11MatchMatrix7LhsSizeEv(ptr noundef nonnull align 8 dereferenceable(40) %57)
  call void @_ZN7testing8internal35UnorderedElementsAreMatcherImplBase8ElementsEm(ptr dead_on_unwind writable sret(%"class.testing::Message") align 8 %10, i64 noundef %58)
  %59 = invoke noundef nonnull align 8 dereferenceable(16) ptr @_ZN7testing19MatchResultListenerlsINS_7MessageEEERS0_RKT_(ptr noundef nonnull align 8 dereferenceable(16) %56, ptr noundef nonnull align 8 dereferenceable(8) %10)
          to label %60 unwind label %61

60:                                               ; preds = %54
  call void @_ZN7testing7MessageD2Ev(ptr noundef nonnull align 8 dereferenceable(8) %10) #3
  call void @llvm.lifetime.end.p0(i64 8, ptr %10) #3
  br label %65

61:                                               ; preds = %54
  %62 = landingpad { ptr, i32 }
          cleanup
  %63 = extractvalue { ptr, i32 } %62, 0
  store ptr %63, ptr %11, align 8
  %64 = extractvalue { ptr, i32 } %62, 1
  store i32 %64, ptr %12, align 4
  call void @_ZN7testing7MessageD2Ev(ptr noundef nonnull align 8 dereferenceable(8) %10) #3
  call void @llvm.lifetime.end.p0(i64 8, ptr %10) #3
  br label %260

65:                                               ; preds = %60, %51, %47
  store i1 false, ptr %5, align 1
  br label %258

66:                                               ; preds = %41
  br label %67

67:                                               ; preds = %66, %38
  call void @llvm.lifetime.start.p0(i64 1, ptr %13) #3
  store i8 1, ptr %13, align 1, !tbaa !50
  call void @llvm.lifetime.start.p0(i64 24, ptr %14) #3
  %68 = load ptr, ptr %8, align 8, !tbaa !82
  %69 = call noundef i64 @_ZNK7testing8internal11MatchMatrix7LhsSizeEv(ptr noundef nonnull align 8 dereferenceable(40) %68)
  call void @llvm.lifetime.start.p0(i64 1, ptr %15) #3
  store i8 0, ptr %15, align 1, !tbaa !49
  call void @llvm.lifetime.start.p0(i64 1, ptr %16) #3
  call void @_ZNSaIcEC2Ev(ptr noundef nonnull align 1 dereferenceable(1) %16) #3
  invoke void @_ZNSt6vectorIcSaIcEEC2EmRKcRKS0_(ptr noundef nonnull align 8 dereferenceable(24) %14, i64 noundef %69, ptr noundef nonnull align 1 dereferenceable(1) %15, ptr noundef nonnull align 1 dereferenceable(1) %16)
          to label %70 unwind label %82

70:                                               ; preds = %67
  call void @_ZNSt15__new_allocatorIcED2Ev(ptr noundef nonnull align 1 dereferenceable(1) %16) #3
  call void @llvm.lifetime.end.p0(i64 1, ptr %16) #3
  call void @llvm.lifetime.end.p0(i64 1, ptr %15) #3
  call void @llvm.lifetime.start.p0(i64 24, ptr %17) #3
  %71 = load ptr, ptr %8, align 8, !tbaa !82
  %72 = invoke noundef i64 @_ZNK7testing8internal11MatchMatrix7RhsSizeEv(ptr noundef nonnull align 8 dereferenceable(40) %71)
          to label %73 unwind label %86

73:                                               ; preds = %70
  call void @llvm.lifetime.start.p0(i64 1, ptr %18) #3
  store i8 0, ptr %18, align 1, !tbaa !49
  call void @llvm.lifetime.start.p0(i64 1, ptr %19) #3
  call void @_ZNSaIcEC2Ev(ptr noundef nonnull align 1 dereferenceable(1) %19) #3
  invoke void @_ZNSt6vectorIcSaIcEEC2EmRKcRKS0_(ptr noundef nonnull align 8 dereferenceable(24) %17, i64 noundef %72, ptr noundef nonnull align 1 dereferenceable(1) %18, ptr noundef nonnull align 1 dereferenceable(1) %19)
          to label %74 unwind label %90

74:                                               ; preds = %73
  call void @_ZNSt15__new_allocatorIcED2Ev(ptr noundef nonnull align 1 dereferenceable(1) %19) #3
  call void @llvm.lifetime.end.p0(i64 1, ptr %19) #3
  call void @llvm.lifetime.end.p0(i64 1, ptr %18) #3
  call void @llvm.lifetime.start.p0(i64 8, ptr %20) #3
  store i64 0, ptr %20, align 8, !tbaa !30
  br label %75

75:                                               ; preds = %142, %74
  %76 = load i64, ptr %20, align 8, !tbaa !30
  %77 = load ptr, ptr %8, align 8, !tbaa !82
  %78 = invoke noundef i64 @_ZNK7testing8internal11MatchMatrix7LhsSizeEv(ptr noundef nonnull align 8 dereferenceable(40) %77)
          to label %79 unwind label %94

79:                                               ; preds = %75
  %80 = icmp ult i64 %76, %78
  br i1 %80, label %98, label %81

81:                                               ; preds = %79
  store i32 2, ptr %21, align 4
  call void @llvm.lifetime.end.p0(i64 8, ptr %20) #3
  br label %146

82:                                               ; preds = %67
  %83 = landingpad { ptr, i32 }
          cleanup
  %84 = extractvalue { ptr, i32 } %83, 0
  store ptr %84, ptr %11, align 8
  %85 = extractvalue { ptr, i32 } %83, 1
  store i32 %85, ptr %12, align 4
  call void @_ZNSt15__new_allocatorIcED2Ev(ptr noundef nonnull align 1 dereferenceable(1) %16) #3
  call void @llvm.lifetime.end.p0(i64 1, ptr %16) #3
  call void @llvm.lifetime.end.p0(i64 1, ptr %15) #3
  br label %257

86:                                               ; preds = %70
  %87 = landingpad { ptr, i32 }
          cleanup
  %88 = extractvalue { ptr, i32 } %87, 0
  store ptr %88, ptr %11, align 8
  %89 = extractvalue { ptr, i32 } %87, 1
  store i32 %89, ptr %12, align 4
  br label %256

90:                                               ; preds = %73
  %91 = landingpad { ptr, i32 }
          cleanup
  %92 = extractvalue { ptr, i32 } %91, 0
  store ptr %92, ptr %11, align 8
  %93 = extractvalue { ptr, i32 } %91, 1
  store i32 %93, ptr %12, align 4
  call void @_ZNSt15__new_allocatorIcED2Ev(ptr noundef nonnull align 1 dereferenceable(1) %19) #3
  call void @llvm.lifetime.end.p0(i64 1, ptr %19) #3
  call void @llvm.lifetime.end.p0(i64 1, ptr %18) #3
  br label %256

94:                                               ; preds = %75
  %95 = landingpad { ptr, i32 }
          cleanup
  %96 = extractvalue { ptr, i32 } %95, 0
  store ptr %96, ptr %11, align 8
  %97 = extractvalue { ptr, i32 } %95, 1
  store i32 %97, ptr %12, align 4
  br label %145

98:                                               ; preds = %79
  call void @llvm.lifetime.start.p0(i64 8, ptr %22) #3
  store i64 0, ptr %22, align 8, !tbaa !30
  br label %99

99:                                               ; preds = %133, %98
  %100 = load i64, ptr %22, align 8, !tbaa !30
  %101 = load ptr, ptr %8, align 8, !tbaa !82
  %102 = invoke noundef i64 @_ZNK7testing8internal11MatchMatrix7RhsSizeEv(ptr noundef nonnull align 8 dereferenceable(40) %101)
          to label %103 unwind label %106

103:                                              ; preds = %99
  %104 = icmp ult i64 %100, %102
  br i1 %104, label %110, label %105

105:                                              ; preds = %103
  store i32 5, ptr %21, align 4
  call void @llvm.lifetime.end.p0(i64 8, ptr %22) #3
  br label %141

106:                                              ; preds = %99
  %107 = landingpad { ptr, i32 }
          cleanup
  %108 = extractvalue { ptr, i32 } %107, 0
  store ptr %108, ptr %11, align 8
  %109 = extractvalue { ptr, i32 } %107, 1
  store i32 %109, ptr %12, align 4
  br label %140

110:                                              ; preds = %103
  call void @llvm.lifetime.start.p0(i64 1, ptr %23) #3
  %111 = load ptr, ptr %8, align 8, !tbaa !82
  %112 = load i64, ptr %20, align 8, !tbaa !30
  %113 = load i64, ptr %22, align 8, !tbaa !30
  %114 = invoke noundef zeroext i1 @_ZNK7testing8internal11MatchMatrix7HasEdgeEmm(ptr noundef nonnull align 8 dereferenceable(40) %111, i64 noundef %112, i64 noundef %113)
          to label %115 unwind label %136

115:                                              ; preds = %110
  %116 = zext i1 %114 to i8
  store i8 %116, ptr %23, align 1, !tbaa !49
  %117 = load i8, ptr %23, align 1, !tbaa !49
  %118 = sext i8 %117 to i32
  %119 = load i64, ptr %20, align 8, !tbaa !30
  %120 = call noundef nonnull align 1 dereferenceable(1) ptr @_ZNSt6vectorIcSaIcEEixEm(ptr noundef nonnull align 8 dereferenceable(24) %14, i64 noundef %119) #3
  %121 = load i8, ptr %120, align 1, !tbaa !49
  %122 = sext i8 %121 to i32
  %123 = or i32 %122, %118
  %124 = trunc i32 %123 to i8
  store i8 %124, ptr %120, align 1, !tbaa !49
  %125 = load i8, ptr %23, align 1, !tbaa !49
  %126 = sext i8 %125 to i32
  %127 = load i64, ptr %22, align 8, !tbaa !30
  %128 = call noundef nonnull align 1 dereferenceable(1) ptr @_ZNSt6vectorIcSaIcEEixEm(ptr noundef nonnull align 8 dereferenceable(24) %17, i64 noundef %127) #3
  %129 = load i8, ptr %128, align 1, !tbaa !49
  %130 = sext i8 %129 to i32
  %131 = or i32 %130, %126
  %132 = trunc i32 %131 to i8
  store i8 %132, ptr %128, align 1, !tbaa !49
  call void @llvm.lifetime.end.p0(i64 1, ptr %23) #3
  br label %133

133:                                              ; preds = %115
  %134 = load i64, ptr %22, align 8, !tbaa !30
  %135 = add i64 %134, 1
  store i64 %135, ptr %22, align 8, !tbaa !30
  br label %99, !llvm.loop !135

136:                                              ; preds = %110
  %137 = landingpad { ptr, i32 }
          cleanup
  %138 = extractvalue { ptr, i32 } %137, 0
  store ptr %138, ptr %11, align 8
  %139 = extractvalue { ptr, i32 } %137, 1
  store i32 %139, ptr %12, align 4
  call void @llvm.lifetime.end.p0(i64 1, ptr %23) #3
  br label %140

140:                                              ; preds = %136, %106
  call void @llvm.lifetime.end.p0(i64 8, ptr %22) #3
  br label %145

141:                                              ; preds = %105
  br label %142

142:                                              ; preds = %141
  %143 = load i64, ptr %20, align 8, !tbaa !30
  %144 = add i64 %143, 1
  store i64 %144, ptr %20, align 8, !tbaa !30
  br label %75, !llvm.loop !136

145:                                              ; preds = %140, %94
  call void @llvm.lifetime.end.p0(i64 8, ptr %20) #3
  br label %255

146:                                              ; preds = %81
  %147 = invoke noundef i32 @_ZNK7testing8internal35UnorderedElementsAreMatcherImplBase11match_flagsEv(ptr noundef nonnull align 8 dereferenceable(32) %29)
          to label %148 unwind label %157

148:                                              ; preds = %146
  %149 = and i32 %147, 1
  %150 = icmp ne i32 %149, 0
  br i1 %150, label %151, label %201

151:                                              ; preds = %148
  call void @llvm.lifetime.start.p0(i64 8, ptr %24) #3
  store ptr @.str.32, ptr %24, align 8, !tbaa !12
  call void @llvm.lifetime.start.p0(i64 8, ptr %25) #3
  store i64 0, ptr %25, align 8, !tbaa !30
  br label %152

152:                                              ; preds = %197, %151
  %153 = load i64, ptr %25, align 8, !tbaa !30
  %154 = call noundef i64 @_ZNKSt6vectorIcSaIcEE4sizeEv(ptr noundef nonnull align 8 dereferenceable(24) %17) #3
  %155 = icmp ult i64 %153, %154
  br i1 %155, label %161, label %156

156:                                              ; preds = %152
  store i32 8, ptr %21, align 4
  call void @llvm.lifetime.end.p0(i64 8, ptr %25) #3
  br label %200

157:                                              ; preds = %201, %146
  %158 = landingpad { ptr, i32 }
          cleanup
  %159 = extractvalue { ptr, i32 } %158, 0
  store ptr %159, ptr %11, align 8
  %160 = extractvalue { ptr, i32 } %158, 1
  store i32 %160, ptr %12, align 4
  br label %255

161:                                              ; preds = %152
  %162 = load i64, ptr %25, align 8, !tbaa !30
  %163 = call noundef nonnull align 1 dereferenceable(1) ptr @_ZNSt6vectorIcSaIcEEixEm(ptr noundef nonnull align 8 dereferenceable(24) %17, i64 noundef %162) #3
  %164 = load i8, ptr %163, align 1, !tbaa !49
  %165 = icmp ne i8 %164, 0
  br i1 %165, label %166, label %167

166:                                              ; preds = %161
  br label %197

167:                                              ; preds = %161
  store i8 0, ptr %13, align 1, !tbaa !50
  %168 = load ptr, ptr %9, align 8, !tbaa !133
  %169 = invoke noundef zeroext i1 @_ZNK7testing19MatchResultListener12IsInterestedEv(ptr noundef nonnull align 8 dereferenceable(16) %168)
          to label %170 unwind label %192

170:                                              ; preds = %167
  br i1 %169, label %171, label %196

171:                                              ; preds = %170
  %172 = load ptr, ptr %9, align 8, !tbaa !133
  %173 = invoke noundef nonnull align 8 dereferenceable(16) ptr @_ZN7testing19MatchResultListenerlsIPKcEERS0_RKT_(ptr noundef nonnull align 8 dereferenceable(16) %172, ptr noundef nonnull align 8 dereferenceable(8) %24)
          to label %174 unwind label %192

174:                                              ; preds = %171
  %175 = invoke noundef nonnull align 8 dereferenceable(16) ptr @_ZN7testing19MatchResultListenerlsIA10_cEERS0_RKT_(ptr noundef nonnull align 8 dereferenceable(16) %173, ptr noundef nonnull align 1 dereferenceable(10) @.str.33)
          to label %176 unwind label %192

176:                                              ; preds = %174
  %177 = invoke noundef nonnull align 8 dereferenceable(16) ptr @_ZN7testing19MatchResultListenerlsImEERS0_RKT_(ptr noundef nonnull align 8 dereferenceable(16) %175, ptr noundef nonnull align 8 dereferenceable(8) %25)
          to label %178 unwind label %192

178:                                              ; preds = %176
  %179 = invoke noundef nonnull align 8 dereferenceable(16) ptr @_ZN7testing19MatchResultListenerlsIA3_cEERS0_RKT_(ptr noundef nonnull align 8 dereferenceable(16) %177, ptr noundef nonnull align 1 dereferenceable(3) @.str.34)
          to label %180 unwind label %192

180:                                              ; preds = %178
  %181 = getelementptr inbounds nuw %"class.testing::internal::UnorderedElementsAreMatcherImplBase", ptr %29, i32 0, i32 1
  %182 = load i64, ptr %25, align 8, !tbaa !30
  %183 = call noundef nonnull align 8 dereferenceable(8) ptr @_ZNKSt6vectorIPKN7testing25MatcherDescriberInterfaceESaIS3_EEixEm(ptr noundef nonnull align 8 dereferenceable(24) %181, i64 noundef %182) #3
  %184 = load ptr, ptr %183, align 8, !tbaa !115
  %185 = load ptr, ptr %9, align 8, !tbaa !133
  %186 = invoke noundef ptr @_ZN7testing19MatchResultListener6streamEv(ptr noundef nonnull align 8 dereferenceable(16) %185)
          to label %187 unwind label %192

187:                                              ; preds = %180
  %188 = load ptr, ptr %184, align 8, !tbaa !14
  %189 = getelementptr inbounds ptr, ptr %188, i64 2
  %190 = load ptr, ptr %189, align 8
  invoke void %190(ptr noundef nonnull align 8 dereferenceable(8) %184, ptr noundef %186)
          to label %191 unwind label %192

191:                                              ; preds = %187
  store ptr @.str.35, ptr %24, align 8, !tbaa !12
  br label %196

192:                                              ; preds = %187, %180, %178, %176, %174, %171, %167
  %193 = landingpad { ptr, i32 }
          cleanup
  %194 = extractvalue { ptr, i32 } %193, 0
  store ptr %194, ptr %11, align 8
  %195 = extractvalue { ptr, i32 } %193, 1
  store i32 %195, ptr %12, align 4
  call void @llvm.lifetime.end.p0(i64 8, ptr %25) #3
  call void @llvm.lifetime.end.p0(i64 8, ptr %24) #3
  br label %255

196:                                              ; preds = %191, %170
  br label %197

197:                                              ; preds = %196, %166
  %198 = load i64, ptr %25, align 8, !tbaa !30
  %199 = add i64 %198, 1
  store i64 %199, ptr %25, align 8, !tbaa !30
  br label %152, !llvm.loop !137

200:                                              ; preds = %156
  call void @llvm.lifetime.end.p0(i64 8, ptr %24) #3
  br label %201

201:                                              ; preds = %200, %148
  %202 = invoke noundef i32 @_ZNK7testing8internal35UnorderedElementsAreMatcherImplBase11match_flagsEv(ptr noundef nonnull align 8 dereferenceable(32) %29)
          to label %203 unwind label %157

203:                                              ; preds = %201
  %204 = and i32 %202, 2
  %205 = icmp ne i32 %204, 0
  br i1 %205, label %206, label %252

206:                                              ; preds = %203
  call void @llvm.lifetime.start.p0(i64 8, ptr %26) #3
  store ptr @.str.36, ptr %26, align 8, !tbaa !12
  call void @llvm.lifetime.start.p0(i64 8, ptr %27) #3
  store ptr @.str.4, ptr %27, align 8, !tbaa !12
  %207 = load i8, ptr %13, align 1, !tbaa !50, !range !52, !noundef !53
  %208 = trunc i8 %207 to i1
  br i1 %208, label %210, label %209

209:                                              ; preds = %206
  store ptr @.str.37, ptr %27, align 8, !tbaa !12
  br label %210

210:                                              ; preds = %209, %206
  call void @llvm.lifetime.start.p0(i64 8, ptr %28) #3
  store i64 0, ptr %28, align 8, !tbaa !30
  br label %211

211:                                              ; preds = %248, %210
  %212 = load i64, ptr %28, align 8, !tbaa !30
  %213 = call noundef i64 @_ZNKSt6vectorIcSaIcEE4sizeEv(ptr noundef nonnull align 8 dereferenceable(24) %14) #3
  %214 = icmp ult i64 %212, %213
  br i1 %214, label %216, label %215

215:                                              ; preds = %211
  store i32 11, ptr %21, align 4
  call void @llvm.lifetime.end.p0(i64 8, ptr %28) #3
  br label %251

216:                                              ; preds = %211
  %217 = load i64, ptr %28, align 8, !tbaa !30
  %218 = call noundef nonnull align 1 dereferenceable(1) ptr @_ZNSt6vectorIcSaIcEEixEm(ptr noundef nonnull align 8 dereferenceable(24) %14, i64 noundef %217) #3
  %219 = load i8, ptr %218, align 1, !tbaa !49
  %220 = icmp ne i8 %219, 0
  br i1 %220, label %221, label %222

221:                                              ; preds = %216
  br label %248

222:                                              ; preds = %216
  store i8 0, ptr %13, align 1, !tbaa !50
  %223 = load ptr, ptr %9, align 8, !tbaa !133
  %224 = invoke noundef zeroext i1 @_ZNK7testing19MatchResultListener12IsInterestedEv(ptr noundef nonnull align 8 dereferenceable(16) %223)
          to label %225 unwind label %243

225:                                              ; preds = %222
  br i1 %224, label %226, label %247

226:                                              ; preds = %225
  %227 = load ptr, ptr %9, align 8, !tbaa !133
  %228 = invoke noundef nonnull align 8 dereferenceable(16) ptr @_ZN7testing19MatchResultListenerlsIPKcEERS0_RKT_(ptr noundef nonnull align 8 dereferenceable(16) %227, ptr noundef nonnull align 8 dereferenceable(8) %27)
          to label %229 unwind label %243

229:                                              ; preds = %226
  %230 = invoke noundef nonnull align 8 dereferenceable(16) ptr @_ZN7testing19MatchResultListenerlsIPKcEERS0_RKT_(ptr noundef nonnull align 8 dereferenceable(16) %228, ptr noundef nonnull align 8 dereferenceable(8) %26)
          to label %231 unwind label %243

231:                                              ; preds = %229
  %232 = invoke noundef nonnull align 8 dereferenceable(16) ptr @_ZN7testing19MatchResultListenerlsIA10_cEERS0_RKT_(ptr noundef nonnull align 8 dereferenceable(16) %230, ptr noundef nonnull align 1 dereferenceable(10) @.str.38)
          to label %233 unwind label %243

233:                                              ; preds = %231
  %234 = invoke noundef nonnull align 8 dereferenceable(16) ptr @_ZN7testing19MatchResultListenerlsImEERS0_RKT_(ptr noundef nonnull align 8 dereferenceable(16) %232, ptr noundef nonnull align 8 dereferenceable(8) %28)
          to label %235 unwind label %243

235:                                              ; preds = %233
  %236 = invoke noundef nonnull align 8 dereferenceable(16) ptr @_ZN7testing19MatchResultListenerlsIA3_cEERS0_RKT_(ptr noundef nonnull align 8 dereferenceable(16) %234, ptr noundef nonnull align 1 dereferenceable(3) @.str.34)
          to label %237 unwind label %243

237:                                              ; preds = %235
  %238 = load ptr, ptr %7, align 8, !tbaa !28
  %239 = load i64, ptr %28, align 8, !tbaa !30
  %240 = call noundef nonnull align 8 dereferenceable(32) ptr @_ZNKSt6vectorINSt7__cxx1112basic_stringIcSt11char_traitsIcESaIcEEESaIS5_EEixEm(ptr noundef nonnull align 8 dereferenceable(24) %238, i64 noundef %239) #3
  %241 = invoke noundef nonnull align 8 dereferenceable(16) ptr @_ZN7testing19MatchResultListenerlsINSt7__cxx1112basic_stringIcSt11char_traitsIcESaIcEEEEERS0_RKT_(ptr noundef nonnull align 8 dereferenceable(16) %236, ptr noundef nonnull align 8 dereferenceable(32) %240)
          to label %242 unwind label %243

242:                                              ; preds = %237
  store ptr @.str.35, ptr %26, align 8, !tbaa !12
  store ptr @.str.4, ptr %27, align 8, !tbaa !12
  br label %247

243:                                              ; preds = %237, %235, %233, %231, %229, %226, %222
  %244 = landingpad { ptr, i32 }
          cleanup
  %245 = extractvalue { ptr, i32 } %244, 0
  store ptr %245, ptr %11, align 8
  %246 = extractvalue { ptr, i32 } %244, 1
  store i32 %246, ptr %12, align 4
  call void @llvm.lifetime.end.p0(i64 8, ptr %28) #3
  call void @llvm.lifetime.end.p0(i64 8, ptr %27) #3
  call void @llvm.lifetime.end.p0(i64 8, ptr %26) #3
  br label %255

247:                                              ; preds = %242, %225
  br label %248

248:                                              ; preds = %247, %221
  %249 = load i64, ptr %28, align 8, !tbaa !30
  %250 = add i64 %249, 1
  store i64 %250, ptr %28, align 8, !tbaa !30
  br label %211, !llvm.loop !138

251:                                              ; preds = %215
  call void @llvm.lifetime.end.p0(i64 8, ptr %27) #3
  call void @llvm.lifetime.end.p0(i64 8, ptr %26) #3
  br label %252

252:                                              ; preds = %251, %203
  %253 = load i8, ptr %13, align 1, !tbaa !50, !range !52, !noundef !53
  %254 = trunc i8 %253 to i1
  store i1 %254, ptr %5, align 1
  store i32 1, ptr %21, align 4
  call void @_ZNSt6vectorIcSaIcEED2Ev(ptr noundef nonnull align 8 dereferenceable(24) %17) #3
  call void @llvm.lifetime.end.p0(i64 24, ptr %17) #3
  call void @_ZNSt6vectorIcSaIcEED2Ev(ptr noundef nonnull align 8 dereferenceable(24) %14) #3
  call void @llvm.lifetime.end.p0(i64 24, ptr %14) #3
  call void @llvm.lifetime.end.p0(i64 1, ptr %13) #3
  br label %258

255:                                              ; preds = %243, %192, %157, %145
  call void @_ZNSt6vectorIcSaIcEED2Ev(ptr noundef nonnull align 8 dereferenceable(24) %17) #3
  br label %256

256:                                              ; preds = %255, %90, %86
  call void @llvm.lifetime.end.p0(i64 24, ptr %17) #3
  call void @_ZNSt6vectorIcSaIcEED2Ev(ptr noundef nonnull align 8 dereferenceable(24) %14) #3
  br label %257

257:                                              ; preds = %256, %82
  call void @llvm.lifetime.end.p0(i64 24, ptr %14) #3
  call void @llvm.lifetime.end.p0(i64 1, ptr %13) #3
  br label %260

258:                                              ; preds = %252, %65, %37
  %259 = load i1, ptr %5, align 1
  ret i1 %259

260:                                              ; preds = %257, %61
  %261 = load ptr, ptr %11, align 8
  %262 = load i32, ptr %12, align 4
  %263 = insertvalue { ptr, i32 } poison, ptr %261, 0
  %264 = insertvalue { ptr, i32 } %263, i32 %262, 1
  resume { ptr, i32 } %264
}

; Function Attrs: mustprogress nounwind uwtable
define linkonce_odr noundef zeroext i1 @_ZNK7testing19MatchResultListener12IsInterestedEv(ptr noundef nonnull align 8 dereferenceable(16) %0) #7 comdat align 2 {
  %2 = alloca ptr, align 8
  store ptr %0, ptr %2, align 8, !tbaa !133
  %3 = load ptr, ptr %2, align 8
  %4 = getelementptr inbounds nuw %"class.testing::MatchResultListener", ptr %3, i32 0, i32 1
  %5 = load ptr, ptr %4, align 8, !tbaa !139
  %6 = icmp ne ptr %5, null
  ret i1 %6
}

; Function Attrs: mustprogress uwtable
define linkonce_odr noundef nonnull align 8 dereferenceable(16) ptr @_ZN7testing19MatchResultListenerlsIA11_cEERS0_RKT_(ptr noundef nonnull align 8 dereferenceable(16) %0, ptr noundef nonnull align 1 dereferenceable(11) %1) #4 comdat align 2 {
  %3 = alloca ptr, align 8
  %4 = alloca ptr, align 8
  store ptr %0, ptr %3, align 8, !tbaa !133
  store ptr %1, ptr %4, align 8, !tbaa !12
  %5 = load ptr, ptr %3, align 8
  %6 = getelementptr inbounds nuw %"class.testing::MatchResultListener", ptr %5, i32 0, i32 1
  %7 = load ptr, ptr %6, align 8, !tbaa !139
  %8 = icmp ne ptr %7, null
  br i1 %8, label %9, label %15

9:                                                ; preds = %2
  %10 = getelementptr inbounds nuw %"class.testing::MatchResultListener", ptr %5, i32 0, i32 1
  %11 = load ptr, ptr %10, align 8, !tbaa !139
  %12 = load ptr, ptr %4, align 8, !tbaa !12
  %13 = getelementptr inbounds [11 x i8], ptr %12, i64 0, i64 0
  %14 = call noundef nonnull align 8 dereferenceable(8) ptr @_ZStlsISt11char_traitsIcEERSt13basic_ostreamIcT_ES5_PKc(ptr noundef nonnull align 8 dereferenceable(8) %11, ptr noundef %13)
  br label %15

15:                                               ; preds = %9, %2
  ret ptr %5
}

; Function Attrs: mustprogress uwtable
define linkonce_odr noundef nonnull align 8 dereferenceable(16) ptr @_ZN7testing19MatchResultListenerlsINS_7MessageEEERS0_RKT_(ptr noundef nonnull align 8 dereferenceable(16) %0, ptr noundef nonnull align 8 dereferenceable(8) %1) #4 comdat align 2 {
  %3 = alloca ptr, align 8
  %4 = alloca ptr, align 8
  store ptr %0, ptr %3, align 8, !tbaa !133
  store ptr %1, ptr %4, align 8, !tbaa !130
  %5 = load ptr, ptr %3, align 8
  %6 = getelementptr inbounds nuw %"class.testing::MatchResultListener", ptr %5, i32 0, i32 1
  %7 = load ptr, ptr %6, align 8, !tbaa !139
  %8 = icmp ne ptr %7, null
  br i1 %8, label %9, label %14

9:                                                ; preds = %2
  %10 = getelementptr inbounds nuw %"class.testing::MatchResultListener", ptr %5, i32 0, i32 1
  %11 = load ptr, ptr %10, align 8, !tbaa !139
  %12 = load ptr, ptr %4, align 8, !tbaa !130
  %13 = call noundef nonnull align 8 dereferenceable(8) ptr @_ZN7testinglsERSoRKNS_7MessageE(ptr noundef nonnull align 8 dereferenceable(8) %11, ptr noundef nonnull align 8 dereferenceable(8) %12)
  br label %14

14:                                               ; preds = %9, %2
  ret ptr %5
}

; Function Attrs: mustprogress uwtable
define linkonce_odr void @_ZNSt6vectorIcSaIcEEC2EmRKcRKS0_(ptr noundef nonnull align 8 dereferenceable(24) %0, i64 noundef %1, ptr noundef nonnull align 1 dereferenceable(1) %2, ptr noundef nonnull align 1 dereferenceable(1) %3) unnamed_addr #4 comdat align 2 personality ptr @__gxx_personality_v0 {
  %5 = alloca ptr, align 8
  %6 = alloca i64, align 8
  %7 = alloca ptr, align 8
  %8 = alloca ptr, align 8
  %9 = alloca ptr, align 8
  %10 = alloca i32, align 4
  store ptr %0, ptr %5, align 8, !tbaa !104
  store i64 %1, ptr %6, align 8, !tbaa !30
  store ptr %2, ptr %7, align 8, !tbaa !12
  store ptr %3, ptr %8, align 8, !tbaa !43
  %11 = load ptr, ptr %5, align 8
  %12 = load i64, ptr %6, align 8, !tbaa !30
  %13 = load ptr, ptr %8, align 8, !tbaa !43
  %14 = call noundef i64 @_ZNSt6vectorIcSaIcEE17_S_check_init_lenEmRKS0_(i64 noundef %12, ptr noundef nonnull align 1 dereferenceable(1) %13)
  %15 = load ptr, ptr %8, align 8, !tbaa !43
  call void @_ZNSt12_Vector_baseIcSaIcEEC2EmRKS0_(ptr noundef nonnull align 8 dereferenceable(24) %11, i64 noundef %14, ptr noundef nonnull align 1 dereferenceable(1) %15)
  %16 = load i64, ptr %6, align 8, !tbaa !30
  %17 = load ptr, ptr %7, align 8, !tbaa !12
  invoke void @_ZNSt6vectorIcSaIcEE18_M_fill_initializeEmRKc(ptr noundef nonnull align 8 dereferenceable(24) %11, i64 noundef %16, ptr noundef nonnull align 1 dereferenceable(1) %17)
          to label %18 unwind label %19

18:                                               ; preds = %4
  ret void

19:                                               ; preds = %4
  %20 = landingpad { ptr, i32 }
          cleanup
  %21 = extractvalue { ptr, i32 } %20, 0
  store ptr %21, ptr %9, align 8
  %22 = extractvalue { ptr, i32 } %20, 1
  store i32 %22, ptr %10, align 4
  call void @_ZNSt12_Vector_baseIcSaIcEED2Ev(ptr noundef nonnull align 8 dereferenceable(24) %11) #3
  br label %23

23:                                               ; preds = %19
  %24 = load ptr, ptr %9, align 8
  %25 = load i32, ptr %10, align 4
  %26 = insertvalue { ptr, i32 } poison, ptr %24, 0
  %27 = insertvalue { ptr, i32 } %26, i32 %25, 1
  resume { ptr, i32 } %27
}

; Function Attrs: mustprogress nounwind uwtable
define linkonce_odr noundef i64 @_ZNKSt6vectorIcSaIcEE4sizeEv(ptr noundef nonnull align 8 dereferenceable(24) %0) #7 comdat align 2 {
  %2 = alloca ptr, align 8
  store ptr %0, ptr %2, align 8, !tbaa !104
  %3 = load ptr, ptr %2, align 8
  %4 = getelementptr inbounds nuw %"struct.std::_Vector_base.19", ptr %3, i32 0, i32 0
  %5 = getelementptr inbounds nuw %"struct.std::_Vector_base<char, std::allocator<char>>::_Vector_impl_data", ptr %4, i32 0, i32 1
  %6 = load ptr, ptr %5, align 8, !tbaa !141
  %7 = getelementptr inbounds nuw %"struct.std::_Vector_base.19", ptr %3, i32 0, i32 0
  %8 = getelementptr inbounds nuw %"struct.std::_Vector_base<char, std::allocator<char>>::_Vector_impl_data", ptr %7, i32 0, i32 0
  %9 = load ptr, ptr %8, align 8, !tbaa !106
  %10 = ptrtoint ptr %6 to i64
  %11 = ptrtoint ptr %9 to i64
  %12 = sub i64 %10, %11
  ret i64 %12
}

; Function Attrs: mustprogress uwtable
define linkonce_odr noundef nonnull align 8 dereferenceable(16) ptr @_ZN7testing19MatchResultListenerlsIPKcEERS0_RKT_(ptr noundef nonnull align 8 dereferenceable(16) %0, ptr noundef nonnull align 8 dereferenceable(8) %1) #4 comdat align 2 {
  %3 = alloca ptr, align 8
  %4 = alloca ptr, align 8
  store ptr %0, ptr %3, align 8, !tbaa !133
  store ptr %1, ptr %4, align 8, !tbaa !142
  %5 = load ptr, ptr %3, align 8
  %6 = getelementptr inbounds nuw %"class.testing::MatchResultListener", ptr %5, i32 0, i32 1
  %7 = load ptr, ptr %6, align 8, !tbaa !139
  %8 = icmp ne ptr %7, null
  br i1 %8, label %9, label %15

9:                                                ; preds = %2
  %10 = getelementptr inbounds nuw %"class.testing::MatchResultListener", ptr %5, i32 0, i32 1
  %11 = load ptr, ptr %10, align 8, !tbaa !139
  %12 = load ptr, ptr %4, align 8, !tbaa !142
  %13 = load ptr, ptr %12, align 8, !tbaa !12
  %14 = call noundef nonnull align 8 dereferenceable(8) ptr @_ZStlsISt11char_traitsIcEERSt13basic_ostreamIcT_ES5_PKc(ptr noundef nonnull align 8 dereferenceable(8) %11, ptr noundef %13)
  br label %15

15:                                               ; preds = %9, %2
  ret ptr %5
}

; Function Attrs: mustprogress uwtable
define linkonce_odr noundef nonnull align 8 dereferenceable(16) ptr @_ZN7testing19MatchResultListenerlsIA10_cEERS0_RKT_(ptr noundef nonnull align 8 dereferenceable(16) %0, ptr noundef nonnull align 1 dereferenceable(10) %1) #4 comdat align 2 {
  %3 = alloca ptr, align 8
  %4 = alloca ptr, align 8
  store ptr %0, ptr %3, align 8, !tbaa !133
  store ptr %1, ptr %4, align 8, !tbaa !12
  %5 = load ptr, ptr %3, align 8
  %6 = getelementptr inbounds nuw %"class.testing::MatchResultListener", ptr %5, i32 0, i32 1
  %7 = load ptr, ptr %6, align 8, !tbaa !139
  %8 = icmp ne ptr %7, null
  br i1 %8, label %9, label %15

9:                                                ; preds = %2
  %10 = getelementptr inbounds nuw %"class.testing::MatchResultListener", ptr %5, i32 0, i32 1
  %11 = load ptr, ptr %10, align 8, !tbaa !139
  %12 = load ptr, ptr %4, align 8, !tbaa !12
  %13 = getelementptr inbounds [10 x i8], ptr %12, i64 0, i64 0
  %14 = call noundef nonnull align 8 dereferenceable(8) ptr @_ZStlsISt11char_traitsIcEERSt13basic_ostreamIcT_ES5_PKc(ptr noundef nonnull align 8 dereferenceable(8) %11, ptr noundef %13)
  br label %15

15:                                               ; preds = %9, %2
  ret ptr %5
}

; Function Attrs: mustprogress uwtable
define linkonce_odr noundef nonnull align 8 dereferenceable(16) ptr @_ZN7testing19MatchResultListenerlsImEERS0_RKT_(ptr noundef nonnull align 8 dereferenceable(16) %0, ptr noundef nonnull align 8 dereferenceable(8) %1) #4 comdat align 2 {
  %3 = alloca ptr, align 8
  %4 = alloca ptr, align 8
  store ptr %0, ptr %3, align 8, !tbaa !133
  store ptr %1, ptr %4, align 8, !tbaa !143
  %5 = load ptr, ptr %3, align 8
  %6 = getelementptr inbounds nuw %"class.testing::MatchResultListener", ptr %5, i32 0, i32 1
  %7 = load ptr, ptr %6, align 8, !tbaa !139
  %8 = icmp ne ptr %7, null
  br i1 %8, label %9, label %15

9:                                                ; preds = %2
  %10 = getelementptr inbounds nuw %"class.testing::MatchResultListener", ptr %5, i32 0, i32 1
  %11 = load ptr, ptr %10, align 8, !tbaa !139
  %12 = load ptr, ptr %4, align 8, !tbaa !143
  %13 = load i64, ptr %12, align 8, !tbaa !30
  %14 = call noundef nonnull align 8 dereferenceable(8) ptr @_ZNSolsEm(ptr noundef nonnull align 8 dereferenceable(8) %11, i64 noundef %13)
  br label %15

15:                                               ; preds = %9, %2
  ret ptr %5
}

; Function Attrs: mustprogress uwtable
define linkonce_odr noundef nonnull align 8 dereferenceable(16) ptr @_ZN7testing19MatchResultListenerlsIA3_cEERS0_RKT_(ptr noundef nonnull align 8 dereferenceable(16) %0, ptr noundef nonnull align 1 dereferenceable(3) %1) #4 comdat align 2 {
  %3 = alloca ptr, align 8
  %4 = alloca ptr, align 8
  store ptr %0, ptr %3, align 8, !tbaa !133
  store ptr %1, ptr %4, align 8, !tbaa !12
  %5 = load ptr, ptr %3, align 8
  %6 = getelementptr inbounds nuw %"class.testing::MatchResultListener", ptr %5, i32 0, i32 1
  %7 = load ptr, ptr %6, align 8, !tbaa !139
  %8 = icmp ne ptr %7, null
  br i1 %8, label %9, label %15

9:                                                ; preds = %2
  %10 = getelementptr inbounds nuw %"class.testing::MatchResultListener", ptr %5, i32 0, i32 1
  %11 = load ptr, ptr %10, align 8, !tbaa !139
  %12 = load ptr, ptr %4, align 8, !tbaa !12
  %13 = getelementptr inbounds [3 x i8], ptr %12, i64 0, i64 0
  %14 = call noundef nonnull align 8 dereferenceable(8) ptr @_ZStlsISt11char_traitsIcEERSt13basic_ostreamIcT_ES5_PKc(ptr noundef nonnull align 8 dereferenceable(8) %11, ptr noundef %13)
  br label %15

15:                                               ; preds = %9, %2
  ret ptr %5
}

; Function Attrs: mustprogress nounwind uwtable
define linkonce_odr noundef ptr @_ZN7testing19MatchResultListener6streamEv(ptr noundef nonnull align 8 dereferenceable(16) %0) #7 comdat align 2 {
  %2 = alloca ptr, align 8
  store ptr %0, ptr %2, align 8, !tbaa !133
  %3 = load ptr, ptr %2, align 8
  %4 = getelementptr inbounds nuw %"class.testing::MatchResultListener", ptr %3, i32 0, i32 1
  %5 = load ptr, ptr %4, align 8, !tbaa !139
  ret ptr %5
}

; Function Attrs: mustprogress uwtable
define linkonce_odr noundef nonnull align 8 dereferenceable(16) ptr @_ZN7testing19MatchResultListenerlsINSt7__cxx1112basic_stringIcSt11char_traitsIcESaIcEEEEERS0_RKT_(ptr noundef nonnull align 8 dereferenceable(16) %0, ptr noundef nonnull align 8 dereferenceable(32) %1) #4 comdat align 2 {
  %3 = alloca ptr, align 8
  %4 = alloca ptr, align 8
  store ptr %0, ptr %3, align 8, !tbaa !133
  store ptr %1, ptr %4, align 8, !tbaa !10
  %5 = load ptr, ptr %3, align 8
  %6 = getelementptr inbounds nuw %"class.testing::MatchResultListener", ptr %5, i32 0, i32 1
  %7 = load ptr, ptr %6, align 8, !tbaa !139
  %8 = icmp ne ptr %7, null
  br i1 %8, label %9, label %14

9:                                                ; preds = %2
  %10 = getelementptr inbounds nuw %"class.testing::MatchResultListener", ptr %5, i32 0, i32 1
  %11 = load ptr, ptr %10, align 8, !tbaa !139
  %12 = load ptr, ptr %4, align 8, !tbaa !10
  %13 = call noundef nonnull align 8 dereferenceable(8) ptr @_ZStlsIcSt11char_traitsIcESaIcEERSt13basic_ostreamIT_T0_ES7_RKNSt7__cxx1112basic_stringIS4_S5_T1_EE(ptr noundef nonnull align 8 dereferenceable(8) %11, ptr noundef nonnull align 8 dereferenceable(32) %12)
  br label %14

14:                                               ; preds = %9, %2
  ret ptr %5
}

; Function Attrs: mustprogress nounwind uwtable
define linkonce_odr noundef nonnull align 8 dereferenceable(32) ptr @_ZNKSt6vectorINSt7__cxx1112basic_stringIcSt11char_traitsIcESaIcEEESaIS5_EEixEm(ptr noundef nonnull align 8 dereferenceable(24) %0, i64 noundef %1) #7 comdat align 2 {
  %3 = alloca ptr, align 8
  %4 = alloca i64, align 8
  store ptr %0, ptr %3, align 8, !tbaa !28
  store i64 %1, ptr %4, align 8, !tbaa !30
  %5 = load ptr, ptr %3, align 8
  %6 = getelementptr inbounds nuw %"struct.std::_Vector_base.4", ptr %5, i32 0, i32 0
  %7 = getelementptr inbounds nuw %"struct.std::_Vector_base<std::__cxx11::basic_string<char>, std::allocator<std::__cxx11::basic_string<char>>>::_Vector_impl_data", ptr %6, i32 0, i32 0
  %8 = load ptr, ptr %7, align 8, !tbaa !40
  %9 = load i64, ptr %4, align 8, !tbaa !30
  %10 = getelementptr inbounds nuw %"class.std::__cxx11::basic_string", ptr %8, i64 %9
  ret ptr %10
}

; Function Attrs: mustprogress nounwind uwtable
define linkonce_odr void @_ZNSt6vectorIcSaIcEED2Ev(ptr noundef nonnull align 8 dereferenceable(24) %0) unnamed_addr #7 comdat align 2 personality ptr @__gxx_personality_v0 {
  %2 = alloca ptr, align 8
  store ptr %0, ptr %2, align 8, !tbaa !104
  %3 = load ptr, ptr %2, align 8
  %4 = getelementptr inbounds nuw %"struct.std::_Vector_base.19", ptr %3, i32 0, i32 0
  %5 = getelementptr inbounds nuw %"struct.std::_Vector_base<char, std::allocator<char>>::_Vector_impl_data", ptr %4, i32 0, i32 0
  %6 = load ptr, ptr %5, align 8, !tbaa !106
  %7 = getelementptr inbounds nuw %"struct.std::_Vector_base.19", ptr %3, i32 0, i32 0
  %8 = getelementptr inbounds nuw %"struct.std::_Vector_base<char, std::allocator<char>>::_Vector_impl_data", ptr %7, i32 0, i32 1
  %9 = load ptr, ptr %8, align 8, !tbaa !141
  %10 = call noundef nonnull align 1 dereferenceable(1) ptr @_ZNSt12_Vector_baseIcSaIcEE19_M_get_Tp_allocatorEv(ptr noundef nonnull align 8 dereferenceable(24) %3) #3
  invoke void @_ZSt8_DestroyIPccEvT_S1_RSaIT0_E(ptr noundef %6, ptr noundef %9, ptr noundef nonnull align 1 dereferenceable(1) %10)
          to label %11 unwind label %12

11:                                               ; preds = %1
  call void @_ZNSt12_Vector_baseIcSaIcEED2Ev(ptr noundef nonnull align 8 dereferenceable(24) %3) #3
  ret void

12:                                               ; preds = %1
  %13 = landingpad { ptr, i32 }
          catch ptr null
  %14 = extractvalue { ptr, i32 } %13, 0
  call void @__clang_call_terminate(ptr %14) #26
  unreachable
}

; Function Attrs: mustprogress uwtable
define noundef zeroext i1 @_ZNK7testing8internal35UnorderedElementsAreMatcherImplBase11FindPairingERKNS0_11MatchMatrixEPNS_19MatchResultListenerE(ptr noundef nonnull align 8 dereferenceable(32) %0, ptr noundef nonnull align 8 dereferenceable(40) %1, ptr noundef %2) #4 align 2 personality ptr @__gxx_personality_v0 {
  %4 = alloca i1, align 1
  %5 = alloca ptr, align 8
  %6 = alloca ptr, align 8
  %7 = alloca ptr, align 8
  %8 = alloca %"class.std::vector.8", align 8
  %9 = alloca i64, align 8
  %10 = alloca ptr, align 8
  %11 = alloca i32, align 4
  %12 = alloca i64, align 8
  %13 = alloca i32, align 4
  %14 = alloca i64, align 8
  %15 = alloca ptr, align 8
  %16 = alloca i64, align 8
  store ptr %0, ptr %5, align 8, !tbaa !113
  store ptr %1, ptr %6, align 8, !tbaa !82
  store ptr %2, ptr %7, align 8, !tbaa !133
  %17 = load ptr, ptr %5, align 8
  call void @llvm.lifetime.start.p0(i64 24, ptr %8) #3
  %18 = load ptr, ptr %6, align 8, !tbaa !82
  call void @_ZN7testing8internal24FindMaxBipartiteMatchingERKNS0_11MatchMatrixE(ptr dead_on_unwind writable sret(%"class.std::vector.8") align 8 %8, ptr noundef nonnull align 8 dereferenceable(40) %18)
  call void @llvm.lifetime.start.p0(i64 8, ptr %9) #3
  %19 = call noundef i64 @_ZNKSt6vectorISt4pairImmESaIS1_EE4sizeEv(ptr noundef nonnull align 8 dereferenceable(24) %8) #3
  store i64 %19, ptr %9, align 8, !tbaa !30
  %20 = invoke noundef i32 @_ZNK7testing8internal35UnorderedElementsAreMatcherImplBase11match_flagsEv(ptr noundef nonnull align 8 dereferenceable(32) %17)
          to label %21 unwind label %53

21:                                               ; preds = %3
  %22 = and i32 %20, 1
  %23 = icmp ne i32 %22, 0
  br i1 %23, label %24, label %62

24:                                               ; preds = %21
  %25 = load i64, ptr %9, align 8, !tbaa !30
  %26 = load ptr, ptr %6, align 8, !tbaa !82
  %27 = invoke noundef i64 @_ZNK7testing8internal11MatchMatrix7RhsSizeEv(ptr noundef nonnull align 8 dereferenceable(40) %26)
          to label %28 unwind label %53

28:                                               ; preds = %24
  %29 = icmp ult i64 %25, %27
  br i1 %29, label %30, label %62

30:                                               ; preds = %28
  %31 = load ptr, ptr %7, align 8, !tbaa !133
  %32 = invoke noundef zeroext i1 @_ZNK7testing19MatchResultListener12IsInterestedEv(ptr noundef nonnull align 8 dereferenceable(16) %31)
          to label %33 unwind label %53

33:                                               ; preds = %30
  br i1 %32, label %34, label %61

34:                                               ; preds = %33
  %35 = load ptr, ptr %7, align 8, !tbaa !133
  %36 = invoke noundef nonnull align 8 dereferenceable(16) ptr @_ZN7testing19MatchResultListenerlsIA89_cEERS0_RKT_(ptr noundef nonnull align 8 dereferenceable(16) %35, ptr noundef nonnull align 1 dereferenceable(89) @.str.39)
          to label %37 unwind label %53

37:                                               ; preds = %34
  %38 = invoke noundef nonnull align 8 dereferenceable(16) ptr @_ZN7testing19MatchResultListenerlsImEERS0_RKT_(ptr noundef nonnull align 8 dereferenceable(16) %36, ptr noundef nonnull align 8 dereferenceable(8) %9)
          to label %39 unwind label %53

39:                                               ; preds = %37
  %40 = invoke noundef nonnull align 8 dereferenceable(16) ptr @_ZN7testing19MatchResultListenerlsIA5_cEERS0_RKT_(ptr noundef nonnull align 8 dereferenceable(16) %38, ptr noundef nonnull align 1 dereferenceable(5) @.str.40)
          to label %41 unwind label %53

41:                                               ; preds = %39
  call void @llvm.lifetime.start.p0(i64 8, ptr %12) #3
  %42 = load ptr, ptr %6, align 8, !tbaa !82
  %43 = invoke noundef i64 @_ZNK7testing8internal11MatchMatrix7RhsSizeEv(ptr noundef nonnull align 8 dereferenceable(40) %42)
          to label %44 unwind label %57

44:                                               ; preds = %41
  store i64 %43, ptr %12, align 8, !tbaa !30
  %45 = invoke noundef nonnull align 8 dereferenceable(16) ptr @_ZN7testing19MatchResultListenerlsImEERS0_RKT_(ptr noundef nonnull align 8 dereferenceable(16) %40, ptr noundef nonnull align 8 dereferenceable(8) %12)
          to label %46 unwind label %57

46:                                               ; preds = %44
  %47 = invoke noundef nonnull align 8 dereferenceable(16) ptr @_ZN7testing19MatchResultListenerlsIA30_cEERS0_RKT_(ptr noundef nonnull align 8 dereferenceable(16) %45, ptr noundef nonnull align 1 dereferenceable(30) @.str.41)
          to label %48 unwind label %57

48:                                               ; preds = %46
  call void @llvm.lifetime.end.p0(i64 8, ptr %12) #3
  %49 = load ptr, ptr %7, align 8, !tbaa !133
  %50 = invoke noundef ptr @_ZN7testing19MatchResultListener6streamEv(ptr noundef nonnull align 8 dereferenceable(16) %49)
          to label %51 unwind label %53

51:                                               ; preds = %48
  invoke void @_ZN7testing8internalL24LogElementMatcherPairVecERKSt6vectorISt4pairImmESaIS3_EEPSo(ptr noundef nonnull align 8 dereferenceable(24) %8, ptr noundef %50)
          to label %52 unwind label %53

52:                                               ; preds = %51
  br label %61

53:                                               ; preds = %104, %94, %91, %82, %80, %77, %73, %67, %62, %51, %48, %39, %37, %34, %30, %24, %3
  %54 = landingpad { ptr, i32 }
          cleanup
  %55 = extractvalue { ptr, i32 } %54, 0
  store ptr %55, ptr %10, align 8
  %56 = extractvalue { ptr, i32 } %54, 1
  store i32 %56, ptr %11, align 4
  br label %144

57:                                               ; preds = %46, %44, %41
  %58 = landingpad { ptr, i32 }
          cleanup
  %59 = extractvalue { ptr, i32 } %58, 0
  store ptr %59, ptr %10, align 8
  %60 = extractvalue { ptr, i32 } %58, 1
  store i32 %60, ptr %11, align 4
  call void @llvm.lifetime.end.p0(i64 8, ptr %12) #3
  br label %144

61:                                               ; preds = %52, %33
  store i1 false, ptr %4, align 1
  store i32 1, ptr %13, align 4
  br label %142

62:                                               ; preds = %28, %21
  %63 = invoke noundef i32 @_ZNK7testing8internal35UnorderedElementsAreMatcherImplBase11match_flagsEv(ptr noundef nonnull align 8 dereferenceable(32) %17)
          to label %64 unwind label %53

64:                                               ; preds = %62
  %65 = and i32 %63, 2
  %66 = icmp ne i32 %65, 0
  br i1 %66, label %67, label %101

67:                                               ; preds = %64
  %68 = load i64, ptr %9, align 8, !tbaa !30
  %69 = load ptr, ptr %6, align 8, !tbaa !82
  %70 = invoke noundef i64 @_ZNK7testing8internal11MatchMatrix7LhsSizeEv(ptr noundef nonnull align 8 dereferenceable(40) %69)
          to label %71 unwind label %53

71:                                               ; preds = %67
  %72 = icmp ult i64 %68, %70
  br i1 %72, label %73, label %101

73:                                               ; preds = %71
  %74 = load ptr, ptr %7, align 8, !tbaa !133
  %75 = invoke noundef zeroext i1 @_ZNK7testing19MatchResultListener12IsInterestedEv(ptr noundef nonnull align 8 dereferenceable(16) %74)
          to label %76 unwind label %53

76:                                               ; preds = %73
  br i1 %75, label %77, label %100

77:                                               ; preds = %76
  %78 = load ptr, ptr %7, align 8, !tbaa !133
  %79 = invoke noundef nonnull align 8 dereferenceable(16) ptr @_ZN7testing19MatchResultListenerlsIA65_cEERS0_RKT_(ptr noundef nonnull align 8 dereferenceable(16) %78, ptr noundef nonnull align 1 dereferenceable(65) @.str.42)
          to label %80 unwind label %53

80:                                               ; preds = %77
  %81 = invoke noundef nonnull align 8 dereferenceable(16) ptr @_ZN7testing19MatchResultListenerlsImEERS0_RKT_(ptr noundef nonnull align 8 dereferenceable(16) %79, ptr noundef nonnull align 8 dereferenceable(8) %9)
          to label %82 unwind label %53

82:                                               ; preds = %80
  %83 = invoke noundef nonnull align 8 dereferenceable(16) ptr @_ZN7testing19MatchResultListenerlsIA5_cEERS0_RKT_(ptr noundef nonnull align 8 dereferenceable(16) %81, ptr noundef nonnull align 1 dereferenceable(5) @.str.40)
          to label %84 unwind label %53

84:                                               ; preds = %82
  call void @llvm.lifetime.start.p0(i64 8, ptr %14) #3
  %85 = load ptr, ptr %6, align 8, !tbaa !82
  %86 = invoke noundef i64 @_ZNK7testing8internal11MatchMatrix7RhsSizeEv(ptr noundef nonnull align 8 dereferenceable(40) %85)
          to label %87 unwind label %96

87:                                               ; preds = %84
  store i64 %86, ptr %14, align 8, !tbaa !30
  %88 = invoke noundef nonnull align 8 dereferenceable(16) ptr @_ZN7testing19MatchResultListenerlsImEERS0_RKT_(ptr noundef nonnull align 8 dereferenceable(16) %83, ptr noundef nonnull align 8 dereferenceable(8) %14)
          to label %89 unwind label %96

89:                                               ; preds = %87
  %90 = invoke noundef nonnull align 8 dereferenceable(16) ptr @_ZN7testing19MatchResultListenerlsIA30_cEERS0_RKT_(ptr noundef nonnull align 8 dereferenceable(16) %88, ptr noundef nonnull align 1 dereferenceable(30) @.str.41)
          to label %91 unwind label %96

91:                                               ; preds = %89
  call void @llvm.lifetime.end.p0(i64 8, ptr %14) #3
  %92 = load ptr, ptr %7, align 8, !tbaa !133
  %93 = invoke noundef ptr @_ZN7testing19MatchResultListener6streamEv(ptr noundef nonnull align 8 dereferenceable(16) %92)
          to label %94 unwind label %53

94:                                               ; preds = %91
  invoke void @_ZN7testing8internalL24LogElementMatcherPairVecERKSt6vectorISt4pairImmESaIS3_EEPSo(ptr noundef nonnull align 8 dereferenceable(24) %8, ptr noundef %93)
          to label %95 unwind label %53

95:                                               ; preds = %94
  br label %100

96:                                               ; preds = %89, %87, %84
  %97 = landingpad { ptr, i32 }
          cleanup
  %98 = extractvalue { ptr, i32 } %97, 0
  store ptr %98, ptr %10, align 8
  %99 = extractvalue { ptr, i32 } %97, 1
  store i32 %99, ptr %11, align 4
  call void @llvm.lifetime.end.p0(i64 8, ptr %14) #3
  br label %144

100:                                              ; preds = %95, %76
  store i1 false, ptr %4, align 1
  store i32 1, ptr %13, align 4
  br label %142

101:                                              ; preds = %71, %64
  %102 = call noundef i64 @_ZNKSt6vectorISt4pairImmESaIS1_EE4sizeEv(ptr noundef nonnull align 8 dereferenceable(24) %8) #3
  %103 = icmp ugt i64 %102, 1
  br i1 %103, label %104, label %141

104:                                              ; preds = %101
  %105 = load ptr, ptr %7, align 8, !tbaa !133
  %106 = invoke noundef zeroext i1 @_ZNK7testing19MatchResultListener12IsInterestedEv(ptr noundef nonnull align 8 dereferenceable(16) %105)
          to label %107 unwind label %53

107:                                              ; preds = %104
  br i1 %106, label %108, label %140

108:                                              ; preds = %107
  call void @llvm.lifetime.start.p0(i64 8, ptr %15) #3
  store ptr @.str.43, ptr %15, align 8, !tbaa !12
  call void @llvm.lifetime.start.p0(i64 8, ptr %16) #3
  store i64 0, ptr %16, align 8, !tbaa !30
  br label %109

109:                                              ; preds = %132, %108
  %110 = load i64, ptr %16, align 8, !tbaa !30
  %111 = call noundef i64 @_ZNKSt6vectorISt4pairImmESaIS1_EE4sizeEv(ptr noundef nonnull align 8 dereferenceable(24) %8) #3
  %112 = icmp ult i64 %110, %111
  br i1 %112, label %114, label %113

113:                                              ; preds = %109
  store i32 2, ptr %13, align 4
  call void @llvm.lifetime.end.p0(i64 8, ptr %16) #3
  br label %139

114:                                              ; preds = %109
  %115 = load ptr, ptr %7, align 8, !tbaa !133
  %116 = invoke noundef nonnull align 8 dereferenceable(16) ptr @_ZN7testing19MatchResultListenerlsIPKcEERS0_RKT_(ptr noundef nonnull align 8 dereferenceable(16) %115, ptr noundef nonnull align 8 dereferenceable(8) %15)
          to label %117 unwind label %135

117:                                              ; preds = %114
  %118 = invoke noundef nonnull align 8 dereferenceable(16) ptr @_ZN7testing19MatchResultListenerlsIA13_cEERS0_RKT_(ptr noundef nonnull align 8 dereferenceable(16) %116, ptr noundef nonnull align 1 dereferenceable(13) @.str.21)
          to label %119 unwind label %135

119:                                              ; preds = %117
  %120 = load i64, ptr %16, align 8, !tbaa !30
  %121 = call noundef nonnull align 8 dereferenceable(16) ptr @_ZNSt6vectorISt4pairImmESaIS1_EEixEm(ptr noundef nonnull align 8 dereferenceable(24) %8, i64 noundef %120) #3
  %122 = getelementptr inbounds nuw %"struct.std::pair", ptr %121, i32 0, i32 0
  %123 = invoke noundef nonnull align 8 dereferenceable(16) ptr @_ZN7testing19MatchResultListenerlsImEERS0_RKT_(ptr noundef nonnull align 8 dereferenceable(16) %118, ptr noundef nonnull align 8 dereferenceable(8) %122)
          to label %124 unwind label %135

124:                                              ; preds = %119
  %125 = invoke noundef nonnull align 8 dereferenceable(16) ptr @_ZN7testing19MatchResultListenerlsIA25_cEERS0_RKT_(ptr noundef nonnull align 8 dereferenceable(16) %123, ptr noundef nonnull align 1 dereferenceable(25) @.str.44)
          to label %126 unwind label %135

126:                                              ; preds = %124
  %127 = load i64, ptr %16, align 8, !tbaa !30
  %128 = call noundef nonnull align 8 dereferenceable(16) ptr @_ZNSt6vectorISt4pairImmESaIS1_EEixEm(ptr noundef nonnull align 8 dereferenceable(24) %8, i64 noundef %127) #3
  %129 = getelementptr inbounds nuw %"struct.std::pair", ptr %128, i32 0, i32 1
  %130 = invoke noundef nonnull align 8 dereferenceable(16) ptr @_ZN7testing19MatchResultListenerlsImEERS0_RKT_(ptr noundef nonnull align 8 dereferenceable(16) %125, ptr noundef nonnull align 8 dereferenceable(8) %129)
          to label %131 unwind label %135

131:                                              ; preds = %126
  store ptr @.str.35, ptr %15, align 8, !tbaa !12
  br label %132

132:                                              ; preds = %131
  %133 = load i64, ptr %16, align 8, !tbaa !30
  %134 = add i64 %133, 1
  store i64 %134, ptr %16, align 8, !tbaa !30
  br label %109, !llvm.loop !144

135:                                              ; preds = %126, %124, %119, %117, %114
  %136 = landingpad { ptr, i32 }
          cleanup
  %137 = extractvalue { ptr, i32 } %136, 0
  store ptr %137, ptr %10, align 8
  %138 = extractvalue { ptr, i32 } %136, 1
  store i32 %138, ptr %11, align 4
  call void @llvm.lifetime.end.p0(i64 8, ptr %16) #3
  call void @llvm.lifetime.end.p0(i64 8, ptr %15) #3
  br label %144

139:                                              ; preds = %113
  call void @llvm.lifetime.end.p0(i64 8, ptr %15) #3
  br label %140

140:                                              ; preds = %139, %107
  br label %141

141:                                              ; preds = %140, %101
  store i1 true, ptr %4, align 1
  store i32 1, ptr %13, align 4
  br label %142

142:                                              ; preds = %141, %100, %61
  call void @llvm.lifetime.end.p0(i64 8, ptr %9) #3
  call void @_ZNSt6vectorISt4pairImmESaIS1_EED2Ev(ptr noundef nonnull align 8 dereferenceable(24) %8) #3
  call void @llvm.lifetime.end.p0(i64 24, ptr %8) #3
  %143 = load i1, ptr %4, align 1
  ret i1 %143

144:                                              ; preds = %135, %96, %57, %53
  call void @llvm.lifetime.end.p0(i64 8, ptr %9) #3
  call void @_ZNSt6vectorISt4pairImmESaIS1_EED2Ev(ptr noundef nonnull align 8 dereferenceable(24) %8) #3
  call void @llvm.lifetime.end.p0(i64 24, ptr %8) #3
  br label %145

145:                                              ; preds = %144
  %146 = load ptr, ptr %10, align 8
  %147 = load i32, ptr %11, align 4
  %148 = insertvalue { ptr, i32 } poison, ptr %146, 0
  %149 = insertvalue { ptr, i32 } %148, i32 %147, 1
  resume { ptr, i32 } %149
}

; Function Attrs: mustprogress nounwind uwtable
define linkonce_odr noundef i64 @_ZNKSt6vectorISt4pairImmESaIS1_EE4sizeEv(ptr noundef nonnull align 8 dereferenceable(24) %0) #7 comdat align 2 {
  %2 = alloca ptr, align 8
  store ptr %0, ptr %2, align 8, !tbaa !145
  %3 = load ptr, ptr %2, align 8
  %4 = getelementptr inbounds nuw %"struct.std::_Vector_base.9", ptr %3, i32 0, i32 0
  %5 = getelementptr inbounds nuw %"struct.std::_Vector_base<std::pair<unsigned long, unsigned long>, std::allocator<std::pair<unsigned long, unsigned long>>>::_Vector_impl_data", ptr %4, i32 0, i32 1
  %6 = load ptr, ptr %5, align 8, !tbaa !147
  %7 = getelementptr inbounds nuw %"struct.std::_Vector_base.9", ptr %3, i32 0, i32 0
  %8 = getelementptr inbounds nuw %"struct.std::_Vector_base<std::pair<unsigned long, unsigned long>, std::allocator<std::pair<unsigned long, unsigned long>>>::_Vector_impl_data", ptr %7, i32 0, i32 0
  %9 = load ptr, ptr %8, align 8, !tbaa !150
  %10 = ptrtoint ptr %6 to i64
  %11 = ptrtoint ptr %9 to i64
  %12 = sub i64 %10, %11
  %13 = sdiv exact i64 %12, 16
  ret i64 %13
}

; Function Attrs: mustprogress uwtable
define linkonce_odr noundef nonnull align 8 dereferenceable(16) ptr @_ZN7testing19MatchResultListenerlsIA89_cEERS0_RKT_(ptr noundef nonnull align 8 dereferenceable(16) %0, ptr noundef nonnull align 1 dereferenceable(89) %1) #4 comdat align 2 {
  %3 = alloca ptr, align 8
  %4 = alloca ptr, align 8
  store ptr %0, ptr %3, align 8, !tbaa !133
  store ptr %1, ptr %4, align 8, !tbaa !12
  %5 = load ptr, ptr %3, align 8
  %6 = getelementptr inbounds nuw %"class.testing::MatchResultListener", ptr %5, i32 0, i32 1
  %7 = load ptr, ptr %6, align 8, !tbaa !139
  %8 = icmp ne ptr %7, null
  br i1 %8, label %9, label %15

9:                                                ; preds = %2
  %10 = getelementptr inbounds nuw %"class.testing::MatchResultListener", ptr %5, i32 0, i32 1
  %11 = load ptr, ptr %10, align 8, !tbaa !139
  %12 = load ptr, ptr %4, align 8, !tbaa !12
  %13 = getelementptr inbounds [89 x i8], ptr %12, i64 0, i64 0
  %14 = call noundef nonnull align 8 dereferenceable(8) ptr @_ZStlsISt11char_traitsIcEERSt13basic_ostreamIcT_ES5_PKc(ptr noundef nonnull align 8 dereferenceable(8) %11, ptr noundef %13)
  br label %15

15:                                               ; preds = %9, %2
  ret ptr %5
}

; Function Attrs: mustprogress uwtable
define linkonce_odr noundef nonnull align 8 dereferenceable(16) ptr @_ZN7testing19MatchResultListenerlsIA5_cEERS0_RKT_(ptr noundef nonnull align 8 dereferenceable(16) %0, ptr noundef nonnull align 1 dereferenceable(5) %1) #4 comdat align 2 {
  %3 = alloca ptr, align 8
  %4 = alloca ptr, align 8
  store ptr %0, ptr %3, align 8, !tbaa !133
  store ptr %1, ptr %4, align 8, !tbaa !12
  %5 = load ptr, ptr %3, align 8
  %6 = getelementptr inbounds nuw %"class.testing::MatchResultListener", ptr %5, i32 0, i32 1
  %7 = load ptr, ptr %6, align 8, !tbaa !139
  %8 = icmp ne ptr %7, null
  br i1 %8, label %9, label %15

9:                                                ; preds = %2
  %10 = getelementptr inbounds nuw %"class.testing::MatchResultListener", ptr %5, i32 0, i32 1
  %11 = load ptr, ptr %10, align 8, !tbaa !139
  %12 = load ptr, ptr %4, align 8, !tbaa !12
  %13 = getelementptr inbounds [5 x i8], ptr %12, i64 0, i64 0
  %14 = call noundef nonnull align 8 dereferenceable(8) ptr @_ZStlsISt11char_traitsIcEERSt13basic_ostreamIcT_ES5_PKc(ptr noundef nonnull align 8 dereferenceable(8) %11, ptr noundef %13)
  br label %15

15:                                               ; preds = %9, %2
  ret ptr %5
}

; Function Attrs: mustprogress uwtable
define linkonce_odr noundef nonnull align 8 dereferenceable(16) ptr @_ZN7testing19MatchResultListenerlsIA30_cEERS0_RKT_(ptr noundef nonnull align 8 dereferenceable(16) %0, ptr noundef nonnull align 1 dereferenceable(30) %1) #4 comdat align 2 {
  %3 = alloca ptr, align 8
  %4 = alloca ptr, align 8
  store ptr %0, ptr %3, align 8, !tbaa !133
  store ptr %1, ptr %4, align 8, !tbaa !12
  %5 = load ptr, ptr %3, align 8
  %6 = getelementptr inbounds nuw %"class.testing::MatchResultListener", ptr %5, i32 0, i32 1
  %7 = load ptr, ptr %6, align 8, !tbaa !139
  %8 = icmp ne ptr %7, null
  br i1 %8, label %9, label %15

9:                                                ; preds = %2
  %10 = getelementptr inbounds nuw %"class.testing::MatchResultListener", ptr %5, i32 0, i32 1
  %11 = load ptr, ptr %10, align 8, !tbaa !139
  %12 = load ptr, ptr %4, align 8, !tbaa !12
  %13 = getelementptr inbounds [30 x i8], ptr %12, i64 0, i64 0
  %14 = call noundef nonnull align 8 dereferenceable(8) ptr @_ZStlsISt11char_traitsIcEERSt13basic_ostreamIcT_ES5_PKc(ptr noundef nonnull align 8 dereferenceable(8) %11, ptr noundef %13)
  br label %15

15:                                               ; preds = %9, %2
  ret ptr %5
}

; Function Attrs: mustprogress uwtable
define internal void @_ZN7testing8internalL24LogElementMatcherPairVecERKSt6vectorISt4pairImmESaIS3_EEPSo(ptr noundef nonnull align 8 dereferenceable(24) %0, ptr noundef %1) #4 {
  %3 = alloca ptr, align 8
  %4 = alloca ptr, align 8
  %5 = alloca ptr, align 8
  %6 = alloca ptr, align 8
  %7 = alloca %"class.__gnu_cxx::__normal_iterator.107", align 8
  %8 = alloca %"class.__gnu_cxx::__normal_iterator.107", align 8
  store ptr %0, ptr %3, align 8, !tbaa !145
  store ptr %1, ptr %4, align 8, !tbaa !7
  call void @llvm.lifetime.start.p0(i64 8, ptr %5) #3
  %9 = load ptr, ptr %4, align 8, !tbaa !7
  store ptr %9, ptr %5, align 8, !tbaa !7
  %10 = load ptr, ptr %5, align 8, !tbaa !7
  %11 = call noundef nonnull align 8 dereferenceable(8) ptr @_ZStlsISt11char_traitsIcEERSt13basic_ostreamIcT_ES5_PKc(ptr noundef nonnull align 8 dereferenceable(8) %10, ptr noundef @.str.105)
  call void @llvm.lifetime.start.p0(i64 8, ptr %6) #3
  store ptr @.str.4, ptr %6, align 8, !tbaa !12
  call void @llvm.lifetime.start.p0(i64 8, ptr %7) #3
  %12 = load ptr, ptr %3, align 8, !tbaa !145
  %13 = call ptr @_ZNKSt6vectorISt4pairImmESaIS1_EE5beginEv(ptr noundef nonnull align 8 dereferenceable(24) %12) #3
  %14 = getelementptr inbounds nuw %"class.__gnu_cxx::__normal_iterator.107", ptr %7, i32 0, i32 0
  store ptr %13, ptr %14, align 8
  br label %15

15:                                               ; preds = %38, %2
  call void @llvm.lifetime.start.p0(i64 8, ptr %8) #3
  %16 = load ptr, ptr %3, align 8, !tbaa !145
  %17 = call ptr @_ZNKSt6vectorISt4pairImmESaIS1_EE3endEv(ptr noundef nonnull align 8 dereferenceable(24) %16) #3
  %18 = getelementptr inbounds nuw %"class.__gnu_cxx::__normal_iterator.107", ptr %8, i32 0, i32 0
  store ptr %17, ptr %18, align 8
  %19 = call noundef zeroext i1 @_ZN9__gnu_cxxneIPKSt4pairImmESt6vectorIS2_SaIS2_EEEEbRKNS_17__normal_iteratorIT_T0_EESD_(ptr noundef nonnull align 8 dereferenceable(8) %7, ptr noundef nonnull align 8 dereferenceable(8) %8) #3
  call void @llvm.lifetime.end.p0(i64 8, ptr %8) #3
  br i1 %19, label %21, label %20

20:                                               ; preds = %15
  call void @llvm.lifetime.end.p0(i64 8, ptr %7) #3
  br label %40

21:                                               ; preds = %15
  %22 = load ptr, ptr %5, align 8, !tbaa !7
  %23 = load ptr, ptr %6, align 8, !tbaa !12
  %24 = call noundef nonnull align 8 dereferenceable(8) ptr @_ZStlsISt11char_traitsIcEERSt13basic_ostreamIcT_ES5_PKc(ptr noundef nonnull align 8 dereferenceable(8) %22, ptr noundef %23)
  %25 = call noundef nonnull align 8 dereferenceable(8) ptr @_ZStlsISt11char_traitsIcEERSt13basic_ostreamIcT_ES5_PKc(ptr noundef nonnull align 8 dereferenceable(8) %24, ptr noundef @.str.106)
  %26 = call noundef nonnull align 8 dereferenceable(8) ptr @_ZStlsISt11char_traitsIcEERSt13basic_ostreamIcT_ES5_PKc(ptr noundef nonnull align 8 dereferenceable(8) %25, ptr noundef @.str.38)
  %27 = call noundef ptr @_ZNK9__gnu_cxx17__normal_iteratorIPKSt4pairImmESt6vectorIS2_SaIS2_EEEptEv(ptr noundef nonnull align 8 dereferenceable(8) %7) #3
  %28 = getelementptr inbounds nuw %"struct.std::pair", ptr %27, i32 0, i32 0
  %29 = load i64, ptr %28, align 8, !tbaa !151
  %30 = call noundef nonnull align 8 dereferenceable(8) ptr @_ZNSolsEm(ptr noundef nonnull align 8 dereferenceable(8) %26, i64 noundef %29)
  %31 = call noundef nonnull align 8 dereferenceable(8) ptr @_ZStlsISt11char_traitsIcEERSt13basic_ostreamIcT_ES5_PKc(ptr noundef nonnull align 8 dereferenceable(8) %30, ptr noundef @.str.6)
  %32 = call noundef nonnull align 8 dereferenceable(8) ptr @_ZStlsISt11char_traitsIcEERSt13basic_ostreamIcT_ES5_PKc(ptr noundef nonnull align 8 dereferenceable(8) %31, ptr noundef @.str.33)
  %33 = call noundef ptr @_ZNK9__gnu_cxx17__normal_iteratorIPKSt4pairImmESt6vectorIS2_SaIS2_EEEptEv(ptr noundef nonnull align 8 dereferenceable(8) %7) #3
  %34 = getelementptr inbounds nuw %"struct.std::pair", ptr %33, i32 0, i32 1
  %35 = load i64, ptr %34, align 8, !tbaa !153
  %36 = call noundef nonnull align 8 dereferenceable(8) ptr @_ZNSolsEm(ptr noundef nonnull align 8 dereferenceable(8) %32, i64 noundef %35)
  %37 = call noundef nonnull align 8 dereferenceable(8) ptr @_ZStlsISt11char_traitsIcEERSt13basic_ostreamIcT_ES5_PKc(ptr noundef nonnull align 8 dereferenceable(8) %36, ptr noundef @.str.7)
  store ptr @.str.107, ptr %6, align 8, !tbaa !12
  br label %38

38:                                               ; preds = %21
  %39 = call noundef nonnull align 8 dereferenceable(8) ptr @_ZN9__gnu_cxx17__normal_iteratorIPKSt4pairImmESt6vectorIS2_SaIS2_EEEppEv(ptr noundef nonnull align 8 dereferenceable(8) %7) #3
  br label %15, !llvm.loop !154

40:                                               ; preds = %20
  %41 = load ptr, ptr %5, align 8, !tbaa !7
  %42 = call noundef nonnull align 8 dereferenceable(8) ptr @_ZStlsISt11char_traitsIcEERSt13basic_ostreamIcT_ES5_PKc(ptr noundef nonnull align 8 dereferenceable(8) %41, ptr noundef @.str.108)
  call void @llvm.lifetime.end.p0(i64 8, ptr %6) #3
  call void @llvm.lifetime.end.p0(i64 8, ptr %5) #3
  ret void
}

; Function Attrs: mustprogress uwtable
define linkonce_odr noundef nonnull align 8 dereferenceable(16) ptr @_ZN7testing19MatchResultListenerlsIA65_cEERS0_RKT_(ptr noundef nonnull align 8 dereferenceable(16) %0, ptr noundef nonnull align 1 dereferenceable(65) %1) #4 comdat align 2 {
  %3 = alloca ptr, align 8
  %4 = alloca ptr, align 8
  store ptr %0, ptr %3, align 8, !tbaa !133
  store ptr %1, ptr %4, align 8, !tbaa !12
  %5 = load ptr, ptr %3, align 8
  %6 = getelementptr inbounds nuw %"class.testing::MatchResultListener", ptr %5, i32 0, i32 1
  %7 = load ptr, ptr %6, align 8, !tbaa !139
  %8 = icmp ne ptr %7, null
  br i1 %8, label %9, label %15

9:                                                ; preds = %2
  %10 = getelementptr inbounds nuw %"class.testing::MatchResultListener", ptr %5, i32 0, i32 1
  %11 = load ptr, ptr %10, align 8, !tbaa !139
  %12 = load ptr, ptr %4, align 8, !tbaa !12
  %13 = getelementptr inbounds [65 x i8], ptr %12, i64 0, i64 0
  %14 = call noundef nonnull align 8 dereferenceable(8) ptr @_ZStlsISt11char_traitsIcEERSt13basic_ostreamIcT_ES5_PKc(ptr noundef nonnull align 8 dereferenceable(8) %11, ptr noundef %13)
  br label %15

15:                                               ; preds = %9, %2
  ret ptr %5
}

; Function Attrs: mustprogress uwtable
define linkonce_odr noundef nonnull align 8 dereferenceable(16) ptr @_ZN7testing19MatchResultListenerlsIA13_cEERS0_RKT_(ptr noundef nonnull align 8 dereferenceable(16) %0, ptr noundef nonnull align 1 dereferenceable(13) %1) #4 comdat align 2 {
  %3 = alloca ptr, align 8
  %4 = alloca ptr, align 8
  store ptr %0, ptr %3, align 8, !tbaa !133
  store ptr %1, ptr %4, align 8, !tbaa !12
  %5 = load ptr, ptr %3, align 8
  %6 = getelementptr inbounds nuw %"class.testing::MatchResultListener", ptr %5, i32 0, i32 1
  %7 = load ptr, ptr %6, align 8, !tbaa !139
  %8 = icmp ne ptr %7, null
  br i1 %8, label %9, label %15

9:                                                ; preds = %2
  %10 = getelementptr inbounds nuw %"class.testing::MatchResultListener", ptr %5, i32 0, i32 1
  %11 = load ptr, ptr %10, align 8, !tbaa !139
  %12 = load ptr, ptr %4, align 8, !tbaa !12
  %13 = getelementptr inbounds [13 x i8], ptr %12, i64 0, i64 0
  %14 = call noundef nonnull align 8 dereferenceable(8) ptr @_ZStlsISt11char_traitsIcEERSt13basic_ostreamIcT_ES5_PKc(ptr noundef nonnull align 8 dereferenceable(8) %11, ptr noundef %13)
  br label %15

15:                                               ; preds = %9, %2
  ret ptr %5
}

; Function Attrs: mustprogress nounwind uwtable
define linkonce_odr noundef nonnull align 8 dereferenceable(16) ptr @_ZNSt6vectorISt4pairImmESaIS1_EEixEm(ptr noundef nonnull align 8 dereferenceable(24) %0, i64 noundef %1) #7 comdat align 2 {
  %3 = alloca ptr, align 8
  %4 = alloca i64, align 8
  store ptr %0, ptr %3, align 8, !tbaa !145
  store i64 %1, ptr %4, align 8, !tbaa !30
  %5 = load ptr, ptr %3, align 8
  %6 = getelementptr inbounds nuw %"struct.std::_Vector_base.9", ptr %5, i32 0, i32 0
  %7 = getelementptr inbounds nuw %"struct.std::_Vector_base<std::pair<unsigned long, unsigned long>, std::allocator<std::pair<unsigned long, unsigned long>>>::_Vector_impl_data", ptr %6, i32 0, i32 0
  %8 = load ptr, ptr %7, align 8, !tbaa !150
  %9 = load i64, ptr %4, align 8, !tbaa !30
  %10 = getelementptr inbounds nuw %"struct.std::pair", ptr %8, i64 %9
  ret ptr %10
}

; Function Attrs: mustprogress uwtable
define linkonce_odr noundef nonnull align 8 dereferenceable(16) ptr @_ZN7testing19MatchResultListenerlsIA25_cEERS0_RKT_(ptr noundef nonnull align 8 dereferenceable(16) %0, ptr noundef nonnull align 1 dereferenceable(25) %1) #4 comdat align 2 {
  %3 = alloca ptr, align 8
  %4 = alloca ptr, align 8
  store ptr %0, ptr %3, align 8, !tbaa !133
  store ptr %1, ptr %4, align 8, !tbaa !12
  %5 = load ptr, ptr %3, align 8
  %6 = getelementptr inbounds nuw %"class.testing::MatchResultListener", ptr %5, i32 0, i32 1
  %7 = load ptr, ptr %6, align 8, !tbaa !139
  %8 = icmp ne ptr %7, null
  br i1 %8, label %9, label %15

9:                                                ; preds = %2
  %10 = getelementptr inbounds nuw %"class.testing::MatchResultListener", ptr %5, i32 0, i32 1
  %11 = load ptr, ptr %10, align 8, !tbaa !139
  %12 = load ptr, ptr %4, align 8, !tbaa !12
  %13 = getelementptr inbounds [25 x i8], ptr %12, i64 0, i64 0
  %14 = call noundef nonnull align 8 dereferenceable(8) ptr @_ZStlsISt11char_traitsIcEERSt13basic_ostreamIcT_ES5_PKc(ptr noundef nonnull align 8 dereferenceable(8) %11, ptr noundef %13)
  br label %15

15:                                               ; preds = %9, %2
  ret ptr %5
}

; Function Attrs: mustprogress nounwind uwtable
define linkonce_odr void @_ZNSt6vectorISt4pairImmESaIS1_EED2Ev(ptr noundef nonnull align 8 dereferenceable(24) %0) unnamed_addr #7 comdat align 2 personality ptr @__gxx_personality_v0 {
  %2 = alloca ptr, align 8
  store ptr %0, ptr %2, align 8, !tbaa !145
  %3 = load ptr, ptr %2, align 8
  %4 = getelementptr inbounds nuw %"struct.std::_Vector_base.9", ptr %3, i32 0, i32 0
  %5 = getelementptr inbounds nuw %"struct.std::_Vector_base<std::pair<unsigned long, unsigned long>, std::allocator<std::pair<unsigned long, unsigned long>>>::_Vector_impl_data", ptr %4, i32 0, i32 0
  %6 = load ptr, ptr %5, align 8, !tbaa !150
  %7 = getelementptr inbounds nuw %"struct.std::_Vector_base.9", ptr %3, i32 0, i32 0
  %8 = getelementptr inbounds nuw %"struct.std::_Vector_base<std::pair<unsigned long, unsigned long>, std::allocator<std::pair<unsigned long, unsigned long>>>::_Vector_impl_data", ptr %7, i32 0, i32 1
  %9 = load ptr, ptr %8, align 8, !tbaa !147
  %10 = call noundef nonnull align 1 dereferenceable(1) ptr @_ZNSt12_Vector_baseISt4pairImmESaIS1_EE19_M_get_Tp_allocatorEv(ptr noundef nonnull align 8 dereferenceable(24) %3) #3
  invoke void @_ZSt8_DestroyIPSt4pairImmES1_EvT_S3_RSaIT0_E(ptr noundef %6, ptr noundef %9, ptr noundef nonnull align 1 dereferenceable(1) %10)
          to label %11 unwind label %12

11:                                               ; preds = %1
  call void @_ZNSt12_Vector_baseISt4pairImmESaIS1_EED2Ev(ptr noundef nonnull align 8 dereferenceable(24) %3) #3
  ret void

12:                                               ; preds = %1
  %13 = landingpad { ptr, i32 }
          catch ptr null
  %14 = extractvalue { ptr, i32 } %13, 0
  call void @__clang_call_terminate(ptr %14) #26
  unreachable
}

; Function Attrs: mustprogress uwtable
define void @_ZN7testing8internal15LogWithLocationENS0_11LogSeverityEPKciRKNSt7__cxx1112basic_stringIcSt11char_traitsIcESaIcEEE(i32 noundef %0, ptr noundef %1, i32 noundef %2, ptr noundef nonnull align 8 dereferenceable(32) %3) #4 personality ptr @__gxx_personality_v0 {
  %5 = alloca i32, align 4
  %6 = alloca ptr, align 8
  %7 = alloca i32, align 4
  %8 = alloca ptr, align 8
  %9 = alloca %"class.std::__cxx11::basic_ostringstream", align 8
  %10 = alloca %"class.std::__cxx11::basic_string", align 8
  %11 = alloca ptr, align 8
  %12 = alloca i32, align 4
  %13 = alloca %"class.std::__cxx11::basic_string", align 8
  store i32 %0, ptr %5, align 4, !tbaa !60
  store ptr %1, ptr %6, align 8, !tbaa !12
  store i32 %2, ptr %7, align 4, !tbaa !3
  store ptr %3, ptr %8, align 8, !tbaa !10
  call void @llvm.lifetime.start.p0(i64 376, ptr %9) #3
  call void @_ZNSt7__cxx1119basic_ostringstreamIcSt11char_traitsIcESaIcEEC1Ev(ptr noundef nonnull align 8 dereferenceable(112) %9)
  call void @llvm.lifetime.start.p0(i64 32, ptr %10) #3
  %14 = load ptr, ptr %6, align 8, !tbaa !12
  %15 = load i32, ptr %7, align 4, !tbaa !3
  invoke void @_ZN7testing8internal18FormatFileLocationB5cxx11EPKci(ptr dead_on_unwind writable sret(%"class.std::__cxx11::basic_string") align 8 %10, ptr noundef %14, i32 noundef %15)
          to label %16 unwind label %29

16:                                               ; preds = %4
  %17 = invoke noundef nonnull align 8 dereferenceable(8) ptr @_ZStlsIcSt11char_traitsIcESaIcEERSt13basic_ostreamIT_T0_ES7_RKNSt7__cxx1112basic_stringIS4_S5_T1_EE(ptr noundef nonnull align 8 dereferenceable(8) %9, ptr noundef nonnull align 8 dereferenceable(32) %10)
          to label %18 unwind label %33

18:                                               ; preds = %16
  %19 = invoke noundef nonnull align 8 dereferenceable(8) ptr @_ZStlsISt11char_traitsIcEERSt13basic_ostreamIcT_ES5_PKc(ptr noundef nonnull align 8 dereferenceable(8) %17, ptr noundef @.str.12)
          to label %20 unwind label %33

20:                                               ; preds = %18
  %21 = load ptr, ptr %8, align 8, !tbaa !10
  %22 = invoke noundef nonnull align 8 dereferenceable(8) ptr @_ZStlsIcSt11char_traitsIcESaIcEERSt13basic_ostreamIT_T0_ES7_RKNSt7__cxx1112basic_stringIS4_S5_T1_EE(ptr noundef nonnull align 8 dereferenceable(8) %19, ptr noundef nonnull align 8 dereferenceable(32) %21)
          to label %23 unwind label %33

23:                                               ; preds = %20
  %24 = invoke noundef nonnull align 8 dereferenceable(8) ptr @_ZNSolsEPFRSoS_E(ptr noundef nonnull align 8 dereferenceable(8) %22, ptr noundef @_ZSt4endlIcSt11char_traitsIcEERSt13basic_ostreamIT_T0_ES6_)
          to label %25 unwind label %33

25:                                               ; preds = %23
  call void @_ZNSt7__cxx1112basic_stringIcSt11char_traitsIcESaIcEED2Ev(ptr noundef nonnull align 8 dereferenceable(32) %10) #3
  call void @llvm.lifetime.end.p0(i64 32, ptr %10) #3
  %26 = load i32, ptr %5, align 4, !tbaa !60
  call void @llvm.lifetime.start.p0(i64 32, ptr %13) #3
  invoke void @_ZNKSt7__cxx1119basic_ostringstreamIcSt11char_traitsIcESaIcEE3strEv(ptr dead_on_unwind writable sret(%"class.std::__cxx11::basic_string") align 8 %13, ptr noundef nonnull align 8 dereferenceable(112) %9)
          to label %27 unwind label %38

27:                                               ; preds = %25
  invoke void @_ZN7testing8internal3LogENS0_11LogSeverityERKNSt7__cxx1112basic_stringIcSt11char_traitsIcESaIcEEEi(i32 noundef %26, ptr noundef nonnull align 8 dereferenceable(32) %13, i32 noundef 0)
          to label %28 unwind label %42

28:                                               ; preds = %27
  call void @_ZNSt7__cxx1112basic_stringIcSt11char_traitsIcESaIcEED2Ev(ptr noundef nonnull align 8 dereferenceable(32) %13) #3
  call void @llvm.lifetime.end.p0(i64 32, ptr %13) #3
  call void @_ZNSt7__cxx1119basic_ostringstreamIcSt11char_traitsIcESaIcEED1Ev(ptr noundef nonnull align 8 dereferenceable(112) %9) #3
  call void @llvm.lifetime.end.p0(i64 376, ptr %9) #3
  ret void

29:                                               ; preds = %4
  %30 = landingpad { ptr, i32 }
          cleanup
  %31 = extractvalue { ptr, i32 } %30, 0
  store ptr %31, ptr %11, align 8
  %32 = extractvalue { ptr, i32 } %30, 1
  store i32 %32, ptr %12, align 4
  br label %37

33:                                               ; preds = %23, %20, %18, %16
  %34 = landingpad { ptr, i32 }
          cleanup
  %35 = extractvalue { ptr, i32 } %34, 0
  store ptr %35, ptr %11, align 8
  %36 = extractvalue { ptr, i32 } %34, 1
  store i32 %36, ptr %12, align 4
  call void @_ZNSt7__cxx1112basic_stringIcSt11char_traitsIcESaIcEED2Ev(ptr noundef nonnull align 8 dereferenceable(32) %10) #3
  br label %37

37:                                               ; preds = %33, %29
  call void @llvm.lifetime.end.p0(i64 32, ptr %10) #3
  br label %47

38:                                               ; preds = %25
  %39 = landingpad { ptr, i32 }
          cleanup
  %40 = extractvalue { ptr, i32 } %39, 0
  store ptr %40, ptr %11, align 8
  %41 = extractvalue { ptr, i32 } %39, 1
  store i32 %41, ptr %12, align 4
  br label %46

42:                                               ; preds = %27
  %43 = landingpad { ptr, i32 }
          cleanup
  %44 = extractvalue { ptr, i32 } %43, 0
  store ptr %44, ptr %11, align 8
  %45 = extractvalue { ptr, i32 } %43, 1
  store i32 %45, ptr %12, align 4
  call void @_ZNSt7__cxx1112basic_stringIcSt11char_traitsIcESaIcEED2Ev(ptr noundef nonnull align 8 dereferenceable(32) %13) #3
  br label %46

46:                                               ; preds = %42, %38
  call void @llvm.lifetime.end.p0(i64 32, ptr %13) #3
  br label %47

47:                                               ; preds = %46, %37
  call void @_ZNSt7__cxx1119basic_ostringstreamIcSt11char_traitsIcESaIcEED1Ev(ptr noundef nonnull align 8 dereferenceable(112) %9) #3
  call void @llvm.lifetime.end.p0(i64 376, ptr %9) #3
  br label %48

48:                                               ; preds = %47
  %49 = load ptr, ptr %11, align 8
  %50 = load i32, ptr %12, align 4
  %51 = insertvalue { ptr, i32 } poison, ptr %49, 0
  %52 = insertvalue { ptr, i32 } %51, i32 %50, 1
  resume { ptr, i32 } %52
}

; Function Attrs: mustprogress uwtable
define available_externally void @_ZNSt7__cxx1119basic_ostringstreamIcSt11char_traitsIcESaIcEEC1Ev(ptr noundef nonnull align 8 dereferenceable(112) %0) unnamed_addr #4 align 2 personality ptr @__gxx_personality_v0 {
  %2 = alloca ptr, align 8
  %3 = alloca ptr, align 8
  %4 = alloca i32, align 4
  store ptr %0, ptr %2, align 8, !tbaa !155
  %5 = load ptr, ptr %2, align 8
  %6 = getelementptr inbounds i8, ptr %5, i64 112
  call void @_ZNSt9basic_iosIcSt11char_traitsIcEEC2Ev(ptr noundef nonnull align 8 dereferenceable(264) %6)
  invoke void @_ZNSoC2Ev(ptr noundef nonnull align 8 dereferenceable(8) %5, ptr noundef getelementptr inbounds ([4 x ptr], ptr @_ZTTNSt7__cxx1119basic_ostringstreamIcSt11char_traitsIcESaIcEEE, i64 0, i64 1))
          to label %7 unwind label %17

7:                                                ; preds = %1
  store ptr getelementptr inbounds inrange(-24, 16) ({ [5 x ptr], [5 x ptr] }, ptr @_ZTVNSt7__cxx1119basic_ostringstreamIcSt11char_traitsIcESaIcEEE, i32 0, i32 0, i32 3), ptr %5, align 8, !tbaa !14
  %8 = getelementptr inbounds i8, ptr %5, i64 112
  store ptr getelementptr inbounds inrange(-24, 16) ({ [5 x ptr], [5 x ptr] }, ptr @_ZTVNSt7__cxx1119basic_ostringstreamIcSt11char_traitsIcESaIcEEE, i32 0, i32 1, i32 3), ptr %8, align 8, !tbaa !14
  %9 = getelementptr inbounds nuw %"class.std::__cxx11::basic_ostringstream", ptr %5, i32 0, i32 1
  invoke void @_ZNSt7__cxx1115basic_stringbufIcSt11char_traitsIcESaIcEEC2ESt13_Ios_Openmode(ptr noundef nonnull align 8 dereferenceable(104) %9, i32 noundef 16)
          to label %10 unwind label %21

10:                                               ; preds = %7
  %11 = load ptr, ptr %5, align 8, !tbaa !14
  %12 = getelementptr i8, ptr %11, i64 -24
  %13 = load i64, ptr %12, align 8
  %14 = getelementptr inbounds i8, ptr %5, i64 %13
  %15 = getelementptr inbounds nuw %"class.std::__cxx11::basic_ostringstream", ptr %5, i32 0, i32 1
  invoke void @_ZNSt9basic_iosIcSt11char_traitsIcEE4initEPSt15basic_streambufIcS1_E(ptr noundef nonnull align 8 dereferenceable(264) %14, ptr noundef %15)
          to label %16 unwind label %25

16:                                               ; preds = %10
  ret void

17:                                               ; preds = %1
  %18 = landingpad { ptr, i32 }
          cleanup
  %19 = extractvalue { ptr, i32 } %18, 0
  store ptr %19, ptr %3, align 8
  %20 = extractvalue { ptr, i32 } %18, 1
  store i32 %20, ptr %4, align 4
  br label %30

21:                                               ; preds = %7
  %22 = landingpad { ptr, i32 }
          cleanup
  %23 = extractvalue { ptr, i32 } %22, 0
  store ptr %23, ptr %3, align 8
  %24 = extractvalue { ptr, i32 } %22, 1
  store i32 %24, ptr %4, align 4
  br label %29

25:                                               ; preds = %10
  %26 = landingpad { ptr, i32 }
          cleanup
  %27 = extractvalue { ptr, i32 } %26, 0
  store ptr %27, ptr %3, align 8
  %28 = extractvalue { ptr, i32 } %26, 1
  store i32 %28, ptr %4, align 4
  call void @_ZNSt7__cxx1115basic_stringbufIcSt11char_traitsIcESaIcEED2Ev(ptr noundef nonnull align 8 dereferenceable(104) %9) #3
  br label %29

29:                                               ; preds = %25, %21
  call void @_ZNSoD2Ev(ptr noundef nonnull align 8 dereferenceable(8) %5, ptr noundef getelementptr inbounds ([4 x ptr], ptr @_ZTTNSt7__cxx1119basic_ostringstreamIcSt11char_traitsIcESaIcEEE, i64 0, i64 1)) #3
  br label %30

30:                                               ; preds = %29, %17
  %31 = getelementptr inbounds i8, ptr %5, i64 112
  call void @_ZNSt8ios_baseD2Ev(ptr noundef nonnull align 8 dereferenceable(264) %31) #3
  br label %32

32:                                               ; preds = %30
  %33 = load ptr, ptr %3, align 8
  %34 = load i32, ptr %4, align 4
  %35 = insertvalue { ptr, i32 } poison, ptr %33, 0
  %36 = insertvalue { ptr, i32 } %35, i32 %34, 1
  resume { ptr, i32 } %36
}

declare void @_ZN7testing8internal18FormatFileLocationB5cxx11EPKci(ptr dead_on_unwind writable sret(%"class.std::__cxx11::basic_string") align 8, ptr noundef, i32 noundef) #1

; Function Attrs: inlinehint mustprogress uwtable
define available_externally noundef nonnull align 8 dereferenceable(8) ptr @_ZSt4endlIcSt11char_traitsIcEERSt13basic_ostreamIT_T0_ES6_(ptr noundef nonnull align 8 dereferenceable(8) %0) #5 {
  %2 = alloca ptr, align 8
  store ptr %0, ptr %2, align 8, !tbaa !7
  %3 = load ptr, ptr %2, align 8, !tbaa !7
  %4 = load ptr, ptr %2, align 8, !tbaa !7
  %5 = load ptr, ptr %4, align 8, !tbaa !14
  %6 = getelementptr i8, ptr %5, i64 -24
  %7 = load i64, ptr %6, align 8
  %8 = getelementptr inbounds i8, ptr %4, i64 %7
  %9 = call noundef signext i8 @_ZNKSt9basic_iosIcSt11char_traitsIcEE5widenEc(ptr noundef nonnull align 8 dereferenceable(264) %8, i8 noundef signext 10)
  %10 = call noundef nonnull align 8 dereferenceable(8) ptr @_ZNSo3putEc(ptr noundef nonnull align 8 dereferenceable(8) %3, i8 noundef signext %9)
  %11 = call noundef nonnull align 8 dereferenceable(8) ptr @_ZSt5flushIcSt11char_traitsIcEERSt13basic_ostreamIT_T0_ES6_(ptr noundef nonnull align 8 dereferenceable(8) %10)
  ret ptr %11
}

; Function Attrs: mustprogress uwtable
define available_externally void @_ZNKSt7__cxx1119basic_ostringstreamIcSt11char_traitsIcESaIcEE3strEv(ptr dead_on_unwind noalias writable sret(%"class.std::__cxx11::basic_string") align 8 %0, ptr noundef nonnull align 8 dereferenceable(112) %1) #4 align 2 {
  %3 = alloca ptr, align 8
  %4 = alloca ptr, align 8
  store ptr %0, ptr %3, align 8
  store ptr %1, ptr %4, align 8, !tbaa !155
  %5 = load ptr, ptr %4, align 8
  %6 = getelementptr inbounds nuw %"class.std::__cxx11::basic_ostringstream", ptr %5, i32 0, i32 1
  call void @_ZNKSt7__cxx1115basic_stringbufIcSt11char_traitsIcESaIcEE3strEv(ptr dead_on_unwind writable sret(%"class.std::__cxx11::basic_string") align 8 %0, ptr noundef nonnull align 8 dereferenceable(104) %6)
  ret void
}

; Function Attrs: mustprogress nounwind uwtable
define available_externally void @_ZNSt7__cxx1119basic_ostringstreamIcSt11char_traitsIcESaIcEED1Ev(ptr noundef nonnull align 8 dereferenceable(112) %0) unnamed_addr #7 align 2 {
  %2 = alloca ptr, align 8
  store ptr %0, ptr %2, align 8, !tbaa !155
  %3 = load ptr, ptr %2, align 8
  call void @_ZNSt7__cxx1119basic_ostringstreamIcSt11char_traitsIcESaIcEED2Ev(ptr noundef nonnull align 8 dereferenceable(112) %3, ptr noundef @_ZTTNSt7__cxx1119basic_ostringstreamIcSt11char_traitsIcESaIcEEE) #3
  %4 = getelementptr inbounds i8, ptr %3, i64 112
  call void @_ZNSt8ios_baseD2Ev(ptr noundef nonnull align 8 dereferenceable(264) %4) #3
  ret void
}

; Function Attrs: mustprogress uwtable
define void @_ZN7testing8internal15ExpectationBaseC2EPKciRKNSt7__cxx1112basic_stringIcSt11char_traitsIcESaIcEEE(ptr noundef nonnull align 8 dereferenceable(264) %0, ptr noundef %1, i32 noundef %2, ptr noundef nonnull align 8 dereferenceable(32) %3) unnamed_addr #4 align 2 personality ptr @__gxx_personality_v0 {
  %5 = alloca ptr, align 8
  %6 = alloca ptr, align 8
  %7 = alloca i32, align 4
  %8 = alloca ptr, align 8
  %9 = alloca ptr, align 8
  %10 = alloca i32, align 4
  store ptr %0, ptr %5, align 8, !tbaa !157
  store ptr %1, ptr %6, align 8, !tbaa !12
  store i32 %2, ptr %7, align 4, !tbaa !3
  store ptr %3, ptr %8, align 8, !tbaa !10
  %11 = load ptr, ptr %5, align 8
  store ptr getelementptr inbounds inrange(-16, 32) ({ [6 x ptr] }, ptr @_ZTVN7testing8internal15ExpectationBaseE, i32 0, i32 0, i32 2), ptr %11, align 8, !tbaa !14
  %12 = getelementptr inbounds nuw %"class.testing::internal::ExpectationBase", ptr %11, i32 0, i32 1
  %13 = load ptr, ptr %6, align 8, !tbaa !12
  store ptr %13, ptr %12, align 8, !tbaa !159
  %14 = getelementptr inbounds nuw %"class.testing::internal::ExpectationBase", ptr %11, i32 0, i32 2
  %15 = load i32, ptr %7, align 4, !tbaa !3
  store i32 %15, ptr %14, align 8, !tbaa !183
  %16 = getelementptr inbounds nuw %"class.testing::internal::ExpectationBase", ptr %11, i32 0, i32 3
  %17 = load ptr, ptr %8, align 8, !tbaa !10
  call void @_ZNSt7__cxx1112basic_stringIcSt11char_traitsIcESaIcEEC2ERKS4_(ptr noundef nonnull align 8 dereferenceable(32) %16, ptr noundef nonnull align 8 dereferenceable(32) %17)
  %18 = getelementptr inbounds nuw %"class.testing::internal::ExpectationBase", ptr %11, i32 0, i32 4
  call void @_ZNSt7__cxx1112basic_stringIcSt11char_traitsIcESaIcEEC2Ev(ptr noundef nonnull align 8 dereferenceable(32) %18) #3
  %19 = getelementptr inbounds nuw %"class.testing::internal::ExpectationBase", ptr %11, i32 0, i32 5
  store i8 0, ptr %19, align 8, !tbaa !184
  %20 = getelementptr inbounds nuw %"class.testing::internal::ExpectationBase", ptr %11, i32 0, i32 6
  invoke void @_ZN7testing7ExactlyEi(ptr dead_on_unwind writable sret(%"class.testing::Cardinality") align 8 %20, i32 noundef 1)
          to label %21 unwind label %33

21:                                               ; preds = %4
  %22 = getelementptr inbounds nuw %"class.testing::internal::ExpectationBase", ptr %11, i32 0, i32 7
  call void @_ZN7testing14ExpectationSetC2Ev(ptr noundef nonnull align 8 dereferenceable(48) %22) #3
  %23 = getelementptr inbounds nuw %"class.testing::internal::ExpectationBase", ptr %11, i32 0, i32 8
  store i32 0, ptr %23, align 8, !tbaa !185
  %24 = getelementptr inbounds nuw %"class.testing::internal::ExpectationBase", ptr %11, i32 0, i32 9
  store i8 0, ptr %24, align 4, !tbaa !186
  %25 = getelementptr inbounds nuw %"class.testing::internal::ExpectationBase", ptr %11, i32 0, i32 10
  call void @_ZNSt6vectorIPKvSaIS1_EEC2Ev(ptr noundef nonnull align 8 dereferenceable(24) %25) #3
  %26 = getelementptr inbounds nuw %"class.testing::internal::ExpectationBase", ptr %11, i32 0, i32 11
  store i8 0, ptr %26, align 8, !tbaa !187
  %27 = getelementptr inbounds nuw %"class.testing::internal::ExpectationBase", ptr %11, i32 0, i32 12
  store i8 0, ptr %27, align 1, !tbaa !188
  %28 = getelementptr inbounds nuw %"class.testing::internal::ExpectationBase", ptr %11, i32 0, i32 13
  store i8 0, ptr %28, align 2, !tbaa !189
  %29 = getelementptr inbounds nuw %"class.testing::internal::ExpectationBase", ptr %11, i32 0, i32 14
  store i32 0, ptr %29, align 4, !tbaa !190
  %30 = getelementptr inbounds nuw %"class.testing::internal::ExpectationBase", ptr %11, i32 0, i32 15
  store i8 0, ptr %30, align 8, !tbaa !191
  %31 = getelementptr inbounds nuw %"class.testing::internal::ExpectationBase", ptr %11, i32 0, i32 16
  invoke void @_ZN7testing8internal5MutexC2Ev(ptr noundef nonnull align 8 dereferenceable(56) %31)
          to label %32 unwind label %37

32:                                               ; preds = %21
  ret void

33:                                               ; preds = %4
  %34 = landingpad { ptr, i32 }
          cleanup
  %35 = extractvalue { ptr, i32 } %34, 0
  store ptr %35, ptr %9, align 8
  %36 = extractvalue { ptr, i32 } %34, 1
  store i32 %36, ptr %10, align 4
  br label %41

37:                                               ; preds = %21
  %38 = landingpad { ptr, i32 }
          cleanup
  %39 = extractvalue { ptr, i32 } %38, 0
  store ptr %39, ptr %9, align 8
  %40 = extractvalue { ptr, i32 } %38, 1
  store i32 %40, ptr %10, align 4
  call void @_ZNSt6vectorIPKvSaIS1_EED2Ev(ptr noundef nonnull align 8 dereferenceable(24) %25) #3
  call void @_ZN7testing14ExpectationSetD2Ev(ptr noundef nonnull align 8 dereferenceable(48) %22) #3
  call void @_ZN7testing11CardinalityD2Ev(ptr noundef nonnull align 8 dereferenceable(16) %20) #3
  br label %41

41:                                               ; preds = %37, %33
  call void @_ZNSt7__cxx1112basic_stringIcSt11char_traitsIcESaIcEED2Ev(ptr noundef nonnull align 8 dereferenceable(32) %18) #3
  call void @_ZNSt7__cxx1112basic_stringIcSt11char_traitsIcESaIcEED2Ev(ptr noundef nonnull align 8 dereferenceable(32) %16) #3
  br label %42

42:                                               ; preds = %41
  %43 = load ptr, ptr %9, align 8
  %44 = load i32, ptr %10, align 4
  %45 = insertvalue { ptr, i32 } poison, ptr %43, 0
  %46 = insertvalue { ptr, i32 } %45, i32 %44, 1
  resume { ptr, i32 } %46
}

; Function Attrs: mustprogress nounwind uwtable
define linkonce_odr void @_ZN7testing14ExpectationSetC2Ev(ptr noundef nonnull align 8 dereferenceable(48) %0) unnamed_addr #7 comdat align 2 {
  %2 = alloca ptr, align 8
  store ptr %0, ptr %2, align 8, !tbaa !192
  %3 = load ptr, ptr %2, align 8
  %4 = getelementptr inbounds nuw %"class.testing::ExpectationSet", ptr %3, i32 0, i32 0
  call void @_ZNSt3setIN7testing11ExpectationENS1_4LessESaIS1_EEC2Ev(ptr noundef nonnull align 8 dereferenceable(48) %4) #3
  ret void
}

; Function Attrs: mustprogress nounwind uwtable
define linkonce_odr void @_ZNSt6vectorIPKvSaIS1_EEC2Ev(ptr noundef nonnull align 8 dereferenceable(24) %0) unnamed_addr #7 comdat align 2 {
  %2 = alloca ptr, align 8
  store ptr %0, ptr %2, align 8, !tbaa !194
  %3 = load ptr, ptr %2, align 8
  call void @_ZNSt12_Vector_baseIPKvSaIS1_EEC2Ev(ptr noundef nonnull align 8 dereferenceable(24) %3) #3
  ret void
}

; Function Attrs: mustprogress uwtable
define linkonce_odr void @_ZN7testing8internal5MutexC2Ev(ptr noundef nonnull align 8 dereferenceable(56) %0) unnamed_addr #4 comdat align 2 personality ptr @__gxx_personality_v0 {
  %2 = alloca ptr, align 8
  %3 = alloca i32, align 4
  %4 = alloca %"class.testing::internal::GTestLog", align 4
  %5 = alloca ptr, align 8
  %6 = alloca i32, align 4
  store ptr %0, ptr %2, align 8, !tbaa !196
  %7 = load ptr, ptr %2, align 8
  call void @llvm.lifetime.start.p0(i64 4, ptr %3) #3
  %8 = getelementptr inbounds nuw %"class.testing::internal::MutexBase", ptr %7, i32 0, i32 0
  %9 = call i32 @pthread_mutex_init(ptr noundef %8, ptr noundef null) #3
  store i32 %9, ptr %3, align 4, !tbaa !3
  %10 = load i32, ptr %3, align 4, !tbaa !3
  %11 = icmp ne i32 %10, 0
  br i1 %11, label %12, label %25

12:                                               ; preds = %1
  call void @llvm.lifetime.start.p0(i64 4, ptr %4) #3
  call void @_ZN7testing8internal8GTestLogC1ENS0_16GTestLogSeverityEPKci(ptr noundef nonnull align 4 dereferenceable(4) %4, i32 noundef 3, ptr noundef @.str.109, i32 noundef 1707)
  %13 = call noundef nonnull align 8 dereferenceable(8) ptr @_ZN7testing8internal8GTestLog9GetStreamEv(ptr noundef nonnull align 4 dereferenceable(4) %4)
  %14 = invoke noundef nonnull align 8 dereferenceable(8) ptr @_ZStlsISt11char_traitsIcEERSt13basic_ostreamIcT_ES5_PKc(ptr noundef nonnull align 8 dereferenceable(8) %13, ptr noundef @.str.110)
          to label %15 unwind label %21

15:                                               ; preds = %12
  %16 = invoke noundef nonnull align 8 dereferenceable(8) ptr @_ZStlsISt11char_traitsIcEERSt13basic_ostreamIcT_ES5_PKc(ptr noundef nonnull align 8 dereferenceable(8) %14, ptr noundef @.str.111)
          to label %17 unwind label %21

17:                                               ; preds = %15
  %18 = load i32, ptr %3, align 4, !tbaa !3
  %19 = invoke noundef nonnull align 8 dereferenceable(8) ptr @_ZNSolsEi(ptr noundef nonnull align 8 dereferenceable(8) %16, i32 noundef %18)
          to label %20 unwind label %21

20:                                               ; preds = %17
  call void @_ZN7testing8internal8GTestLogD1Ev(ptr noundef nonnull align 4 dereferenceable(4) %4) #3
  call void @llvm.lifetime.end.p0(i64 4, ptr %4) #3
  br label %25

21:                                               ; preds = %17, %15, %12
  %22 = landingpad { ptr, i32 }
          cleanup
  %23 = extractvalue { ptr, i32 } %22, 0
  store ptr %23, ptr %5, align 8
  %24 = extractvalue { ptr, i32 } %22, 1
  store i32 %24, ptr %6, align 4
  call void @_ZN7testing8internal8GTestLogD1Ev(ptr noundef nonnull align 4 dereferenceable(4) %4) #3
  call void @llvm.lifetime.end.p0(i64 4, ptr %4) #3
  call void @llvm.lifetime.end.p0(i64 4, ptr %3) #3
  br label %27

25:                                               ; preds = %20, %1
  call void @llvm.lifetime.end.p0(i64 4, ptr %3) #3
  %26 = getelementptr inbounds nuw %"class.testing::internal::MutexBase", ptr %7, i32 0, i32 1
  store i8 0, ptr %26, align 8, !tbaa !198
  ret void

27:                                               ; preds = %21
  %28 = load ptr, ptr %5, align 8
  %29 = load i32, ptr %6, align 4
  %30 = insertvalue { ptr, i32 } poison, ptr %28, 0
  %31 = insertvalue { ptr, i32 } %30, i32 %29, 1
  resume { ptr, i32 } %31
}

; Function Attrs: mustprogress nounwind uwtable
define linkonce_odr void @_ZNSt6vectorIPKvSaIS1_EED2Ev(ptr noundef nonnull align 8 dereferenceable(24) %0) unnamed_addr #7 comdat align 2 personality ptr @__gxx_personality_v0 {
  %2 = alloca ptr, align 8
  store ptr %0, ptr %2, align 8, !tbaa !194
  %3 = load ptr, ptr %2, align 8
  %4 = getelementptr inbounds nuw %"struct.std::_Vector_base.31", ptr %3, i32 0, i32 0
  %5 = getelementptr inbounds nuw %"struct.std::_Vector_base<const void *, std::allocator<const void *>>::_Vector_impl_data", ptr %4, i32 0, i32 0
  %6 = load ptr, ptr %5, align 8, !tbaa !199
  %7 = getelementptr inbounds nuw %"struct.std::_Vector_base.31", ptr %3, i32 0, i32 0
  %8 = getelementptr inbounds nuw %"struct.std::_Vector_base<const void *, std::allocator<const void *>>::_Vector_impl_data", ptr %7, i32 0, i32 1
  %9 = load ptr, ptr %8, align 8, !tbaa !200
  %10 = call noundef nonnull align 1 dereferenceable(1) ptr @_ZNSt12_Vector_baseIPKvSaIS1_EE19_M_get_Tp_allocatorEv(ptr noundef nonnull align 8 dereferenceable(24) %3) #3
  invoke void @_ZSt8_DestroyIPPKvS1_EvT_S3_RSaIT0_E(ptr noundef %6, ptr noundef %9, ptr noundef nonnull align 1 dereferenceable(1) %10)
          to label %11 unwind label %12

11:                                               ; preds = %1
  call void @_ZNSt12_Vector_baseIPKvSaIS1_EED2Ev(ptr noundef nonnull align 8 dereferenceable(24) %3) #3
  ret void

12:                                               ; preds = %1
  %13 = landingpad { ptr, i32 }
          catch ptr null
  %14 = extractvalue { ptr, i32 } %13, 0
  call void @__clang_call_terminate(ptr %14) #26
  unreachable
}

; Function Attrs: inlinehint mustprogress nounwind uwtable
define linkonce_odr void @_ZN7testing14ExpectationSetD2Ev(ptr noundef nonnull align 8 dereferenceable(48) %0) unnamed_addr #10 comdat align 2 {
  %2 = alloca ptr, align 8
  store ptr %0, ptr %2, align 8, !tbaa !192
  %3 = load ptr, ptr %2, align 8
  %4 = getelementptr inbounds nuw %"class.testing::ExpectationSet", ptr %3, i32 0, i32 0
  call void @_ZNSt3setIN7testing11ExpectationENS1_4LessESaIS1_EED2Ev(ptr noundef nonnull align 8 dereferenceable(48) %4) #3
  ret void
}

; Function Attrs: inlinehint mustprogress nounwind uwtable
define linkonce_odr void @_ZN7testing11CardinalityD2Ev(ptr noundef nonnull align 8 dereferenceable(16) %0) unnamed_addr #10 comdat align 2 {
  %2 = alloca ptr, align 8
  store ptr %0, ptr %2, align 8, !tbaa !22
  %3 = load ptr, ptr %2, align 8
  %4 = getelementptr inbounds nuw %"class.testing::Cardinality", ptr %3, i32 0, i32 0
  call void @_ZNSt12__shared_ptrIKN7testing20CardinalityInterfaceELN9__gnu_cxx12_Lock_policyE2EED2Ev(ptr noundef nonnull align 8 dereferenceable(16) %4) #3
  ret void
}

; Function Attrs: mustprogress nounwind uwtable
define void @_ZN7testing8internal15ExpectationBaseD2Ev(ptr noundef nonnull align 8 dereferenceable(264) %0) unnamed_addr #7 align 2 {
  %2 = alloca ptr, align 8
  store ptr %0, ptr %2, align 8, !tbaa !157
  %3 = load ptr, ptr %2, align 8
  store ptr getelementptr inbounds inrange(-16, 32) ({ [6 x ptr] }, ptr @_ZTVN7testing8internal15ExpectationBaseE, i32 0, i32 0, i32 2), ptr %3, align 8, !tbaa !14
  %4 = getelementptr inbounds nuw %"class.testing::internal::ExpectationBase", ptr %3, i32 0, i32 16
  call void @_ZN7testing8internal5MutexD2Ev(ptr noundef nonnull align 8 dereferenceable(56) %4) #3
  %5 = getelementptr inbounds nuw %"class.testing::internal::ExpectationBase", ptr %3, i32 0, i32 10
  call void @_ZNSt6vectorIPKvSaIS1_EED2Ev(ptr noundef nonnull align 8 dereferenceable(24) %5) #3
  %6 = getelementptr inbounds nuw %"class.testing::internal::ExpectationBase", ptr %3, i32 0, i32 7
  call void @_ZN7testing14ExpectationSetD2Ev(ptr noundef nonnull align 8 dereferenceable(48) %6) #3
  %7 = getelementptr inbounds nuw %"class.testing::internal::ExpectationBase", ptr %3, i32 0, i32 6
  call void @_ZN7testing11CardinalityD2Ev(ptr noundef nonnull align 8 dereferenceable(16) %7) #3
  %8 = getelementptr inbounds nuw %"class.testing::internal::ExpectationBase", ptr %3, i32 0, i32 4
  call void @_ZNSt7__cxx1112basic_stringIcSt11char_traitsIcESaIcEED2Ev(ptr noundef nonnull align 8 dereferenceable(32) %8) #3
  %9 = getelementptr inbounds nuw %"class.testing::internal::ExpectationBase", ptr %3, i32 0, i32 3
  call void @_ZNSt7__cxx1112basic_stringIcSt11char_traitsIcESaIcEED2Ev(ptr noundef nonnull align 8 dereferenceable(32) %9) #3
  ret void
}

; Function Attrs: mustprogress nounwind uwtable
define linkonce_odr void @_ZN7testing8internal5MutexD2Ev(ptr noundef nonnull align 8 dereferenceable(56) %0) unnamed_addr #7 comdat align 2 personality ptr @__gxx_personality_v0 {
  %2 = alloca ptr, align 8
  %3 = alloca i32, align 4
  %4 = alloca %"class.testing::internal::GTestLog", align 4
  store ptr %0, ptr %2, align 8, !tbaa !196
  %5 = load ptr, ptr %2, align 8
  call void @llvm.lifetime.start.p0(i64 4, ptr %3) #3
  %6 = getelementptr inbounds nuw %"class.testing::internal::MutexBase", ptr %5, i32 0, i32 0
  %7 = call i32 @pthread_mutex_destroy(ptr noundef %6) #3
  store i32 %7, ptr %3, align 4, !tbaa !3
  %8 = load i32, ptr %3, align 4, !tbaa !3
  %9 = icmp ne i32 %8, 0
  br i1 %9, label %10, label %20

10:                                               ; preds = %1
  call void @llvm.lifetime.start.p0(i64 4, ptr %4) #3
  invoke void @_ZN7testing8internal8GTestLogC1ENS0_16GTestLogSeverityEPKci(ptr noundef nonnull align 4 dereferenceable(4) %4, i32 noundef 3, ptr noundef @.str.109, i32 noundef 1710)
          to label %11 unwind label %21

11:                                               ; preds = %10
  %12 = call noundef nonnull align 8 dereferenceable(8) ptr @_ZN7testing8internal8GTestLog9GetStreamEv(ptr noundef nonnull align 4 dereferenceable(4) %4)
  %13 = invoke noundef nonnull align 8 dereferenceable(8) ptr @_ZStlsISt11char_traitsIcEERSt13basic_ostreamIcT_ES5_PKc(ptr noundef nonnull align 8 dereferenceable(8) %12, ptr noundef @.str.112)
          to label %14 unwind label %21

14:                                               ; preds = %11
  %15 = invoke noundef nonnull align 8 dereferenceable(8) ptr @_ZStlsISt11char_traitsIcEERSt13basic_ostreamIcT_ES5_PKc(ptr noundef nonnull align 8 dereferenceable(8) %13, ptr noundef @.str.111)
          to label %16 unwind label %21

16:                                               ; preds = %14
  %17 = load i32, ptr %3, align 4, !tbaa !3
  %18 = invoke noundef nonnull align 8 dereferenceable(8) ptr @_ZNSolsEi(ptr noundef nonnull align 8 dereferenceable(8) %15, i32 noundef %17)
          to label %19 unwind label %21

19:                                               ; preds = %16
  call void @_ZN7testing8internal8GTestLogD1Ev(ptr noundef nonnull align 4 dereferenceable(4) %4) #3
  call void @llvm.lifetime.end.p0(i64 4, ptr %4) #3
  br label %20

20:                                               ; preds = %19, %1
  call void @llvm.lifetime.end.p0(i64 4, ptr %3) #3
  ret void

21:                                               ; preds = %16, %14, %11, %10
  %22 = landingpad { ptr, i32 }
          catch ptr null
  %23 = extractvalue { ptr, i32 } %22, 0
  call void @__clang_call_terminate(ptr %23) #26
  unreachable
}

; Function Attrs: mustprogress nounwind uwtable
define void @_ZN7testing8internal15ExpectationBaseD0Ev(ptr noundef nonnull align 8 dereferenceable(264) %0) unnamed_addr #7 align 2 {
  %2 = alloca ptr, align 8
  store ptr %0, ptr %2, align 8, !tbaa !157
  call void @llvm.trap() #26
  unreachable
}

; Function Attrs: cold noreturn nounwind memory(inaccessiblemem: write)
declare void @llvm.trap() #13

; Function Attrs: mustprogress nounwind uwtable
define void @_ZN7testing8internal15ExpectationBase18SpecifyCardinalityERKNS_11CardinalityE(ptr noundef nonnull align 8 dereferenceable(264) %0, ptr noundef nonnull align 8 dereferenceable(16) %1) #7 align 2 {
  %3 = alloca ptr, align 8
  %4 = alloca ptr, align 8
  store ptr %0, ptr %3, align 8, !tbaa !157
  store ptr %1, ptr %4, align 8, !tbaa !22
  %5 = load ptr, ptr %3, align 8
  %6 = getelementptr inbounds nuw %"class.testing::internal::ExpectationBase", ptr %5, i32 0, i32 5
  store i8 1, ptr %6, align 8, !tbaa !184
  %7 = load ptr, ptr %4, align 8, !tbaa !22
  %8 = getelementptr inbounds nuw %"class.testing::internal::ExpectationBase", ptr %5, i32 0, i32 6
  %9 = call noundef nonnull align 8 dereferenceable(16) ptr @_ZN7testing11CardinalityaSERKS0_(ptr noundef nonnull align 8 dereferenceable(16) %8, ptr noundef nonnull align 8 dereferenceable(16) %7) #3
  ret void
}

; Function Attrs: inlinehint mustprogress nounwind uwtable
define linkonce_odr noundef nonnull align 8 dereferenceable(16) ptr @_ZN7testing11CardinalityaSERKS0_(ptr noundef nonnull align 8 dereferenceable(16) %0, ptr noundef nonnull align 8 dereferenceable(16) %1) #10 comdat align 2 {
  %3 = alloca ptr, align 8
  %4 = alloca ptr, align 8
  store ptr %0, ptr %3, align 8, !tbaa !22
  store ptr %1, ptr %4, align 8, !tbaa !22
  %5 = load ptr, ptr %3, align 8
  %6 = getelementptr inbounds nuw %"class.testing::Cardinality", ptr %5, i32 0, i32 0
  %7 = load ptr, ptr %4, align 8, !tbaa !22
  %8 = getelementptr inbounds nuw %"class.testing::Cardinality", ptr %7, i32 0, i32 0
  %9 = call noundef nonnull align 8 dereferenceable(16) ptr @_ZNSt10shared_ptrIKN7testing20CardinalityInterfaceEEaSERKS3_(ptr noundef nonnull align 8 dereferenceable(16) %6, ptr noundef nonnull align 8 dereferenceable(16) %8) #3
  ret ptr %5
}

; Function Attrs: mustprogress uwtable
define void @_ZN7testing8internal15ExpectationBase22RetireAllPreRequisitesEv(ptr noundef nonnull align 8 dereferenceable(264) %0) #4 align 2 personality ptr @__gxx_personality_v0 {
  %2 = alloca ptr, align 8
  %3 = alloca %"class.std::vector.35", align 8
  %4 = alloca ptr, align 8
  %5 = alloca %"class.std::allocator.37", align 1
  %6 = alloca ptr, align 8
  %7 = alloca i32, align 4
  %8 = alloca ptr, align 8
  %9 = alloca %"struct.std::_Rb_tree_const_iterator", align 8
  %10 = alloca %"struct.std::_Rb_tree_const_iterator", align 8
  %11 = alloca ptr, align 8
  store ptr %0, ptr %2, align 8, !tbaa !157
  %12 = load ptr, ptr %2, align 8
  %13 = call noundef zeroext i1 @_ZNK7testing8internal15ExpectationBase10is_retiredEv(ptr noundef nonnull align 8 dereferenceable(264) %12)
  br i1 %13, label %14, label %15

14:                                               ; preds = %1
  br label %70

15:                                               ; preds = %1
  call void @llvm.lifetime.start.p0(i64 24, ptr %3) #3
  call void @llvm.lifetime.start.p0(i64 8, ptr %4) #3
  store ptr %12, ptr %4, align 8, !tbaa !157
  call void @llvm.lifetime.start.p0(i64 1, ptr %5) #3
  call void @_ZNSaIPN7testing8internal15ExpectationBaseEEC2Ev(ptr noundef nonnull align 1 dereferenceable(1) %5) #3
  invoke void @_ZNSt6vectorIPN7testing8internal15ExpectationBaseESaIS3_EEC2EmRKS3_RKS4_(ptr noundef nonnull align 8 dereferenceable(24) %3, i64 noundef 1, ptr noundef nonnull align 8 dereferenceable(8) %4, ptr noundef nonnull align 1 dereferenceable(1) %5)
          to label %16 unwind label %36

16:                                               ; preds = %15
  call void @_ZNSt15__new_allocatorIPN7testing8internal15ExpectationBaseEED2Ev(ptr noundef nonnull align 1 dereferenceable(1) %5) #3
  call void @llvm.lifetime.end.p0(i64 1, ptr %5) #3
  call void @llvm.lifetime.end.p0(i64 8, ptr %4) #3
  br label %17

17:                                               ; preds = %68, %16
  %18 = call noundef zeroext i1 @_ZNKSt6vectorIPN7testing8internal15ExpectationBaseESaIS3_EE5emptyEv(ptr noundef nonnull align 8 dereferenceable(24) %3) #3
  %19 = xor i1 %18, true
  br i1 %19, label %20, label %69

20:                                               ; preds = %17
  call void @llvm.lifetime.start.p0(i64 8, ptr %8) #3
  %21 = call noundef nonnull align 8 dereferenceable(8) ptr @_ZNSt6vectorIPN7testing8internal15ExpectationBaseESaIS3_EE4backEv(ptr noundef nonnull align 8 dereferenceable(24) %3) #3
  %22 = load ptr, ptr %21, align 8, !tbaa !157
  store ptr %22, ptr %8, align 8, !tbaa !157
  call void @_ZNSt6vectorIPN7testing8internal15ExpectationBaseESaIS3_EE8pop_backEv(ptr noundef nonnull align 8 dereferenceable(24) %3) #3
  call void @llvm.lifetime.start.p0(i64 8, ptr %9) #3
  %23 = load ptr, ptr %8, align 8, !tbaa !157
  %24 = getelementptr inbounds nuw %"class.testing::internal::ExpectationBase", ptr %23, i32 0, i32 7
  %25 = invoke ptr @_ZNK7testing14ExpectationSet5beginEv(ptr noundef nonnull align 8 dereferenceable(48) %24)
          to label %26 unwind label %40

26:                                               ; preds = %20
  %27 = getelementptr inbounds nuw %"struct.std::_Rb_tree_const_iterator", ptr %9, i32 0, i32 0
  store ptr %25, ptr %27, align 8
  br label %28

28:                                               ; preds = %65, %26
  call void @llvm.lifetime.start.p0(i64 8, ptr %10) #3
  %29 = load ptr, ptr %8, align 8, !tbaa !157
  %30 = getelementptr inbounds nuw %"class.testing::internal::ExpectationBase", ptr %29, i32 0, i32 7
  %31 = invoke ptr @_ZNK7testing14ExpectationSet3endEv(ptr noundef nonnull align 8 dereferenceable(48) %30)
          to label %32 unwind label %44

32:                                               ; preds = %28
  %33 = getelementptr inbounds nuw %"struct.std::_Rb_tree_const_iterator", ptr %10, i32 0, i32 0
  store ptr %31, ptr %33, align 8
  %34 = call noundef zeroext i1 @_ZStneRKSt23_Rb_tree_const_iteratorIN7testing11ExpectationEES4_(ptr noundef nonnull align 8 dereferenceable(8) %9, ptr noundef nonnull align 8 dereferenceable(8) %10) #3
  call void @llvm.lifetime.end.p0(i64 8, ptr %10) #3
  br i1 %34, label %48, label %35

35:                                               ; preds = %32
  call void @llvm.lifetime.end.p0(i64 8, ptr %9) #3
  br label %68

36:                                               ; preds = %15
  %37 = landingpad { ptr, i32 }
          cleanup
  %38 = extractvalue { ptr, i32 } %37, 0
  store ptr %38, ptr %6, align 8
  %39 = extractvalue { ptr, i32 } %37, 1
  store i32 %39, ptr %7, align 4
  call void @_ZNSt15__new_allocatorIPN7testing8internal15ExpectationBaseEED2Ev(ptr noundef nonnull align 1 dereferenceable(1) %5) #3
  call void @llvm.lifetime.end.p0(i64 1, ptr %5) #3
  call void @llvm.lifetime.end.p0(i64 8, ptr %4) #3
  br label %71

40:                                               ; preds = %20
  %41 = landingpad { ptr, i32 }
          cleanup
  %42 = extractvalue { ptr, i32 } %41, 0
  store ptr %42, ptr %6, align 8
  %43 = extractvalue { ptr, i32 } %41, 1
  store i32 %43, ptr %7, align 4
  br label %67

44:                                               ; preds = %28
  %45 = landingpad { ptr, i32 }
          cleanup
  %46 = extractvalue { ptr, i32 } %45, 0
  store ptr %46, ptr %6, align 8
  %47 = extractvalue { ptr, i32 } %45, 1
  store i32 %47, ptr %7, align 4
  call void @llvm.lifetime.end.p0(i64 8, ptr %10) #3
  br label %67

48:                                               ; preds = %32
  call void @llvm.lifetime.start.p0(i64 8, ptr %11) #3
  %49 = call noundef ptr @_ZNKSt23_Rb_tree_const_iteratorIN7testing11ExpectationEEptEv(ptr noundef nonnull align 8 dereferenceable(8) %9) #3
  %50 = invoke noundef nonnull align 8 dereferenceable(16) ptr @_ZNK7testing11Expectation16expectation_baseEv(ptr noundef nonnull align 8 dereferenceable(16) %49)
          to label %51 unwind label %60

51:                                               ; preds = %48
  %52 = call noundef ptr @_ZNKSt12__shared_ptrIN7testing8internal15ExpectationBaseELN9__gnu_cxx12_Lock_policyE2EE3getEv(ptr noundef nonnull align 8 dereferenceable(16) %50) #3
  store ptr %52, ptr %11, align 8, !tbaa !157
  %53 = load ptr, ptr %11, align 8, !tbaa !157
  %54 = invoke noundef zeroext i1 @_ZNK7testing8internal15ExpectationBase10is_retiredEv(ptr noundef nonnull align 8 dereferenceable(264) %53)
          to label %55 unwind label %60

55:                                               ; preds = %51
  br i1 %54, label %64, label %56

56:                                               ; preds = %55
  %57 = load ptr, ptr %11, align 8, !tbaa !157
  invoke void @_ZN7testing8internal15ExpectationBase6RetireEv(ptr noundef nonnull align 8 dereferenceable(264) %57)
          to label %58 unwind label %60

58:                                               ; preds = %56
  invoke void @_ZNSt6vectorIPN7testing8internal15ExpectationBaseESaIS3_EE9push_backERKS3_(ptr noundef nonnull align 8 dereferenceable(24) %3, ptr noundef nonnull align 8 dereferenceable(8) %11)
          to label %59 unwind label %60

59:                                               ; preds = %58
  br label %64

60:                                               ; preds = %58, %56, %51, %48
  %61 = landingpad { ptr, i32 }
          cleanup
  %62 = extractvalue { ptr, i32 } %61, 0
  store ptr %62, ptr %6, align 8
  %63 = extractvalue { ptr, i32 } %61, 1
  store i32 %63, ptr %7, align 4
  call void @llvm.lifetime.end.p0(i64 8, ptr %11) #3
  br label %67

64:                                               ; preds = %59, %55
  call void @llvm.lifetime.end.p0(i64 8, ptr %11) #3
  br label %65

65:                                               ; preds = %64
  %66 = call noundef nonnull align 8 dereferenceable(8) ptr @_ZNSt23_Rb_tree_const_iteratorIN7testing11ExpectationEEppEv(ptr noundef nonnull align 8 dereferenceable(8) %9) #3
  br label %28, !llvm.loop !201

67:                                               ; preds = %60, %44, %40
  call void @llvm.lifetime.end.p0(i64 8, ptr %9) #3
  call void @llvm.lifetime.end.p0(i64 8, ptr %8) #3
  call void @_ZNSt6vectorIPN7testing8internal15ExpectationBaseESaIS3_EED2Ev(ptr noundef nonnull align 8 dereferenceable(24) %3) #3
  br label %71

68:                                               ; preds = %35
  call void @llvm.lifetime.end.p0(i64 8, ptr %8) #3
  br label %17, !llvm.loop !202

69:                                               ; preds = %17
  call void @_ZNSt6vectorIPN7testing8internal15ExpectationBaseESaIS3_EED2Ev(ptr noundef nonnull align 8 dereferenceable(24) %3) #3
  call void @llvm.lifetime.end.p0(i64 24, ptr %3) #3
  br label %70

70:                                               ; preds = %69, %14
  ret void

71:                                               ; preds = %67, %36
  call void @llvm.lifetime.end.p0(i64 24, ptr %3) #3
  br label %72

72:                                               ; preds = %71
  %73 = load ptr, ptr %6, align 8
  %74 = load i32, ptr %7, align 4
  %75 = insertvalue { ptr, i32 } poison, ptr %73, 0
  %76 = insertvalue { ptr, i32 } %75, i32 %74, 1
  resume { ptr, i32 } %76
}

; Function Attrs: mustprogress uwtable
define linkonce_odr noundef zeroext i1 @_ZNK7testing8internal15ExpectationBase10is_retiredEv(ptr noundef nonnull align 8 dereferenceable(264) %0) #4 comdat align 2 {
  %2 = alloca ptr, align 8
  store ptr %0, ptr %2, align 8, !tbaa !157
  %3 = load ptr, ptr %2, align 8
  call void @_ZNK7testing8internal9MutexBase10AssertHeldEv(ptr noundef nonnull align 8 dereferenceable(56) @_ZN7testing8internal13g_gmock_mutexE)
  %4 = getelementptr inbounds nuw %"class.testing::internal::ExpectationBase", ptr %3, i32 0, i32 9
  %5 = load i8, ptr %4, align 4, !tbaa !186, !range !52, !noundef !53
  %6 = trunc i8 %5 to i1
  ret i1 %6
}

; Function Attrs: mustprogress nounwind uwtable
define linkonce_odr void @_ZNSaIPN7testing8internal15ExpectationBaseEEC2Ev(ptr noundef nonnull align 1 dereferenceable(1) %0) unnamed_addr #7 comdat align 2 {
  %2 = alloca ptr, align 8
  store ptr %0, ptr %2, align 8, !tbaa !203
  %3 = load ptr, ptr %2, align 8
  call void @_ZNSt15__new_allocatorIPN7testing8internal15ExpectationBaseEEC2Ev(ptr noundef nonnull align 1 dereferenceable(1) %3) #3
  ret void
}

; Function Attrs: mustprogress uwtable
define linkonce_odr void @_ZNSt6vectorIPN7testing8internal15ExpectationBaseESaIS3_EEC2EmRKS3_RKS4_(ptr noundef nonnull align 8 dereferenceable(24) %0, i64 noundef %1, ptr noundef nonnull align 8 dereferenceable(8) %2, ptr noundef nonnull align 1 dereferenceable(1) %3) unnamed_addr #4 comdat align 2 personality ptr @__gxx_personality_v0 {
  %5 = alloca ptr, align 8
  %6 = alloca i64, align 8
  %7 = alloca ptr, align 8
  %8 = alloca ptr, align 8
  %9 = alloca ptr, align 8
  %10 = alloca i32, align 4
  store ptr %0, ptr %5, align 8, !tbaa !205
  store i64 %1, ptr %6, align 8, !tbaa !30
  store ptr %2, ptr %7, align 8, !tbaa !207
  store ptr %3, ptr %8, align 8, !tbaa !203
  %11 = load ptr, ptr %5, align 8
  %12 = load i64, ptr %6, align 8, !tbaa !30
  %13 = load ptr, ptr %8, align 8, !tbaa !203
  %14 = call noundef i64 @_ZNSt6vectorIPN7testing8internal15ExpectationBaseESaIS3_EE17_S_check_init_lenEmRKS4_(i64 noundef %12, ptr noundef nonnull align 1 dereferenceable(1) %13)
  %15 = load ptr, ptr %8, align 8, !tbaa !203
  call void @_ZNSt12_Vector_baseIPN7testing8internal15ExpectationBaseESaIS3_EEC2EmRKS4_(ptr noundef nonnull align 8 dereferenceable(24) %11, i64 noundef %14, ptr noundef nonnull align 1 dereferenceable(1) %15)
  %16 = load i64, ptr %6, align 8, !tbaa !30
  %17 = load ptr, ptr %7, align 8, !tbaa !207
  invoke void @_ZNSt6vectorIPN7testing8internal15ExpectationBaseESaIS3_EE18_M_fill_initializeEmRKS3_(ptr noundef nonnull align 8 dereferenceable(24) %11, i64 noundef %16, ptr noundef nonnull align 8 dereferenceable(8) %17)
          to label %18 unwind label %19

18:                                               ; preds = %4
  ret void

19:                                               ; preds = %4
  %20 = landingpad { ptr, i32 }
          cleanup
  %21 = extractvalue { ptr, i32 } %20, 0
  store ptr %21, ptr %9, align 8
  %22 = extractvalue { ptr, i32 } %20, 1
  store i32 %22, ptr %10, align 4
  call void @_ZNSt12_Vector_baseIPN7testing8internal15ExpectationBaseESaIS3_EED2Ev(ptr noundef nonnull align 8 dereferenceable(24) %11) #3
  br label %23

23:                                               ; preds = %19
  %24 = load ptr, ptr %9, align 8
  %25 = load i32, ptr %10, align 4
  %26 = insertvalue { ptr, i32 } poison, ptr %24, 0
  %27 = insertvalue { ptr, i32 } %26, i32 %25, 1
  resume { ptr, i32 } %27
}

; Function Attrs: mustprogress nounwind uwtable
define linkonce_odr noundef zeroext i1 @_ZNKSt6vectorIPN7testing8internal15ExpectationBaseESaIS3_EE5emptyEv(ptr noundef nonnull align 8 dereferenceable(24) %0) #7 comdat align 2 {
  %2 = alloca ptr, align 8
  %3 = alloca %"class.__gnu_cxx::__normal_iterator.142", align 8
  %4 = alloca %"class.__gnu_cxx::__normal_iterator.142", align 8
  store ptr %0, ptr %2, align 8, !tbaa !205
  %5 = load ptr, ptr %2, align 8
  call void @llvm.lifetime.start.p0(i64 8, ptr %3) #3
  %6 = call ptr @_ZNKSt6vectorIPN7testing8internal15ExpectationBaseESaIS3_EE5beginEv(ptr noundef nonnull align 8 dereferenceable(24) %5) #3
  %7 = getelementptr inbounds nuw %"class.__gnu_cxx::__normal_iterator.142", ptr %3, i32 0, i32 0
  store ptr %6, ptr %7, align 8
  call void @llvm.lifetime.start.p0(i64 8, ptr %4) #3
  %8 = call ptr @_ZNKSt6vectorIPN7testing8internal15ExpectationBaseESaIS3_EE3endEv(ptr noundef nonnull align 8 dereferenceable(24) %5) #3
  %9 = getelementptr inbounds nuw %"class.__gnu_cxx::__normal_iterator.142", ptr %4, i32 0, i32 0
  store ptr %8, ptr %9, align 8
  %10 = call noundef zeroext i1 @_ZN9__gnu_cxxeqIPKPN7testing8internal15ExpectationBaseESt6vectorIS4_SaIS4_EEEEbRKNS_17__normal_iteratorIT_T0_EESF_(ptr noundef nonnull align 8 dereferenceable(8) %3, ptr noundef nonnull align 8 dereferenceable(8) %4) #3
  call void @llvm.lifetime.end.p0(i64 8, ptr %4) #3
  call void @llvm.lifetime.end.p0(i64 8, ptr %3) #3
  ret i1 %10
}

; Function Attrs: mustprogress nounwind uwtable
define linkonce_odr noundef nonnull align 8 dereferenceable(8) ptr @_ZNSt6vectorIPN7testing8internal15ExpectationBaseESaIS3_EE4backEv(ptr noundef nonnull align 8 dereferenceable(24) %0) #7 comdat align 2 {
  %2 = alloca ptr, align 8
  %3 = alloca %"class.__gnu_cxx::__normal_iterator.143", align 8
  %4 = alloca %"class.__gnu_cxx::__normal_iterator.143", align 8
  store ptr %0, ptr %2, align 8, !tbaa !205
  %5 = load ptr, ptr %2, align 8
  call void @llvm.lifetime.start.p0(i64 8, ptr %3) #3
  call void @llvm.lifetime.start.p0(i64 8, ptr %4) #3
  %6 = call ptr @_ZNSt6vectorIPN7testing8internal15ExpectationBaseESaIS3_EE3endEv(ptr noundef nonnull align 8 dereferenceable(24) %5) #3
  %7 = getelementptr inbounds nuw %"class.__gnu_cxx::__normal_iterator.143", ptr %4, i32 0, i32 0
  store ptr %6, ptr %7, align 8
  %8 = call ptr @_ZNK9__gnu_cxx17__normal_iteratorIPPN7testing8internal15ExpectationBaseESt6vectorIS4_SaIS4_EEEmiEl(ptr noundef nonnull align 8 dereferenceable(8) %4, i64 noundef 1) #3
  %9 = getelementptr inbounds nuw %"class.__gnu_cxx::__normal_iterator.143", ptr %3, i32 0, i32 0
  store ptr %8, ptr %9, align 8
  %10 = call noundef nonnull align 8 dereferenceable(8) ptr @_ZNK9__gnu_cxx17__normal_iteratorIPPN7testing8internal15ExpectationBaseESt6vectorIS4_SaIS4_EEEdeEv(ptr noundef nonnull align 8 dereferenceable(8) %3) #3
  call void @llvm.lifetime.end.p0(i64 8, ptr %4) #3
  call void @llvm.lifetime.end.p0(i64 8, ptr %3) #3
  ret ptr %10
}

; Function Attrs: mustprogress nounwind uwtable
define linkonce_odr void @_ZNSt6vectorIPN7testing8internal15ExpectationBaseESaIS3_EE8pop_backEv(ptr noundef nonnull align 8 dereferenceable(24) %0) #7 comdat align 2 {
  %2 = alloca ptr, align 8
  store ptr %0, ptr %2, align 8, !tbaa !205
  %3 = load ptr, ptr %2, align 8
  %4 = getelementptr inbounds nuw %"struct.std::_Vector_base.36", ptr %3, i32 0, i32 0
  %5 = getelementptr inbounds nuw %"struct.std::_Vector_base<testing::internal::ExpectationBase *, std::allocator<testing::internal::ExpectationBase *>>::_Vector_impl_data", ptr %4, i32 0, i32 1
  %6 = load ptr, ptr %5, align 8, !tbaa !209
  %7 = getelementptr inbounds ptr, ptr %6, i32 -1
  store ptr %7, ptr %5, align 8, !tbaa !209
  %8 = getelementptr inbounds nuw %"struct.std::_Vector_base.36", ptr %3, i32 0, i32 0
  %9 = getelementptr inbounds nuw %"struct.std::_Vector_base.36", ptr %3, i32 0, i32 0
  %10 = getelementptr inbounds nuw %"struct.std::_Vector_base<testing::internal::ExpectationBase *, std::allocator<testing::internal::ExpectationBase *>>::_Vector_impl_data", ptr %9, i32 0, i32 1
  %11 = load ptr, ptr %10, align 8, !tbaa !209
  call void @_ZNSt16allocator_traitsISaIPN7testing8internal15ExpectationBaseEEE7destroyIS3_EEvRS4_PT_(ptr noundef nonnull align 1 dereferenceable(1) %8, ptr noundef %11) #3
  ret void
}

; Function Attrs: mustprogress nounwind uwtable
define linkonce_odr ptr @_ZNK7testing14ExpectationSet5beginEv(ptr noundef nonnull align 8 dereferenceable(48) %0) #7 comdat align 2 {
  %2 = alloca %"struct.std::_Rb_tree_const_iterator", align 8
  %3 = alloca ptr, align 8
  store ptr %0, ptr %3, align 8, !tbaa !192
  %4 = load ptr, ptr %3, align 8
  %5 = getelementptr inbounds nuw %"class.testing::ExpectationSet", ptr %4, i32 0, i32 0
  %6 = call ptr @_ZNKSt3setIN7testing11ExpectationENS1_4LessESaIS1_EE5beginEv(ptr noundef nonnull align 8 dereferenceable(48) %5) #3
  %7 = getelementptr inbounds nuw %"struct.std::_Rb_tree_const_iterator", ptr %2, i32 0, i32 0
  store ptr %6, ptr %7, align 8
  %8 = getelementptr inbounds nuw %"struct.std::_Rb_tree_const_iterator", ptr %2, i32 0, i32 0
  %9 = load ptr, ptr %8, align 8
  ret ptr %9
}

; Function Attrs: mustprogress nounwind uwtable
define linkonce_odr noundef zeroext i1 @_ZStneRKSt23_Rb_tree_const_iteratorIN7testing11ExpectationEES4_(ptr noundef nonnull align 8 dereferenceable(8) %0, ptr noundef nonnull align 8 dereferenceable(8) %1) #7 comdat {
  %3 = alloca ptr, align 8
  %4 = alloca ptr, align 8
  store ptr %0, ptr %3, align 8, !tbaa !211
  store ptr %1, ptr %4, align 8, !tbaa !211
  %5 = load ptr, ptr %3, align 8, !tbaa !211
  %6 = getelementptr inbounds nuw %"struct.std::_Rb_tree_const_iterator", ptr %5, i32 0, i32 0
  %7 = load ptr, ptr %6, align 8, !tbaa !213
  %8 = load ptr, ptr %4, align 8, !tbaa !211
  %9 = getelementptr inbounds nuw %"struct.std::_Rb_tree_const_iterator", ptr %8, i32 0, i32 0
  %10 = load ptr, ptr %9, align 8, !tbaa !213
  %11 = icmp ne ptr %7, %10
  ret i1 %11
}

; Function Attrs: mustprogress nounwind uwtable
define linkonce_odr ptr @_ZNK7testing14ExpectationSet3endEv(ptr noundef nonnull align 8 dereferenceable(48) %0) #7 comdat align 2 {
  %2 = alloca %"struct.std::_Rb_tree_const_iterator", align 8
  %3 = alloca ptr, align 8
  store ptr %0, ptr %3, align 8, !tbaa !192
  %4 = load ptr, ptr %3, align 8
  %5 = getelementptr inbounds nuw %"class.testing::ExpectationSet", ptr %4, i32 0, i32 0
  %6 = call ptr @_ZNKSt3setIN7testing11ExpectationENS1_4LessESaIS1_EE3endEv(ptr noundef nonnull align 8 dereferenceable(48) %5) #3
  %7 = getelementptr inbounds nuw %"struct.std::_Rb_tree_const_iterator", ptr %2, i32 0, i32 0
  store ptr %6, ptr %7, align 8
  %8 = getelementptr inbounds nuw %"struct.std::_Rb_tree_const_iterator", ptr %2, i32 0, i32 0
  %9 = load ptr, ptr %8, align 8
  ret ptr %9
}

; Function Attrs: mustprogress nounwind uwtable
define linkonce_odr noundef ptr @_ZNKSt23_Rb_tree_const_iteratorIN7testing11ExpectationEEptEv(ptr noundef nonnull align 8 dereferenceable(8) %0) #7 comdat align 2 {
  %2 = alloca ptr, align 8
  store ptr %0, ptr %2, align 8, !tbaa !211
  %3 = load ptr, ptr %2, align 8
  %4 = getelementptr inbounds nuw %"struct.std::_Rb_tree_const_iterator", ptr %3, i32 0, i32 0
  %5 = load ptr, ptr %4, align 8, !tbaa !213
  %6 = call noundef ptr @_ZNKSt13_Rb_tree_nodeIN7testing11ExpectationEE9_M_valptrEv(ptr noundef nonnull align 8 dereferenceable(48) %5)
  ret ptr %6
}

; Function Attrs: mustprogress nounwind uwtable
define linkonce_odr noundef nonnull align 8 dereferenceable(16) ptr @_ZNK7testing11Expectation16expectation_baseEv(ptr noundef nonnull align 8 dereferenceable(16) %0) #7 comdat align 2 {
  %2 = alloca ptr, align 8
  store ptr %0, ptr %2, align 8, !tbaa !215
  %3 = load ptr, ptr %2, align 8
  %4 = getelementptr inbounds nuw %"class.testing::Expectation", ptr %3, i32 0, i32 0
  ret ptr %4
}

; Function Attrs: mustprogress nounwind uwtable
define linkonce_odr noundef ptr @_ZNKSt12__shared_ptrIN7testing8internal15ExpectationBaseELN9__gnu_cxx12_Lock_policyE2EE3getEv(ptr noundef nonnull align 8 dereferenceable(16) %0) #7 comdat align 2 {
  %2 = alloca ptr, align 8
  store ptr %0, ptr %2, align 8, !tbaa !217
  %3 = load ptr, ptr %2, align 8
  %4 = getelementptr inbounds nuw %"class.std::__shared_ptr.41", ptr %3, i32 0, i32 0
  %5 = load ptr, ptr %4, align 8, !tbaa !219
  ret ptr %5
}

; Function Attrs: mustprogress uwtable
define linkonce_odr void @_ZN7testing8internal15ExpectationBase6RetireEv(ptr noundef nonnull align 8 dereferenceable(264) %0) #4 comdat align 2 {
  %2 = alloca ptr, align 8
  store ptr %0, ptr %2, align 8, !tbaa !157
  %3 = load ptr, ptr %2, align 8
  call void @_ZNK7testing8internal9MutexBase10AssertHeldEv(ptr noundef nonnull align 8 dereferenceable(56) @_ZN7testing8internal13g_gmock_mutexE)
  %4 = getelementptr inbounds nuw %"class.testing::internal::ExpectationBase", ptr %3, i32 0, i32 9
  store i8 1, ptr %4, align 4, !tbaa !186
  ret void
}

; Function Attrs: mustprogress uwtable
define linkonce_odr void @_ZNSt6vectorIPN7testing8internal15ExpectationBaseESaIS3_EE9push_backERKS3_(ptr noundef nonnull align 8 dereferenceable(24) %0, ptr noundef nonnull align 8 dereferenceable(8) %1) #4 comdat align 2 {
  %3 = alloca ptr, align 8
  %4 = alloca ptr, align 8
  %5 = alloca %"class.__gnu_cxx::__normal_iterator.143", align 8
  store ptr %0, ptr %3, align 8, !tbaa !205
  store ptr %1, ptr %4, align 8, !tbaa !207
  %6 = load ptr, ptr %3, align 8
  %7 = getelementptr inbounds nuw %"struct.std::_Vector_base.36", ptr %6, i32 0, i32 0
  %8 = getelementptr inbounds nuw %"struct.std::_Vector_base<testing::internal::ExpectationBase *, std::allocator<testing::internal::ExpectationBase *>>::_Vector_impl_data", ptr %7, i32 0, i32 1
  %9 = load ptr, ptr %8, align 8, !tbaa !209
  %10 = getelementptr inbounds nuw %"struct.std::_Vector_base.36", ptr %6, i32 0, i32 0
  %11 = getelementptr inbounds nuw %"struct.std::_Vector_base<testing::internal::ExpectationBase *, std::allocator<testing::internal::ExpectationBase *>>::_Vector_impl_data", ptr %10, i32 0, i32 2
  %12 = load ptr, ptr %11, align 8, !tbaa !221
  %13 = icmp ne ptr %9, %12
  br i1 %13, label %14, label %24

14:                                               ; preds = %2
  %15 = getelementptr inbounds nuw %"struct.std::_Vector_base.36", ptr %6, i32 0, i32 0
  %16 = getelementptr inbounds nuw %"struct.std::_Vector_base.36", ptr %6, i32 0, i32 0
  %17 = getelementptr inbounds nuw %"struct.std::_Vector_base<testing::internal::ExpectationBase *, std::allocator<testing::internal::ExpectationBase *>>::_Vector_impl_data", ptr %16, i32 0, i32 1
  %18 = load ptr, ptr %17, align 8, !tbaa !209
  %19 = load ptr, ptr %4, align 8, !tbaa !207
  call void @_ZNSt16allocator_traitsISaIPN7testing8internal15ExpectationBaseEEE9constructIS3_JRKS3_EEEvRS4_PT_DpOT0_(ptr noundef nonnull align 1 dereferenceable(1) %15, ptr noundef %18, ptr noundef nonnull align 8 dereferenceable(8) %19) #3
  %20 = getelementptr inbounds nuw %"struct.std::_Vector_base.36", ptr %6, i32 0, i32 0
  %21 = getelementptr inbounds nuw %"struct.std::_Vector_base<testing::internal::ExpectationBase *, std::allocator<testing::internal::ExpectationBase *>>::_Vector_impl_data", ptr %20, i32 0, i32 1
  %22 = load ptr, ptr %21, align 8, !tbaa !209
  %23 = getelementptr inbounds nuw ptr, ptr %22, i32 1
  store ptr %23, ptr %21, align 8, !tbaa !209
  br label %30

24:                                               ; preds = %2
  %25 = call ptr @_ZNSt6vectorIPN7testing8internal15ExpectationBaseESaIS3_EE3endEv(ptr noundef nonnull align 8 dereferenceable(24) %6) #3
  %26 = getelementptr inbounds nuw %"class.__gnu_cxx::__normal_iterator.143", ptr %5, i32 0, i32 0
  store ptr %25, ptr %26, align 8
  %27 = load ptr, ptr %4, align 8, !tbaa !207
  %28 = getelementptr inbounds nuw %"class.__gnu_cxx::__normal_iterator.143", ptr %5, i32 0, i32 0
  %29 = load ptr, ptr %28, align 8
  call void @_ZNSt6vectorIPN7testing8internal15ExpectationBaseESaIS3_EE17_M_realloc_insertIJRKS3_EEEvN9__gnu_cxx17__normal_iteratorIPS3_S5_EEDpOT_(ptr noundef nonnull align 8 dereferenceable(24) %6, ptr %29, ptr noundef nonnull align 8 dereferenceable(8) %27)
  br label %30

30:                                               ; preds = %24, %14
  ret void
}

; Function Attrs: mustprogress nounwind uwtable
define linkonce_odr noundef nonnull align 8 dereferenceable(8) ptr @_ZNSt23_Rb_tree_const_iteratorIN7testing11ExpectationEEppEv(ptr noundef nonnull align 8 dereferenceable(8) %0) #7 comdat align 2 {
  %2 = alloca ptr, align 8
  store ptr %0, ptr %2, align 8, !tbaa !211
  %3 = load ptr, ptr %2, align 8
  %4 = getelementptr inbounds nuw %"struct.std::_Rb_tree_const_iterator", ptr %3, i32 0, i32 0
  %5 = load ptr, ptr %4, align 8, !tbaa !213
  %6 = call noundef ptr @_ZSt18_Rb_tree_incrementPKSt18_Rb_tree_node_base(ptr noundef %5) #25
  %7 = getelementptr inbounds nuw %"struct.std::_Rb_tree_const_iterator", ptr %3, i32 0, i32 0
  store ptr %6, ptr %7, align 8, !tbaa !213
  ret ptr %3
}

; Function Attrs: mustprogress nounwind uwtable
define linkonce_odr void @_ZNSt6vectorIPN7testing8internal15ExpectationBaseESaIS3_EED2Ev(ptr noundef nonnull align 8 dereferenceable(24) %0) unnamed_addr #7 comdat align 2 personality ptr @__gxx_personality_v0 {
  %2 = alloca ptr, align 8
  store ptr %0, ptr %2, align 8, !tbaa !205
  %3 = load ptr, ptr %2, align 8
  %4 = getelementptr inbounds nuw %"struct.std::_Vector_base.36", ptr %3, i32 0, i32 0
  %5 = getelementptr inbounds nuw %"struct.std::_Vector_base<testing::internal::ExpectationBase *, std::allocator<testing::internal::ExpectationBase *>>::_Vector_impl_data", ptr %4, i32 0, i32 0
  %6 = load ptr, ptr %5, align 8, !tbaa !222
  %7 = getelementptr inbounds nuw %"struct.std::_Vector_base.36", ptr %3, i32 0, i32 0
  %8 = getelementptr inbounds nuw %"struct.std::_Vector_base<testing::internal::ExpectationBase *, std::allocator<testing::internal::ExpectationBase *>>::_Vector_impl_data", ptr %7, i32 0, i32 1
  %9 = load ptr, ptr %8, align 8, !tbaa !209
  %10 = call noundef nonnull align 1 dereferenceable(1) ptr @_ZNSt12_Vector_baseIPN7testing8internal15ExpectationBaseESaIS3_EE19_M_get_Tp_allocatorEv(ptr noundef nonnull align 8 dereferenceable(24) %3) #3
  invoke void @_ZSt8_DestroyIPPN7testing8internal15ExpectationBaseES3_EvT_S5_RSaIT0_E(ptr noundef %6, ptr noundef %9, ptr noundef nonnull align 1 dereferenceable(1) %10)
          to label %11 unwind label %12

11:                                               ; preds = %1
  call void @_ZNSt12_Vector_baseIPN7testing8internal15ExpectationBaseESaIS3_EED2Ev(ptr noundef nonnull align 8 dereferenceable(24) %3) #3
  ret void

12:                                               ; preds = %1
  %13 = landingpad { ptr, i32 }
          catch ptr null
  %14 = extractvalue { ptr, i32 } %13, 0
  call void @__clang_call_terminate(ptr %14) #26
  unreachable
}

; Function Attrs: mustprogress uwtable
